; Listing generated by Microsoft (R) Optimizing Compiler Version 16.00.40219.01 

	TITLE	C:\programovani\WoW Editor\Test\src\Editor\Font.cpp
	.686P
	.XMM
	include listing.inc
	.model	flat

INCLUDELIB MSVCRT
INCLUDELIB OLDNAMES

PUBLIC	?value@?$integral_constant@_N$0A@@tr1@std@@2_NB	; std::tr1::integral_constant<bool,0>::value
PUBLIC	?value@?$integral_constant@_N$00@tr1@std@@2_NB	; std::tr1::integral_constant<bool,1>::value
PUBLIC	?value@?$integral_constant@I$0A@@tr1@std@@2IB	; std::tr1::integral_constant<unsigned int,0>::value
PUBLIC	?_Rank@?$_Arithmetic_traits@_N@std@@2HB		; std::_Arithmetic_traits<bool>::_Rank
PUBLIC	?_Rank@?$_Arithmetic_traits@D@std@@2HB		; std::_Arithmetic_traits<char>::_Rank
PUBLIC	?_Rank@?$_Arithmetic_traits@C@std@@2HB		; std::_Arithmetic_traits<signed char>::_Rank
PUBLIC	?_Rank@?$_Arithmetic_traits@E@std@@2HB		; std::_Arithmetic_traits<unsigned char>::_Rank
PUBLIC	?_Rank@?$_Arithmetic_traits@F@std@@2HB		; std::_Arithmetic_traits<short>::_Rank
PUBLIC	?_Rank@?$_Arithmetic_traits@G@std@@2HB		; std::_Arithmetic_traits<unsigned short>::_Rank
PUBLIC	?_Rank@?$_Arithmetic_traits@H@std@@2HB		; std::_Arithmetic_traits<int>::_Rank
PUBLIC	?_Rank@?$_Arithmetic_traits@I@std@@2HB		; std::_Arithmetic_traits<unsigned int>::_Rank
PUBLIC	?_Rank@?$_Arithmetic_traits@J@std@@2HB		; std::_Arithmetic_traits<long>::_Rank
PUBLIC	?_Rank@?$_Arithmetic_traits@K@std@@2HB		; std::_Arithmetic_traits<unsigned long>::_Rank
PUBLIC	?_Rank@?$_Arithmetic_traits@_J@std@@2HB		; std::_Arithmetic_traits<__int64>::_Rank
PUBLIC	?_Rank@?$_Arithmetic_traits@_K@std@@2HB		; std::_Arithmetic_traits<unsigned __int64>::_Rank
PUBLIC	?_Rank@?$_Arithmetic_traits@M@std@@2HB		; std::_Arithmetic_traits<float>::_Rank
PUBLIC	?_Rank@?$_Arithmetic_traits@N@std@@2HB		; std::_Arithmetic_traits<double>::_Rank
PUBLIC	?_Rank@?$_Arithmetic_traits@O@std@@2HB		; std::_Arithmetic_traits<long double>::_Rank
PUBLIC	?collate@?$_Locbase@H@std@@2HB			; std::_Locbase<int>::collate
PUBLIC	?ctype@?$_Locbase@H@std@@2HB			; std::_Locbase<int>::ctype
PUBLIC	?monetary@?$_Locbase@H@std@@2HB			; std::_Locbase<int>::monetary
PUBLIC	?numeric@?$_Locbase@H@std@@2HB			; std::_Locbase<int>::numeric
PUBLIC	?time@?$_Locbase@H@std@@2HB			; std::_Locbase<int>::time
PUBLIC	?messages@?$_Locbase@H@std@@2HB			; std::_Locbase<int>::messages
PUBLIC	?all@?$_Locbase@H@std@@2HB			; std::_Locbase<int>::all
PUBLIC	?none@?$_Locbase@H@std@@2HB			; std::_Locbase<int>::none
PUBLIC	?skipws@?$_Iosb@H@std@@2W4_Fmtflags@12@B	; std::_Iosb<int>::skipws
PUBLIC	?unitbuf@?$_Iosb@H@std@@2W4_Fmtflags@12@B	; std::_Iosb<int>::unitbuf
PUBLIC	?uppercase@?$_Iosb@H@std@@2W4_Fmtflags@12@B	; std::_Iosb<int>::uppercase
PUBLIC	?showbase@?$_Iosb@H@std@@2W4_Fmtflags@12@B	; std::_Iosb<int>::showbase
PUBLIC	?showpoint@?$_Iosb@H@std@@2W4_Fmtflags@12@B	; std::_Iosb<int>::showpoint
PUBLIC	?showpos@?$_Iosb@H@std@@2W4_Fmtflags@12@B	; std::_Iosb<int>::showpos
PUBLIC	?left@?$_Iosb@H@std@@2W4_Fmtflags@12@B		; std::_Iosb<int>::left
PUBLIC	?right@?$_Iosb@H@std@@2W4_Fmtflags@12@B		; std::_Iosb<int>::right
PUBLIC	?internal@?$_Iosb@H@std@@2W4_Fmtflags@12@B	; std::_Iosb<int>::internal
PUBLIC	?dec@?$_Iosb@H@std@@2W4_Fmtflags@12@B		; std::_Iosb<int>::dec
PUBLIC	?oct@?$_Iosb@H@std@@2W4_Fmtflags@12@B		; std::_Iosb<int>::oct
PUBLIC	?hex@?$_Iosb@H@std@@2W4_Fmtflags@12@B		; std::_Iosb<int>::hex
PUBLIC	?scientific@?$_Iosb@H@std@@2W4_Fmtflags@12@B	; std::_Iosb<int>::scientific
PUBLIC	?fixed@?$_Iosb@H@std@@2W4_Fmtflags@12@B		; std::_Iosb<int>::fixed
PUBLIC	?hexfloat@?$_Iosb@H@std@@2W4_Fmtflags@12@B	; std::_Iosb<int>::hexfloat
PUBLIC	?boolalpha@?$_Iosb@H@std@@2W4_Fmtflags@12@B	; std::_Iosb<int>::boolalpha
PUBLIC	?_Stdio@?$_Iosb@H@std@@2W4_Fmtflags@12@B	; std::_Iosb<int>::_Stdio
PUBLIC	?adjustfield@?$_Iosb@H@std@@2W4_Fmtflags@12@B	; std::_Iosb<int>::adjustfield
PUBLIC	?basefield@?$_Iosb@H@std@@2W4_Fmtflags@12@B	; std::_Iosb<int>::basefield
PUBLIC	?floatfield@?$_Iosb@H@std@@2W4_Fmtflags@12@B	; std::_Iosb<int>::floatfield
PUBLIC	?goodbit@?$_Iosb@H@std@@2W4_Iostate@12@B	; std::_Iosb<int>::goodbit
PUBLIC	?eofbit@?$_Iosb@H@std@@2W4_Iostate@12@B		; std::_Iosb<int>::eofbit
PUBLIC	?failbit@?$_Iosb@H@std@@2W4_Iostate@12@B	; std::_Iosb<int>::failbit
PUBLIC	?badbit@?$_Iosb@H@std@@2W4_Iostate@12@B		; std::_Iosb<int>::badbit
PUBLIC	?_Hardfail@?$_Iosb@H@std@@2W4_Iostate@12@B	; std::_Iosb<int>::_Hardfail
PUBLIC	?in@?$_Iosb@H@std@@2W4_Openmode@12@B		; std::_Iosb<int>::in
PUBLIC	?out@?$_Iosb@H@std@@2W4_Openmode@12@B		; std::_Iosb<int>::out
PUBLIC	?ate@?$_Iosb@H@std@@2W4_Openmode@12@B		; std::_Iosb<int>::ate
PUBLIC	?app@?$_Iosb@H@std@@2W4_Openmode@12@B		; std::_Iosb<int>::app
PUBLIC	?trunc@?$_Iosb@H@std@@2W4_Openmode@12@B		; std::_Iosb<int>::trunc
PUBLIC	?_Nocreate@?$_Iosb@H@std@@2W4_Openmode@12@B	; std::_Iosb<int>::_Nocreate
PUBLIC	?_Noreplace@?$_Iosb@H@std@@2W4_Openmode@12@B	; std::_Iosb<int>::_Noreplace
PUBLIC	?binary@?$_Iosb@H@std@@2W4_Openmode@12@B	; std::_Iosb<int>::binary
PUBLIC	?beg@?$_Iosb@H@std@@2W4_Seekdir@12@B		; std::_Iosb<int>::beg
PUBLIC	?cur@?$_Iosb@H@std@@2W4_Seekdir@12@B		; std::_Iosb<int>::cur
PUBLIC	?end@?$_Iosb@H@std@@2W4_Seekdir@12@B		; std::_Iosb<int>::end
CONST	SEGMENT
$SG70515 DB	'Error opening font %s', 0aH, 00H
CONST	ENDS
;	COMDAT ?end@?$_Iosb@H@std@@2W4_Seekdir@12@B
CONST	SEGMENT
?end@?$_Iosb@H@std@@2W4_Seekdir@12@B DD 02H		; std::_Iosb<int>::end
CONST	ENDS
;	COMDAT ?cur@?$_Iosb@H@std@@2W4_Seekdir@12@B
CONST	SEGMENT
?cur@?$_Iosb@H@std@@2W4_Seekdir@12@B DD 01H		; std::_Iosb<int>::cur
CONST	ENDS
;	COMDAT ?beg@?$_Iosb@H@std@@2W4_Seekdir@12@B
CONST	SEGMENT
?beg@?$_Iosb@H@std@@2W4_Seekdir@12@B DD 00H		; std::_Iosb<int>::beg
CONST	ENDS
;	COMDAT ?binary@?$_Iosb@H@std@@2W4_Openmode@12@B
CONST	SEGMENT
?binary@?$_Iosb@H@std@@2W4_Openmode@12@B DD 020H	; std::_Iosb<int>::binary
CONST	ENDS
;	COMDAT ?_Noreplace@?$_Iosb@H@std@@2W4_Openmode@12@B
CONST	SEGMENT
?_Noreplace@?$_Iosb@H@std@@2W4_Openmode@12@B DD 080H	; std::_Iosb<int>::_Noreplace
CONST	ENDS
;	COMDAT ?_Nocreate@?$_Iosb@H@std@@2W4_Openmode@12@B
CONST	SEGMENT
?_Nocreate@?$_Iosb@H@std@@2W4_Openmode@12@B DD 040H	; std::_Iosb<int>::_Nocreate
CONST	ENDS
;	COMDAT ?trunc@?$_Iosb@H@std@@2W4_Openmode@12@B
CONST	SEGMENT
?trunc@?$_Iosb@H@std@@2W4_Openmode@12@B DD 010H		; std::_Iosb<int>::trunc
CONST	ENDS
;	COMDAT ?app@?$_Iosb@H@std@@2W4_Openmode@12@B
CONST	SEGMENT
?app@?$_Iosb@H@std@@2W4_Openmode@12@B DD 08H		; std::_Iosb<int>::app
CONST	ENDS
;	COMDAT ?ate@?$_Iosb@H@std@@2W4_Openmode@12@B
CONST	SEGMENT
?ate@?$_Iosb@H@std@@2W4_Openmode@12@B DD 04H		; std::_Iosb<int>::ate
CONST	ENDS
;	COMDAT ?out@?$_Iosb@H@std@@2W4_Openmode@12@B
CONST	SEGMENT
?out@?$_Iosb@H@std@@2W4_Openmode@12@B DD 02H		; std::_Iosb<int>::out
CONST	ENDS
;	COMDAT ?in@?$_Iosb@H@std@@2W4_Openmode@12@B
CONST	SEGMENT
?in@?$_Iosb@H@std@@2W4_Openmode@12@B DD 01H		; std::_Iosb<int>::in
CONST	ENDS
;	COMDAT ?_Hardfail@?$_Iosb@H@std@@2W4_Iostate@12@B
CONST	SEGMENT
?_Hardfail@?$_Iosb@H@std@@2W4_Iostate@12@B DD 010H	; std::_Iosb<int>::_Hardfail
CONST	ENDS
;	COMDAT ?badbit@?$_Iosb@H@std@@2W4_Iostate@12@B
CONST	SEGMENT
?badbit@?$_Iosb@H@std@@2W4_Iostate@12@B DD 04H		; std::_Iosb<int>::badbit
CONST	ENDS
;	COMDAT ?failbit@?$_Iosb@H@std@@2W4_Iostate@12@B
CONST	SEGMENT
?failbit@?$_Iosb@H@std@@2W4_Iostate@12@B DD 02H		; std::_Iosb<int>::failbit
CONST	ENDS
;	COMDAT ?eofbit@?$_Iosb@H@std@@2W4_Iostate@12@B
CONST	SEGMENT
?eofbit@?$_Iosb@H@std@@2W4_Iostate@12@B DD 01H		; std::_Iosb<int>::eofbit
CONST	ENDS
;	COMDAT ?goodbit@?$_Iosb@H@std@@2W4_Iostate@12@B
CONST	SEGMENT
?goodbit@?$_Iosb@H@std@@2W4_Iostate@12@B DD 00H		; std::_Iosb<int>::goodbit
CONST	ENDS
;	COMDAT ?floatfield@?$_Iosb@H@std@@2W4_Fmtflags@12@B
CONST	SEGMENT
?floatfield@?$_Iosb@H@std@@2W4_Fmtflags@12@B DD 03000H	; std::_Iosb<int>::floatfield
CONST	ENDS
;	COMDAT ?basefield@?$_Iosb@H@std@@2W4_Fmtflags@12@B
CONST	SEGMENT
?basefield@?$_Iosb@H@std@@2W4_Fmtflags@12@B DD 0e00H	; std::_Iosb<int>::basefield
CONST	ENDS
;	COMDAT ?adjustfield@?$_Iosb@H@std@@2W4_Fmtflags@12@B
CONST	SEGMENT
?adjustfield@?$_Iosb@H@std@@2W4_Fmtflags@12@B DD 01c0H	; std::_Iosb<int>::adjustfield
CONST	ENDS
;	COMDAT ?_Stdio@?$_Iosb@H@std@@2W4_Fmtflags@12@B
CONST	SEGMENT
?_Stdio@?$_Iosb@H@std@@2W4_Fmtflags@12@B DD 08000H	; std::_Iosb<int>::_Stdio
CONST	ENDS
;	COMDAT ?boolalpha@?$_Iosb@H@std@@2W4_Fmtflags@12@B
CONST	SEGMENT
?boolalpha@?$_Iosb@H@std@@2W4_Fmtflags@12@B DD 04000H	; std::_Iosb<int>::boolalpha
CONST	ENDS
;	COMDAT ?hexfloat@?$_Iosb@H@std@@2W4_Fmtflags@12@B
CONST	SEGMENT
?hexfloat@?$_Iosb@H@std@@2W4_Fmtflags@12@B DD 03000H	; std::_Iosb<int>::hexfloat
CONST	ENDS
;	COMDAT ?fixed@?$_Iosb@H@std@@2W4_Fmtflags@12@B
CONST	SEGMENT
?fixed@?$_Iosb@H@std@@2W4_Fmtflags@12@B DD 02000H	; std::_Iosb<int>::fixed
CONST	ENDS
;	COMDAT ?scientific@?$_Iosb@H@std@@2W4_Fmtflags@12@B
CONST	SEGMENT
?scientific@?$_Iosb@H@std@@2W4_Fmtflags@12@B DD 01000H	; std::_Iosb<int>::scientific
CONST	ENDS
;	COMDAT ?hex@?$_Iosb@H@std@@2W4_Fmtflags@12@B
CONST	SEGMENT
?hex@?$_Iosb@H@std@@2W4_Fmtflags@12@B DD 0800H		; std::_Iosb<int>::hex
CONST	ENDS
;	COMDAT ?oct@?$_Iosb@H@std@@2W4_Fmtflags@12@B
CONST	SEGMENT
?oct@?$_Iosb@H@std@@2W4_Fmtflags@12@B DD 0400H		; std::_Iosb<int>::oct
CONST	ENDS
;	COMDAT ?dec@?$_Iosb@H@std@@2W4_Fmtflags@12@B
CONST	SEGMENT
?dec@?$_Iosb@H@std@@2W4_Fmtflags@12@B DD 0200H		; std::_Iosb<int>::dec
CONST	ENDS
;	COMDAT ?internal@?$_Iosb@H@std@@2W4_Fmtflags@12@B
CONST	SEGMENT
?internal@?$_Iosb@H@std@@2W4_Fmtflags@12@B DD 0100H	; std::_Iosb<int>::internal
CONST	ENDS
;	COMDAT ?right@?$_Iosb@H@std@@2W4_Fmtflags@12@B
CONST	SEGMENT
?right@?$_Iosb@H@std@@2W4_Fmtflags@12@B DD 080H		; std::_Iosb<int>::right
CONST	ENDS
;	COMDAT ?left@?$_Iosb@H@std@@2W4_Fmtflags@12@B
CONST	SEGMENT
?left@?$_Iosb@H@std@@2W4_Fmtflags@12@B DD 040H		; std::_Iosb<int>::left
CONST	ENDS
;	COMDAT ?showpos@?$_Iosb@H@std@@2W4_Fmtflags@12@B
CONST	SEGMENT
?showpos@?$_Iosb@H@std@@2W4_Fmtflags@12@B DD 020H	; std::_Iosb<int>::showpos
CONST	ENDS
;	COMDAT ?showpoint@?$_Iosb@H@std@@2W4_Fmtflags@12@B
CONST	SEGMENT
?showpoint@?$_Iosb@H@std@@2W4_Fmtflags@12@B DD 010H	; std::_Iosb<int>::showpoint
CONST	ENDS
;	COMDAT ?showbase@?$_Iosb@H@std@@2W4_Fmtflags@12@B
CONST	SEGMENT
?showbase@?$_Iosb@H@std@@2W4_Fmtflags@12@B DD 08H	; std::_Iosb<int>::showbase
CONST	ENDS
;	COMDAT ?uppercase@?$_Iosb@H@std@@2W4_Fmtflags@12@B
CONST	SEGMENT
?uppercase@?$_Iosb@H@std@@2W4_Fmtflags@12@B DD 04H	; std::_Iosb<int>::uppercase
CONST	ENDS
;	COMDAT ?unitbuf@?$_Iosb@H@std@@2W4_Fmtflags@12@B
CONST	SEGMENT
?unitbuf@?$_Iosb@H@std@@2W4_Fmtflags@12@B DD 02H	; std::_Iosb<int>::unitbuf
CONST	ENDS
;	COMDAT ?skipws@?$_Iosb@H@std@@2W4_Fmtflags@12@B
CONST	SEGMENT
?skipws@?$_Iosb@H@std@@2W4_Fmtflags@12@B DD 01H		; std::_Iosb<int>::skipws
CONST	ENDS
;	COMDAT ?none@?$_Locbase@H@std@@2HB
CONST	SEGMENT
?none@?$_Locbase@H@std@@2HB DD 00H			; std::_Locbase<int>::none
CONST	ENDS
;	COMDAT ?all@?$_Locbase@H@std@@2HB
CONST	SEGMENT
?all@?$_Locbase@H@std@@2HB DD 03fH			; std::_Locbase<int>::all
CONST	ENDS
;	COMDAT ?messages@?$_Locbase@H@std@@2HB
CONST	SEGMENT
?messages@?$_Locbase@H@std@@2HB DD 020H			; std::_Locbase<int>::messages
CONST	ENDS
;	COMDAT ?time@?$_Locbase@H@std@@2HB
CONST	SEGMENT
?time@?$_Locbase@H@std@@2HB DD 010H			; std::_Locbase<int>::time
CONST	ENDS
;	COMDAT ?numeric@?$_Locbase@H@std@@2HB
CONST	SEGMENT
?numeric@?$_Locbase@H@std@@2HB DD 08H			; std::_Locbase<int>::numeric
CONST	ENDS
;	COMDAT ?monetary@?$_Locbase@H@std@@2HB
CONST	SEGMENT
?monetary@?$_Locbase@H@std@@2HB DD 04H			; std::_Locbase<int>::monetary
CONST	ENDS
;	COMDAT ?ctype@?$_Locbase@H@std@@2HB
CONST	SEGMENT
?ctype@?$_Locbase@H@std@@2HB DD 02H			; std::_Locbase<int>::ctype
CONST	ENDS
;	COMDAT ?collate@?$_Locbase@H@std@@2HB
CONST	SEGMENT
?collate@?$_Locbase@H@std@@2HB DD 01H			; std::_Locbase<int>::collate
CONST	ENDS
;	COMDAT ?_Rank@?$_Arithmetic_traits@O@std@@2HB
CONST	SEGMENT
?_Rank@?$_Arithmetic_traits@O@std@@2HB DD 09H		; std::_Arithmetic_traits<long double>::_Rank
CONST	ENDS
;	COMDAT ?_Rank@?$_Arithmetic_traits@N@std@@2HB
CONST	SEGMENT
?_Rank@?$_Arithmetic_traits@N@std@@2HB DD 08H		; std::_Arithmetic_traits<double>::_Rank
CONST	ENDS
;	COMDAT ?_Rank@?$_Arithmetic_traits@M@std@@2HB
CONST	SEGMENT
?_Rank@?$_Arithmetic_traits@M@std@@2HB DD 07H		; std::_Arithmetic_traits<float>::_Rank
CONST	ENDS
;	COMDAT ?_Rank@?$_Arithmetic_traits@_K@std@@2HB
CONST	SEGMENT
?_Rank@?$_Arithmetic_traits@_K@std@@2HB DD 06H		; std::_Arithmetic_traits<unsigned __int64>::_Rank
CONST	ENDS
;	COMDAT ?_Rank@?$_Arithmetic_traits@_J@std@@2HB
CONST	SEGMENT
?_Rank@?$_Arithmetic_traits@_J@std@@2HB DD 06H		; std::_Arithmetic_traits<__int64>::_Rank
CONST	ENDS
;	COMDAT ?_Rank@?$_Arithmetic_traits@K@std@@2HB
CONST	SEGMENT
?_Rank@?$_Arithmetic_traits@K@std@@2HB DD 05H		; std::_Arithmetic_traits<unsigned long>::_Rank
CONST	ENDS
;	COMDAT ?_Rank@?$_Arithmetic_traits@J@std@@2HB
CONST	SEGMENT
?_Rank@?$_Arithmetic_traits@J@std@@2HB DD 05H		; std::_Arithmetic_traits<long>::_Rank
CONST	ENDS
;	COMDAT ?_Rank@?$_Arithmetic_traits@I@std@@2HB
CONST	SEGMENT
?_Rank@?$_Arithmetic_traits@I@std@@2HB DD 04H		; std::_Arithmetic_traits<unsigned int>::_Rank
CONST	ENDS
;	COMDAT ?_Rank@?$_Arithmetic_traits@H@std@@2HB
CONST	SEGMENT
?_Rank@?$_Arithmetic_traits@H@std@@2HB DD 04H		; std::_Arithmetic_traits<int>::_Rank
CONST	ENDS
;	COMDAT ?_Rank@?$_Arithmetic_traits@G@std@@2HB
CONST	SEGMENT
?_Rank@?$_Arithmetic_traits@G@std@@2HB DD 03H		; std::_Arithmetic_traits<unsigned short>::_Rank
CONST	ENDS
;	COMDAT ?_Rank@?$_Arithmetic_traits@F@std@@2HB
CONST	SEGMENT
?_Rank@?$_Arithmetic_traits@F@std@@2HB DD 03H		; std::_Arithmetic_traits<short>::_Rank
CONST	ENDS
;	COMDAT ?_Rank@?$_Arithmetic_traits@E@std@@2HB
CONST	SEGMENT
?_Rank@?$_Arithmetic_traits@E@std@@2HB DD 02H		; std::_Arithmetic_traits<unsigned char>::_Rank
CONST	ENDS
;	COMDAT ?_Rank@?$_Arithmetic_traits@C@std@@2HB
CONST	SEGMENT
?_Rank@?$_Arithmetic_traits@C@std@@2HB DD 02H		; std::_Arithmetic_traits<signed char>::_Rank
CONST	ENDS
;	COMDAT ?_Rank@?$_Arithmetic_traits@D@std@@2HB
CONST	SEGMENT
?_Rank@?$_Arithmetic_traits@D@std@@2HB DD 02H		; std::_Arithmetic_traits<char>::_Rank
CONST	ENDS
;	COMDAT ?_Rank@?$_Arithmetic_traits@_N@std@@2HB
CONST	SEGMENT
?_Rank@?$_Arithmetic_traits@_N@std@@2HB DD 01H		; std::_Arithmetic_traits<bool>::_Rank
CONST	ENDS
;	COMDAT ?value@?$integral_constant@I$0A@@tr1@std@@2IB
CONST	SEGMENT
?value@?$integral_constant@I$0A@@tr1@std@@2IB DD 00H	; std::tr1::integral_constant<unsigned int,0>::value
CONST	ENDS
;	COMDAT ?value@?$integral_constant@_N$00@tr1@std@@2_NB
CONST	SEGMENT
?value@?$integral_constant@_N$00@tr1@std@@2_NB DB 01H	; std::tr1::integral_constant<bool,1>::value
CONST	ENDS
;	COMDAT ?value@?$integral_constant@_N$0A@@tr1@std@@2_NB
CONST	SEGMENT
?value@?$integral_constant@_N$0A@@tr1@std@@2_NB DB 00H	; std::tr1::integral_constant<bool,0>::value
CONST	ENDS
PUBLIC	??_7bad_alloc@std@@6B@				; std::bad_alloc::`vftable'
PUBLIC	??0bad_alloc@std@@QAE@PBD@Z			; std::bad_alloc::bad_alloc
PUBLIC	??_R4bad_alloc@std@@6B@				; std::bad_alloc::`RTTI Complete Object Locator'
PUBLIC	??_R0?AVbad_alloc@std@@@8			; std::bad_alloc `RTTI Type Descriptor'
PUBLIC	??_R3bad_alloc@std@@8				; std::bad_alloc::`RTTI Class Hierarchy Descriptor'
PUBLIC	??_R2bad_alloc@std@@8				; std::bad_alloc::`RTTI Base Class Array'
PUBLIC	??_R1A@?0A@EA@bad_alloc@std@@8			; std::bad_alloc::`RTTI Base Class Descriptor at (0,-1,0,64)'
PUBLIC	??_R1A@?0A@EA@exception@std@@8			; std::exception::`RTTI Base Class Descriptor at (0,-1,0,64)'
PUBLIC	??_R0?AVexception@std@@@8			; std::exception `RTTI Type Descriptor'
PUBLIC	??_R3exception@std@@8				; std::exception::`RTTI Class Hierarchy Descriptor'
PUBLIC	??_R2exception@std@@8				; std::exception::`RTTI Base Class Array'
EXTRN	__imp_??0exception@std@@QAE@ABQBD@Z:PROC
EXTRN	??_7type_info@@6B@:QWORD			; type_info::`vftable'
EXTRN	??_Ebad_alloc@std@@UAEPAXI@Z:PROC		; std::bad_alloc::`vector deleting destructor'
EXTRN	?what@exception@std@@UBEPBDXZ:PROC		; std::exception::what
;	COMDAT ??_R2exception@std@@8
; File c:\program files (x86)\microsoft visual studio 10.0\vc\include\exception
rdata$r	SEGMENT
??_R2exception@std@@8 DD FLAT:??_R1A@?0A@EA@exception@std@@8 ; std::exception::`RTTI Base Class Array'
rdata$r	ENDS
;	COMDAT ??_R3exception@std@@8
rdata$r	SEGMENT
??_R3exception@std@@8 DD 00H				; std::exception::`RTTI Class Hierarchy Descriptor'
	DD	00H
	DD	01H
	DD	FLAT:??_R2exception@std@@8
rdata$r	ENDS
;	COMDAT ??_R0?AVexception@std@@@8
_DATA	SEGMENT
??_R0?AVexception@std@@@8 DD FLAT:??_7type_info@@6B@	; std::exception `RTTI Type Descriptor'
	DD	00H
	DB	'.?AVexception@std@@', 00H
_DATA	ENDS
;	COMDAT ??_R1A@?0A@EA@exception@std@@8
rdata$r	SEGMENT
??_R1A@?0A@EA@exception@std@@8 DD FLAT:??_R0?AVexception@std@@@8 ; std::exception::`RTTI Base Class Descriptor at (0,-1,0,64)'
	DD	00H
	DD	00H
	DD	0ffffffffH
	DD	00H
	DD	040H
	DD	FLAT:??_R3exception@std@@8
rdata$r	ENDS
;	COMDAT ??_R1A@?0A@EA@bad_alloc@std@@8
rdata$r	SEGMENT
??_R1A@?0A@EA@bad_alloc@std@@8 DD FLAT:??_R0?AVbad_alloc@std@@@8 ; std::bad_alloc::`RTTI Base Class Descriptor at (0,-1,0,64)'
	DD	01H
	DD	00H
	DD	0ffffffffH
	DD	00H
	DD	040H
	DD	FLAT:??_R3bad_alloc@std@@8
rdata$r	ENDS
;	COMDAT ??_R2bad_alloc@std@@8
rdata$r	SEGMENT
??_R2bad_alloc@std@@8 DD FLAT:??_R1A@?0A@EA@bad_alloc@std@@8 ; std::bad_alloc::`RTTI Base Class Array'
	DD	FLAT:??_R1A@?0A@EA@exception@std@@8
rdata$r	ENDS
;	COMDAT ??_R3bad_alloc@std@@8
rdata$r	SEGMENT
??_R3bad_alloc@std@@8 DD 00H				; std::bad_alloc::`RTTI Class Hierarchy Descriptor'
	DD	00H
	DD	02H
	DD	FLAT:??_R2bad_alloc@std@@8
rdata$r	ENDS
;	COMDAT ??_R0?AVbad_alloc@std@@@8
_DATA	SEGMENT
??_R0?AVbad_alloc@std@@@8 DD FLAT:??_7type_info@@6B@	; std::bad_alloc `RTTI Type Descriptor'
	DD	00H
	DB	'.?AVbad_alloc@std@@', 00H
_DATA	ENDS
;	COMDAT ??_R4bad_alloc@std@@6B@
rdata$r	SEGMENT
??_R4bad_alloc@std@@6B@ DD 00H				; std::bad_alloc::`RTTI Complete Object Locator'
	DD	00H
	DD	00H
	DD	FLAT:??_R0?AVbad_alloc@std@@@8
	DD	FLAT:??_R3bad_alloc@std@@8
rdata$r	ENDS
;	COMDAT ??_7bad_alloc@std@@6B@
CONST	SEGMENT
??_7bad_alloc@std@@6B@ DD FLAT:??_R4bad_alloc@std@@6B@	; std::bad_alloc::`vftable'
	DD	FLAT:??_Ebad_alloc@std@@UAEPAXI@Z
	DD	FLAT:?what@exception@std@@UBEPBDXZ
; Function compile flags: /Ogtp
CONST	ENDS
;	COMDAT ??0bad_alloc@std@@QAE@PBD@Z
_TEXT	SEGMENT
__Message$ = 8						; size = 4
??0bad_alloc@std@@QAE@PBD@Z PROC			; std::bad_alloc::bad_alloc, COMDAT
; _this$ = ecx
; Line 345
	push	ebp
	mov	ebp, esp
	push	esi
	lea	eax, DWORD PTR __Message$[ebp]
	push	eax
	mov	esi, ecx
	call	DWORD PTR __imp_??0exception@std@@QAE@ABQBD@Z
	mov	DWORD PTR [esi], OFFSET ??_7bad_alloc@std@@6B@
; Line 346
	mov	eax, esi
	pop	esi
	pop	ebp
	ret	4
??0bad_alloc@std@@QAE@PBD@Z ENDP			; std::bad_alloc::bad_alloc
_TEXT	ENDS
PUBLIC	??1bad_alloc@std@@UAE@XZ			; std::bad_alloc::~bad_alloc
EXTRN	__imp_??1exception@std@@UAE@XZ:PROC
; Function compile flags: /Ogtp
;	COMDAT ??1bad_alloc@std@@UAE@XZ
_TEXT	SEGMENT
??1bad_alloc@std@@UAE@XZ PROC				; std::bad_alloc::~bad_alloc, COMDAT
; _this$ = ecx
; Line 354
	mov	DWORD PTR [ecx], OFFSET ??_7bad_alloc@std@@6B@
; Line 355
	jmp	DWORD PTR __imp_??1exception@std@@UAE@XZ
??1bad_alloc@std@@UAE@XZ ENDP				; std::bad_alloc::~bad_alloc
_TEXT	ENDS
EXTRN	??3@YAXPAX@Z:PROC				; operator delete
; Function compile flags: /Ogtp
;	COMDAT ??_Gbad_alloc@std@@UAEPAXI@Z
_TEXT	SEGMENT
___flags$ = 8						; size = 4
??_Gbad_alloc@std@@UAEPAXI@Z PROC			; std::bad_alloc::`scalar deleting destructor', COMDAT
; _this$ = ecx
	push	ebp
	mov	ebp, esp
	push	esi
	mov	esi, ecx
	mov	DWORD PTR [esi], OFFSET ??_7bad_alloc@std@@6B@
	call	DWORD PTR __imp_??1exception@std@@UAE@XZ
	test	BYTE PTR ___flags$[ebp], 1
	je	SHORT $LN6@scalar
	push	esi
	call	??3@YAXPAX@Z				; operator delete
	add	esp, 4
$LN6@scalar:
	mov	eax, esi
	pop	esi
	pop	ebp
	ret	4
??_Gbad_alloc@std@@UAEPAXI@Z ENDP			; std::bad_alloc::`scalar deleting destructor'
_TEXT	ENDS
PUBLIC	?copy@?$char_traits@D@std@@SAPADPADPBDI@Z	; std::char_traits<char>::copy
EXTRN	_memcpy:PROC
; Function compile flags: /Ogtp
;	COMDAT ?copy@?$char_traits@D@std@@SAPADPADPBDI@Z
_TEXT	SEGMENT
__First1$ = 8						; size = 4
__First2$ = 12						; size = 4
__Count$ = 16						; size = 4
?copy@?$char_traits@D@std@@SAPADPADPBDI@Z PROC		; std::char_traits<char>::copy, COMDAT
; File c:\program files (x86)\microsoft visual studio 10.0\vc\include\iosfwd
; Line 496
	push	ebp
	mov	ebp, esp
; Line 498
	pop	ebp
; Line 497
	jmp	_memcpy
?copy@?$char_traits@D@std@@SAPADPADPBDI@Z ENDP		; std::char_traits<char>::copy
_TEXT	ENDS
PUBLIC	?assign@?$char_traits@D@std@@SAPADPADID@Z	; std::char_traits<char>::assign
EXTRN	_memset:PROC
; Function compile flags: /Ogtp
;	COMDAT ?assign@?$char_traits@D@std@@SAPADPADID@Z
_TEXT	SEGMENT
__First$ = 8						; size = 4
__Count$ = 12						; size = 4
__Ch$ = 16						; size = 1
?assign@?$char_traits@D@std@@SAPADPADID@Z PROC		; std::char_traits<char>::assign, COMDAT
; Line 521
	push	ebp
	mov	ebp, esp
; Line 522
	mov	eax, DWORD PTR __Count$[ebp]
	movsx	ecx, BYTE PTR __Ch$[ebp]
	mov	edx, DWORD PTR __First$[ebp]
	push	eax
	push	ecx
	push	edx
	call	_memset
	add	esp, 12					; 0000000cH
; Line 523
	pop	ebp
	ret	0
?assign@?$char_traits@D@std@@SAPADPADID@Z ENDP		; std::char_traits<char>::assign
_TEXT	ENDS
PUBLIC	?assign@?$char_traits@D@std@@SAXAADABD@Z	; std::char_traits<char>::assign
; Function compile flags: /Ogtp
;	COMDAT ?assign@?$char_traits@D@std@@SAXAADABD@Z
_TEXT	SEGMENT
__Left$ = 8						; size = 4
__Right$ = 12						; size = 4
?assign@?$char_traits@D@std@@SAXAADABD@Z PROC		; std::char_traits<char>::assign, COMDAT
; Line 526
	push	ebp
	mov	ebp, esp
; Line 527
	mov	eax, DWORD PTR __Right$[ebp]
	mov	cl, BYTE PTR [eax]
	mov	edx, DWORD PTR __Left$[ebp]
	mov	BYTE PTR [edx], cl
; Line 528
	pop	ebp
	ret	0
?assign@?$char_traits@D@std@@SAXAADABD@Z ENDP		; std::char_traits<char>::assign
_TEXT	ENDS
PUBLIC	?eq_int_type@?$char_traits@D@std@@SA_NABH0@Z	; std::char_traits<char>::eq_int_type
; Function compile flags: /Ogtp
;	COMDAT ?eq_int_type@?$char_traits@D@std@@SA_NABH0@Z
_TEXT	SEGMENT
__Left$ = 8						; size = 4
__Right$ = 12						; size = 4
?eq_int_type@?$char_traits@D@std@@SA_NABH0@Z PROC	; std::char_traits<char>::eq_int_type, COMDAT
; Line 552
	push	ebp
	mov	ebp, esp
; Line 553
	mov	eax, DWORD PTR __Left$[ebp]
	mov	ecx, DWORD PTR [eax]
	mov	edx, DWORD PTR __Right$[ebp]
	xor	eax, eax
	cmp	ecx, DWORD PTR [edx]
	sete	al
; Line 554
	pop	ebp
	ret	0
?eq_int_type@?$char_traits@D@std@@SA_NABH0@Z ENDP	; std::char_traits<char>::eq_int_type
_TEXT	ENDS
PUBLIC	?eof@?$char_traits@D@std@@SAHXZ			; std::char_traits<char>::eof
; Function compile flags: /Ogtp
;	COMDAT ?eof@?$char_traits@D@std@@SAHXZ
_TEXT	SEGMENT
?eof@?$char_traits@D@std@@SAHXZ PROC			; std::char_traits<char>::eof, COMDAT
; Line 563
	or	eax, -1
; Line 564
	ret	0
?eof@?$char_traits@D@std@@SAHXZ ENDP			; std::char_traits<char>::eof
_TEXT	ENDS
PUBLIC	?_Adopt@_Iterator_base0@std@@QAEXPBX@Z		; std::_Iterator_base0::_Adopt
; Function compile flags: /Ogtp
;	COMDAT ?_Adopt@_Iterator_base0@std@@QAEXPBX@Z
_TEXT	SEGMENT
___formal$ = 8						; size = 4
?_Adopt@_Iterator_base0@std@@QAEXPBX@Z PROC		; std::_Iterator_base0::_Adopt, COMDAT
; _this$ = ecx
; File c:\program files (x86)\microsoft visual studio 10.0\vc\include\xutility
; Line 49
	ret	4
?_Adopt@_Iterator_base0@std@@QAEXPBX@Z ENDP		; std::_Iterator_base0::_Adopt
_TEXT	ENDS
PUBLIC	?_Register@facet@locale@std@@QAEXXZ		; std::locale::facet::_Register
EXTRN	?_Facet_Register@facet@locale@std@@CAXPAV123@@Z:PROC ; std::locale::facet::_Facet_Register
; Function compile flags: /Ogtp
;	COMDAT ?_Register@facet@locale@std@@QAEXXZ
_TEXT	SEGMENT
?_Register@facet@locale@std@@QAEXXZ PROC		; std::locale::facet::_Register, COMDAT
; _this$ = ecx
; File c:\program files (x86)\microsoft visual studio 10.0\vc\include\xlocale
; Line 133
	push	ecx
	call	?_Facet_Register@facet@locale@std@@CAXPAV123@@Z ; std::locale::facet::_Facet_Register
	pop	ecx
; Line 135
	ret	0
?_Register@facet@locale@std@@QAEXXZ ENDP		; std::locale::facet::_Register
_TEXT	ENDS
PUBLIC	??1locale@std@@QAE@XZ				; std::locale::~locale
EXTRN	__imp_?_Decref@facet@locale@std@@QAEPAV123@XZ:PROC
; Function compile flags: /Ogtp
;	COMDAT ??1locale@std@@QAE@XZ
_TEXT	SEGMENT
??1locale@std@@QAE@XZ PROC				; std::locale::~locale, COMDAT
; _this$ = ecx
; Line 410
	mov	ecx, DWORD PTR [ecx]
	test	ecx, ecx
	je	SHORT $LN4@locale
; Line 411
	call	DWORD PTR __imp_?_Decref@facet@locale@std@@QAEPAV123@XZ
	test	eax, eax
	je	SHORT $LN4@locale
	mov	edx, DWORD PTR [eax]
	mov	ecx, eax
	mov	eax, DWORD PTR [edx]
	push	1
	call	eax
$LN4@locale:
; Line 412
	ret	0
??1locale@std@@QAE@XZ ENDP				; std::locale::~locale
_TEXT	ENDS
PUBLIC	?_Getfacet@locale@std@@QBEPBVfacet@12@I@Z	; std::locale::_Getfacet
EXTRN	__imp_?_Getgloballocale@locale@std@@CAPAV_Locimp@12@XZ:PROC
; Function compile flags: /Ogtp
;	COMDAT ?_Getfacet@locale@std@@QBEPBVfacet@12@I@Z
_TEXT	SEGMENT
__Id$ = 8						; size = 4
?_Getfacet@locale@std@@QBEPBVfacet@12@I@Z PROC		; std::locale::_Getfacet, COMDAT
; _this$ = ecx
; Line 436
	push	ebp
	mov	ebp, esp
; Line 438
	mov	ecx, DWORD PTR [ecx]
	push	esi
	mov	esi, DWORD PTR __Id$[ebp]
	cmp	esi, DWORD PTR [ecx+12]
	jae	SHORT $LN6@Getfacet
	mov	eax, DWORD PTR [ecx+8]
	mov	eax, DWORD PTR [eax+esi*4]
; Line 439
	test	eax, eax
	jne	SHORT $LN1@Getfacet
$LN10@Getfacet:
	cmp	BYTE PTR [ecx+20], 0
	je	SHORT $LN1@Getfacet
; Line 443
	call	DWORD PTR __imp_?_Getgloballocale@locale@std@@CAPAV_Locimp@12@XZ
; Line 446
	cmp	esi, DWORD PTR [eax+12]
	jae	SHORT $LN8@Getfacet
	mov	ecx, DWORD PTR [eax+8]
	mov	eax, DWORD PTR [ecx+esi*4]
	pop	esi
; Line 448
	pop	ebp
	ret	4
$LN6@Getfacet:
; Line 438
	xor	eax, eax
; Line 439
	jmp	SHORT $LN10@Getfacet
$LN8@Getfacet:
; Line 446
	xor	eax, eax
$LN1@Getfacet:
	pop	esi
; Line 448
	pop	ebp
	ret	4
?_Getfacet@locale@std@@QBEPBVfacet@12@I@Z ENDP		; std::locale::_Getfacet
_TEXT	ENDS
PUBLIC	??1Font@@QAE@XZ					; Font::~Font
; Function compile flags: /Ogtp
_TEXT	SEGMENT
??1Font@@QAE@XZ PROC					; Font::~Font
; _this$ = ecx
; File c:\programovani\wow editor\test\src\editor\font.cpp
; Line 55
	ret	0
??1Font@@QAE@XZ ENDP					; Font::~Font
_TEXT	ENDS
PUBLIC	?drawchar@Font@@IAEXMMD@Z			; Font::drawchar
EXTRN	__imp__glEnd@0:PROC
EXTRN	__imp__glVertex2f@8:PROC
EXTRN	__imp__glTexCoord2f@8:PROC
EXTRN	__imp__glBegin@4:PROC
EXTRN	__fltused:DWORD
; Function compile flags: /Ogtp
_TEXT	SEGMENT
tv255 = -4						; size = 4
_x$ = 8							; size = 4
_y$ = 12						; size = 4
tv230 = 16						; size = 4
tv189 = 16						; size = 4
tv180 = 16						; size = 4
tv145 = 16						; size = 4
_ch$ = 16						; size = 1
?drawchar@Font@@IAEXMMD@Z PROC				; Font::drawchar
; _this$ = ecx
; Line 58
	push	ebp
	mov	ebp, esp
	push	ecx
; Line 59
	mov	al, BYTE PTR _ch$[ebp]
	push	edi
	mov	edi, ecx
	cmp	al, 32					; 00000020H
	je	$LN2@drawchar
; Line 61
	push	ebx
	movsx	eax, al
	push	esi
	lea	eax, DWORD PTR [eax+eax*8]
; Line 63
	push	7
	lea	esi, DWORD PTR [edi+eax*4+16]
	call	DWORD PTR __imp__glBegin@4
; Line 65
	mov	ecx, DWORD PTR [esi+28]
	mov	edx, DWORD PTR [esi+20]
	mov	ebx, DWORD PTR __imp__glTexCoord2f@8
	sub	esp, 8
	mov	DWORD PTR [esp+4], ecx
	mov	DWORD PTR [esp], edx
	call	ebx
; Line 66
	mov	eax, DWORD PTR _y$[ebp]
	mov	ecx, DWORD PTR _x$[ebp]
	sub	esp, 8
	mov	DWORD PTR [esp+4], eax
	mov	DWORD PTR [esp], ecx
	call	DWORD PTR __imp__glVertex2f@8
; Line 68
	mov	edx, DWORD PTR [esi+28]
	mov	eax, DWORD PTR [esi+24]
	sub	esp, 8
	mov	DWORD PTR [esp+4], edx
	mov	DWORD PTR [esp], eax
	call	ebx
; Line 69
	fild	DWORD PTR [esi+12]
	mov	ecx, DWORD PTR _y$[ebp]
	sub	esp, 8
	fmul	DWORD PTR [edi+9232]
	mov	DWORD PTR [esp+4], ecx
	fadd	DWORD PTR _x$[ebp]
	fstp	DWORD PTR tv230[ebp]
	fld	DWORD PTR tv230[ebp]
	fstp	DWORD PTR [esp]
	call	DWORD PTR __imp__glVertex2f@8
; Line 71
	mov	edx, DWORD PTR [esi+32]
	mov	eax, DWORD PTR [esi+24]
	sub	esp, 8
	mov	DWORD PTR [esp+4], edx
	mov	DWORD PTR [esp], eax
	call	ebx
; Line 72
	fild	DWORD PTR [esi+16]
	lea	eax, DWORD PTR [esi+16]
	sub	esp, 8
	fmul	DWORD PTR [edi+9232]
	mov	DWORD PTR tv255[ebp], eax
	fadd	DWORD PTR _y$[ebp]
	fstp	DWORD PTR tv145[ebp]
	fld	DWORD PTR tv145[ebp]
	fstp	DWORD PTR [esp+4]
	fild	DWORD PTR [esi+12]
	fmul	DWORD PTR [edi+9232]
	fadd	DWORD PTR _x$[ebp]
	fstp	DWORD PTR tv180[ebp]
	fld	DWORD PTR tv180[ebp]
	fstp	DWORD PTR [esp]
	call	DWORD PTR __imp__glVertex2f@8
; Line 74
	mov	ecx, DWORD PTR [esi+32]
	mov	edx, DWORD PTR [esi+20]
	sub	esp, 8
	mov	DWORD PTR [esp+4], ecx
	mov	DWORD PTR [esp], edx
	call	ebx
; Line 75
	mov	eax, DWORD PTR tv255[ebp]
	fild	DWORD PTR [eax]
	mov	ecx, DWORD PTR _x$[ebp]
	sub	esp, 8
	fmul	DWORD PTR [edi+9232]
	fadd	DWORD PTR _y$[ebp]
	fstp	DWORD PTR tv189[ebp]
	fld	DWORD PTR tv189[ebp]
	fstp	DWORD PTR [esp+4]
	mov	DWORD PTR [esp], ecx
	call	DWORD PTR __imp__glVertex2f@8
; Line 77
	call	DWORD PTR __imp__glEnd@0
	pop	esi
	pop	ebx
$LN2@drawchar:
	pop	edi
; Line 78
	mov	esp, ebp
	pop	ebp
	ret	12					; 0000000cH
?drawchar@Font@@IAEXMMD@Z ENDP				; Font::drawchar
_TEXT	ENDS
PUBLIC	?textwidth@Font@@QAEHPBD@Z			; Font::textwidth
; Function compile flags: /Ogtp
_TEXT	SEGMENT
_text$ = 8						; size = 4
?textwidth@Font@@QAEHPBD@Z PROC				; Font::textwidth
; _this$ = ecx
; Line 145
	push	ebp
	mov	ebp, esp
; Line 147
	mov	edx, DWORD PTR _text$[ebp]
	push	esi
	push	edi
	mov	edi, edx
; Line 148
	mov	dl, BYTE PTR [edx]
	xor	esi, esi
	xor	eax, eax
	test	dl, dl
	je	SHORT $LN1@textwidth
$LL6@textwidth:
; Line 151
	cmp	dl, 10					; 0000000aH
	je	SHORT $LN4@textwidth
	cmp	dl, 13					; 0000000dH
	je	SHORT $LN4@textwidth
; Line 153
	movsx	edx, dl
	lea	edx, DWORD PTR [edx+edx*8]
	mov	edx, DWORD PTR [ecx+edx*4+28]
	lea	esi, DWORD PTR [esi+edx+2]
; Line 155
	jmp	SHORT $LN3@textwidth
$LN4@textwidth:
; Line 157
	cmp	esi, eax
	jle	SHORT $LN2@textwidth
	mov	eax, esi
$LN2@textwidth:
; Line 158
	xor	esi, esi
$LN3@textwidth:
; Line 148
	mov	dl, BYTE PTR [edi+1]
; Line 160
	inc	edi
	test	dl, dl
	jne	SHORT $LL6@textwidth
; Line 162
	cmp	esi, eax
	jle	SHORT $LN1@textwidth
; Line 163
	mov	eax, esi
$LN1@textwidth:
	pop	edi
	pop	esi
; Line 164
	pop	ebp
	ret	4
?textwidth@Font@@QAEHPBD@Z ENDP				; Font::textwidth
_TEXT	ENDS
PUBLIC	__real@3fb999999999999a
PUBLIC	?setScale@Font@@QAEXM@Z				; Font::setScale
;	COMDAT __real@3fb999999999999a
CONST	SEGMENT
__real@3fb999999999999a DQ 03fb999999999999ar	; 0.1
; Function compile flags: /Ogtp
CONST	ENDS
_TEXT	SEGMENT
_sc$ = 8						; size = 4
?setScale@Font@@QAEXM@Z PROC				; Font::setScale
; _this$ = ecx
; Line 167
	push	ebp
	mov	ebp, esp
; Line 169
	fld	DWORD PTR _sc$[ebp]
	mov	eax, DWORD PTR _sc$[ebp]
	fcomp	QWORD PTR __real@3fb999999999999a
	mov	DWORD PTR [ecx+9232], eax
	fnstsw	ax
	test	ah, 65					; 00000041H
	jp	SHORT $LN1@setScale
; Line 170
	mov	DWORD PTR [ecx+9232], 1065353216	; 3f800000H
$LN1@setScale:
; Line 171
	pop	ebp
	ret	4
?setScale@Font@@QAEXM@Z ENDP				; Font::setScale
_TEXT	ENDS
PUBLIC	?size@?$basic_string@DU?$char_traits@D@std@@V?$allocator@D@2@@std@@QBEIXZ ; std::basic_string<char,std::char_traits<char>,std::allocator<char> >::size
; Function compile flags: /Ogtp
;	COMDAT ?size@?$basic_string@DU?$char_traits@D@std@@V?$allocator@D@2@@std@@QBEIXZ
_TEXT	SEGMENT
?size@?$basic_string@DU?$char_traits@D@std@@V?$allocator@D@2@@std@@QBEIXZ PROC ; std::basic_string<char,std::char_traits<char>,std::allocator<char> >::size, COMDAT
; _this$ = ecx
; File c:\program files (x86)\microsoft visual studio 10.0\vc\include\xstring
; Line 1511
	mov	eax, DWORD PTR [ecx+16]
; Line 1512
	ret	0
?size@?$basic_string@DU?$char_traits@D@std@@V?$allocator@D@2@@std@@QBEIXZ ENDP ; std::basic_string<char,std::char_traits<char>,std::allocator<char> >::size
_TEXT	ENDS
PUBLIC	??1?$_String_val@DV?$allocator@D@std@@@std@@QAE@XZ ; std::_String_val<char,std::allocator<char> >::~_String_val<char,std::allocator<char> >
; Function compile flags: /Ogtp
;	COMDAT ??1?$_String_val@DV?$allocator@D@std@@@std@@QAE@XZ
_TEXT	SEGMENT
??1?$_String_val@DV?$allocator@D@std@@@std@@QAE@XZ PROC	; std::_String_val<char,std::allocator<char> >::~_String_val<char,std::allocator<char> >, COMDAT
; _this$ = ecx
; Line 459
	ret	0
??1?$_String_val@DV?$allocator@D@std@@@std@@QAE@XZ ENDP	; std::_String_val<char,std::allocator<char> >::~_String_val<char,std::allocator<char> >
_TEXT	ENDS
PUBLIC	??0?$allocator@D@std@@QAE@XZ			; std::allocator<char>::allocator<char>
; Function compile flags: /Ogtp
;	COMDAT ??0?$allocator@D@std@@QAE@XZ
_TEXT	SEGMENT
??0?$allocator@D@std@@QAE@XZ PROC			; std::allocator<char>::allocator<char>, COMDAT
; _this$ = ecx
; File c:\program files (x86)\microsoft visual studio 10.0\vc\include\xmemory
; Line 161
	mov	eax, ecx
; Line 163
	ret	0
??0?$allocator@D@std@@QAE@XZ ENDP			; std::allocator<char>::allocator<char>
_TEXT	ENDS
PUBLIC	??0?$allocator@D@std@@QAE@ABV01@@Z		; std::allocator<char>::allocator<char>
; Function compile flags: /Ogtp
;	COMDAT ??0?$allocator@D@std@@QAE@ABV01@@Z
_TEXT	SEGMENT
___formal$ = 8						; size = 4
??0?$allocator@D@std@@QAE@ABV01@@Z PROC			; std::allocator<char>::allocator<char>, COMDAT
; _this$ = ecx
; Line 165
	mov	eax, ecx
; Line 167
	ret	4
??0?$allocator@D@std@@QAE@ABV01@@Z ENDP			; std::allocator<char>::allocator<char>
_TEXT	ENDS
PUBLIC	?is_open@?$basic_filebuf@DU?$char_traits@D@std@@@std@@QBE_NXZ ; std::basic_filebuf<char,std::char_traits<char> >::is_open
; Function compile flags: /Ogtp
;	COMDAT ?is_open@?$basic_filebuf@DU?$char_traits@D@std@@@std@@QBE_NXZ
_TEXT	SEGMENT
?is_open@?$basic_filebuf@DU?$char_traits@D@std@@@std@@QBE_NXZ PROC ; std::basic_filebuf<char,std::char_traits<char> >::is_open, COMDAT
; _this$ = ecx
; File c:\program files (x86)\microsoft visual studio 10.0\vc\include\fstream
; Line 212
	xor	eax, eax
	cmp	DWORD PTR [ecx+84], eax
	setne	al
; Line 213
	ret	0
?is_open@?$basic_filebuf@DU?$char_traits@D@std@@@std@@QBE_NXZ ENDP ; std::basic_filebuf<char,std::char_traits<char> >::is_open
_TEXT	ENDS
PUBLIC	?_Stinit@?1??_Init@?$basic_filebuf@DU?$char_traits@D@std@@@std@@IAEXPAU_iobuf@@W4_Initfl@23@@Z@4HA ; `std::basic_filebuf<char,std::char_traits<char> >::_Init'::`2'::_Stinit
PUBLIC	?_Init@?$basic_filebuf@DU?$char_traits@D@std@@@std@@IAEXPAU_iobuf@@W4_Initfl@12@@Z ; std::basic_filebuf<char,std::char_traits<char> >::_Init
EXTRN	__imp_?_Init@?$basic_streambuf@DU?$char_traits@D@std@@@std@@IAEXXZ:PROC
;	COMDAT ?_Stinit@?1??_Init@?$basic_filebuf@DU?$char_traits@D@std@@@std@@IAEXPAU_iobuf@@W4_Initfl@23@@Z@4HA
; File c:\program files (x86)\microsoft visual studio 10.0\vc\include\streambuf
_BSS	SEGMENT
?_Stinit@?1??_Init@?$basic_filebuf@DU?$char_traits@D@std@@@std@@IAEXPAU_iobuf@@W4_Initfl@23@@Z@4HA DD 01H DUP (?) ; `std::basic_filebuf<char,std::char_traits<char> >::_Init'::`2'::_Stinit
; Function compile flags: /Ogtp
_BSS	ENDS
;	COMDAT ?_Init@?$basic_filebuf@DU?$char_traits@D@std@@@std@@IAEXPAU_iobuf@@W4_Initfl@12@@Z
_TEXT	SEGMENT
__File$ = 8						; size = 4
__Which$ = 12						; size = 4
?_Init@?$basic_filebuf@DU?$char_traits@D@std@@@std@@IAEXPAU_iobuf@@W4_Initfl@12@@Z PROC ; std::basic_filebuf<char,std::char_traits<char> >::_Init, COMDAT
; _this$ = ecx
; File c:\program files (x86)\microsoft visual studio 10.0\vc\include\fstream
; Line 555
	push	ebp
	mov	ebp, esp
; Line 558
	cmp	DWORD PTR __Which$[ebp], 1
	push	esi
	mov	esi, ecx
	sete	al
	mov	BYTE PTR [esi+80], al
; Line 559
	mov	BYTE PTR [esi+73], 0
; Line 561
	call	DWORD PTR __imp_?_Init@?$basic_streambuf@DU?$char_traits@D@std@@@std@@IAEXXZ
; Line 570
	mov	eax, DWORD PTR __File$[ebp]
	test	eax, eax
	je	SHORT $LN10@Init
; Line 574
	lea	ecx, DWORD PTR [eax+8]
; Line 578
	mov	DWORD PTR [esi+16], ecx
	mov	DWORD PTR [esi+20], ecx
	lea	ecx, DWORD PTR [eax+4]
	mov	DWORD PTR [esi+32], eax
	mov	DWORD PTR [esi+36], eax
	mov	DWORD PTR [esi+48], ecx
	mov	DWORD PTR [esi+52], ecx
$LN10@Init:
; Line 581
	mov	DWORD PTR [esi+84], eax
; Line 582
	mov	ecx, DWORD PTR ?_Stinit@?1??_Init@?$basic_filebuf@DU?$char_traits@D@std@@@std@@IAEXPAU_iobuf@@W4_Initfl@23@@Z@4HA ; `std::basic_filebuf<char,std::char_traits<char> >::_Init'::`2'::_Stinit
	mov	DWORD PTR [esi+76], ecx
; Line 583
	mov	DWORD PTR [esi+68], 0
	pop	esi
; Line 584
	pop	ebp
	ret	8
?_Init@?$basic_filebuf@DU?$char_traits@D@std@@@std@@IAEXPAU_iobuf@@W4_Initfl@12@@Z ENDP ; std::basic_filebuf<char,std::char_traits<char> >::_Init
_TEXT	ENDS
PUBLIC	?_Initcvt@?$basic_filebuf@DU?$char_traits@D@std@@@std@@IAEXPBV?$codecvt@DDH@2@@Z ; std::basic_filebuf<char,std::char_traits<char> >::_Initcvt
EXTRN	__imp_?always_noconv@codecvt_base@std@@QBE_NXZ:PROC
; Function compile flags: /Ogtp
;	COMDAT ?_Initcvt@?$basic_filebuf@DU?$char_traits@D@std@@@std@@IAEXPBV?$codecvt@DDH@2@@Z
_TEXT	SEGMENT
__Newpcvt$ = 8						; size = 4
?_Initcvt@?$basic_filebuf@DU?$char_traits@D@std@@@std@@IAEXPBV?$codecvt@DDH@2@@Z PROC ; std::basic_filebuf<char,std::char_traits<char> >::_Initcvt, COMDAT
; _this$ = ecx
; Line 628
	push	ebp
	mov	ebp, esp
	push	esi
	push	edi
; Line 629
	mov	edi, DWORD PTR __Newpcvt$[ebp]
	mov	esi, ecx
	mov	ecx, edi
	call	DWORD PTR __imp_?always_noconv@codecvt_base@std@@QBE_NXZ
	test	al, al
	je	SHORT $LN2@Initcvt
; Line 630
	pop	edi
	mov	DWORD PTR [esi+68], 0
	pop	esi
; Line 636
	pop	ebp
	ret	4
$LN2@Initcvt:
; Line 634
	mov	ecx, esi
	mov	DWORD PTR [esi+68], edi
	call	DWORD PTR __imp_?_Init@?$basic_streambuf@DU?$char_traits@D@std@@@std@@IAEXXZ
	pop	edi
	pop	esi
; Line 636
	pop	ebp
	ret	4
?_Initcvt@?$basic_filebuf@DU?$char_traits@D@std@@@std@@IAEXPBV?$codecvt@DDH@2@@Z ENDP ; std::basic_filebuf<char,std::char_traits<char> >::_Initcvt
_TEXT	ENDS
PUBLIC	?_Reset_back@?$basic_filebuf@DU?$char_traits@D@std@@@std@@AAEXXZ ; std::basic_filebuf<char,std::char_traits<char> >::_Reset_back
; Function compile flags: /Ogtp
;	COMDAT ?_Reset_back@?$basic_filebuf@DU?$char_traits@D@std@@@std@@AAEXXZ
_TEXT	SEGMENT
?_Reset_back@?$basic_filebuf@DU?$char_traits@D@std@@@std@@AAEXXZ PROC ; std::basic_filebuf<char,std::char_traits<char> >::_Reset_back, COMDAT
; _this$ = ecx
; Line 641
	mov	edx, DWORD PTR [ecx+16]
	lea	eax, DWORD PTR [ecx+72]
	cmp	DWORD PTR [edx], eax
	jne	SHORT $LN6@Reset_back
; Line 642
	mov	eax, DWORD PTR [ecx+64]
	push	esi
	mov	esi, DWORD PTR [ecx+60]
	mov	DWORD PTR [edx], esi
	mov	edx, DWORD PTR [ecx+32]
	mov	DWORD PTR [edx], eax
	mov	ecx, DWORD PTR [ecx+48]
	sub	eax, eax
	mov	DWORD PTR [ecx], eax
	pop	esi
$LN6@Reset_back:
; Line 643
	ret	0
?_Reset_back@?$basic_filebuf@DU?$char_traits@D@std@@@std@@AAEXXZ ENDP ; std::basic_filebuf<char,std::char_traits<char> >::_Reset_back
_TEXT	ENDS
PUBLIC	?_Myptr@?$basic_string@DU?$char_traits@D@std@@V?$allocator@D@2@@std@@QAEPADXZ ; std::basic_string<char,std::char_traits<char>,std::allocator<char> >::_Myptr
; Function compile flags: /Ogtp
;	COMDAT ?_Myptr@?$basic_string@DU?$char_traits@D@std@@V?$allocator@D@2@@std@@QAEPADXZ
_TEXT	SEGMENT
?_Myptr@?$basic_string@DU?$char_traits@D@std@@V?$allocator@D@2@@std@@QAEPADXZ PROC ; std::basic_string<char,std::char_traits<char>,std::allocator<char> >::_Myptr, COMDAT
; _this$ = ecx
; File c:\program files (x86)\microsoft visual studio 10.0\vc\include\xstring
; Line 2002
	mov	eax, ecx
; Line 2004
	cmp	DWORD PTR [eax+20], 16			; 00000010H
	jb	SHORT $LN4@Myptr
	mov	eax, DWORD PTR [eax]
$LN4@Myptr:
; Line 2005
	ret	0
?_Myptr@?$basic_string@DU?$char_traits@D@std@@V?$allocator@D@2@@std@@QAEPADXZ ENDP ; std::basic_string<char,std::char_traits<char>,std::allocator<char> >::_Myptr
_TEXT	ENDS
PUBLIC	??_C@_0BA@JFNIOLAK@string?5too?5long?$AA@	; `string'
PUBLIC	?_Xlen@?$basic_string@DU?$char_traits@D@std@@V?$allocator@D@2@@std@@QBEXXZ ; std::basic_string<char,std::char_traits<char>,std::allocator<char> >::_Xlen
EXTRN	__imp_?_Xlength_error@std@@YAXPBD@Z:PROC
;	COMDAT ??_C@_0BA@JFNIOLAK@string?5too?5long?$AA@
CONST	SEGMENT
??_C@_0BA@JFNIOLAK@string?5too?5long?$AA@ DB 'string too long', 00H ; `string'
; Function compile flags: /Ogtp
CONST	ENDS
;	COMDAT ?_Xlen@?$basic_string@DU?$char_traits@D@std@@V?$allocator@D@2@@std@@QBEXXZ
_TEXT	SEGMENT
?_Xlen@?$basic_string@DU?$char_traits@D@std@@V?$allocator@D@2@@std@@QBEXXZ PROC ; std::basic_string<char,std::char_traits<char>,std::allocator<char> >::_Xlen, COMDAT
; _this$ = ecx
; Line 2015
	push	OFFSET ??_C@_0BA@JFNIOLAK@string?5too?5long?$AA@
	call	DWORD PTR __imp_?_Xlength_error@std@@YAXPBD@Z
$LN4@Xlen:
$LN3@Xlen:
	int	3
?_Xlen@?$basic_string@DU?$char_traits@D@std@@V?$allocator@D@2@@std@@QBEXXZ ENDP ; std::basic_string<char,std::char_traits<char>,std::allocator<char> >::_Xlen
_TEXT	ENDS
PUBLIC	?deallocate@?$allocator@D@std@@QAEXPADI@Z	; std::allocator<char>::deallocate
; Function compile flags: /Ogtp
;	COMDAT ?deallocate@?$allocator@D@std@@QAEXPADI@Z
_TEXT	SEGMENT
__Ptr$ = 8						; size = 4
___formal$ = 12						; size = 4
?deallocate@?$allocator@D@std@@QAEXPADI@Z PROC		; std::allocator<char>::deallocate, COMDAT
; _this$ = ecx
; File c:\program files (x86)\microsoft visual studio 10.0\vc\include\xmemory
; Line 181
	push	ebp
	mov	ebp, esp
; Line 182
	mov	eax, DWORD PTR __Ptr$[ebp]
	push	eax
	call	??3@YAXPAX@Z				; operator delete
	add	esp, 4
; Line 183
	pop	ebp
	ret	8
?deallocate@?$allocator@D@std@@QAEXPADI@Z ENDP		; std::allocator<char>::deallocate
_TEXT	ENDS
PUBLIC	??D?$_String_const_iterator@DU?$char_traits@D@std@@V?$allocator@D@2@@std@@QBEABDXZ ; std::_String_const_iterator<char,std::char_traits<char>,std::allocator<char> >::operator*
; Function compile flags: /Ogtp
;	COMDAT ??D?$_String_const_iterator@DU?$char_traits@D@std@@V?$allocator@D@2@@std@@QBEABDXZ
_TEXT	SEGMENT
??D?$_String_const_iterator@DU?$char_traits@D@std@@V?$allocator@D@2@@std@@QBEABDXZ PROC ; std::_String_const_iterator<char,std::char_traits<char>,std::allocator<char> >::operator*, COMDAT
; _this$ = ecx
; File c:\program files (x86)\microsoft visual studio 10.0\vc\include\xstring
; Line 92
	mov	eax, DWORD PTR [ecx]
; Line 93
	ret	0
??D?$_String_const_iterator@DU?$char_traits@D@std@@V?$allocator@D@2@@std@@QBEABDXZ ENDP ; std::_String_const_iterator<char,std::char_traits<char>,std::allocator<char> >::operator*
_TEXT	ENDS
PUBLIC	??0?$_String_const_iterator@DU?$char_traits@D@std@@V?$allocator@D@2@@std@@QAE@PBDPBU_Container_base0@1@@Z ; std::_String_const_iterator<char,std::char_traits<char>,std::allocator<char> >::_String_const_iterator<char,std::char_traits<char>,std::allocator<char> >
; Function compile flags: /Ogtp
;	COMDAT ??0?$_String_const_iterator@DU?$char_traits@D@std@@V?$allocator@D@2@@std@@QAE@PBDPBU_Container_base0@1@@Z
_TEXT	SEGMENT
__Parg$ = 8						; size = 4
__Pstring$ = 12						; size = 4
??0?$_String_const_iterator@DU?$char_traits@D@std@@V?$allocator@D@2@@std@@QAE@PBDPBU_Container_base0@1@@Z PROC ; std::_String_const_iterator<char,std::char_traits<char>,std::allocator<char> >::_String_const_iterator<char,std::char_traits<char>,std::allocator<char> >, COMDAT
; _this$ = ecx
; Line 50
	push	ebp
	mov	ebp, esp
	mov	eax, ecx
; Line 53
	mov	ecx, DWORD PTR __Parg$[ebp]
	mov	DWORD PTR [eax], ecx
; Line 54
	pop	ebp
	ret	8
??0?$_String_const_iterator@DU?$char_traits@D@std@@V?$allocator@D@2@@std@@QAE@PBDPBU_Container_base0@1@@Z ENDP ; std::_String_const_iterator<char,std::char_traits<char>,std::allocator<char> >::_String_const_iterator<char,std::char_traits<char>,std::allocator<char> >
_TEXT	ENDS
PUBLIC	?max_size@?$allocator@D@std@@QBEIXZ		; std::allocator<char>::max_size
; Function compile flags: /Ogtp
;	COMDAT ?max_size@?$allocator@D@std@@QBEIXZ
_TEXT	SEGMENT
?max_size@?$allocator@D@std@@QBEIXZ PROC		; std::allocator<char>::max_size, COMDAT
; _this$ = ecx
; File c:\program files (x86)\microsoft visual studio 10.0\vc\include\xmemory
; Line 219
	or	eax, -1
; Line 220
	ret	0
?max_size@?$allocator@D@std@@QBEIXZ ENDP		; std::allocator<char>::max_size
_TEXT	ENDS
PUBLIC	??$max@M@std@@YAABMABM0@Z			; std::max<float>
; Function compile flags: /Ogtp
;	COMDAT ??$max@M@std@@YAABMABM0@Z
_TEXT	SEGMENT
__Left$ = 8						; size = 4
__Right$ = 12						; size = 4
??$max@M@std@@YAABMABM0@Z PROC				; std::max<float>, COMDAT
; File c:\program files (x86)\microsoft visual studio 10.0\vc\include\xutility
; Line 2091
	push	ebp
	mov	ebp, esp
; Line 2092
	mov	ecx, DWORD PTR __Left$[ebp]
	mov	edx, DWORD PTR __Right$[ebp]
	fld	DWORD PTR [ecx]
	fld	DWORD PTR [edx]
	fcompp
	fnstsw	ax
	test	ah, 65					; 00000041H
	mov	eax, edx
	je	SHORT $LN4@max
	mov	eax, ecx
$LN4@max:
; Line 2093
	pop	ebp
	ret	0
??$max@M@std@@YAABMABM0@Z ENDP				; std::max<float>
_TEXT	ENDS
PUBLIC	__TI2?AVbad_cast@std@@
PUBLIC	??_C@_08EPJLHIJG@bad?5cast?$AA@			; `string'
PUBLIC	?_Psave@?$_Facetptr@V?$codecvt@DDH@std@@@std@@2PBVfacet@locale@2@B ; std::_Facetptr<std::codecvt<char,char,int> >::_Psave
PUBLIC	??$use_facet@V?$codecvt@DDH@std@@@std@@YAABV?$codecvt@DDH@0@ABVlocale@0@@Z ; std::use_facet<std::codecvt<char,char,int> >
PUBLIC	__CTA2?AVbad_cast@std@@
PUBLIC	__CT??_R0?AVbad_cast@std@@@8??0bad_cast@std@@QAE@ABV01@@Z12
PUBLIC	??_R0?AVbad_cast@std@@@8			; std::bad_cast `RTTI Type Descriptor'
PUBLIC	__CT??_R0?AVexception@std@@@8??0exception@std@@QAE@ABV01@@Z12
EXTRN	__imp_?_Incref@facet@locale@std@@QAEXXZ:PROC
EXTRN	__imp_??0bad_cast@std@@QAE@PBD@Z:PROC
EXTRN	__imp_?_Getcat@?$codecvt@DDH@std@@SAIPAPBVfacet@locale@2@PBV42@@Z:PROC
EXTRN	__imp_??1_Lockit@std@@QAE@XZ:PROC
EXTRN	__imp_?_Id_cnt@id@locale@std@@0HA:DWORD
EXTRN	__imp_?id@?$codecvt@DDH@std@@2V0locale@2@A:DWORD
EXTRN	__imp_??0_Lockit@std@@QAE@H@Z:PROC
EXTRN	___security_cookie:DWORD
EXTRN	___CxxFrameHandler3:PROC
EXTRN	@__security_check_cookie@4:PROC
EXTRN	__CxxThrowException@8:PROC
EXTRN	??1bad_cast@std@@UAE@XZ:PROC			; std::bad_cast::~bad_cast
EXTRN	??0bad_cast@std@@QAE@ABV01@@Z:PROC		; std::bad_cast::bad_cast
EXTRN	??0exception@std@@QAE@ABV01@@Z:PROC		; std::exception::exception
;	COMDAT ?_Psave@?$_Facetptr@V?$codecvt@DDH@std@@@std@@2PBVfacet@locale@2@B
; File c:\program files (x86)\microsoft visual studio 10.0\vc\include\xlocale
_BSS	SEGMENT
?_Psave@?$_Facetptr@V?$codecvt@DDH@std@@@std@@2PBVfacet@locale@2@B DD 01H DUP (?) ; std::_Facetptr<std::codecvt<char,char,int> >::_Psave
_BSS	ENDS
;	COMDAT __CT??_R0?AVexception@std@@@8??0exception@std@@QAE@ABV01@@Z12
xdata$x	SEGMENT
__CT??_R0?AVexception@std@@@8??0exception@std@@QAE@ABV01@@Z12 DD 00H
	DD	FLAT:??_R0?AVexception@std@@@8
	DD	00H
	DD	0ffffffffH
	ORG $+4
	DD	0cH
	DD	FLAT:??0exception@std@@QAE@ABV01@@Z
xdata$x	ENDS
;	COMDAT ??_R0?AVbad_cast@std@@@8
_DATA	SEGMENT
??_R0?AVbad_cast@std@@@8 DD FLAT:??_7type_info@@6B@	; std::bad_cast `RTTI Type Descriptor'
	DD	00H
	DB	'.?AVbad_cast@std@@', 00H
_DATA	ENDS
;	COMDAT __CT??_R0?AVbad_cast@std@@@8??0bad_cast@std@@QAE@ABV01@@Z12
xdata$x	SEGMENT
__CT??_R0?AVbad_cast@std@@@8??0bad_cast@std@@QAE@ABV01@@Z12 DD 00H
	DD	FLAT:??_R0?AVbad_cast@std@@@8
	DD	00H
	DD	0ffffffffH
	ORG $+4
	DD	0cH
	DD	FLAT:??0bad_cast@std@@QAE@ABV01@@Z
xdata$x	ENDS
;	COMDAT __CTA2?AVbad_cast@std@@
xdata$x	SEGMENT
__CTA2?AVbad_cast@std@@ DD 02H
	DD	FLAT:__CT??_R0?AVbad_cast@std@@@8??0bad_cast@std@@QAE@ABV01@@Z12
	DD	FLAT:__CT??_R0?AVexception@std@@@8??0exception@std@@QAE@ABV01@@Z12
xdata$x	ENDS
;	COMDAT __TI2?AVbad_cast@std@@
xdata$x	SEGMENT
__TI2?AVbad_cast@std@@ DD 00H
	DD	FLAT:??1bad_cast@std@@UAE@XZ
	DD	00H
	DD	FLAT:__CTA2?AVbad_cast@std@@
xdata$x	ENDS
;	COMDAT ??_C@_08EPJLHIJG@bad?5cast?$AA@
CONST	SEGMENT
??_C@_08EPJLHIJG@bad?5cast?$AA@ DB 'bad cast', 00H	; `string'
CONST	ENDS
;	COMDAT xdata$x
xdata$x	SEGMENT
__unwindtable$??$use_facet@V?$codecvt@DDH@std@@@std@@YAABV?$codecvt@DDH@0@ABVlocale@0@@Z DD 0ffffffffH
	DD	FLAT:__unwindfunclet$??$use_facet@V?$codecvt@DDH@std@@@std@@YAABV?$codecvt@DDH@0@ABVlocale@0@@Z$0
__ehfuncinfo$??$use_facet@V?$codecvt@DDH@std@@@std@@YAABV?$codecvt@DDH@0@ABVlocale@0@@Z DD 019930522H
	DD	01H
	DD	FLAT:__unwindtable$??$use_facet@V?$codecvt@DDH@std@@@std@@YAABV?$codecvt@DDH@0@ABVlocale@0@@Z
	DD	2 DUP(00H)
	DD	2 DUP(00H)
	DD	00H
	DD	01H
; Function compile flags: /Ogtp
xdata$x	ENDS
;	COMDAT ??$use_facet@V?$codecvt@DDH@std@@@std@@YAABV?$codecvt@DDH@0@ABVlocale@0@@Z
_TEXT	SEGMENT
$T80684 = -36						; size = 12
__Lock$77054 = -24					; size = 4
__Lock$80692 = -20					; size = 4
__Psave$77055 = -16					; size = 4
__$EHRec$ = -12						; size = 12
__Loc$ = 8						; size = 4
??$use_facet@V?$codecvt@DDH@std@@@std@@YAABV?$codecvt@DDH@0@ABVlocale@0@@Z PROC ; std::use_facet<std::codecvt<char,char,int> >, COMDAT
; Line 504
	push	ebp
	mov	ebp, esp
	push	-1
	push	__ehhandler$??$use_facet@V?$codecvt@DDH@std@@@std@@YAABV?$codecvt@DDH@0@ABVlocale@0@@Z
	mov	eax, DWORD PTR fs:0
	push	eax
	sub	esp, 24					; 00000018H
	push	ebx
	push	esi
	push	edi
	mov	eax, DWORD PTR ___security_cookie
	xor	eax, ebp
	push	eax
	lea	eax, DWORD PTR __$EHRec$[ebp]
	mov	DWORD PTR fs:0, eax
; Line 505
	mov	edi, DWORD PTR __imp_??0_Lockit@std@@QAE@H@Z
	push	0
	lea	ecx, DWORD PTR __Lock$77054[ebp]
	call	edi
; Line 507
	mov	eax, DWORD PTR ?_Psave@?$_Facetptr@V?$codecvt@DDH@std@@@std@@2PBVfacet@locale@2@B ; std::_Facetptr<std::codecvt<char,char,int> >::_Psave
; Line 509
	mov	esi, DWORD PTR __imp_?id@?$codecvt@DDH@std@@2V0locale@2@A
	mov	DWORD PTR __Psave$77055[ebp], eax
	cmp	DWORD PTR [esi], 0
	mov	DWORD PTR __$EHRec$[ebp+8], 0
	jne	SHORT $LN11@use_facet
	push	0
	lea	ecx, DWORD PTR __Lock$80692[ebp]
	call	edi
	cmp	DWORD PTR [esi], 0
	jne	SHORT $LN10@use_facet
	mov	eax, DWORD PTR __imp_?_Id_cnt@id@locale@std@@0HA
	inc	DWORD PTR [eax]
	mov	ecx, DWORD PTR __imp_?_Id_cnt@id@locale@std@@0HA
	mov	edx, DWORD PTR [ecx]
	mov	DWORD PTR [esi], edx
$LN10@use_facet:
	lea	ecx, DWORD PTR __Lock$80692[ebp]
	call	DWORD PTR __imp_??1_Lockit@std@@QAE@XZ
$LN11@use_facet:
; Line 510
	mov	ebx, DWORD PTR __Loc$[ebp]
	mov	edi, DWORD PTR [esi]
	mov	eax, DWORD PTR [ebx]
	cmp	edi, DWORD PTR [eax+12]
	jae	SHORT $LN20@use_facet
	mov	ecx, DWORD PTR [eax+8]
	mov	esi, DWORD PTR [ecx+edi*4]
	test	esi, esi
	jne	SHORT $LN28@use_facet
$LN30@use_facet:
	cmp	BYTE PTR [eax+20], 0
	je	SHORT $LN16@use_facet
	call	DWORD PTR __imp_?_Getgloballocale@locale@std@@CAPAV_Locimp@12@XZ
	cmp	edi, DWORD PTR [eax+12]
	jae	SHORT $LN31@use_facet
	mov	edx, DWORD PTR [eax+8]
	mov	esi, DWORD PTR [edx+edi*4]
$LN16@use_facet:
; Line 512
	test	esi, esi
	jne	SHORT $LN28@use_facet
$LN31@use_facet:
; Line 514
	mov	esi, DWORD PTR __Psave$77055[ebp]
	test	esi, esi
; Line 515
	jne	SHORT $LN28@use_facet
; Line 516
	lea	eax, DWORD PTR __Psave$77055[ebp]
	push	ebx
	push	eax
	call	DWORD PTR __imp_?_Getcat@?$codecvt@DDH@std@@SAIPAPBVfacet@locale@2@PBV42@@Z
	add	esp, 8
	cmp	eax, -1
	jne	SHORT $LN2@use_facet
; Line 520
	push	OFFSET ??_C@_08EPJLHIJG@bad?5cast?$AA@
	lea	ecx, DWORD PTR $T80684[ebp]
	call	DWORD PTR __imp_??0bad_cast@std@@QAE@PBD@Z
	push	OFFSET __TI2?AVbad_cast@std@@
	lea	ecx, DWORD PTR $T80684[ebp]
	push	ecx
	call	__CxxThrowException@8
$LN38@use_facet:
; Line 510
$LN20@use_facet:
	xor	esi, esi
	jmp	SHORT $LN30@use_facet
$LN2@use_facet:
; Line 528
	mov	ecx, DWORD PTR __Psave$77055[ebp]
	mov	esi, ecx
; Line 529
	mov	DWORD PTR ?_Psave@?$_Facetptr@V?$codecvt@DDH@std@@@std@@2PBVfacet@locale@2@B, ecx ; std::_Facetptr<std::codecvt<char,char,int> >::_Psave
; Line 531
	mov	edi, ecx
; Line 532
	call	DWORD PTR __imp_?_Incref@facet@locale@std@@QAEXXZ
; Line 533
	push	edi
	call	?_Facet_Register@facet@locale@std@@CAXPAV123@@Z ; std::locale::facet::_Facet_Register
	add	esp, 4
$LN28@use_facet:
; Line 536
	lea	ecx, DWORD PTR __Lock$77054[ebp]
	mov	DWORD PTR __$EHRec$[ebp+8], -1
	call	DWORD PTR __imp_??1_Lockit@std@@QAE@XZ
	mov	eax, esi
; Line 538
	mov	ecx, DWORD PTR __$EHRec$[ebp]
	mov	DWORD PTR fs:0, ecx
	pop	ecx
	pop	edi
	pop	esi
	pop	ebx
	mov	esp, ebp
	pop	ebp
	ret	0
$LN36@use_facet:
_TEXT	ENDS
;	COMDAT text$x
text$x	SEGMENT
__unwindfunclet$??$use_facet@V?$codecvt@DDH@std@@@std@@YAABV?$codecvt@DDH@0@ABVlocale@0@@Z$0:
	lea	ecx, DWORD PTR __Lock$77054[ebp]
	jmp	DWORD PTR __imp_??1_Lockit@std@@QAE@XZ
__ehhandler$??$use_facet@V?$codecvt@DDH@std@@@std@@YAABV?$codecvt@DDH@0@ABVlocale@0@@Z:
	mov	edx, DWORD PTR [esp+8]
	lea	eax, DWORD PTR [edx+12]
	mov	ecx, DWORD PTR [edx-40]
	xor	ecx, eax
	call	@__security_check_cookie@4
	mov	eax, OFFSET __ehfuncinfo$??$use_facet@V?$codecvt@DDH@std@@@std@@YAABV?$codecvt@DDH@0@ABVlocale@0@@Z
	jmp	___CxxFrameHandler3
text$x	ENDS
??$use_facet@V?$codecvt@DDH@std@@@std@@YAABV?$codecvt@DDH@0@ABVlocale@0@@Z ENDP ; std::use_facet<std::codecvt<char,char,int> >
PUBLIC	__TI2?AVbad_alloc@std@@
PUBLIC	??$_Allocate@D@std@@YAPADIPAD@Z			; std::_Allocate<char>
PUBLIC	__CTA2?AVbad_alloc@std@@
PUBLIC	__CT??_R0?AVbad_alloc@std@@@8??0bad_alloc@std@@QAE@ABV01@@Z12
PUBLIC	??0bad_alloc@std@@QAE@ABV01@@Z			; std::bad_alloc::bad_alloc
EXTRN	??2@YAPAXI@Z:PROC				; operator new
;	COMDAT __CT??_R0?AVbad_alloc@std@@@8??0bad_alloc@std@@QAE@ABV01@@Z12
; File c:\program files (x86)\microsoft visual studio 10.0\vc\include\exception
xdata$x	SEGMENT
__CT??_R0?AVbad_alloc@std@@@8??0bad_alloc@std@@QAE@ABV01@@Z12 DD 00H
	DD	FLAT:??_R0?AVbad_alloc@std@@@8
	DD	00H
	DD	0ffffffffH
	ORG $+4
	DD	0cH
	DD	FLAT:??0bad_alloc@std@@QAE@ABV01@@Z
xdata$x	ENDS
;	COMDAT __CTA2?AVbad_alloc@std@@
xdata$x	SEGMENT
__CTA2?AVbad_alloc@std@@ DD 02H
	DD	FLAT:__CT??_R0?AVbad_alloc@std@@@8??0bad_alloc@std@@QAE@ABV01@@Z12
	DD	FLAT:__CT??_R0?AVexception@std@@@8??0exception@std@@QAE@ABV01@@Z12
xdata$x	ENDS
;	COMDAT __TI2?AVbad_alloc@std@@
xdata$x	SEGMENT
__TI2?AVbad_alloc@std@@ DD 00H
	DD	FLAT:??1bad_alloc@std@@UAE@XZ
	DD	00H
	DD	FLAT:__CTA2?AVbad_alloc@std@@
; Function compile flags: /Ogtp
xdata$x	ENDS
;	COMDAT ??$_Allocate@D@std@@YAPADIPAD@Z
_TEXT	SEGMENT
$T80739 = -12						; size = 12
$T80743 = 8						; size = 4
__Count$ = 8						; size = 4
___formal$ = 12						; size = 4
??$_Allocate@D@std@@YAPADIPAD@Z PROC			; std::_Allocate<char>, COMDAT
; File c:\program files (x86)\microsoft visual studio 10.0\vc\include\xmemory
; Line 30
	push	ebp
	mov	ebp, esp
; Line 33
	mov	ecx, DWORD PTR __Count$[ebp]
	sub	esp, 12					; 0000000cH
	xor	eax, eax
	test	ecx, ecx
; Line 35
	je	SHORT $LN5@Allocate
; Line 36
	cmp	ecx, -1
	ja	SHORT $LN1@Allocate
	push	ecx
	call	??2@YAPAXI@Z				; operator new
	add	esp, 4
	test	eax, eax
; Line 39
	jne	SHORT $LN5@Allocate
$LN1@Allocate:
; Line 37
	lea	eax, DWORD PTR $T80743[ebp]
	push	eax
	lea	ecx, DWORD PTR $T80739[ebp]
	mov	DWORD PTR $T80743[ebp], 0
	call	DWORD PTR __imp_??0exception@std@@QAE@ABQBD@Z
	push	OFFSET __TI2?AVbad_alloc@std@@
	lea	ecx, DWORD PTR $T80739[ebp]
	push	ecx
	mov	DWORD PTR $T80739[ebp], OFFSET ??_7bad_alloc@std@@6B@
	call	__CxxThrowException@8
$LN10@Allocate:
$LN5@Allocate:
; Line 40
	mov	esp, ebp
	pop	ebp
	ret	0
$LN9@Allocate:
??$_Allocate@D@std@@YAPADIPAD@Z ENDP			; std::_Allocate<char>
_TEXT	ENDS
EXTRN	__imp_??0exception@std@@QAE@ABV01@@Z:PROC
; Function compile flags: /Ogtp
;	COMDAT ??0bad_alloc@std@@QAE@ABV01@@Z
_TEXT	SEGMENT
___that$ = 8						; size = 4
??0bad_alloc@std@@QAE@ABV01@@Z PROC			; std::bad_alloc::bad_alloc, COMDAT
; _this$ = ecx
	push	ebp
	mov	ebp, esp
	mov	eax, DWORD PTR ___that$[ebp]
	push	esi
	push	eax
	mov	esi, ecx
	call	DWORD PTR __imp_??0exception@std@@QAE@ABV01@@Z
	mov	DWORD PTR [esi], OFFSET ??_7bad_alloc@std@@6B@
	mov	eax, esi
	pop	esi
	pop	ebp
	ret	4
??0bad_alloc@std@@QAE@ABV01@@Z ENDP			; std::bad_alloc::bad_alloc
_TEXT	ENDS
PUBLIC	__real@3f000000
PUBLIC	?drawtext@Font@@QAEXHHPBD@Z			; Font::drawtext
EXTRN	__imp__glBindTexture@8:PROC
;	COMDAT __real@3f000000
; File c:\program files (x86)\microsoft visual studio 10.0\vc\include\xutility
CONST	SEGMENT
__real@3f000000 DD 03f000000r			; 0.5
; Function compile flags: /Ogtp
CONST	ENDS
_TEXT	SEGMENT
_base$ = -4						; size = 4
tv260 = 8						; size = 4
$T80752 = 8						; size = 4
_x$ = 8							; size = 4
tv240 = 12						; size = 4
_xpos$ = 12						; size = 4
_y$ = 12						; size = 4
$T80751 = 16						; size = 4
_text$ = 16						; size = 4
?drawtext@Font@@QAEXHHPBD@Z PROC			; Font::drawtext
; _this$ = ecx
; File c:\programovani\wow editor\test\src\editor\font.cpp
; Line 82
	push	ebp
	mov	ebp, esp
	push	ecx
	push	ebx
	push	esi
	mov	esi, ecx
; Line 83
	mov	eax, DWORD PTR [esi]
	push	edi
	push	eax
	push	3553					; 00000de1H
	call	DWORD PTR __imp__glBindTexture@8
; Line 85
	fild	DWORD PTR [esi+12]
; Line 87
	mov	edi, DWORD PTR _text$[ebp]
; Line 89
	movzx	eax, BYTE PTR [edi]
	fmul	DWORD PTR [esi+9232]
	fiadd	DWORD PTR _y$[ebp]
	fstp	DWORD PTR _base$[ebp]
	fild	DWORD PTR _x$[ebp]
	fstp	DWORD PTR tv240[ebp]
	mov	ebx, DWORD PTR tv240[ebp]
	mov	DWORD PTR _xpos$[ebp], ebx
	test	al, al
	je	$LN3@drawtext
$LL4@drawtext:
; Line 92
	cmp	al, 10					; 0000000aH
	je	SHORT $LN2@drawtext
	cmp	al, 13					; 0000000dH
	je	SHORT $LN2@drawtext
; Line 94
	fld	DWORD PTR _base$[ebp]
	mov	edx, DWORD PTR _xpos$[ebp]
	push	eax
	movsx	eax, al
	lea	ecx, DWORD PTR [eax+eax*8]
	sub	esp, 8
	fild	DWORD PTR [esi+ecx*4+16]
	mov	ecx, esi
	fmul	DWORD PTR [esi+9232]
	fsubp	ST(1), ST(0)
	fstp	DWORD PTR tv260[ebp]
	fld	DWORD PTR tv260[ebp]
	fstp	DWORD PTR [esp+4]
	mov	DWORD PTR [esp], edx
	call	?drawchar@Font@@IAEXMMD@Z		; Font::drawchar
; Line 95
	movsx	eax, BYTE PTR [edi]
	lea	eax, DWORD PTR [eax+eax*8]
	mov	DWORD PTR $T80751[ebp], 1056964608	; 3f000000H
	fild	DWORD PTR [esi+eax*4+28]
	fmul	DWORD PTR [esi+9232]
	fstp	DWORD PTR $T80752[ebp]
	fld	DWORD PTR __real@3f000000
	fcomp	DWORD PTR $T80752[ebp]
	fnstsw	ax
	test	ah, 65					; 00000041H
	lea	eax, DWORD PTR $T80751[ebp]
	je	SHORT $LN10@drawtext
	lea	eax, DWORD PTR $T80752[ebp]
$LN10@drawtext:
	fld	DWORD PTR [esi+9232]
	fadd	ST(0), ST(0)
	fadd	DWORD PTR [eax]
	fadd	DWORD PTR _xpos$[ebp]
	fstp	DWORD PTR _xpos$[ebp]
; Line 97
	jmp	SHORT $LN1@drawtext
$LN2@drawtext:
; Line 99
	fild	DWORD PTR [esi+12]
; Line 100
	mov	DWORD PTR _xpos$[ebp], ebx
	fadd	DWORD PTR _base$[ebp]
	fstp	DWORD PTR _base$[ebp]
$LN1@drawtext:
; Line 102
	mov	al, BYTE PTR [edi+1]
	inc	edi
	test	al, al
	jne	$LL4@drawtext
$LN3@drawtext:
	pop	edi
	pop	esi
	pop	ebx
; Line 104
	mov	esp, ebp
	pop	ebp
	ret	12					; 0000000cH
?drawtext@Font@@QAEXHHPBD@Z ENDP			; Font::drawtext
_TEXT	ENDS
PUBLIC	__$ArrayPad$
PUBLIC	?shdrawtext@Font@@QAEXHHPBD@Z			; Font::shdrawtext
EXTRN	__imp__glColor4fv@4:PROC
EXTRN	__imp__glColor4f@16:PROC
EXTRN	__imp__glGetFloatv@8:PROC
EXTRN	__ftol2_sse_excpt:PROC
; Function compile flags: /Ogtp
_TEXT	SEGMENT
_col$ = -20						; size = 16
__$ArrayPad$ = -4					; size = 4
_x$ = 8							; size = 4
_y$ = 12						; size = 4
_text$ = 16						; size = 4
?shdrawtext@Font@@QAEXHHPBD@Z PROC			; Font::shdrawtext
; _this$ = ecx
; Line 107
	push	ebp
	mov	ebp, esp
	sub	esp, 20					; 00000014H
	mov	eax, DWORD PTR ___security_cookie
	xor	eax, ebp
	mov	DWORD PTR __$ArrayPad$[ebp], eax
	push	esi
	push	edi
	mov	edi, DWORD PTR _text$[ebp]
; Line 109
	lea	eax, DWORD PTR _col$[ebp]
	push	eax
	push	2816					; 00000b00H
	mov	esi, ecx
	call	DWORD PTR __imp__glGetFloatv@8
; Line 110
	sub	esp, 16					; 00000010H
	mov	DWORD PTR [esp+12], 1065353216		; 3f800000H
	mov	DWORD PTR [esp+8], 0
	mov	DWORD PTR [esp+4], 0
	mov	DWORD PTR [esp], 0
	call	DWORD PTR __imp__glColor4f@16
; Line 112
	fld	DWORD PTR [esi+9232]
	fadd	ST(0), ST(0)
	push	edi
	fild	DWORD PTR _y$[ebp]
	fadd	ST(0), ST(1)
	call	__ftol2_sse_excpt
	fiadd	DWORD PTR _x$[ebp]
	push	eax
	call	__ftol2_sse_excpt
	push	eax
	mov	ecx, esi
	call	?drawtext@Font@@QAEXHHPBD@Z		; Font::drawtext
; Line 114
	lea	ecx, DWORD PTR _col$[ebp]
	push	ecx
	call	DWORD PTR __imp__glColor4fv@4
; Line 115
	mov	edx, DWORD PTR _y$[ebp]
	mov	eax, DWORD PTR _x$[ebp]
	push	edi
	push	edx
	push	eax
	mov	ecx, esi
	call	?drawtext@Font@@QAEXHHPBD@Z		; Font::drawtext
; Line 116
	mov	ecx, DWORD PTR __$ArrayPad$[ebp]
	pop	edi
	xor	ecx, ebp
	pop	esi
	call	@__security_check_cookie@4
	mov	esp, ebp
	pop	ebp
	ret	12					; 0000000cH
?shdrawtext@Font@@QAEXHHPBD@Z ENDP			; Font::shdrawtext
_TEXT	ENDS
PUBLIC	__$ArrayPad$
PUBLIC	?print@Font@@QAAXHHPBDZZ			; Font::print
EXTRN	__imp__vsprintf:PROC
; Function compile flags: /Ogtp
_TEXT	SEGMENT
_buf$ = -1028						; size = 1024
__$ArrayPad$ = -4					; size = 4
_this$ = 8						; size = 4
_x$ = 12						; size = 4
_y$ = 16						; size = 4
_str$ = 20						; size = 4
?print@Font@@QAAXHHPBDZZ PROC				; Font::print
; Line 119
	push	ebp
	mov	ebp, esp
	sub	esp, 1028				; 00000404H
	mov	eax, DWORD PTR ___security_cookie
	xor	eax, ebp
	mov	DWORD PTR __$ArrayPad$[ebp], eax
; Line 125
	mov	ecx, DWORD PTR _str$[ebp]
	push	esi
	mov	esi, DWORD PTR _this$[ebp]
	lea	eax, DWORD PTR _str$[ebp+4]
	push	eax
	push	ecx
	lea	edx, DWORD PTR _buf$[ebp]
	push	edx
	call	DWORD PTR __imp__vsprintf
; Line 128
	mov	ecx, DWORD PTR _y$[ebp]
	mov	edx, DWORD PTR _x$[ebp]
	add	esp, 12					; 0000000cH
	lea	eax, DWORD PTR _buf$[ebp]
	push	eax
	push	ecx
	push	edx
	mov	ecx, esi
	call	?drawtext@Font@@QAEXHHPBD@Z		; Font::drawtext
; Line 129
	mov	ecx, DWORD PTR __$ArrayPad$[ebp]
	xor	ecx, ebp
	pop	esi
	call	@__security_check_cookie@4
	mov	esp, ebp
	pop	ebp
	ret	0
?print@Font@@QAAXHHPBDZZ ENDP				; Font::print
_TEXT	ENDS
PUBLIC	__$ArrayPad$
PUBLIC	?shprint@Font@@QAAXHHPBDZZ			; Font::shprint
; Function compile flags: /Ogtp
_TEXT	SEGMENT
_buf$ = -1028						; size = 1024
__$ArrayPad$ = -4					; size = 4
_this$ = 8						; size = 4
_x$ = 12						; size = 4
_y$ = 16						; size = 4
_str$ = 20						; size = 4
?shprint@Font@@QAAXHHPBDZZ PROC				; Font::shprint
; Line 132
	push	ebp
	mov	ebp, esp
	sub	esp, 1028				; 00000404H
	mov	eax, DWORD PTR ___security_cookie
	xor	eax, ebp
	mov	DWORD PTR __$ArrayPad$[ebp], eax
; Line 138
	mov	ecx, DWORD PTR _str$[ebp]
	push	esi
	mov	esi, DWORD PTR _this$[ebp]
	lea	eax, DWORD PTR _str$[ebp+4]
	push	eax
	push	ecx
	lea	edx, DWORD PTR _buf$[ebp]
	push	edx
	call	DWORD PTR __imp__vsprintf
; Line 141
	mov	ecx, DWORD PTR _y$[ebp]
	mov	edx, DWORD PTR _x$[ebp]
	add	esp, 12					; 0000000cH
	lea	eax, DWORD PTR _buf$[ebp]
	push	eax
	push	ecx
	push	edx
	mov	ecx, esi
	call	?shdrawtext@Font@@QAEXHHPBD@Z		; Font::shdrawtext
; Line 142
	mov	ecx, DWORD PTR __$ArrayPad$[ebp]
	xor	ecx, ebp
	pop	esi
	call	@__security_check_cookie@4
	mov	esp, ebp
	pop	ebp
	ret	0
?shprint@Font@@QAAXHHPBDZZ ENDP				; Font::shprint
_TEXT	ENDS
PUBLIC	?is_open@?$basic_ifstream@DU?$char_traits@D@std@@@std@@QBE_NXZ ; std::basic_ifstream<char,std::char_traits<char> >::is_open
; Function compile flags: /Ogtp
;	COMDAT ?is_open@?$basic_ifstream@DU?$char_traits@D@std@@@std@@QBE_NXZ
_TEXT	SEGMENT
?is_open@?$basic_ifstream@DU?$char_traits@D@std@@@std@@QBE_NXZ PROC ; std::basic_ifstream<char,std::char_traits<char> >::is_open, COMDAT
; _this$ = ecx
; File c:\program files (x86)\microsoft visual studio 10.0\vc\include\fstream
; Line 855
	xor	eax, eax
	cmp	DWORD PTR [ecx+100], eax
	setne	al
; Line 856
	ret	0
?is_open@?$basic_ifstream@DU?$char_traits@D@std@@@std@@QBE_NXZ ENDP ; std::basic_ifstream<char,std::char_traits<char> >::is_open
_TEXT	ENDS
PUBLIC	??0?$_String_val@DV?$allocator@D@std@@@std@@QAE@V?$allocator@D@1@@Z ; std::_String_val<char,std::allocator<char> >::_String_val<char,std::allocator<char> >
; Function compile flags: /Ogtp
;	COMDAT ??0?$_String_val@DV?$allocator@D@std@@@std@@QAE@V?$allocator@D@1@@Z
_TEXT	SEGMENT
__Al$ = 8						; size = 1
??0?$_String_val@DV?$allocator@D@std@@@std@@QAE@V?$allocator@D@1@@Z PROC ; std::_String_val<char,std::allocator<char> >::_String_val<char,std::allocator<char> >, COMDAT
; _this$ = ecx
; File c:\program files (x86)\microsoft visual studio 10.0\vc\include\xstring
; Line 454
	mov	eax, ecx
; Line 455
	ret	4
??0?$_String_val@DV?$allocator@D@std@@@std@@QAE@V?$allocator@D@1@@Z ENDP ; std::_String_val<char,std::allocator<char> >::_String_val<char,std::allocator<char> >
_TEXT	ENDS
PUBLIC	??_7?$basic_filebuf@DU?$char_traits@D@std@@@std@@6B@ ; std::basic_filebuf<char,std::char_traits<char> >::`vftable'
PUBLIC	??0?$basic_filebuf@DU?$char_traits@D@std@@@std@@QAE@PAU_iobuf@@@Z ; std::basic_filebuf<char,std::char_traits<char> >::basic_filebuf<char,std::char_traits<char> >
PUBLIC	??_R4?$basic_filebuf@DU?$char_traits@D@std@@@std@@6B@ ; std::basic_filebuf<char,std::char_traits<char> >::`RTTI Complete Object Locator'
PUBLIC	??_R0?AV?$basic_filebuf@DU?$char_traits@D@std@@@std@@@8 ; std::basic_filebuf<char,std::char_traits<char> > `RTTI Type Descriptor'
PUBLIC	??_R3?$basic_filebuf@DU?$char_traits@D@std@@@std@@8 ; std::basic_filebuf<char,std::char_traits<char> >::`RTTI Class Hierarchy Descriptor'
PUBLIC	??_R2?$basic_filebuf@DU?$char_traits@D@std@@@std@@8 ; std::basic_filebuf<char,std::char_traits<char> >::`RTTI Base Class Array'
PUBLIC	??_R1A@?0A@EA@?$basic_filebuf@DU?$char_traits@D@std@@@std@@8 ; std::basic_filebuf<char,std::char_traits<char> >::`RTTI Base Class Descriptor at (0,-1,0,64)'
PUBLIC	??_R1A@?0A@EA@?$basic_streambuf@DU?$char_traits@D@std@@@std@@8 ; std::basic_streambuf<char,std::char_traits<char> >::`RTTI Base Class Descriptor at (0,-1,0,64)'
PUBLIC	??_R0?AV?$basic_streambuf@DU?$char_traits@D@std@@@std@@@8 ; std::basic_streambuf<char,std::char_traits<char> > `RTTI Type Descriptor'
PUBLIC	??_R3?$basic_streambuf@DU?$char_traits@D@std@@@std@@8 ; std::basic_streambuf<char,std::char_traits<char> >::`RTTI Class Hierarchy Descriptor'
PUBLIC	??_R2?$basic_streambuf@DU?$char_traits@D@std@@@std@@8 ; std::basic_streambuf<char,std::char_traits<char> >::`RTTI Base Class Array'
PUBLIC	?_Lock@?$basic_filebuf@DU?$char_traits@D@std@@@std@@UAEXXZ ; std::basic_filebuf<char,std::char_traits<char> >::_Lock
PUBLIC	?_Unlock@?$basic_filebuf@DU?$char_traits@D@std@@@std@@UAEXXZ ; std::basic_filebuf<char,std::char_traits<char> >::_Unlock
PUBLIC	?overflow@?$basic_filebuf@DU?$char_traits@D@std@@@std@@MAEHH@Z ; std::basic_filebuf<char,std::char_traits<char> >::overflow
PUBLIC	?pbackfail@?$basic_filebuf@DU?$char_traits@D@std@@@std@@MAEHH@Z ; std::basic_filebuf<char,std::char_traits<char> >::pbackfail
PUBLIC	?underflow@?$basic_filebuf@DU?$char_traits@D@std@@@std@@MAEHXZ ; std::basic_filebuf<char,std::char_traits<char> >::underflow
PUBLIC	?uflow@?$basic_filebuf@DU?$char_traits@D@std@@@std@@MAEHXZ ; std::basic_filebuf<char,std::char_traits<char> >::uflow
PUBLIC	?seekoff@?$basic_filebuf@DU?$char_traits@D@std@@@std@@MAE?AV?$fpos@H@2@_JHH@Z ; std::basic_filebuf<char,std::char_traits<char> >::seekoff
PUBLIC	?seekpos@?$basic_filebuf@DU?$char_traits@D@std@@@std@@MAE?AV?$fpos@H@2@V32@H@Z ; std::basic_filebuf<char,std::char_traits<char> >::seekpos
PUBLIC	?setbuf@?$basic_filebuf@DU?$char_traits@D@std@@@std@@MAEPAV?$basic_streambuf@DU?$char_traits@D@std@@@2@PAD_J@Z ; std::basic_filebuf<char,std::char_traits<char> >::setbuf
PUBLIC	?sync@?$basic_filebuf@DU?$char_traits@D@std@@@std@@MAEHXZ ; std::basic_filebuf<char,std::char_traits<char> >::sync
PUBLIC	?imbue@?$basic_filebuf@DU?$char_traits@D@std@@@std@@MAEXABVlocale@2@@Z ; std::basic_filebuf<char,std::char_traits<char> >::imbue
EXTRN	__imp_??1?$basic_streambuf@DU?$char_traits@D@std@@@std@@UAE@XZ:PROC
EXTRN	__imp_??0?$basic_streambuf@DU?$char_traits@D@std@@@std@@IAE@XZ:PROC
EXTRN	??_E?$basic_filebuf@DU?$char_traits@D@std@@@std@@UAEPAXI@Z:PROC ; std::basic_filebuf<char,std::char_traits<char> >::`vector deleting destructor'
EXTRN	?showmanyc@?$basic_streambuf@DU?$char_traits@D@std@@@std@@MAE_JXZ:PROC ; std::basic_streambuf<char,std::char_traits<char> >::showmanyc
EXTRN	?xsgetn@?$basic_streambuf@DU?$char_traits@D@std@@@std@@MAE_JPAD_J@Z:PROC ; std::basic_streambuf<char,std::char_traits<char> >::xsgetn
EXTRN	?xsputn@?$basic_streambuf@DU?$char_traits@D@std@@@std@@MAE_JPBD_J@Z:PROC ; std::basic_streambuf<char,std::char_traits<char> >::xsputn
;	COMDAT ??_R2?$basic_streambuf@DU?$char_traits@D@std@@@std@@8
; File c:\program files (x86)\microsoft visual studio 10.0\vc\include\streambuf
rdata$r	SEGMENT
??_R2?$basic_streambuf@DU?$char_traits@D@std@@@std@@8 DD FLAT:??_R1A@?0A@EA@?$basic_streambuf@DU?$char_traits@D@std@@@std@@8 ; std::basic_streambuf<char,std::char_traits<char> >::`RTTI Base Class Array'
rdata$r	ENDS
;	COMDAT ??_R3?$basic_streambuf@DU?$char_traits@D@std@@@std@@8
rdata$r	SEGMENT
??_R3?$basic_streambuf@DU?$char_traits@D@std@@@std@@8 DD 00H ; std::basic_streambuf<char,std::char_traits<char> >::`RTTI Class Hierarchy Descriptor'
	DD	00H
	DD	01H
	DD	FLAT:??_R2?$basic_streambuf@DU?$char_traits@D@std@@@std@@8
rdata$r	ENDS
;	COMDAT ??_R0?AV?$basic_streambuf@DU?$char_traits@D@std@@@std@@@8
_DATA	SEGMENT
??_R0?AV?$basic_streambuf@DU?$char_traits@D@std@@@std@@@8 DD FLAT:??_7type_info@@6B@ ; std::basic_streambuf<char,std::char_traits<char> > `RTTI Type Descriptor'
	DD	00H
	DB	'.?AV?$basic_streambuf@DU?$char_traits@D@std@@@std@@', 00H
_DATA	ENDS
;	COMDAT ??_R1A@?0A@EA@?$basic_streambuf@DU?$char_traits@D@std@@@std@@8
rdata$r	SEGMENT
??_R1A@?0A@EA@?$basic_streambuf@DU?$char_traits@D@std@@@std@@8 DD FLAT:??_R0?AV?$basic_streambuf@DU?$char_traits@D@std@@@std@@@8 ; std::basic_streambuf<char,std::char_traits<char> >::`RTTI Base Class Descriptor at (0,-1,0,64)'
	DD	00H
	DD	00H
	DD	0ffffffffH
	DD	00H
	DD	040H
	DD	FLAT:??_R3?$basic_streambuf@DU?$char_traits@D@std@@@std@@8
rdata$r	ENDS
;	COMDAT ??_R1A@?0A@EA@?$basic_filebuf@DU?$char_traits@D@std@@@std@@8
rdata$r	SEGMENT
??_R1A@?0A@EA@?$basic_filebuf@DU?$char_traits@D@std@@@std@@8 DD FLAT:??_R0?AV?$basic_filebuf@DU?$char_traits@D@std@@@std@@@8 ; std::basic_filebuf<char,std::char_traits<char> >::`RTTI Base Class Descriptor at (0,-1,0,64)'
	DD	01H
	DD	00H
	DD	0ffffffffH
	DD	00H
	DD	040H
	DD	FLAT:??_R3?$basic_filebuf@DU?$char_traits@D@std@@@std@@8
rdata$r	ENDS
;	COMDAT ??_R2?$basic_filebuf@DU?$char_traits@D@std@@@std@@8
rdata$r	SEGMENT
??_R2?$basic_filebuf@DU?$char_traits@D@std@@@std@@8 DD FLAT:??_R1A@?0A@EA@?$basic_filebuf@DU?$char_traits@D@std@@@std@@8 ; std::basic_filebuf<char,std::char_traits<char> >::`RTTI Base Class Array'
	DD	FLAT:??_R1A@?0A@EA@?$basic_streambuf@DU?$char_traits@D@std@@@std@@8
rdata$r	ENDS
;	COMDAT ??_R3?$basic_filebuf@DU?$char_traits@D@std@@@std@@8
rdata$r	SEGMENT
??_R3?$basic_filebuf@DU?$char_traits@D@std@@@std@@8 DD 00H ; std::basic_filebuf<char,std::char_traits<char> >::`RTTI Class Hierarchy Descriptor'
	DD	00H
	DD	02H
	DD	FLAT:??_R2?$basic_filebuf@DU?$char_traits@D@std@@@std@@8
rdata$r	ENDS
;	COMDAT ??_R0?AV?$basic_filebuf@DU?$char_traits@D@std@@@std@@@8
_DATA	SEGMENT
??_R0?AV?$basic_filebuf@DU?$char_traits@D@std@@@std@@@8 DD FLAT:??_7type_info@@6B@ ; std::basic_filebuf<char,std::char_traits<char> > `RTTI Type Descriptor'
	DD	00H
	DB	'.?AV?$basic_filebuf@DU?$char_traits@D@std@@@std@@', 00H
_DATA	ENDS
;	COMDAT ??_R4?$basic_filebuf@DU?$char_traits@D@std@@@std@@6B@
rdata$r	SEGMENT
??_R4?$basic_filebuf@DU?$char_traits@D@std@@@std@@6B@ DD 00H ; std::basic_filebuf<char,std::char_traits<char> >::`RTTI Complete Object Locator'
	DD	00H
	DD	00H
	DD	FLAT:??_R0?AV?$basic_filebuf@DU?$char_traits@D@std@@@std@@@8
	DD	FLAT:??_R3?$basic_filebuf@DU?$char_traits@D@std@@@std@@8
rdata$r	ENDS
;	COMDAT ??_7?$basic_filebuf@DU?$char_traits@D@std@@@std@@6B@
CONST	SEGMENT
??_7?$basic_filebuf@DU?$char_traits@D@std@@@std@@6B@ DD FLAT:??_R4?$basic_filebuf@DU?$char_traits@D@std@@@std@@6B@ ; std::basic_filebuf<char,std::char_traits<char> >::`vftable'
	DD	FLAT:??_E?$basic_filebuf@DU?$char_traits@D@std@@@std@@UAEPAXI@Z
	DD	FLAT:?_Lock@?$basic_filebuf@DU?$char_traits@D@std@@@std@@UAEXXZ
	DD	FLAT:?_Unlock@?$basic_filebuf@DU?$char_traits@D@std@@@std@@UAEXXZ
	DD	FLAT:?overflow@?$basic_filebuf@DU?$char_traits@D@std@@@std@@MAEHH@Z
	DD	FLAT:?pbackfail@?$basic_filebuf@DU?$char_traits@D@std@@@std@@MAEHH@Z
	DD	FLAT:?showmanyc@?$basic_streambuf@DU?$char_traits@D@std@@@std@@MAE_JXZ
	DD	FLAT:?underflow@?$basic_filebuf@DU?$char_traits@D@std@@@std@@MAEHXZ
	DD	FLAT:?uflow@?$basic_filebuf@DU?$char_traits@D@std@@@std@@MAEHXZ
	DD	FLAT:?xsgetn@?$basic_streambuf@DU?$char_traits@D@std@@@std@@MAE_JPAD_J@Z
	DD	FLAT:?xsputn@?$basic_streambuf@DU?$char_traits@D@std@@@std@@MAE_JPBD_J@Z
	DD	FLAT:?seekoff@?$basic_filebuf@DU?$char_traits@D@std@@@std@@MAE?AV?$fpos@H@2@_JHH@Z
	DD	FLAT:?seekpos@?$basic_filebuf@DU?$char_traits@D@std@@@std@@MAE?AV?$fpos@H@2@V32@H@Z
	DD	FLAT:?setbuf@?$basic_filebuf@DU?$char_traits@D@std@@@std@@MAEPAV?$basic_streambuf@DU?$char_traits@D@std@@@2@PAD_J@Z
	DD	FLAT:?sync@?$basic_filebuf@DU?$char_traits@D@std@@@std@@MAEHXZ
	DD	FLAT:?imbue@?$basic_filebuf@DU?$char_traits@D@std@@@std@@MAEXABVlocale@2@@Z
CONST	ENDS
;	COMDAT xdata$x
xdata$x	SEGMENT
__unwindtable$??0?$basic_filebuf@DU?$char_traits@D@std@@@std@@QAE@PAU_iobuf@@@Z DD 0ffffffffH
	DD	FLAT:__unwindfunclet$??0?$basic_filebuf@DU?$char_traits@D@std@@@std@@QAE@PAU_iobuf@@@Z$0
__ehfuncinfo$??0?$basic_filebuf@DU?$char_traits@D@std@@@std@@QAE@PAU_iobuf@@@Z DD 019930522H
	DD	01H
	DD	FLAT:__unwindtable$??0?$basic_filebuf@DU?$char_traits@D@std@@@std@@QAE@PAU_iobuf@@@Z
	DD	2 DUP(00H)
	DD	2 DUP(00H)
	DD	00H
	DD	01H
; Function compile flags: /Ogtp
xdata$x	ENDS
;	COMDAT ??0?$basic_filebuf@DU?$char_traits@D@std@@@std@@QAE@PAU_iobuf@@@Z
_TEXT	SEGMENT
_this$ = -16						; size = 4
__$EHRec$ = -12						; size = 12
__File$ = 8						; size = 4
??0?$basic_filebuf@DU?$char_traits@D@std@@@std@@QAE@PAU_iobuf@@@Z PROC ; std::basic_filebuf<char,std::char_traits<char> >::basic_filebuf<char,std::char_traits<char> >, COMDAT
; _this$ = ecx
; File c:\program files (x86)\microsoft visual studio 10.0\vc\include\fstream
; Line 152
	push	ebp
	mov	ebp, esp
	push	-1
	push	__ehhandler$??0?$basic_filebuf@DU?$char_traits@D@std@@@std@@QAE@PAU_iobuf@@@Z
	mov	eax, DWORD PTR fs:0
	push	eax
	push	ecx
	push	ebx
	push	esi
	mov	eax, DWORD PTR ___security_cookie
	xor	eax, ebp
	push	eax
	lea	eax, DWORD PTR __$EHRec$[ebp]
	mov	DWORD PTR fs:0, eax
	mov	esi, ecx
	mov	DWORD PTR _this$[ebp], esi
	call	DWORD PTR __imp_??0?$basic_streambuf@DU?$char_traits@D@std@@@std@@IAE@XZ
	xor	ebx, ebx
; Line 153
	mov	ecx, esi
	mov	DWORD PTR __$EHRec$[ebp+8], ebx
	mov	DWORD PTR [esi], OFFSET ??_7?$basic_filebuf@DU?$char_traits@D@std@@@std@@6B@
	mov	BYTE PTR [esi+80], bl
	mov	BYTE PTR [esi+73], bl
	call	DWORD PTR __imp_?_Init@?$basic_streambuf@DU?$char_traits@D@std@@@std@@IAEXXZ
	mov	eax, DWORD PTR __File$[ebp]
	cmp	eax, ebx
	je	SHORT $LN13@basic_file
	lea	ecx, DWORD PTR [eax+8]
	mov	DWORD PTR [esi+16], ecx
	mov	DWORD PTR [esi+20], ecx
	lea	ecx, DWORD PTR [eax+4]
	mov	DWORD PTR [esi+32], eax
	mov	DWORD PTR [esi+36], eax
	mov	DWORD PTR [esi+48], ecx
	mov	DWORD PTR [esi+52], ecx
$LN13@basic_file:
	mov	DWORD PTR [esi+84], eax
	mov	eax, DWORD PTR ?_Stinit@?1??_Init@?$basic_filebuf@DU?$char_traits@D@std@@@std@@IAEXPAU_iobuf@@W4_Initfl@23@@Z@4HA
	mov	DWORD PTR [esi+76], eax
	mov	DWORD PTR [esi+68], ebx
; Line 154
	mov	eax, esi
	mov	ecx, DWORD PTR __$EHRec$[ebp]
	mov	DWORD PTR fs:0, ecx
	pop	ecx
	pop	esi
	pop	ebx
	mov	esp, ebp
	pop	ebp
	ret	4
_TEXT	ENDS
;	COMDAT text$x
text$x	SEGMENT
__unwindfunclet$??0?$basic_filebuf@DU?$char_traits@D@std@@@std@@QAE@PAU_iobuf@@@Z$0:
	mov	ecx, DWORD PTR _this$[ebp]
	jmp	DWORD PTR __imp_??1?$basic_streambuf@DU?$char_traits@D@std@@@std@@UAE@XZ
__ehhandler$??0?$basic_filebuf@DU?$char_traits@D@std@@@std@@QAE@PAU_iobuf@@@Z:
	mov	edx, DWORD PTR [esp+8]
	lea	eax, DWORD PTR [edx+12]
	mov	ecx, DWORD PTR [edx-16]
	xor	ecx, eax
	call	@__security_check_cookie@4
	mov	eax, OFFSET __ehfuncinfo$??0?$basic_filebuf@DU?$char_traits@D@std@@@std@@QAE@PAU_iobuf@@@Z
	jmp	___CxxFrameHandler3
text$x	ENDS
??0?$basic_filebuf@DU?$char_traits@D@std@@@std@@QAE@PAU_iobuf@@@Z ENDP ; std::basic_filebuf<char,std::char_traits<char> >::basic_filebuf<char,std::char_traits<char> >
PUBLIC	?move@?$char_traits@D@std@@SAPADPADPBDI@Z	; std::char_traits<char>::move
EXTRN	__imp__memmove:PROC
; Function compile flags: /Ogtp
;	COMDAT ?move@?$char_traits@D@std@@SAPADPADPBDI@Z
_TEXT	SEGMENT
__First1$ = 8						; size = 4
__First2$ = 12						; size = 4
__Count$ = 16						; size = 4
?move@?$char_traits@D@std@@SAPADPADPBDI@Z PROC		; std::char_traits<char>::move, COMDAT
; File c:\program files (x86)\microsoft visual studio 10.0\vc\include\iosfwd
; Line 516
	push	ebp
	mov	ebp, esp
; Line 518
	pop	ebp
; Line 517
	jmp	DWORD PTR __imp__memmove
?move@?$char_traits@D@std@@SAPADPADPBDI@Z ENDP		; std::char_traits<char>::move
_TEXT	ENDS
PUBLIC	?to_char_type@?$char_traits@D@std@@SADABH@Z	; std::char_traits<char>::to_char_type
; Function compile flags: /Ogtp
;	COMDAT ?to_char_type@?$char_traits@D@std@@SADABH@Z
_TEXT	SEGMENT
__Meta$ = 8						; size = 4
?to_char_type@?$char_traits@D@std@@SADABH@Z PROC	; std::char_traits<char>::to_char_type, COMDAT
; Line 541
	push	ebp
	mov	ebp, esp
; Line 542
	mov	eax, DWORD PTR __Meta$[ebp]
	mov	al, BYTE PTR [eax]
; Line 543
	pop	ebp
	ret	0
?to_char_type@?$char_traits@D@std@@SADABH@Z ENDP	; std::char_traits<char>::to_char_type
_TEXT	ENDS
PUBLIC	?to_int_type@?$char_traits@D@std@@SAHABD@Z	; std::char_traits<char>::to_int_type
; Function compile flags: /Ogtp
;	COMDAT ?to_int_type@?$char_traits@D@std@@SAHABD@Z
_TEXT	SEGMENT
__Ch$ = 8						; size = 4
?to_int_type@?$char_traits@D@std@@SAHABD@Z PROC		; std::char_traits<char>::to_int_type, COMDAT
; Line 546
	push	ebp
	mov	ebp, esp
; Line 547
	mov	eax, DWORD PTR __Ch$[ebp]
	movzx	eax, BYTE PTR [eax]
; Line 548
	pop	ebp
	ret	0
?to_int_type@?$char_traits@D@std@@SAHABD@Z ENDP		; std::char_traits<char>::to_int_type
_TEXT	ENDS
PUBLIC	??$_Fgetc@D@std@@YA_NAADPAU_iobuf@@@Z		; std::_Fgetc<char>
EXTRN	__imp__fgetc:PROC
; Function compile flags: /Ogtp
;	COMDAT ??$_Fgetc@D@std@@YA_NAADPAU_iobuf@@@Z
_TEXT	SEGMENT
__Byte$ = 8						; size = 4
__File$ = 12						; size = 4
??$_Fgetc@D@std@@YA_NAADPAU_iobuf@@@Z PROC		; std::_Fgetc<char>, COMDAT
; File c:\program files (x86)\microsoft visual studio 10.0\vc\include\fstream
; Line 35
	push	ebp
	mov	ebp, esp
; Line 37
	mov	eax, DWORD PTR __File$[ebp]
	push	eax
	call	DWORD PTR __imp__fgetc
	add	esp, 4
	cmp	eax, -1
	jne	SHORT $LN2@Fgetc
; Line 38
	xor	al, al
; Line 44
	pop	ebp
	ret	0
$LN2@Fgetc:
; Line 41
	mov	ecx, DWORD PTR __Byte$[ebp]
	mov	BYTE PTR [ecx], al
; Line 42
	mov	al, 1
; Line 44
	pop	ebp
	ret	0
??$_Fgetc@D@std@@YA_NAADPAU_iobuf@@@Z ENDP		; std::_Fgetc<char>
_TEXT	ENDS
PUBLIC	??$_Fputc@D@std@@YA_NDPAU_iobuf@@@Z		; std::_Fputc<char>
EXTRN	__imp__fputc:PROC
; Function compile flags: /Ogtp
;	COMDAT ??$_Fputc@D@std@@YA_NDPAU_iobuf@@@Z
_TEXT	SEGMENT
__Byte$ = 8						; size = 1
__File$ = 12						; size = 4
??$_Fputc@D@std@@YA_NDPAU_iobuf@@@Z PROC		; std::_Fputc<char>, COMDAT
; Line 80
	push	ebp
	mov	ebp, esp
; Line 81
	mov	eax, DWORD PTR __File$[ebp]
	movsx	ecx, BYTE PTR __Byte$[ebp]
	push	eax
	push	ecx
	call	DWORD PTR __imp__fputc
	xor	edx, edx
	add	esp, 8
	cmp	eax, -1
	setne	al
; Line 82
	pop	ebp
	ret	0
??$_Fputc@D@std@@YA_NDPAU_iobuf@@@Z ENDP		; std::_Fputc<char>
_TEXT	ENDS
PUBLIC	??$_Ungetc@D@std@@YA_NABDPAU_iobuf@@@Z		; std::_Ungetc<char>
EXTRN	__imp__ungetc:PROC
; Function compile flags: /Ogtp
;	COMDAT ??$_Ungetc@D@std@@YA_NABDPAU_iobuf@@@Z
_TEXT	SEGMENT
__Byte$ = 8						; size = 4
__File$ = 12						; size = 4
??$_Ungetc@D@std@@YA_NABDPAU_iobuf@@@Z PROC		; std::_Ungetc<char>, COMDAT
; Line 104
	push	ebp
	mov	ebp, esp
; Line 105
	mov	ecx, DWORD PTR __Byte$[ebp]
	mov	eax, DWORD PTR __File$[ebp]
	movzx	edx, BYTE PTR [ecx]
	push	eax
	push	edx
	call	DWORD PTR __imp__ungetc
	xor	ecx, ecx
	add	esp, 8
	cmp	eax, -1
	setne	al
; Line 106
	pop	ebp
	ret	0
??$_Ungetc@D@std@@YA_NABDPAU_iobuf@@@Z ENDP		; std::_Ungetc<char>
_TEXT	ENDS
EXTRN	__imp___lock_file:PROC
; Function compile flags: /Ogtp
;	COMDAT ?_Lock@?$basic_filebuf@DU?$char_traits@D@std@@@std@@UAEXXZ
_TEXT	SEGMENT
?_Lock@?$basic_filebuf@DU?$char_traits@D@std@@@std@@UAEXXZ PROC ; std::basic_filebuf<char,std::char_traits<char> >::_Lock, COMDAT
; _this$ = ecx
; Line 309
	mov	eax, DWORD PTR [ecx+84]
	test	eax, eax
	je	SHORT $LN1@Lock
; Line 310
	push	eax
	call	DWORD PTR __imp___lock_file
	pop	ecx
$LN1@Lock:
; Line 311
	ret	0
?_Lock@?$basic_filebuf@DU?$char_traits@D@std@@@std@@UAEXXZ ENDP ; std::basic_filebuf<char,std::char_traits<char> >::_Lock
_TEXT	ENDS
EXTRN	__imp___unlock_file:PROC
; Function compile flags: /Ogtp
;	COMDAT ?_Unlock@?$basic_filebuf@DU?$char_traits@D@std@@@std@@UAEXXZ
_TEXT	SEGMENT
?_Unlock@?$basic_filebuf@DU?$char_traits@D@std@@@std@@UAEXXZ PROC ; std::basic_filebuf<char,std::char_traits<char> >::_Unlock, COMDAT
; _this$ = ecx
; Line 315
	mov	eax, DWORD PTR [ecx+84]
	test	eax, eax
	je	SHORT $LN1@Unlock
; Line 316
	push	eax
	call	DWORD PTR __imp___unlock_file
	pop	ecx
$LN1@Unlock:
; Line 317
	ret	0
?_Unlock@?$basic_filebuf@DU?$char_traits@D@std@@@std@@UAEXXZ ENDP ; std::basic_filebuf<char,std::char_traits<char> >::_Unlock
; Function compile flags: /Ogtp
_TEXT	ENDS
;	COMDAT ?underflow@?$basic_filebuf@DU?$char_traits@D@std@@@std@@MAEHXZ
_TEXT	SEGMENT
?underflow@?$basic_filebuf@DU?$char_traits@D@std@@@std@@MAEHXZ PROC ; std::basic_filebuf<char,std::char_traits<char> >::underflow, COMDAT
; _this$ = ecx
; Line 408
	push	esi
	mov	esi, ecx
; Line 411
	mov	eax, DWORD PTR [esi+32]
	mov	ecx, DWORD PTR [eax]
	test	ecx, ecx
	je	SHORT $LN4@underflow
	mov	edx, DWORD PTR [esi+48]
	mov	edx, DWORD PTR [edx]
	mov	eax, ecx
	add	edx, eax
	cmp	eax, edx
	jae	SHORT $LN4@underflow
; Line 412
	movzx	eax, BYTE PTR [ecx]
	pop	esi
; Line 420
	ret	0
$LN4@underflow:
; Line 413
	mov	eax, DWORD PTR [esi]
	mov	edx, DWORD PTR [eax+28]
	push	edi
	mov	ecx, esi
	call	edx
	mov	edi, eax
	cmp	edi, -1
	jne	SHORT $LN2@underflow
; Line 414
	pop	edi
	or	eax, eax
	pop	esi
; Line 420
	ret	0
$LN2@underflow:
; Line 417
	mov	eax, DWORD PTR [esi]
	mov	edx, DWORD PTR [eax+16]
	push	edi
	mov	ecx, esi
	call	edx
; Line 418
	mov	eax, edi
	pop	edi
	pop	esi
; Line 420
	ret	0
?underflow@?$basic_filebuf@DU?$char_traits@D@std@@@std@@MAEHXZ ENDP ; std::basic_filebuf<char,std::char_traits<char> >::underflow
_TEXT	ENDS
EXTRN	__imp__fflush:PROC
; Function compile flags: /Ogtp
;	COMDAT ?sync@?$basic_filebuf@DU?$char_traits@D@std@@@std@@MAEHXZ
_TEXT	SEGMENT
?sync@?$basic_filebuf@DU?$char_traits@D@std@@@std@@MAEHXZ PROC ; std::basic_filebuf<char,std::char_traits<char> >::sync, COMDAT
; _this$ = ecx
; Line 543
	push	esi
	mov	esi, ecx
; Line 546
	cmp	DWORD PTR [esi+84], 0
	je	SHORT $LN3@sync
	mov	eax, DWORD PTR [esi]
	mov	edx, DWORD PTR [eax+12]
	push	-1
	call	edx
	cmp	eax, -1
	je	SHORT $LN3@sync
	mov	eax, DWORD PTR [esi+84]
	push	eax
	call	DWORD PTR __imp__fflush
	add	esp, 4
	test	eax, eax
	jns	SHORT $LN3@sync
	or	eax, -1
	pop	esi
; Line 547
	ret	0
$LN3@sync:
; Line 546
	xor	eax, eax
	pop	esi
; Line 547
	ret	0
?sync@?$basic_filebuf@DU?$char_traits@D@std@@@std@@MAEHXZ ENDP ; std::basic_filebuf<char,std::char_traits<char> >::sync
_TEXT	ENDS
PUBLIC	?_Set_back@?$basic_filebuf@DU?$char_traits@D@std@@@std@@AAEXXZ ; std::basic_filebuf<char,std::char_traits<char> >::_Set_back
; Function compile flags: /Ogtp
;	COMDAT ?_Set_back@?$basic_filebuf@DU?$char_traits@D@std@@@std@@AAEXXZ
_TEXT	SEGMENT
?_Set_back@?$basic_filebuf@DU?$char_traits@D@std@@@std@@AAEXXZ PROC ; std::basic_filebuf<char,std::char_traits<char> >::_Set_back, COMDAT
; _this$ = ecx
; Line 647
	mov	edx, DWORD PTR [ecx+16]
	push	esi
	mov	esi, DWORD PTR [edx]
	lea	eax, DWORD PTR [ecx+72]
	cmp	esi, eax
	je	SHORT $LN1@Set_back
; Line 649
	mov	DWORD PTR [ecx+60], esi
; Line 650
	mov	esi, DWORD PTR [ecx+48]
	mov	esi, DWORD PTR [esi]
	push	edi
	mov	edi, DWORD PTR [ecx+32]
	add	esi, DWORD PTR [edi]
	pop	edi
	mov	DWORD PTR [ecx+64], esi
$LN1@Set_back:
; Line 652
	mov	DWORD PTR [edx], eax
	mov	edx, DWORD PTR [ecx+32]
	mov	DWORD PTR [edx], eax
	mov	edx, ecx
	sub	edx, eax
	mov	eax, DWORD PTR [ecx+48]
	add	edx, 73					; 00000049H
	mov	DWORD PTR [eax], edx
	pop	esi
; Line 653
	ret	0
?_Set_back@?$basic_filebuf@DU?$char_traits@D@std@@@std@@AAEXXZ ENDP ; std::basic_filebuf<char,std::char_traits<char> >::_Set_back
_TEXT	ENDS
PUBLIC	??0?$fpos@H@std@@QAE@_J@Z			; std::fpos<int>::fpos<int>
; Function compile flags: /Ogtp
;	COMDAT ??0?$fpos@H@std@@QAE@_J@Z
_TEXT	SEGMENT
__Off$ = 8						; size = 8
??0?$fpos@H@std@@QAE@_J@Z PROC				; std::fpos<int>::fpos<int>, COMDAT
; _this$ = ecx
; File c:\program files (x86)\microsoft visual studio 10.0\vc\include\iosfwd
; Line 40
	push	ebp
	mov	ebp, esp
	mov	edx, DWORD PTR __Off$[ebp+4]
	mov	eax, ecx
	mov	ecx, DWORD PTR __Off$[ebp]
	mov	DWORD PTR [eax], ecx
	xor	ecx, ecx
	mov	DWORD PTR [eax+4], edx
	mov	DWORD PTR [eax+8], ecx
	mov	DWORD PTR [eax+12], ecx
	mov	DWORD PTR [eax+16], ecx
; Line 41
	pop	ebp
	ret	8
??0?$fpos@H@std@@QAE@_J@Z ENDP				; std::fpos<int>::fpos<int>
_TEXT	ENDS
PUBLIC	??0?$fpos@H@std@@QAE@H_J@Z			; std::fpos<int>::fpos<int>
; Function compile flags: /Ogtp
;	COMDAT ??0?$fpos@H@std@@QAE@H_J@Z
_TEXT	SEGMENT
__State$ = 8						; size = 4
__Fileposition$ = 12					; size = 8
??0?$fpos@H@std@@QAE@H_J@Z PROC				; std::fpos<int>::fpos<int>, COMDAT
; _this$ = ecx
; Line 45
	push	ebp
	mov	ebp, esp
	mov	edx, DWORD PTR __Fileposition$[ebp+4]
	mov	eax, ecx
	mov	ecx, DWORD PTR __Fileposition$[ebp]
	mov	DWORD PTR [eax+8], ecx
	mov	ecx, DWORD PTR __State$[ebp]
	mov	DWORD PTR [eax], 0
	mov	DWORD PTR [eax+4], 0
	mov	DWORD PTR [eax+12], edx
	mov	DWORD PTR [eax+16], ecx
; Line 46
	pop	ebp
	ret	12					; 0000000cH
??0?$fpos@H@std@@QAE@H_J@Z ENDP				; std::fpos<int>::fpos<int>
_TEXT	ENDS
PUBLIC	?state@?$fpos@H@std@@QBEHXZ			; std::fpos<int>::state
; Function compile flags: /Ogtp
;	COMDAT ?state@?$fpos@H@std@@QBEHXZ
_TEXT	SEGMENT
?state@?$fpos@H@std@@QBEHXZ PROC			; std::fpos<int>::state, COMDAT
; _this$ = ecx
; Line 50
	mov	eax, DWORD PTR [ecx+16]
; Line 51
	ret	0
?state@?$fpos@H@std@@QBEHXZ ENDP			; std::fpos<int>::state
_TEXT	ENDS
PUBLIC	?seekpos@?$fpos@H@std@@QBE_JXZ			; std::fpos<int>::seekpos
; Function compile flags: /Ogtp
;	COMDAT ?seekpos@?$fpos@H@std@@QBE_JXZ
_TEXT	SEGMENT
?seekpos@?$fpos@H@std@@QBE_JXZ PROC			; std::fpos<int>::seekpos, COMDAT
; _this$ = ecx
; Line 60
	mov	eax, DWORD PTR [ecx+8]
	mov	edx, DWORD PTR [ecx+12]
; Line 61
	ret	0
?seekpos@?$fpos@H@std@@QBE_JXZ ENDP			; std::fpos<int>::seekpos
_TEXT	ENDS
PUBLIC	??B?$fpos@H@std@@QBE_JXZ			; std::fpos<int>::operator __int64
; Function compile flags: /Ogtp
;	COMDAT ??B?$fpos@H@std@@QBE_JXZ
_TEXT	SEGMENT
??B?$fpos@H@std@@QBE_JXZ PROC				; std::fpos<int>::operator __int64, COMDAT
; _this$ = ecx
; Line 65
	mov	eax, DWORD PTR [ecx+8]
	cdq
	add	eax, DWORD PTR [ecx]
	adc	edx, DWORD PTR [ecx+4]
; Line 66
	ret	0
??B?$fpos@H@std@@QBE_JXZ ENDP				; std::fpos<int>::operator __int64
_TEXT	ENDS
PUBLIC	??_C@_0BI@CFPLBAOH@invalid?5string?5position?$AA@ ; `string'
PUBLIC	?_Xran@?$basic_string@DU?$char_traits@D@std@@V?$allocator@D@2@@std@@QBEXXZ ; std::basic_string<char,std::char_traits<char>,std::allocator<char> >::_Xran
EXTRN	__imp_?_Xout_of_range@std@@YAXPBD@Z:PROC
;	COMDAT ??_C@_0BI@CFPLBAOH@invalid?5string?5position?$AA@
; File c:\program files (x86)\microsoft visual studio 10.0\vc\include\xstring
CONST	SEGMENT
??_C@_0BI@CFPLBAOH@invalid?5string?5position?$AA@ DB 'invalid string posi'
	DB	'tion', 00H					; `string'
; Function compile flags: /Ogtp
CONST	ENDS
;	COMDAT ?_Xran@?$basic_string@DU?$char_traits@D@std@@V?$allocator@D@2@@std@@QBEXXZ
_TEXT	SEGMENT
?_Xran@?$basic_string@DU?$char_traits@D@std@@V?$allocator@D@2@@std@@QBEXXZ PROC ; std::basic_string<char,std::char_traits<char>,std::allocator<char> >::_Xran, COMDAT
; _this$ = ecx
; Line 2020
	push	OFFSET ??_C@_0BI@CFPLBAOH@invalid?5string?5position?$AA@
	call	DWORD PTR __imp_?_Xout_of_range@std@@YAXPBD@Z
$LN4@Xran:
$LN3@Xran:
	int	3
?_Xran@?$basic_string@DU?$char_traits@D@std@@V?$allocator@D@2@@std@@QBEXXZ ENDP ; std::basic_string<char,std::char_traits<char>,std::allocator<char> >::_Xran
_TEXT	ENDS
PUBLIC	?not_eof@?$char_traits@D@std@@SAHABH@Z		; std::char_traits<char>::not_eof
; Function compile flags: /Ogtp
;	COMDAT ?not_eof@?$char_traits@D@std@@SAHABH@Z
_TEXT	SEGMENT
__Meta$ = 8						; size = 4
?not_eof@?$char_traits@D@std@@SAHABH@Z PROC		; std::char_traits<char>::not_eof, COMDAT
; File c:\program files (x86)\microsoft visual studio 10.0\vc\include\iosfwd
; Line 557
	push	ebp
	mov	ebp, esp
; Line 558
	mov	eax, DWORD PTR __Meta$[ebp]
	mov	ecx, DWORD PTR [eax]
	lea	eax, DWORD PTR [ecx+1]
	neg	eax
	sbb	eax, eax
	and	eax, ecx
; Line 559
	pop	ebp
	ret	0
?not_eof@?$char_traits@D@std@@SAHABH@Z ENDP		; std::char_traits<char>::not_eof
; Function compile flags: /Ogtp
_TEXT	ENDS
;	COMDAT ?pbackfail@?$basic_filebuf@DU?$char_traits@D@std@@@std@@MAEHH@Z
_TEXT	SEGMENT
__Meta$ = 8						; size = 4
?pbackfail@?$basic_filebuf@DU?$char_traits@D@std@@@std@@MAEHH@Z PROC ; std::basic_filebuf<char,std::char_traits<char> >::pbackfail, COMDAT
; _this$ = ecx
; File c:\program files (x86)\microsoft visual studio 10.0\vc\include\fstream
; Line 383
	push	ebp
	mov	ebp, esp
	push	ebx
; Line 388
	mov	ebx, DWORD PTR __Meta$[ebp]
	push	esi
	mov	esi, ecx
	mov	eax, DWORD PTR [esi+32]
	mov	eax, DWORD PTR [eax]
	test	eax, eax
	je	SHORT $LN10@pbackfail
	mov	ecx, DWORD PTR [esi+16]
	cmp	DWORD PTR [ecx], eax
	jae	SHORT $LN10@pbackfail
	cmp	ebx, -1
	je	SHORT $LN9@pbackfail
	movzx	edx, BYTE PTR [eax-1]
	cmp	edx, ebx
	jne	SHORT $LN10@pbackfail
$LN9@pbackfail:
; Line 390
	mov	eax, DWORD PTR [esi+48]
	inc	DWORD PTR [eax]
	mov	esi, DWORD PTR [esi+32]
	dec	DWORD PTR [esi]
; Line 391
	lea	eax, DWORD PTR [ebx+1]
	neg	eax
	sbb	eax, eax
	pop	esi
	and	eax, ebx
	pop	ebx
; Line 405
	pop	ebp
	ret	4
$LN10@pbackfail:
; Line 393
	mov	eax, DWORD PTR [esi+84]
	test	eax, eax
	je	SHORT $LN6@pbackfail
	cmp	ebx, -1
	je	SHORT $LN6@pbackfail
; Line 395
	cmp	DWORD PTR [esi+68], 0
	jne	SHORT $LN4@pbackfail
	push	eax
	movzx	eax, bl
	push	eax
	call	DWORD PTR __imp__ungetc
	add	esp, 8
	cmp	eax, -1
; Line 396
	jne	SHORT $LN55@pbackfail
$LN4@pbackfail:
; Line 397
	mov	ecx, DWORD PTR [esi+32]
	lea	eax, DWORD PTR [esi+72]
	cmp	DWORD PTR [ecx], eax
	je	SHORT $LN6@pbackfail
; Line 400
	mov	ecx, esi
	mov	BYTE PTR [eax], bl
	call	?_Set_back@?$basic_filebuf@DU?$char_traits@D@std@@@std@@AAEXXZ ; std::basic_filebuf<char,std::char_traits<char> >::_Set_back
$LN55@pbackfail:
; Line 401
	pop	esi
	mov	eax, ebx
	pop	ebx
; Line 405
	pop	ebp
	ret	4
$LN6@pbackfail:
	pop	esi
; Line 394
	or	eax, -1
	pop	ebx
; Line 405
	pop	ebp
	ret	4
?pbackfail@?$basic_filebuf@DU?$char_traits@D@std@@@std@@MAEHH@Z ENDP ; std::basic_filebuf<char,std::char_traits<char> >::pbackfail
_TEXT	ENDS
EXTRN	__imp__setvbuf:PROC
; Function compile flags: /Ogtp
;	COMDAT ?setbuf@?$basic_filebuf@DU?$char_traits@D@std@@@std@@MAEPAV?$basic_streambuf@DU?$char_traits@D@std@@@2@PAD_J@Z
_TEXT	SEGMENT
__Buffer$ = 8						; size = 4
__Count$ = 12						; size = 8
?setbuf@?$basic_filebuf@DU?$char_traits@D@std@@@std@@MAEPAV?$basic_streambuf@DU?$char_traits@D@std@@@2@PAD_J@Z PROC ; std::basic_filebuf<char,std::char_traits<char> >::setbuf, COMDAT
; _this$ = ecx
; Line 530
	push	ebp
	mov	ebp, esp
	push	esi
	mov	esi, ecx
; Line 533
	mov	ecx, DWORD PTR [esi+84]
	push	edi
	test	ecx, ecx
	je	SHORT $LN2@setbuf
	mov	edx, DWORD PTR __Buffer$[ebp]
	mov	edi, DWORD PTR __Count$[ebp]
	test	edx, edx
	jne	SHORT $LN6@setbuf
	mov	eax, edi
	or	eax, DWORD PTR __Count$[ebp+4]
	jne	SHORT $LN6@setbuf
	mov	eax, 4
	jmp	SHORT $LN7@setbuf
$LN6@setbuf:
	xor	eax, eax
$LN7@setbuf:
	push	edi
	push	eax
	push	edx
	push	ecx
	call	DWORD PTR __imp__setvbuf
	add	esp, 16					; 00000010H
	test	eax, eax
	jne	SHORT $LN2@setbuf
; Line 537
	mov	edi, DWORD PTR [esi+84]
	mov	ecx, esi
	mov	BYTE PTR [esi+80], 1
	mov	BYTE PTR [esi+73], al
	call	DWORD PTR __imp_?_Init@?$basic_streambuf@DU?$char_traits@D@std@@@std@@IAEXXZ
	test	edi, edi
	je	SHORT $LN17@setbuf
	lea	eax, DWORD PTR [edi+8]
	mov	DWORD PTR [esi+16], eax
	mov	DWORD PTR [esi+20], eax
	lea	eax, DWORD PTR [edi+4]
	mov	DWORD PTR [esi+32], edi
	mov	DWORD PTR [esi+36], edi
	mov	DWORD PTR [esi+48], eax
	mov	DWORD PTR [esi+52], eax
$LN17@setbuf:
	mov	DWORD PTR [esi+84], edi
	mov	ecx, DWORD PTR ?_Stinit@?1??_Init@?$basic_filebuf@DU?$char_traits@D@std@@@std@@IAEXPAU_iobuf@@W4_Initfl@23@@Z@4HA
	pop	edi
	mov	DWORD PTR [esi+76], ecx
	mov	DWORD PTR [esi+68], 0
; Line 538
	mov	eax, esi
	pop	esi
; Line 540
	pop	ebp
	ret	12					; 0000000cH
$LN2@setbuf:
	pop	edi
; Line 534
	xor	eax, eax
	pop	esi
; Line 540
	pop	ebp
	ret	12					; 0000000cH
?setbuf@?$basic_filebuf@DU?$char_traits@D@std@@@std@@MAEPAV?$basic_streambuf@DU?$char_traits@D@std@@@2@PAD_J@Z ENDP ; std::basic_filebuf<char,std::char_traits<char> >::setbuf
; Function compile flags: /Ogtp
_TEXT	ENDS
;	COMDAT ?imbue@?$basic_filebuf@DU?$char_traits@D@std@@@std@@MAEXABVlocale@2@@Z
_TEXT	SEGMENT
__Loc$ = 8						; size = 4
?imbue@?$basic_filebuf@DU?$char_traits@D@std@@@std@@MAEXABVlocale@2@@Z PROC ; std::basic_filebuf<char,std::char_traits<char> >::imbue, COMDAT
; _this$ = ecx
; Line 550
	push	ebp
	mov	ebp, esp
; Line 551
	mov	eax, DWORD PTR __Loc$[ebp]
	push	esi
	push	edi
	push	eax
	mov	esi, ecx
	call	??$use_facet@V?$codecvt@DDH@std@@@std@@YAABV?$codecvt@DDH@0@ABVlocale@0@@Z ; std::use_facet<std::codecvt<char,char,int> >
	mov	edi, eax
	add	esp, 4
	mov	ecx, edi
	call	DWORD PTR __imp_?always_noconv@codecvt_base@std@@QBE_NXZ
	test	al, al
	je	SHORT $LN4@imbue
	pop	edi
	mov	DWORD PTR [esi+68], 0
	pop	esi
; Line 552
	pop	ebp
	ret	4
; Line 551
$LN4@imbue:
	mov	ecx, esi
	mov	DWORD PTR [esi+68], edi
	call	DWORD PTR __imp_?_Init@?$basic_streambuf@DU?$char_traits@D@std@@@std@@IAEXXZ
	pop	edi
	pop	esi
; Line 552
	pop	ebp
	ret	4
?imbue@?$basic_filebuf@DU?$char_traits@D@std@@@std@@MAEXABVlocale@2@@Z ENDP ; std::basic_filebuf<char,std::char_traits<char> >::imbue
_TEXT	ENDS
PUBLIC	?open@?$basic_filebuf@DU?$char_traits@D@std@@@std@@QAEPAV12@PBDHH@Z ; std::basic_filebuf<char,std::char_traits<char> >::open
EXTRN	__imp_?getloc@?$basic_streambuf@DU?$char_traits@D@std@@@std@@QBE?AVlocale@2@XZ:PROC
EXTRN	__imp_?_Fiopen@std@@YAPAU_iobuf@@PBDHH@Z:PROC
;	COMDAT xdata$x
; File c:\program files (x86)\microsoft visual studio 10.0\vc\include\xlocale
xdata$x	SEGMENT
__unwindtable$?open@?$basic_filebuf@DU?$char_traits@D@std@@@std@@QAEPAV12@PBDHH@Z DD 0ffffffffH
	DD	FLAT:__unwindfunclet$?open@?$basic_filebuf@DU?$char_traits@D@std@@@std@@QAEPAV12@PBDHH@Z$0
__ehfuncinfo$?open@?$basic_filebuf@DU?$char_traits@D@std@@@std@@QAEPAV12@PBDHH@Z DD 019930522H
	DD	01H
	DD	FLAT:__unwindtable$?open@?$basic_filebuf@DU?$char_traits@D@std@@@std@@QAEPAV12@PBDHH@Z
	DD	2 DUP(00H)
	DD	2 DUP(00H)
	DD	00H
	DD	01H
; Function compile flags: /Ogtp
xdata$x	ENDS
;	COMDAT ?open@?$basic_filebuf@DU?$char_traits@D@std@@@std@@QAEPAV12@PBDHH@Z
_TEXT	SEGMENT
__$EHRec$ = -12						; size = 12
__Filename$ = 8						; size = 4
__Mode$ = 12						; size = 4
$T81055 = 16						; size = 4
__Prot$ = 16						; size = 4
?open@?$basic_filebuf@DU?$char_traits@D@std@@@std@@QAEPAV12@PBDHH@Z PROC ; std::basic_filebuf<char,std::char_traits<char> >::open, COMDAT
; _this$ = ecx
; File c:\program files (x86)\microsoft visual studio 10.0\vc\include\fstream
; Line 218
	push	ebp
	mov	ebp, esp
	push	-1
	push	__ehhandler$?open@?$basic_filebuf@DU?$char_traits@D@std@@@std@@QAEPAV12@PBDHH@Z
	mov	eax, DWORD PTR fs:0
	push	eax
	push	ebx
	push	esi
	push	edi
	mov	eax, DWORD PTR ___security_cookie
	xor	eax, ebp
	push	eax
	lea	eax, DWORD PTR __$EHRec$[ebp]
	mov	DWORD PTR fs:0, eax
	mov	esi, ecx
; Line 220
	xor	ebx, ebx
	cmp	DWORD PTR [esi+84], ebx
	jne	$LN1@open
	mov	eax, DWORD PTR __Prot$[ebp]
	mov	ecx, DWORD PTR __Mode$[ebp]
	mov	edx, DWORD PTR __Filename$[ebp]
	push	eax
	push	ecx
	push	edx
	call	DWORD PTR __imp_?_Fiopen@std@@YAPAU_iobuf@@PBDHH@Z
	mov	edi, eax
	add	esp, 12					; 0000000cH
	cmp	edi, ebx
	je	$LN1@open
; Line 223
	mov	ecx, esi
	mov	BYTE PTR [esi+80], 1
	mov	BYTE PTR [esi+73], bl
	call	DWORD PTR __imp_?_Init@?$basic_streambuf@DU?$char_traits@D@std@@@std@@IAEXXZ
	lea	ecx, DWORD PTR [edi+4]
	mov	DWORD PTR [esi+48], ecx
	mov	DWORD PTR [esi+52], ecx
	lea	eax, DWORD PTR [edi+8]
; Line 224
	lea	ecx, DWORD PTR $T81055[ebp]
	mov	DWORD PTR [esi+16], eax
	mov	DWORD PTR [esi+20], eax
	mov	DWORD PTR [esi+32], edi
	mov	DWORD PTR [esi+36], edi
	mov	DWORD PTR [esi+84], edi
	mov	eax, DWORD PTR ?_Stinit@?1??_Init@?$basic_filebuf@DU?$char_traits@D@std@@@std@@IAEXPAU_iobuf@@W4_Initfl@23@@Z@4HA
	push	ecx
	mov	ecx, esi
	mov	DWORD PTR [esi+76], eax
	mov	DWORD PTR [esi+68], ebx
	call	DWORD PTR __imp_?getloc@?$basic_streambuf@DU?$char_traits@D@std@@@std@@QBE?AVlocale@2@XZ
	push	eax
	mov	DWORD PTR __$EHRec$[ebp+8], ebx
	call	??$use_facet@V?$codecvt@DDH@std@@@std@@YAABV?$codecvt@DDH@0@ABVlocale@0@@Z ; std::use_facet<std::codecvt<char,char,int> >
	mov	edi, eax
	add	esp, 4
	mov	ecx, edi
	call	DWORD PTR __imp_?always_noconv@codecvt_base@std@@QBE_NXZ
	test	al, al
	je	SHORT $LN18@open
	mov	DWORD PTR [esi+68], ebx
	jmp	SHORT $LN17@open
$LN18@open:
	mov	ecx, esi
	mov	DWORD PTR [esi+68], edi
	call	DWORD PTR __imp_?_Init@?$basic_streambuf@DU?$char_traits@D@std@@@std@@IAEXXZ
$LN17@open:
	mov	ecx, DWORD PTR $T81055[ebp]
	mov	DWORD PTR __$EHRec$[ebp+8], -1
	cmp	ecx, ebx
	je	SHORT $LN30@open
	call	DWORD PTR __imp_?_Decref@facet@locale@std@@QAEPAV123@XZ
	cmp	eax, ebx
	je	SHORT $LN30@open
	mov	edx, DWORD PTR [eax]
	mov	ecx, eax
	mov	eax, DWORD PTR [edx]
	push	1
	call	eax
$LN30@open:
; Line 225
	mov	eax, esi
; Line 226
	mov	ecx, DWORD PTR __$EHRec$[ebp]
	mov	DWORD PTR fs:0, ecx
	pop	ecx
	pop	edi
	pop	esi
	pop	ebx
	mov	esp, ebp
	pop	ebp
	ret	12					; 0000000cH
$LN1@open:
; Line 221
	xor	eax, eax
; Line 226
	mov	ecx, DWORD PTR __$EHRec$[ebp]
	mov	DWORD PTR fs:0, ecx
	pop	ecx
	pop	edi
	pop	esi
	pop	ebx
	mov	esp, ebp
	pop	ebp
	ret	12					; 0000000cH
_TEXT	ENDS
;	COMDAT text$x
text$x	SEGMENT
__unwindfunclet$?open@?$basic_filebuf@DU?$char_traits@D@std@@@std@@QAEPAV12@PBDHH@Z$0:
	lea	ecx, DWORD PTR $T81055[ebp]
	jmp	??1locale@std@@QAE@XZ			; std::locale::~locale
__ehhandler$?open@?$basic_filebuf@DU?$char_traits@D@std@@@std@@QAEPAV12@PBDHH@Z:
	mov	edx, DWORD PTR [esp+8]
	lea	eax, DWORD PTR [edx+12]
	mov	ecx, DWORD PTR [edx-16]
	xor	ecx, eax
	call	@__security_check_cookie@4
	mov	eax, OFFSET __ehfuncinfo$?open@?$basic_filebuf@DU?$char_traits@D@std@@@std@@QAEPAV12@PBDHH@Z
	jmp	___CxxFrameHandler3
text$x	ENDS
?open@?$basic_filebuf@DU?$char_traits@D@std@@@std@@QAEPAV12@PBDHH@Z ENDP ; std::basic_filebuf<char,std::char_traits<char> >::open
PUBLIC	??D?$_String_iterator@DU?$char_traits@D@std@@V?$allocator@D@2@@std@@QBEAADXZ ; std::_String_iterator<char,std::char_traits<char>,std::allocator<char> >::operator*
; Function compile flags: /Ogtp
;	COMDAT ??D?$_String_iterator@DU?$char_traits@D@std@@V?$allocator@D@2@@std@@QBEAADXZ
_TEXT	SEGMENT
??D?$_String_iterator@DU?$char_traits@D@std@@V?$allocator@D@2@@std@@QBEAADXZ PROC ; std::_String_iterator<char,std::char_traits<char>,std::allocator<char> >::operator*, COMDAT
; _this$ = ecx
; File c:\program files (x86)\microsoft visual studio 10.0\vc\include\xstring
; Line 343
	mov	eax, DWORD PTR [ecx]
; Line 344
	ret	0
??D?$_String_iterator@DU?$char_traits@D@std@@V?$allocator@D@2@@std@@QBEAADXZ ENDP ; std::_String_iterator<char,std::char_traits<char>,std::allocator<char> >::operator*
_TEXT	ENDS
PUBLIC	?_Chassign@?$basic_string@DU?$char_traits@D@std@@V?$allocator@D@2@@std@@QAEXIID@Z ; std::basic_string<char,std::char_traits<char>,std::allocator<char> >::_Chassign
; Function compile flags: /Ogtp
;	COMDAT ?_Chassign@?$basic_string@DU?$char_traits@D@std@@V?$allocator@D@2@@std@@QAEXIID@Z
_TEXT	SEGMENT
__Off$ = 8						; size = 4
__Count$ = 12						; size = 4
__Ch$ = 16						; size = 1
?_Chassign@?$basic_string@DU?$char_traits@D@std@@V?$allocator@D@2@@std@@QAEXIID@Z PROC ; std::basic_string<char,std::char_traits<char>,std::allocator<char> >::_Chassign, COMDAT
; _this$ = ecx
; Line 1910
	push	ebp
	mov	ebp, esp
; Line 1911
	mov	eax, DWORD PTR __Count$[ebp]
	cmp	eax, 1
	jne	SHORT $LN2@Chassign
; Line 1912
	cmp	DWORD PTR [ecx+20], 16			; 00000010H
	jb	SHORT $LN7@Chassign
	mov	ecx, DWORD PTR [ecx]
$LN7@Chassign:
	mov	al, BYTE PTR __Ch$[ebp]
	mov	edx, DWORD PTR __Off$[ebp]
	mov	BYTE PTR [ecx+edx], al
; Line 1915
	pop	ebp
	ret	12					; 0000000cH
$LN2@Chassign:
; Line 1914
	cmp	DWORD PTR [ecx+20], 16			; 00000010H
	jb	SHORT $LN13@Chassign
	mov	ecx, DWORD PTR [ecx]
$LN13@Chassign:
	add	ecx, DWORD PTR __Off$[ebp]
	push	eax
	movsx	eax, BYTE PTR __Ch$[ebp]
	push	eax
	push	ecx
	call	_memset
	add	esp, 12					; 0000000cH
; Line 1915
	pop	ebp
	ret	12					; 0000000cH
?_Chassign@?$basic_string@DU?$char_traits@D@std@@V?$allocator@D@2@@std@@QAEXIID@Z ENDP ; std::basic_string<char,std::char_traits<char>,std::allocator<char> >::_Chassign
_TEXT	ENDS
PUBLIC	?_Eos@?$basic_string@DU?$char_traits@D@std@@V?$allocator@D@2@@std@@QAEXI@Z ; std::basic_string<char,std::char_traits<char>,std::allocator<char> >::_Eos
; Function compile flags: /Ogtp
;	COMDAT ?_Eos@?$basic_string@DU?$char_traits@D@std@@V?$allocator@D@2@@std@@QAEXI@Z
_TEXT	SEGMENT
__Newsize$ = 8						; size = 4
?_Eos@?$basic_string@DU?$char_traits@D@std@@V?$allocator@D@2@@std@@QAEXI@Z PROC ; std::basic_string<char,std::char_traits<char>,std::allocator<char> >::_Eos, COMDAT
; _this$ = ecx
; Line 1952
	push	ebp
	mov	ebp, esp
; Line 1953
	cmp	DWORD PTR [ecx+20], 16			; 00000010H
	mov	eax, DWORD PTR __Newsize$[ebp]
	mov	DWORD PTR [ecx+16], eax
	jb	SHORT $LN5@Eos
	mov	ecx, DWORD PTR [ecx]
$LN5@Eos:
	mov	BYTE PTR [ecx+eax], 0
; Line 1954
	pop	ebp
	ret	4
?_Eos@?$basic_string@DU?$char_traits@D@std@@V?$allocator@D@2@@std@@QAEXI@Z ENDP ; std::basic_string<char,std::char_traits<char>,std::allocator<char> >::_Eos
_TEXT	ENDS
PUBLIC	??0?$_String_iterator@DU?$char_traits@D@std@@V?$allocator@D@2@@std@@QAE@PADPBU_Container_base0@1@@Z ; std::_String_iterator<char,std::char_traits<char>,std::allocator<char> >::_String_iterator<char,std::char_traits<char>,std::allocator<char> >
; Function compile flags: /Ogtp
;	COMDAT ??0?$_String_iterator@DU?$char_traits@D@std@@V?$allocator@D@2@@std@@QAE@PADPBU_Container_base0@1@@Z
_TEXT	SEGMENT
__Parg$ = 8						; size = 4
__Pstring$ = 12						; size = 4
??0?$_String_iterator@DU?$char_traits@D@std@@V?$allocator@D@2@@std@@QAE@PADPBU_Container_base0@1@@Z PROC ; std::_String_iterator<char,std::char_traits<char>,std::allocator<char> >::_String_iterator<char,std::char_traits<char>,std::allocator<char> >, COMDAT
; _this$ = ecx
; Line 325
	push	ebp
	mov	ebp, esp
	mov	eax, ecx
	mov	ecx, DWORD PTR __Parg$[ebp]
	mov	DWORD PTR [eax], ecx
; Line 326
	pop	ebp
	ret	8
??0?$_String_iterator@DU?$char_traits@D@std@@V?$allocator@D@2@@std@@QAE@PADPBU_Container_base0@1@@Z ENDP ; std::_String_iterator<char,std::char_traits<char>,std::allocator<char> >::_String_iterator<char,std::char_traits<char>,std::allocator<char> >
_TEXT	ENDS
PUBLIC	?max_size@?$basic_string@DU?$char_traits@D@std@@V?$allocator@D@2@@std@@QBEIXZ ; std::basic_string<char,std::char_traits<char>,std::allocator<char> >::max_size
; Function compile flags: /Ogtp
;	COMDAT ?max_size@?$basic_string@DU?$char_traits@D@std@@V?$allocator@D@2@@std@@QBEIXZ
_TEXT	SEGMENT
?max_size@?$basic_string@DU?$char_traits@D@std@@V?$allocator@D@2@@std@@QBEIXZ PROC ; std::basic_string<char,std::char_traits<char>,std::allocator<char> >::max_size, COMDAT
; _this$ = ecx
; Line 1517
	mov	eax, -2					; fffffffeH
; Line 1518
	ret	0
?max_size@?$basic_string@DU?$char_traits@D@std@@V?$allocator@D@2@@std@@QBEIXZ ENDP ; std::basic_string<char,std::char_traits<char>,std::allocator<char> >::max_size
_TEXT	ENDS
PUBLIC	?allocate@?$allocator@D@std@@QAEPADI@Z		; std::allocator<char>::allocate
; Function compile flags: /Ogtp
;	COMDAT ?allocate@?$allocator@D@std@@QAEPADI@Z
_TEXT	SEGMENT
$T81190 = -12						; size = 12
$T81188 = 8						; size = 4
__Count$ = 8						; size = 4
?allocate@?$allocator@D@std@@QAEPADI@Z PROC		; std::allocator<char>::allocate, COMDAT
; _this$ = ecx
; File c:\program files (x86)\microsoft visual studio 10.0\vc\include\xmemory
; Line 186
	push	ebp
	mov	ebp, esp
; Line 187
	mov	ecx, DWORD PTR __Count$[ebp]
	sub	esp, 12					; 0000000cH
	xor	eax, eax
	test	ecx, ecx
	je	SHORT $LN1@allocate
	cmp	ecx, -1
	ja	SHORT $LN3@allocate
	push	ecx
	call	??2@YAPAXI@Z				; operator new
	add	esp, 4
	test	eax, eax
	jne	SHORT $LN1@allocate
$LN3@allocate:
	lea	eax, DWORD PTR $T81188[ebp]
	push	eax
	lea	ecx, DWORD PTR $T81190[ebp]
	mov	DWORD PTR $T81188[ebp], 0
	call	DWORD PTR __imp_??0exception@std@@QAE@ABQBD@Z
	push	OFFSET __TI2?AVbad_alloc@std@@
	lea	ecx, DWORD PTR $T81190[ebp]
	push	ecx
	mov	DWORD PTR $T81190[ebp], OFFSET ??_7bad_alloc@std@@6B@
	call	__CxxThrowException@8
$LN13@allocate:
$LN1@allocate:
; Line 188
	mov	esp, ebp
	pop	ebp
	ret	4
$LN12@allocate:
?allocate@?$allocator@D@std@@QAEPADI@Z ENDP		; std::allocator<char>::allocate
_TEXT	ENDS
PUBLIC	?erase@?$basic_string@DU?$char_traits@D@std@@V?$allocator@D@2@@std@@QAEAAV12@II@Z ; std::basic_string<char,std::char_traits<char>,std::allocator<char> >::erase
; Function compile flags: /Ogtp
;	COMDAT ?erase@?$basic_string@DU?$char_traits@D@std@@V?$allocator@D@2@@std@@QAEAAV12@II@Z
_TEXT	SEGMENT
__Off$ = 8						; size = 4
__Count$ = 12						; size = 4
?erase@?$basic_string@DU?$char_traits@D@std@@V?$allocator@D@2@@std@@QAEAAV12@II@Z PROC ; std::basic_string<char,std::char_traits<char>,std::allocator<char> >::erase, COMDAT
; _this$ = ecx
; File c:\program files (x86)\microsoft visual studio 10.0\vc\include\xstring
; Line 1108
	push	ebp
	mov	ebp, esp
	push	esi
	mov	esi, ecx
; Line 1109
	mov	eax, DWORD PTR [esi+16]
	mov	ecx, DWORD PTR __Off$[ebp]
	push	edi
	cmp	eax, ecx
	jae	SHORT $LN3@erase
; Line 1110
	push	OFFSET ??_C@_0BI@CFPLBAOH@invalid?5string?5position?$AA@
	call	DWORD PTR __imp_?_Xout_of_range@std@@YAXPBD@Z
$LN28@erase:
$LN3@erase:
; Line 1111
	mov	edi, DWORD PTR __Count$[ebp]
	sub	eax, ecx
	cmp	eax, edi
	jae	SHORT $LN2@erase
; Line 1112
	mov	edi, eax
$LN2@erase:
; Line 1113
	test	edi, edi
	je	SHORT $LN25@erase
; Line 1116
	mov	edx, DWORD PTR [esi+20]
	push	ebx
	cmp	edx, 16					; 00000010H
	jb	SHORT $LN11@erase
	mov	ebx, DWORD PTR [esi]
	jmp	SHORT $LN12@erase
$LN11@erase:
	mov	ebx, esi
$LN12@erase:
	cmp	edx, 16					; 00000010H
	jb	SHORT $LN15@erase
	mov	edx, DWORD PTR [esi]
	jmp	SHORT $LN16@erase
$LN15@erase:
	mov	edx, esi
$LN16@erase:
	sub	eax, edi
	add	ebx, ecx
	push	eax
	add	ebx, edi
	add	edx, ecx
	push	ebx
	push	edx
	call	DWORD PTR __imp__memmove
; Line 1117
	mov	eax, DWORD PTR [esi+16]
	add	esp, 12					; 0000000cH
	sub	eax, edi
; Line 1118
	cmp	DWORD PTR [esi+20], 16			; 00000010H
	mov	DWORD PTR [esi+16], eax
	pop	ebx
	jb	SHORT $LN23@erase
	mov	ecx, DWORD PTR [esi]
	mov	BYTE PTR [ecx+eax], 0
	pop	edi
; Line 1120
	mov	eax, esi
	pop	esi
; Line 1121
	pop	ebp
	ret	8
; Line 1118
$LN23@erase:
	mov	ecx, esi
	mov	BYTE PTR [ecx+eax], 0
$LN25@erase:
; Line 1120
	pop	edi
	mov	eax, esi
	pop	esi
; Line 1121
	pop	ebp
	ret	8
$LN27@erase:
?erase@?$basic_string@DU?$char_traits@D@std@@V?$allocator@D@2@@std@@QAEAAV12@II@Z ENDP ; std::basic_string<char,std::char_traits<char>,std::allocator<char> >::erase
_TEXT	ENDS
PUBLIC	?begin@?$basic_string@DU?$char_traits@D@std@@V?$allocator@D@2@@std@@QAE?AV?$_String_iterator@DU?$char_traits@D@std@@V?$allocator@D@2@@2@XZ ; std::basic_string<char,std::char_traits<char>,std::allocator<char> >::begin
; Function compile flags: /Ogtp
;	COMDAT ?begin@?$basic_string@DU?$char_traits@D@std@@V?$allocator@D@2@@std@@QAE?AV?$_String_iterator@DU?$char_traits@D@std@@V?$allocator@D@2@@2@XZ
_TEXT	SEGMENT
___$ReturnUdt$ = 8					; size = 4
?begin@?$basic_string@DU?$char_traits@D@std@@V?$allocator@D@2@@std@@QAE?AV?$_String_iterator@DU?$char_traits@D@std@@V?$allocator@D@2@@2@XZ PROC ; std::basic_string<char,std::char_traits<char>,std::allocator<char> >::begin, COMDAT
; _this$ = ecx
; Line 1350
	push	ebp
	mov	ebp, esp
; Line 1351
	cmp	DWORD PTR [ecx+20], 16			; 00000010H
	mov	eax, DWORD PTR ___$ReturnUdt$[ebp]
	jb	SHORT $LN5@begin
	mov	ecx, DWORD PTR [ecx]
$LN5@begin:
	mov	DWORD PTR [eax], ecx
; Line 1352
	pop	ebp
	ret	4
?begin@?$basic_string@DU?$char_traits@D@std@@V?$allocator@D@2@@std@@QAE?AV?$_String_iterator@DU?$char_traits@D@std@@V?$allocator@D@2@@2@XZ ENDP ; std::basic_string<char,std::char_traits<char>,std::allocator<char> >::begin
_TEXT	ENDS
PUBLIC	?_Tidy@?$basic_string@DU?$char_traits@D@std@@V?$allocator@D@2@@std@@QAEX_NI@Z ; std::basic_string<char,std::char_traits<char>,std::allocator<char> >::_Tidy
; Function compile flags: /Ogtp
;	COMDAT ?_Tidy@?$basic_string@DU?$char_traits@D@std@@V?$allocator@D@2@@std@@QAEX_NI@Z
_TEXT	SEGMENT
__Built$ = 8						; size = 1
__Newsize$ = 12						; size = 4
?_Tidy@?$basic_string@DU?$char_traits@D@std@@V?$allocator@D@2@@std@@QAEX_NI@Z PROC ; std::basic_string<char,std::char_traits<char>,std::allocator<char> >::_Tidy, COMDAT
; _this$ = ecx
; Line 1987
	push	ebp
	mov	ebp, esp
; Line 1988
	cmp	BYTE PTR __Built$[ebp], 0
	push	esi
	push	edi
	mov	edi, DWORD PTR __Newsize$[ebp]
	mov	esi, ecx
	je	SHORT $LN9@Tidy
; Line 1990
	cmp	DWORD PTR [esi+20], 16			; 00000010H
	jb	SHORT $LN9@Tidy
; Line 1992
	push	ebx
	mov	ebx, DWORD PTR [esi]
; Line 1993
	test	edi, edi
	je	SHORT $LN7@Tidy
; Line 1994
	push	edi
	push	ebx
	push	esi
	call	_memcpy
	add	esp, 12					; 0000000cH
$LN7@Tidy:
; Line 1995
	push	ebx
	call	??3@YAXPAX@Z				; operator delete
	add	esp, 4
	pop	ebx
$LN9@Tidy:
; Line 1998
	mov	DWORD PTR [esi+16], edi
	mov	DWORD PTR [esi+20], 15			; 0000000fH
	mov	BYTE PTR [edi+esi], 0
	pop	edi
	pop	esi
; Line 1999
	pop	ebp
	ret	8
?_Tidy@?$basic_string@DU?$char_traits@D@std@@V?$allocator@D@2@@std@@QAEX_NI@Z ENDP ; std::basic_string<char,std::char_traits<char>,std::allocator<char> >::_Tidy
_TEXT	ENDS
PUBLIC	?_Copy@?$basic_string@DU?$char_traits@D@std@@V?$allocator@D@2@@std@@QAEXII@Z ; std::basic_string<char,std::char_traits<char>,std::allocator<char> >::_Copy
;	COMDAT xdata$x
; File c:\program files (x86)\microsoft visual studio 10.0\vc\include\iosfwd
xdata$x	SEGMENT
__catchsym$?_Copy@?$basic_string@DU?$char_traits@D@std@@V?$allocator@D@2@@std@@QAEXII@Z$5 DD 040H
	DD	00H
	DD	00H
	DD	FLAT:__catch$?_Copy@?$basic_string@DU?$char_traits@D@std@@V?$allocator@D@2@@std@@QAEXII@Z$0
__catchsym$?_Copy@?$basic_string@DU?$char_traits@D@std@@V?$allocator@D@2@@std@@QAEXII@Z$4 DD 040H
	DD	00H
	DD	00H
	DD	FLAT:__catch$?_Copy@?$basic_string@DU?$char_traits@D@std@@V?$allocator@D@2@@std@@QAEXII@Z$1
__unwindtable$?_Copy@?$basic_string@DU?$char_traits@D@std@@V?$allocator@D@2@@std@@QAEXII@Z DD 0ffffffffH
	DD	00H
	DD	0ffffffffH
	DD	00H
	DD	01H
	DD	00H
	DD	01H
	DD	00H
__ehfuncinfo$?_Copy@?$basic_string@DU?$char_traits@D@std@@V?$allocator@D@2@@std@@QAEXII@Z DD 019930522H
	DD	04H
	DD	FLAT:__unwindtable$?_Copy@?$basic_string@DU?$char_traits@D@std@@V?$allocator@D@2@@std@@QAEXII@Z
	DD	02H
	DD	FLAT:__tryblocktable$?_Copy@?$basic_string@DU?$char_traits@D@std@@V?$allocator@D@2@@std@@QAEXII@Z
	DD	2 DUP(00H)
	DD	00H
	DD	01H
__tryblocktable$?_Copy@?$basic_string@DU?$char_traits@D@std@@V?$allocator@D@2@@std@@QAEXII@Z DD 02H
	DD	02H
	DD	03H
	DD	01H
	DD	FLAT:__catchsym$?_Copy@?$basic_string@DU?$char_traits@D@std@@V?$allocator@D@2@@std@@QAEXII@Z$4
	DD	00H
	DD	00H
	DD	03H
	DD	01H
	DD	FLAT:__catchsym$?_Copy@?$basic_string@DU?$char_traits@D@std@@V?$allocator@D@2@@std@@QAEXII@Z$5
; Function compile flags: /Ogtp
xdata$x	ENDS
;	COMDAT ?_Copy@?$basic_string@DU?$char_traits@D@std@@V?$allocator@D@2@@std@@QAEXII@Z
_TEXT	SEGMENT
$T81407 = -40						; size = 12
__Newres$ = -28						; size = 4
$T81385 = -24						; size = 4
_this$ = -20						; size = 4
__$EHRec$ = -16						; size = 16
__Ptr$ = 8						; size = 4
__Newsize$ = 8						; size = 4
__Oldlen$ = 12						; size = 4
?_Copy@?$basic_string@DU?$char_traits@D@std@@V?$allocator@D@2@@std@@QAEXII@Z PROC ; std::basic_string<char,std::char_traits<char>,std::allocator<char> >::_Copy, COMDAT
; _this$ = ecx
; File c:\program files (x86)\microsoft visual studio 10.0\vc\include\xstring
; Line 1918
	push	ebp
	mov	ebp, esp
	push	-1
	push	__ehhandler$?_Copy@?$basic_string@DU?$char_traits@D@std@@V?$allocator@D@2@@std@@QAEXII@Z
	mov	eax, DWORD PTR fs:0
	push	eax
	sub	esp, 28					; 0000001cH
	push	ebx
	push	esi
	push	edi
	mov	eax, DWORD PTR ___security_cookie
	xor	eax, ebp
	push	eax
	lea	eax, DWORD PTR __$EHRec$[ebp+4]
	mov	DWORD PTR fs:0, eax
	mov	DWORD PTR __$EHRec$[ebp], esp
	mov	edi, ecx
	mov	DWORD PTR _this$[ebp], edi
; Line 1919
	mov	eax, DWORD PTR __Newsize$[ebp]
	mov	esi, eax
	or	esi, 15					; 0000000fH
; Line 1920
	cmp	esi, -2					; fffffffeH
	jbe	SHORT $LN9@Copy
; Line 1921
	mov	esi, eax
	jmp	SHORT $LN39@Copy
$LN9@Copy:
; Line 1922
	mov	ebx, DWORD PTR [edi+20]
	mov	eax, -1431655765			; aaaaaaabH
	mul	esi
	mov	ecx, ebx
	shr	ecx, 1
	shr	edx, 1
	cmp	ecx, edx
	jbe	SHORT $LN39@Copy
; Line 1924
	mov	eax, -2					; fffffffeH
	sub	eax, ecx
; Line 1926
	lea	esi, DWORD PTR [ecx+ebx]
	cmp	ebx, eax
	jbe	SHORT $LN39@Copy
; Line 1928
	mov	esi, -2					; fffffffeH
$LN39@Copy:
; Line 1931
	xor	eax, eax
; Line 1932
	lea	ecx, DWORD PTR [esi+1]
	mov	DWORD PTR __$EHRec$[ebp+12], eax
	cmp	ecx, eax
	jbe	SHORT $LN47@Copy
	cmp	ecx, -1
	ja	SHORT $LN46@Copy
	push	ecx
	call	??2@YAPAXI@Z				; operator new
	add	esp, 4
	test	eax, eax
	je	SHORT $LN46@Copy
$LN47@Copy:
	mov	DWORD PTR __Ptr$[ebp], eax
	jmp	SHORT $LN19@Copy
$LN46@Copy:
	lea	ecx, DWORD PTR $T81385[ebp]
	push	ecx
	lea	ecx, DWORD PTR $T81407[ebp]
	mov	DWORD PTR $T81385[ebp], 0
	call	DWORD PTR __imp_??0exception@std@@QAE@ABQBD@Z
	push	OFFSET __TI2?AVbad_alloc@std@@
	lea	edx, DWORD PTR $T81407[ebp]
	push	edx
	mov	DWORD PTR $T81407[ebp], OFFSET ??_7bad_alloc@std@@6B@
	call	__CxxThrowException@8
$LN112@Copy:
__catch$?_Copy@?$basic_string@DU?$char_traits@D@std@@V?$allocator@D@2@@std@@QAEXII@Z$0:
; Line 1934
	mov	eax, DWORD PTR __Newsize$[ebp]
; Line 1936
	mov	ecx, DWORD PTR _this$[ebp]
	mov	DWORD PTR __Newres$[ebp], eax
	inc	eax
	mov	DWORD PTR __$EHRec$[ebp], esp
	push	eax
	add	ecx, 24					; 00000018H
	mov	BYTE PTR __$EHRec$[ebp+12], 2
	call	?allocate@?$allocator@D@std@@QAEPADI@Z	; std::allocator<char>::allocate
	mov	DWORD PTR __Ptr$[ebp], eax
; Line 1941
	mov	eax, $LN107@Copy
	ret	0
$LN107@Copy:
	mov	edi, DWORD PTR _this$[ebp]
	mov	esi, DWORD PTR __Newres$[ebp]
$LN19@Copy:
; Line 1943
	mov	ebx, DWORD PTR __Oldlen$[ebp]
	test	ebx, ebx
	je	SHORT $LN78@Copy
; Line 1944
	cmp	DWORD PTR [edi+20], 16			; 00000010H
	jb	SHORT $LN76@Copy
	mov	eax, DWORD PTR [edi]
	jmp	SHORT $LN77@Copy
$LN76@Copy:
	mov	eax, edi
$LN77@Copy:
	push	ebx
	push	eax
	mov	eax, DWORD PTR __Ptr$[ebp]
	push	eax
	call	_memcpy
	add	esp, 12					; 0000000cH
$LN78@Copy:
; Line 1945
	cmp	DWORD PTR [edi+20], 16			; 00000010H
	jb	SHORT $LN88@Copy
	mov	ecx, DWORD PTR [edi]
	push	ecx
	call	??3@YAXPAX@Z				; operator delete
	add	esp, 4
$LN88@Copy:
; Line 1946
	mov	eax, DWORD PTR __Ptr$[ebp]
	mov	BYTE PTR [edi], 0
	mov	DWORD PTR [edi], eax
; Line 1947
	mov	DWORD PTR [edi+20], esi
; Line 1948
	mov	DWORD PTR [edi+16], ebx
	cmp	esi, 16					; 00000010H
	jb	SHORT $LN102@Copy
	mov	edi, eax
$LN102@Copy:
	mov	BYTE PTR [edi+ebx], 0
; Line 1949
	mov	ecx, DWORD PTR __$EHRec$[ebp+4]
	mov	DWORD PTR fs:0, ecx
	pop	ecx
	pop	edi
	pop	esi
	pop	ebx
	mov	esp, ebp
	pop	ebp
	ret	8
__catch$?_Copy@?$basic_string@DU?$char_traits@D@std@@V?$allocator@D@2@@std@@QAEXII@Z$1:
; Line 1938
	mov	esi, DWORD PTR _this$[ebp]
	cmp	DWORD PTR [esi+20], 16			; 00000010H
	jb	SHORT $LN64@Copy
	mov	edx, DWORD PTR [esi]
	push	edx
	call	??3@YAXPAX@Z				; operator delete
	add	esp, 4
$LN64@Copy:
; Line 1939
	push	0
	mov	DWORD PTR [esi+20], 15			; 0000000fH
	mov	DWORD PTR [esi+16], 0
	push	0
	mov	BYTE PTR [esi], 0
	call	__CxxThrowException@8
$LN113@Copy:
$LN111@Copy:
	int	3
_TEXT	ENDS
;	COMDAT text$x
text$x	SEGMENT
__ehhandler$?_Copy@?$basic_string@DU?$char_traits@D@std@@V?$allocator@D@2@@std@@QAEXII@Z:
	mov	edx, DWORD PTR [esp+8]
	lea	eax, DWORD PTR [edx+12]
	mov	ecx, DWORD PTR [edx-44]
	xor	ecx, eax
	call	@__security_check_cookie@4
	mov	eax, OFFSET __ehfuncinfo$?_Copy@?$basic_string@DU?$char_traits@D@std@@V?$allocator@D@2@@std@@QAEXII@Z
	jmp	___CxxFrameHandler3
text$x	ENDS
?_Copy@?$basic_string@DU?$char_traits@D@std@@V?$allocator@D@2@@std@@QAEXII@Z ENDP ; std::basic_string<char,std::char_traits<char>,std::allocator<char> >::_Copy
PUBLIC	??0?$basic_string@DU?$char_traits@D@std@@V?$allocator@D@2@@std@@QAE@XZ ; std::basic_string<char,std::char_traits<char>,std::allocator<char> >::basic_string<char,std::char_traits<char>,std::allocator<char> >
; Function compile flags: /Ogtp
;	COMDAT ??0?$basic_string@DU?$char_traits@D@std@@V?$allocator@D@2@@std@@QAE@XZ
_TEXT	SEGMENT
??0?$basic_string@DU?$char_traits@D@std@@V?$allocator@D@2@@std@@QAE@XZ PROC ; std::basic_string<char,std::char_traits<char>,std::allocator<char> >::basic_string<char,std::char_traits<char>,std::allocator<char> >, COMDAT
; _this$ = ecx
; Line 550
	mov	eax, ecx
; Line 551
	mov	DWORD PTR [eax+20], 15			; 0000000fH
	mov	DWORD PTR [eax+16], 0
	mov	BYTE PTR [eax], 0
; Line 552
	ret	0
??0?$basic_string@DU?$char_traits@D@std@@V?$allocator@D@2@@std@@QAE@XZ ENDP ; std::basic_string<char,std::char_traits<char>,std::allocator<char> >::basic_string<char,std::char_traits<char>,std::allocator<char> >
_TEXT	ENDS
PUBLIC	??1?$basic_string@DU?$char_traits@D@std@@V?$allocator@D@2@@std@@QAE@XZ ; std::basic_string<char,std::char_traits<char>,std::allocator<char> >::~basic_string<char,std::char_traits<char>,std::allocator<char> >
; Function compile flags: /Ogtp
;	COMDAT ??1?$basic_string@DU?$char_traits@D@std@@V?$allocator@D@2@@std@@QAE@XZ
_TEXT	SEGMENT
??1?$basic_string@DU?$char_traits@D@std@@V?$allocator@D@2@@std@@QAE@XZ PROC ; std::basic_string<char,std::char_traits<char>,std::allocator<char> >::~basic_string<char,std::char_traits<char>,std::allocator<char> >, COMDAT
; _this$ = ecx
; Line 752
	push	esi
	mov	esi, ecx
; Line 753
	cmp	DWORD PTR [esi+20], 16			; 00000010H
	jb	SHORT $LN11@basic_stri
	mov	eax, DWORD PTR [esi]
	push	eax
	call	??3@YAXPAX@Z				; operator delete
	add	esp, 4
$LN11@basic_stri:
	mov	DWORD PTR [esi+20], 15			; 0000000fH
	mov	DWORD PTR [esi+16], 0
	mov	BYTE PTR [esi], 0
	pop	esi
; Line 754
	ret	0
??1?$basic_string@DU?$char_traits@D@std@@V?$allocator@D@2@@std@@QAE@XZ ENDP ; std::basic_string<char,std::char_traits<char>,std::allocator<char> >::~basic_string<char,std::char_traits<char>,std::allocator<char> >
_TEXT	ENDS
PUBLIC	?_Grow@?$basic_string@DU?$char_traits@D@std@@V?$allocator@D@2@@std@@QAE_NI_N@Z ; std::basic_string<char,std::char_traits<char>,std::allocator<char> >::_Grow
; Function compile flags: /Ogtp
;	COMDAT ?_Grow@?$basic_string@DU?$char_traits@D@std@@V?$allocator@D@2@@std@@QAE_NI_N@Z
_TEXT	SEGMENT
__Newsize$ = 8						; size = 4
__Trim$ = 12						; size = 1
?_Grow@?$basic_string@DU?$char_traits@D@std@@V?$allocator@D@2@@std@@QAE_NI_N@Z PROC ; std::basic_string<char,std::char_traits<char>,std::allocator<char> >::_Grow, COMDAT
; _this$ = ecx
; Line 1958
	push	ebp
	mov	ebp, esp
	push	ebx
; Line 1959
	mov	ebx, DWORD PTR __Newsize$[ebp]
	push	esi
	mov	esi, ecx
	cmp	ebx, -2					; fffffffeH
	jbe	SHORT $LN6@Grow
; Line 1960
	push	OFFSET ??_C@_0BA@JFNIOLAK@string?5too?5long?$AA@
	call	DWORD PTR __imp_?_Xlength_error@std@@YAXPBD@Z
$LN49@Grow:
$LN6@Grow:
; Line 1961
	mov	eax, DWORD PTR [esi+20]
	cmp	eax, ebx
	jae	SHORT $LN5@Grow
; Line 1962
	mov	eax, DWORD PTR [esi+16]
	push	eax
	push	ebx
	call	?_Copy@?$basic_string@DU?$char_traits@D@std@@V?$allocator@D@2@@std@@QAEXII@Z ; std::basic_string<char,std::char_traits<char>,std::allocator<char> >::_Copy
; Line 1968
	xor	ecx, ecx
	cmp	ecx, ebx
	sbb	eax, eax
	pop	esi
	neg	eax
	pop	ebx
; Line 1969
	pop	ebp
	ret	8
$LN5@Grow:
; Line 1963
	cmp	BYTE PTR __Trim$[ebp], 0
	je	SHORT $LN3@Grow
	cmp	ebx, 16					; 00000010H
	jae	SHORT $LN3@Grow
; Line 1965
	push	edi
	mov	edi, DWORD PTR [esi+16]
	cmp	ebx, edi
	jae	SHORT $LN9@Grow
	mov	edi, ebx
$LN9@Grow:
	cmp	eax, 16					; 00000010H
	jb	SHORT $LN30@Grow
	mov	ebx, DWORD PTR [esi]
	test	edi, edi
	je	SHORT $LN28@Grow
	push	edi
	push	ebx
	push	esi
	call	_memcpy
	add	esp, 12					; 0000000cH
$LN28@Grow:
	push	ebx
	call	??3@YAXPAX@Z				; operator delete
	mov	ebx, DWORD PTR __Newsize$[ebp]
	add	esp, 4
$LN30@Grow:
	mov	DWORD PTR [esi+16], edi
	mov	DWORD PTR [esi+20], 15			; 0000000fH
; Line 1968
	xor	ecx, ecx
	mov	BYTE PTR [edi+esi], 0
	cmp	ecx, ebx
	pop	edi
	sbb	eax, eax
	pop	esi
	neg	eax
	pop	ebx
; Line 1969
	pop	ebp
	ret	8
$LN3@Grow:
; Line 1966
	test	ebx, ebx
	jne	SHORT $LN46@Grow
; Line 1967
	mov	DWORD PTR [esi+16], ebx
	cmp	eax, 16					; 00000010H
	jb	SHORT $LN44@Grow
	mov	esi, DWORD PTR [esi]
$LN44@Grow:
	mov	BYTE PTR [esi], 0
$LN46@Grow:
; Line 1968
	xor	ecx, ecx
	cmp	ecx, ebx
	sbb	eax, eax
	pop	esi
	neg	eax
	pop	ebx
; Line 1969
	pop	ebp
	ret	8
$LN48@Grow:
?_Grow@?$basic_string@DU?$char_traits@D@std@@V?$allocator@D@2@@std@@QAE_NI_N@Z ENDP ; std::basic_string<char,std::char_traits<char>,std::allocator<char> >::_Grow
_TEXT	ENDS
PUBLIC	?append@?$basic_string@DU?$char_traits@D@std@@V?$allocator@D@2@@std@@QAEAAV12@ID@Z ; std::basic_string<char,std::char_traits<char>,std::allocator<char> >::append
; Function compile flags: /Ogtp
;	COMDAT ?append@?$basic_string@DU?$char_traits@D@std@@V?$allocator@D@2@@std@@QAEAAV12@ID@Z
_TEXT	SEGMENT
__Count$ = 8						; size = 4
__Ch$ = 12						; size = 1
?append@?$basic_string@DU?$char_traits@D@std@@V?$allocator@D@2@@std@@QAEAAV12@ID@Z PROC ; std::basic_string<char,std::char_traits<char>,std::allocator<char> >::append, COMDAT
; _this$ = ecx
; Line 844
	push	ebp
	mov	ebp, esp
	push	ebx
; Line 845
	mov	ebx, DWORD PTR __Count$[ebp]
	push	esi
	mov	esi, ecx
	mov	eax, DWORD PTR [esi+16]
	or	ecx, -1
	sub	ecx, eax
	cmp	ecx, ebx
	ja	SHORT $LN2@append
; Line 846
	push	OFFSET ??_C@_0BA@JFNIOLAK@string?5too?5long?$AA@
	call	DWORD PTR __imp_?_Xlength_error@std@@YAXPBD@Z
$LN67@append:
$LN2@append:
; Line 849
	test	ebx, ebx
	je	SHORT $LN61@append
	push	edi
	lea	edi, DWORD PTR [eax+ebx]
	cmp	edi, -2					; fffffffeH
	jbe	SHORT $LN13@append
	push	OFFSET ??_C@_0BA@JFNIOLAK@string?5too?5long?$AA@
	call	DWORD PTR __imp_?_Xlength_error@std@@YAXPBD@Z
$LN68@append:
$LN13@append:
	mov	ecx, DWORD PTR [esi+20]
	cmp	ecx, edi
	jae	SHORT $LN12@append
	push	eax
	push	edi
	mov	ecx, esi
	call	?_Copy@?$basic_string@DU?$char_traits@D@std@@V?$allocator@D@2@@std@@QAEXII@Z ; std::basic_string<char,std::char_traits<char>,std::allocator<char> >::_Copy
	test	edi, edi
	je	SHORT $LN63@append
$LN66@append:
; Line 851
	mov	edx, DWORD PTR __Ch$[ebp]
	mov	eax, DWORD PTR [esi+16]
	push	edx
	push	ebx
	push	eax
	mov	ecx, esi
	call	?_Chassign@?$basic_string@DU?$char_traits@D@std@@V?$allocator@D@2@@std@@QAEXIID@Z ; std::basic_string<char,std::char_traits<char>,std::allocator<char> >::_Chassign
; Line 852
	cmp	DWORD PTR [esi+20], 16			; 00000010H
	mov	DWORD PTR [esi+16], edi
	jb	SHORT $LN59@append
	mov	eax, DWORD PTR [esi]
	mov	BYTE PTR [eax+edi], 0
	pop	edi
; Line 854
	mov	eax, esi
	pop	esi
	pop	ebx
; Line 855
	pop	ebp
	ret	8
; Line 849
$LN12@append:
	test	edi, edi
	jne	SHORT $LN66@append
	mov	DWORD PTR [esi+16], edi
	cmp	ecx, 16					; 00000010H
	jb	SHORT $LN51@append
	mov	eax, DWORD PTR [esi]
	pop	edi
	mov	BYTE PTR [eax], 0
; Line 854
	mov	eax, esi
	pop	esi
	pop	ebx
; Line 855
	pop	ebp
	ret	8
; Line 849
$LN51@append:
	pop	edi
	mov	eax, esi
	pop	esi
	mov	BYTE PTR [eax], 0
	pop	ebx
; Line 855
	pop	ebp
	ret	8
; Line 852
$LN59@append:
	mov	eax, esi
	mov	BYTE PTR [eax+edi], 0
$LN63@append:
	pop	edi
$LN61@append:
; Line 854
	mov	eax, esi
	pop	esi
	pop	ebx
; Line 855
	pop	ebp
	ret	8
$LN64@append:
?append@?$basic_string@DU?$char_traits@D@std@@V?$allocator@D@2@@std@@QAEAAV12@ID@Z ENDP ; std::basic_string<char,std::char_traits<char>,std::allocator<char> >::append
_TEXT	ENDS
PUBLIC	?assign@?$basic_string@DU?$char_traits@D@std@@V?$allocator@D@2@@std@@QAEAAV12@ID@Z ; std::basic_string<char,std::char_traits<char>,std::allocator<char> >::assign
; Function compile flags: /Ogtp
;	COMDAT ?assign@?$basic_string@DU?$char_traits@D@std@@V?$allocator@D@2@@std@@QAEAAV12@ID@Z
_TEXT	SEGMENT
__Count$ = 8						; size = 4
__Ch$ = 12						; size = 1
?assign@?$basic_string@DU?$char_traits@D@std@@V?$allocator@D@2@@std@@QAEAAV12@ID@Z PROC ; std::basic_string<char,std::char_traits<char>,std::allocator<char> >::assign, COMDAT
; _this$ = ecx
; Line 934
	push	ebp
	mov	ebp, esp
	push	esi
	push	edi
; Line 935
	mov	edi, DWORD PTR __Count$[ebp]
	mov	esi, ecx
	cmp	edi, -1
	jne	SHORT $LN2@assign
; Line 936
	push	OFFSET ??_C@_0BA@JFNIOLAK@string?5too?5long?$AA@
	call	DWORD PTR __imp_?_Xlength_error@std@@YAXPBD@Z
$LN82@assign:
$LN2@assign:
; Line 938
	cmp	edi, -2					; fffffffeH
	jbe	SHORT $LN13@assign
	push	OFFSET ??_C@_0BA@JFNIOLAK@string?5too?5long?$AA@
	call	DWORD PTR __imp_?_Xlength_error@std@@YAXPBD@Z
$LN83@assign:
$LN13@assign:
	mov	eax, DWORD PTR [esi+20]
	cmp	eax, edi
	jae	SHORT $LN12@assign
	mov	eax, DWORD PTR [esi+16]
	push	eax
	push	edi
	call	?_Copy@?$basic_string@DU?$char_traits@D@std@@V?$allocator@D@2@@std@@QAEXII@Z ; std::basic_string<char,std::char_traits<char>,std::allocator<char> >::_Copy
	test	edi, edi
	je	SHORT $LN77@assign
$LN81@assign:
; Line 940
	cmp	edi, 1
	jne	SHORT $LN56@assign
	cmp	DWORD PTR [esi+20], 16			; 00000010H
	jb	SHORT $LN61@assign
	mov	eax, DWORD PTR [esi]
	mov	cl, BYTE PTR __Ch$[ebp]
	mov	BYTE PTR [eax], cl
	jmp	SHORT $LN69@assign
; Line 938
$LN12@assign:
	test	edi, edi
	jne	SHORT $LN81@assign
	mov	DWORD PTR [esi+16], edi
	cmp	eax, 16					; 00000010H
	jb	SHORT $LN51@assign
	mov	eax, DWORD PTR [esi]
	mov	BYTE PTR [eax], 0
	pop	edi
; Line 943
	mov	eax, esi
	pop	esi
; Line 944
	pop	ebp
	ret	8
; Line 938
$LN51@assign:
	mov	eax, esi
	pop	edi
	mov	BYTE PTR [eax], 0
	pop	esi
; Line 944
	pop	ebp
	ret	8
; Line 940
$LN61@assign:
	mov	cl, BYTE PTR __Ch$[ebp]
	mov	eax, esi
	mov	BYTE PTR [eax], cl
	jmp	SHORT $LN69@assign
$LN56@assign:
	cmp	DWORD PTR [esi+20], 16			; 00000010H
	jb	SHORT $LN67@assign
	mov	eax, DWORD PTR [esi]
	jmp	SHORT $LN68@assign
$LN67@assign:
	mov	eax, esi
$LN68@assign:
	movsx	edx, BYTE PTR __Ch$[ebp]
	push	edi
	push	edx
	push	eax
	call	_memset
	add	esp, 12					; 0000000cH
$LN69@assign:
; Line 941
	cmp	DWORD PTR [esi+20], 16			; 00000010H
	mov	DWORD PTR [esi+16], edi
	jb	SHORT $LN75@assign
	mov	eax, DWORD PTR [esi]
	mov	BYTE PTR [eax+edi], 0
	pop	edi
; Line 943
	mov	eax, esi
	pop	esi
; Line 944
	pop	ebp
	ret	8
; Line 941
$LN75@assign:
	mov	eax, esi
	mov	BYTE PTR [eax+edi], 0
$LN77@assign:
; Line 943
	pop	edi
	mov	eax, esi
	pop	esi
; Line 944
	pop	ebp
	ret	8
$LN79@assign:
?assign@?$basic_string@DU?$char_traits@D@std@@V?$allocator@D@2@@std@@QAEAAV12@ID@Z ENDP ; std::basic_string<char,std::char_traits<char>,std::allocator<char> >::assign
_TEXT	ENDS
PUBLIC	__$ArrayPad$
EXTRN	__imp__memcpy_s:PROC
EXTRN	__imp_?in@?$codecvt@DDH@std@@QBEHAAHPBD1AAPBDPAD3AAPAD@Z:PROC
EXTRN	__imp_?setg@?$basic_streambuf@DU?$char_traits@D@std@@@std@@IAEXPAD00@Z:PROC
;	COMDAT xdata$x
; File c:\program files (x86)\microsoft visual studio 10.0\vc\include\iosfwd
xdata$x	SEGMENT
__unwindtable$?uflow@?$basic_filebuf@DU?$char_traits@D@std@@@std@@MAEHXZ DD 0ffffffffH
	DD	FLAT:__unwindfunclet$?uflow@?$basic_filebuf@DU?$char_traits@D@std@@@std@@MAEHXZ$0
__ehfuncinfo$?uflow@?$basic_filebuf@DU?$char_traits@D@std@@@std@@MAEHXZ DD 019930522H
	DD	01H
	DD	FLAT:__unwindtable$?uflow@?$basic_filebuf@DU?$char_traits@D@std@@@std@@MAEHXZ
	DD	2 DUP(00H)
	DD	2 DUP(00H)
	DD	00H
	DD	01H
; Function compile flags: /Ogtp
xdata$x	ENDS
;	COMDAT ?uflow@?$basic_filebuf@DU?$char_traits@D@std@@@std@@MAEHXZ
_TEXT	SEGMENT
__Dest$72982 = -56					; size = 4
__Src$72983 = -52					; size = 4
__Ch$72981 = -45					; size = 1
__Str$72977 = -44					; size = 28
__$ArrayPad$ = -16					; size = 4
__$EHRec$ = -12						; size = 12
?uflow@?$basic_filebuf@DU?$char_traits@D@std@@@std@@MAEHXZ PROC ; std::basic_filebuf<char,std::char_traits<char> >::uflow, COMDAT
; _this$ = ecx
; File c:\program files (x86)\microsoft visual studio 10.0\vc\include\fstream
; Line 423
	push	ebp
	mov	ebp, esp
	push	-1
	push	__ehhandler$?uflow@?$basic_filebuf@DU?$char_traits@D@std@@@std@@MAEHXZ
	mov	eax, DWORD PTR fs:0
	push	eax
	sub	esp, 44					; 0000002cH
	mov	eax, DWORD PTR ___security_cookie
	xor	eax, ebp
	mov	DWORD PTR __$ArrayPad$[ebp], eax
	push	ebx
	push	esi
	push	edi
	push	eax
	lea	eax, DWORD PTR __$EHRec$[ebp]
	mov	DWORD PTR fs:0, eax
	mov	esi, ecx
; Line 425
	mov	eax, DWORD PTR [esi+32]
	mov	eax, DWORD PTR [eax]
	xor	edi, edi
	cmp	eax, edi
	je	SHORT $LN18@uflow
	mov	ecx, DWORD PTR [esi+32]
	mov	eax, DWORD PTR [ecx]
	mov	edx, DWORD PTR [esi+48]
	mov	ecx, DWORD PTR [edx]
	add	ecx, eax
	cmp	eax, ecx
	jae	SHORT $LN18@uflow
; Line 427
	mov	eax, edx
	dec	DWORD PTR [eax]
	mov	esi, DWORD PTR [esi+32]
	mov	eax, DWORD PTR [esi]
	lea	edx, DWORD PTR [eax+1]
	mov	DWORD PTR [esi], edx
	movzx	eax, BYTE PTR [eax]
	jmp	$LN14@uflow
$LN18@uflow:
; Line 428
	cmp	DWORD PTR [esi+84], edi
; Line 429
	je	$LN193@uflow
; Line 430
	mov	eax, DWORD PTR [esi+16]
	mov	eax, DWORD PTR [eax]
	lea	ecx, DWORD PTR [esi+72]
	cmp	eax, ecx
	jne	SHORT $LN36@uflow
	mov	eax, DWORD PTR [esi+64]
	mov	edx, DWORD PTR [esi+60]
	push	eax
	push	eax
	push	edx
	mov	ecx, esi
	call	DWORD PTR __imp_?setg@?$basic_streambuf@DU?$char_traits@D@std@@@std@@IAEXPAD00@Z
$LN36@uflow:
; Line 431
	cmp	DWORD PTR [esi+68], edi
	jne	SHORT $LN15@uflow
; Line 435
	mov	esi, DWORD PTR [esi+84]
	push	esi
	call	DWORD PTR __imp__fgetc
	add	esp, 4
	cmp	eax, -1
	je	$LN193@uflow
	movzx	eax, al
	jmp	$LN14@uflow
$LN15@uflow:
; Line 439
	mov	DWORD PTR __Str$72977[ebp+20], 15	; 0000000fH
	mov	DWORD PTR __Str$72977[ebp+16], edi
	mov	BYTE PTR __Str$72977[ebp], 0
; Line 446
	mov	eax, DWORD PTR [esi+84]
	mov	ebx, DWORD PTR __imp__fgetc
	push	eax
	mov	DWORD PTR __$EHRec$[ebp+8], edi
	call	ebx
	add	esp, 4
; Line 448
	cmp	eax, -1
	je	$LN1@uflow
	lea	edi, DWORD PTR [esi+76]
$LL13@uflow:
; Line 451
	push	eax
	push	1
	lea	ecx, DWORD PTR __Str$72977[ebp]
	call	?append@?$basic_string@DU?$char_traits@D@std@@V?$allocator@D@2@@std@@QAEAAV12@ID@Z ; std::basic_string<char,std::char_traits<char>,std::allocator<char> >::append
; Line 454
	mov	edx, DWORD PTR __Str$72977[ebp+20]
	mov	eax, DWORD PTR __Str$72977[ebp]
	mov	ecx, eax
	cmp	edx, 16					; 00000010H
	jae	SHORT $LN103@uflow
	lea	ecx, DWORD PTR __Str$72977[ebp]
	mov	eax, ecx
$LN103@uflow:
	add	ecx, DWORD PTR __Str$72977[ebp+16]
	lea	edx, DWORD PTR __Dest$72982[ebp]
	push	edx
	lea	edx, DWORD PTR __Ch$72981[ebp+1]
	push	edx
	lea	edx, DWORD PTR __Ch$72981[ebp]
	push	edx
	lea	edx, DWORD PTR __Src$72983[ebp]
	push	edx
	push	ecx
	mov	ecx, DWORD PTR [esi+68]
	push	eax
	push	edi
	call	DWORD PTR __imp_?in@?$codecvt@DDH@std@@QBEHAAHPBD1AAPBDPAD3AAPAD@Z
	test	eax, eax
	js	SHORT $LN1@uflow
	cmp	eax, 1
	jle	SHORT $LN8@uflow
	cmp	eax, 3
	jne	SHORT $LN1@uflow
; Line 471
	cmp	DWORD PTR __Str$72977[ebp+16], 1
	jb	SHORT $LN4@uflow
; Line 474
	cmp	DWORD PTR __Str$72977[ebp+20], 16	; 00000010H
	mov	eax, DWORD PTR __Str$72977[ebp]
	jae	SHORT $LN166@uflow
	lea	eax, DWORD PTR __Str$72977[ebp]
$LN166@uflow:
	push	1
	push	eax
	lea	eax, DWORD PTR __Ch$72981[ebp]
	push	1
	push	eax
	call	DWORD PTR __imp__memcpy_s
; Line 477
	movzx	esi, BYTE PTR __Ch$72981[ebp]
	add	esp, 16					; 00000010H
	lea	ecx, DWORD PTR __Str$72977[ebp]
	call	??1?$basic_string@DU?$char_traits@D@std@@V?$allocator@D@2@@std@@QAE@XZ ; std::basic_string<char,std::char_traits<char>,std::allocator<char> >::~basic_string<char,std::char_traits<char>,std::allocator<char> >
	mov	eax, esi
	jmp	SHORT $LN14@uflow
$LN8@uflow:
; Line 458
	lea	eax, DWORD PTR __Ch$72981[ebp]
	cmp	DWORD PTR __Dest$72982[ebp], eax
	jne	SHORT $LN188@uflow
; Line 467
	cmp	DWORD PTR __Str$72977[ebp+20], 16	; 00000010H
	mov	eax, DWORD PTR __Str$72977[ebp]
	jae	SHORT $LN145@uflow
	lea	eax, DWORD PTR __Str$72977[ebp]
$LN145@uflow:
	mov	ecx, DWORD PTR __Src$72983[ebp]
	sub	ecx, eax
	push	ecx
	push	0
	lea	ecx, DWORD PTR __Str$72977[ebp]
	call	?erase@?$basic_string@DU?$char_traits@D@std@@V?$allocator@D@2@@std@@QAEAAV12@II@Z ; std::basic_string<char,std::char_traits<char>,std::allocator<char> >::erase
$LN4@uflow:
; Line 446
	mov	edx, DWORD PTR [esi+84]
	push	edx
	call	ebx
	add	esp, 4
; Line 448
	cmp	eax, -1
	jne	$LL13@uflow
$LN1@uflow:
; Line 480
	lea	ecx, DWORD PTR __Str$72977[ebp]
	call	??1?$basic_string@DU?$char_traits@D@std@@V?$allocator@D@2@@std@@QAE@XZ ; std::basic_string<char,std::char_traits<char>,std::allocator<char> >::~basic_string<char,std::char_traits<char>,std::allocator<char> >
$LN193@uflow:
	or	eax, -1
$LN14@uflow:
; Line 484
	mov	ecx, DWORD PTR __$EHRec$[ebp]
	mov	DWORD PTR fs:0, ecx
	pop	ecx
	pop	edi
	pop	esi
	pop	ebx
	mov	ecx, DWORD PTR __$ArrayPad$[ebp]
	xor	ecx, ebp
	call	@__security_check_cookie@4
	mov	esp, ebp
	pop	ebp
	ret	0
$LN188@uflow:
; Line 460
	cmp	DWORD PTR __Str$72977[ebp+20], 16	; 00000010H
	mov	edi, DWORD PTR __Str$72977[ebp]
	jae	SHORT $LN122@uflow
	lea	edi, DWORD PTR __Str$72977[ebp]
$LN122@uflow:
	sub	edi, DWORD PTR __Src$72983[ebp]
	add	edi, DWORD PTR __Str$72977[ebp+16]
; Line 461
	test	edi, edi
	jle	SHORT $LN5@uflow
	mov	ebx, DWORD PTR __imp__ungetc
$LN6@uflow:
; Line 462
	mov	edx, DWORD PTR __Src$72983[ebp]
	mov	ecx, DWORD PTR [esi+84]
	movsx	eax, BYTE PTR [edi+edx-1]
	dec	edi
	push	ecx
	push	eax
	call	ebx
	add	esp, 8
	test	edi, edi
	jg	SHORT $LN6@uflow
$LN5@uflow:
; Line 463
	movzx	esi, BYTE PTR __Ch$72981[ebp]
	lea	ecx, DWORD PTR __Str$72977[ebp]
	call	??1?$basic_string@DU?$char_traits@D@std@@V?$allocator@D@2@@std@@QAE@XZ ; std::basic_string<char,std::char_traits<char>,std::allocator<char> >::~basic_string<char,std::char_traits<char>,std::allocator<char> >
	mov	eax, esi
	jmp	SHORT $LN14@uflow
_TEXT	ENDS
;	COMDAT text$x
text$x	SEGMENT
__unwindfunclet$?uflow@?$basic_filebuf@DU?$char_traits@D@std@@@std@@MAEHXZ$0:
	lea	ecx, DWORD PTR __Str$72977[ebp]
	jmp	??1?$basic_string@DU?$char_traits@D@std@@V?$allocator@D@2@@std@@QAE@XZ ; std::basic_string<char,std::char_traits<char>,std::allocator<char> >::~basic_string<char,std::char_traits<char>,std::allocator<char> >
__ehhandler$?uflow@?$basic_filebuf@DU?$char_traits@D@std@@@std@@MAEHXZ:
	mov	edx, DWORD PTR [esp+8]
	lea	eax, DWORD PTR [edx+12]
	mov	ecx, DWORD PTR [edx-60]
	xor	ecx, eax
	call	@__security_check_cookie@4
	mov	ecx, DWORD PTR [edx-4]
	xor	ecx, eax
	call	@__security_check_cookie@4
	mov	eax, OFFSET __ehfuncinfo$?uflow@?$basic_filebuf@DU?$char_traits@D@std@@@std@@MAEHXZ
	jmp	___CxxFrameHandler3
text$x	ENDS
?uflow@?$basic_filebuf@DU?$char_traits@D@std@@@std@@MAEHXZ ENDP ; std::basic_filebuf<char,std::char_traits<char> >::uflow
PUBLIC	??0?$basic_string@DU?$char_traits@D@std@@V?$allocator@D@2@@std@@QAE@ID@Z ; std::basic_string<char,std::char_traits<char>,std::allocator<char> >::basic_string<char,std::char_traits<char>,std::allocator<char> >
; Function compile flags: /Ogtp
;	COMDAT ??0?$basic_string@DU?$char_traits@D@std@@V?$allocator@D@2@@std@@QAE@ID@Z
_TEXT	SEGMENT
__Count$ = 8						; size = 4
__Ch$ = 12						; size = 1
??0?$basic_string@DU?$char_traits@D@std@@V?$allocator@D@2@@std@@QAE@ID@Z PROC ; std::basic_string<char,std::char_traits<char>,std::allocator<char> >::basic_string<char,std::char_traits<char>,std::allocator<char> >, COMDAT
; _this$ = ecx
; File c:\program files (x86)\microsoft visual studio 10.0\vc\include\xstring
; Line 606
	push	ebp
	mov	ebp, esp
; Line 608
	mov	eax, DWORD PTR __Ch$[ebp]
	push	esi
	mov	esi, ecx
	mov	ecx, DWORD PTR __Count$[ebp]
	push	eax
	push	ecx
	mov	DWORD PTR [esi+20], 15			; 0000000fH
	mov	DWORD PTR [esi+16], 0
	mov	ecx, esi
	mov	BYTE PTR [esi], 0
	call	?assign@?$basic_string@DU?$char_traits@D@std@@V?$allocator@D@2@@std@@QAEAAV12@ID@Z ; std::basic_string<char,std::char_traits<char>,std::allocator<char> >::assign
; Line 609
	mov	eax, esi
	pop	esi
	pop	ebp
	ret	8
??0?$basic_string@DU?$char_traits@D@std@@V?$allocator@D@2@@std@@QAE@ID@Z ENDP ; std::basic_string<char,std::char_traits<char>,std::allocator<char> >::basic_string<char,std::char_traits<char>,std::allocator<char> >
_TEXT	ENDS
PUBLIC	__$ArrayPad$
PUBLIC	?_Endwrite@?$basic_filebuf@DU?$char_traits@D@std@@@std@@IAE_NXZ ; std::basic_filebuf<char,std::char_traits<char> >::_Endwrite
EXTRN	__imp__fwrite:PROC
EXTRN	__imp_?unshift@?$codecvt@DDH@std@@QBEHAAHPAD1AAPAD@Z:PROC
;	COMDAT xdata$x
xdata$x	SEGMENT
__unwindtable$?_Endwrite@?$basic_filebuf@DU?$char_traits@D@std@@@std@@IAE_NXZ DD 0ffffffffH
	DD	FLAT:__unwindfunclet$?_Endwrite@?$basic_filebuf@DU?$char_traits@D@std@@@std@@IAE_NXZ$0
__ehfuncinfo$?_Endwrite@?$basic_filebuf@DU?$char_traits@D@std@@@std@@IAE_NXZ DD 019930522H
	DD	01H
	DD	FLAT:__unwindtable$?_Endwrite@?$basic_filebuf@DU?$char_traits@D@std@@@std@@IAE_NXZ
	DD	2 DUP(00H)
	DD	2 DUP(00H)
	DD	00H
	DD	01H
; Function compile flags: /Ogtp
xdata$x	ENDS
;	COMDAT ?_Endwrite@?$basic_filebuf@DU?$char_traits@D@std@@@std@@IAE_NXZ
_TEXT	SEGMENT
__Dest$75273 = -48					; size = 4
__Str$75277 = -44					; size = 28
__$ArrayPad$ = -16					; size = 4
__$EHRec$ = -12						; size = 12
?_Endwrite@?$basic_filebuf@DU?$char_traits@D@std@@@std@@IAE_NXZ PROC ; std::basic_filebuf<char,std::char_traits<char> >::_Endwrite, COMDAT
; _this$ = ecx
; File c:\program files (x86)\microsoft visual studio 10.0\vc\include\fstream
; Line 587
	push	ebp
	mov	ebp, esp
	push	-1
	push	__ehhandler$?_Endwrite@?$basic_filebuf@DU?$char_traits@D@std@@@std@@IAE_NXZ
	mov	eax, DWORD PTR fs:0
	push	eax
	sub	esp, 36					; 00000024H
	mov	eax, DWORD PTR ___security_cookie
	xor	eax, ebp
	mov	DWORD PTR __$ArrayPad$[ebp], eax
	push	ebx
	push	esi
	push	edi
	push	eax
	lea	eax, DWORD PTR __$EHRec$[ebp]
	mov	DWORD PTR fs:0, eax
	mov	edi, ecx
; Line 588
	cmp	DWORD PTR [edi+68], 0
	je	$LN14@Endwrite
	cmp	BYTE PTR [edi+73], 0
	je	$LN14@Endwrite
; Line 594
	mov	eax, DWORD PTR [edi]
	mov	edx, DWORD PTR [eax+12]
	push	-1
	call	edx
	cmp	eax, -1
; Line 595
	je	$LN218@Endwrite
; Line 597
	mov	ecx, 15					; 0000000fH
	xor	eax, eax
	mov	BYTE PTR __Str$75277[ebp], 0
	mov	DWORD PTR __Str$75277[ebp+20], ecx
	mov	DWORD PTR __Str$75277[ebp], eax
	mov	DWORD PTR __Str$75277[ebp+4], eax
	mov	DWORD PTR __Str$75277[ebp+16], 8
	cmp	ecx, 16					; 00000010H
	jae	SHORT $LN126@Endwrite
	lea	eax, DWORD PTR __Str$75277[ebp]
$LN126@Endwrite:
	mov	BYTE PTR [eax+8], 0
	mov	DWORD PTR __$EHRec$[ebp+8], 0
	lea	ebx, DWORD PTR [edi+76]
$LN217@Endwrite:
	mov	eax, DWORD PTR __Str$75277[ebp]
	mov	edx, DWORD PTR __Str$75277[ebp+20]
$LN11@Endwrite:
; Line 600
	mov	ecx, eax
	cmp	edx, 16					; 00000010H
	jae	SHORT $LN157@Endwrite
	lea	ecx, DWORD PTR __Str$75277[ebp]
	mov	eax, ecx
$LN157@Endwrite:
	add	ecx, DWORD PTR __Str$75277[ebp+16]
	lea	edx, DWORD PTR __Dest$75273[ebp]
	push	edx
	push	ecx
	mov	ecx, DWORD PTR [edi+68]
	push	eax
	push	ebx
	call	DWORD PTR __imp_?unshift@?$codecvt@DDH@std@@QBEHAAHPAD1AAPAD@Z
	sub	eax, 0
	je	SHORT $LN7@Endwrite
	dec	eax
	je	SHORT $LN6@Endwrite
	sub	eax, 2
; Line 622
	lea	ecx, DWORD PTR __Str$75277[ebp]
	jne	SHORT $LN219@Endwrite
; Line 619
	jmp	SHORT $LN220@Endwrite
$LN7@Endwrite:
; Line 603
	mov	BYTE PTR [edi+73], 0
$LN6@Endwrite:
; Line 607
	mov	edx, DWORD PTR __Str$75277[ebp+20]
	mov	eax, DWORD PTR __Str$75277[ebp]
	mov	ecx, eax
	cmp	edx, 16					; 00000010H
	jae	SHORT $LN176@Endwrite
	lea	ecx, DWORD PTR __Str$75277[ebp]
$LN176@Endwrite:
	mov	esi, DWORD PTR __Dest$75273[ebp]
	sub	esi, ecx
; Line 609
	je	SHORT $LN5@Endwrite
	cmp	edx, 16					; 00000010H
	jae	SHORT $LN195@Endwrite
	lea	eax, DWORD PTR __Str$75277[ebp]
$LN195@Endwrite:
	mov	ecx, DWORD PTR [edi+84]
	push	ecx
	push	esi
	push	1
	push	eax
	call	DWORD PTR __imp__fwrite
	add	esp, 16					; 00000010H
	cmp	esi, eax
	jne	SHORT $LN210@Endwrite
	mov	edx, DWORD PTR __Str$75277[ebp+20]
	mov	eax, DWORD PTR __Str$75277[ebp]
$LN5@Endwrite:
; Line 611
	cmp	BYTE PTR [edi+73], 0
	je	SHORT $LN211@Endwrite
; Line 613
	test	esi, esi
	jne	SHORT $LN11@Endwrite
; Line 614
	push	esi
	push	8
	lea	ecx, DWORD PTR __Str$75277[ebp]
	call	?append@?$basic_string@DU?$char_traits@D@std@@V?$allocator@D@2@@std@@QAEAAV12@ID@Z ; std::basic_string<char,std::char_traits<char>,std::allocator<char> >::append
; Line 623
	jmp	$LN217@Endwrite
$LN210@Endwrite:
; Line 610
	lea	ecx, DWORD PTR __Str$75277[ebp]
$LN219@Endwrite:
	call	??1?$basic_string@DU?$char_traits@D@std@@V?$allocator@D@2@@std@@QAE@XZ ; std::basic_string<char,std::char_traits<char>,std::allocator<char> >::~basic_string<char,std::char_traits<char>,std::allocator<char> >
$LN218@Endwrite:
	xor	al, al
	jmp	SHORT $LN13@Endwrite
$LN211@Endwrite:
; Line 612
	lea	ecx, DWORD PTR __Str$75277[ebp]
$LN220@Endwrite:
	call	??1?$basic_string@DU?$char_traits@D@std@@V?$allocator@D@2@@std@@QAE@XZ ; std::basic_string<char,std::char_traits<char>,std::allocator<char> >::~basic_string<char,std::char_traits<char>,std::allocator<char> >
$LN14@Endwrite:
; Line 589
	mov	al, 1
$LN13@Endwrite:
; Line 625
	mov	ecx, DWORD PTR __$EHRec$[ebp]
	mov	DWORD PTR fs:0, ecx
	pop	ecx
	pop	edi
	pop	esi
	pop	ebx
	mov	ecx, DWORD PTR __$ArrayPad$[ebp]
	xor	ecx, ebp
	call	@__security_check_cookie@4
	mov	esp, ebp
	pop	ebp
	ret	0
_TEXT	ENDS
;	COMDAT text$x
text$x	SEGMENT
__unwindfunclet$?_Endwrite@?$basic_filebuf@DU?$char_traits@D@std@@@std@@IAE_NXZ$0:
	lea	ecx, DWORD PTR __Str$75277[ebp]
	jmp	??1?$basic_string@DU?$char_traits@D@std@@V?$allocator@D@2@@std@@QAE@XZ ; std::basic_string<char,std::char_traits<char>,std::allocator<char> >::~basic_string<char,std::char_traits<char>,std::allocator<char> >
__ehhandler$?_Endwrite@?$basic_filebuf@DU?$char_traits@D@std@@@std@@IAE_NXZ:
	mov	edx, DWORD PTR [esp+8]
	lea	eax, DWORD PTR [edx+12]
	mov	ecx, DWORD PTR [edx-52]
	xor	ecx, eax
	call	@__security_check_cookie@4
	mov	ecx, DWORD PTR [edx-4]
	xor	ecx, eax
	call	@__security_check_cookie@4
	mov	eax, OFFSET __ehfuncinfo$?_Endwrite@?$basic_filebuf@DU?$char_traits@D@std@@@std@@IAE_NXZ
	jmp	___CxxFrameHandler3
text$x	ENDS
?_Endwrite@?$basic_filebuf@DU?$char_traits@D@std@@@std@@IAE_NXZ ENDP ; std::basic_filebuf<char,std::char_traits<char> >::_Endwrite
PUBLIC	__$ArrayPad$
EXTRN	__imp_?out@?$codecvt@DDH@std@@QBEHAAHPBD1AAPBDPAD3AAPAD@Z:PROC
;	COMDAT xdata$x
; File c:\program files (x86)\microsoft visual studio 10.0\vc\include\iosfwd
xdata$x	SEGMENT
__unwindtable$?overflow@?$basic_filebuf@DU?$char_traits@D@std@@@std@@MAEHH@Z DD 0ffffffffH
	DD	FLAT:__unwindfunclet$?overflow@?$basic_filebuf@DU?$char_traits@D@std@@@std@@MAEHH@Z$0
__ehfuncinfo$?overflow@?$basic_filebuf@DU?$char_traits@D@std@@@std@@MAEHH@Z DD 019930522H
	DD	01H
	DD	FLAT:__unwindtable$?overflow@?$basic_filebuf@DU?$char_traits@D@std@@@std@@MAEHH@Z
	DD	2 DUP(00H)
	DD	2 DUP(00H)
	DD	00H
	DD	01H
; Function compile flags: /Ogtp
xdata$x	ENDS
;	COMDAT ?overflow@?$basic_filebuf@DU?$char_traits@D@std@@@std@@MAEHH@Z
_TEXT	SEGMENT
__Src$72916 = -56					; size = 4
__Dest$72917 = -52					; size = 4
__Ch$72915 = -48					; size = 1
__Str$72918 = -44					; size = 28
__$ArrayPad$ = -16					; size = 4
__$EHRec$ = -12						; size = 12
__Meta$ = 8						; size = 4
?overflow@?$basic_filebuf@DU?$char_traits@D@std@@@std@@MAEHH@Z PROC ; std::basic_filebuf<char,std::char_traits<char> >::overflow, COMDAT
; _this$ = ecx
; File c:\program files (x86)\microsoft visual studio 10.0\vc\include\fstream
; Line 322
	push	ebp
	mov	ebp, esp
	push	-1
	push	__ehhandler$?overflow@?$basic_filebuf@DU?$char_traits@D@std@@@std@@MAEHH@Z
	mov	eax, DWORD PTR fs:0
	push	eax
	sub	esp, 44					; 0000002cH
	mov	eax, DWORD PTR ___security_cookie
	xor	eax, ebp
	mov	DWORD PTR __$ArrayPad$[ebp], eax
	push	ebx
	push	esi
	push	edi
	push	eax
	lea	eax, DWORD PTR __$EHRec$[ebp]
	mov	DWORD PTR fs:0, eax
; Line 323
	mov	ebx, DWORD PTR __Meta$[ebp]
	mov	edi, ecx
	cmp	ebx, -1
	jne	SHORT $LN20@overflow
; Line 324
	xor	eax, eax
	jmp	$LN14@overflow
$LN20@overflow:
; Line 326
	mov	eax, DWORD PTR [edi+36]
	mov	ecx, DWORD PTR [eax]
	test	ecx, ecx
	je	SHORT $LN18@overflow
	mov	eax, DWORD PTR [edi+52]
	mov	edx, DWORD PTR [eax]
	add	edx, ecx
	cmp	ecx, edx
	jae	SHORT $LN18@overflow
; Line 328
	dec	DWORD PTR [eax]
	mov	edi, DWORD PTR [edi+36]
	mov	eax, DWORD PTR [edi]
	lea	ecx, DWORD PTR [eax+1]
	mov	DWORD PTR [edi], ecx
	mov	BYTE PTR [eax], bl
; Line 329
	mov	eax, ebx
	jmp	$LN14@overflow
$LN18@overflow:
; Line 331
	cmp	DWORD PTR [edi+84], 0
; Line 332
	je	$LN265@overflow
; Line 333
	mov	edx, DWORD PTR [edi+16]
	lea	ecx, DWORD PTR [edi+72]
	cmp	DWORD PTR [edx], ecx
	jne	SHORT $LN52@overflow
	mov	eax, DWORD PTR [edi+64]
	mov	edx, DWORD PTR [edi+60]
	push	eax
	push	eax
	push	edx
	mov	ecx, edi
	call	DWORD PTR __imp_?setg@?$basic_streambuf@DU?$char_traits@D@std@@@std@@IAEXPAD00@Z
$LN52@overflow:
; Line 334
	cmp	DWORD PTR [edi+68], 0
	jne	SHORT $LN15@overflow
; Line 336
	mov	edi, DWORD PTR [edi+84]
	movsx	eax, bl
	push	edi
	push	eax
	call	DWORD PTR __imp__fputc
	add	esp, 8
	cmp	eax, -1
	je	$LN265@overflow
	mov	eax, ebx
	jmp	$LN14@overflow
$LN15@overflow:
; Line 344
	mov	ecx, 15					; 0000000fH
	xor	eax, eax
	mov	BYTE PTR __Str$72918[ebp], 0
	mov	BYTE PTR __Ch$72915[ebp], bl
	mov	DWORD PTR __Str$72918[ebp+20], ecx
	mov	DWORD PTR __Str$72918[ebp], eax
	mov	DWORD PTR __Str$72918[ebp+4], eax
	mov	DWORD PTR __Str$72918[ebp+16], 8
	cmp	ecx, 16					; 00000010H
	jae	SHORT $LN166@overflow
	lea	eax, DWORD PTR __Str$72918[ebp]
$LN166@overflow:
	mov	BYTE PTR [eax+8], 0
	mov	DWORD PTR __$EHRec$[ebp+8], 0
	lea	ebx, DWORD PTR [edi+76]
$LN268@overflow:
	mov	eax, DWORD PTR __Str$72918[ebp]
	mov	edx, DWORD PTR __Str$72918[ebp+20]
$LN13@overflow:
; Line 348
	mov	ecx, eax
	cmp	edx, 16					; 00000010H
	jae	SHORT $LN197@overflow
	lea	ecx, DWORD PTR __Str$72918[ebp]
	mov	eax, ecx
$LN197@overflow:
	add	ecx, DWORD PTR __Str$72918[ebp+16]
	lea	edx, DWORD PTR __Dest$72917[ebp]
	push	edx
	push	ecx
	push	eax
	lea	eax, DWORD PTR __Src$72916[ebp]
	push	eax
	lea	ecx, DWORD PTR __Ch$72915[ebp+1]
	push	ecx
	mov	ecx, DWORD PTR [edi+68]
	lea	edx, DWORD PTR __Ch$72915[ebp]
	push	edx
	push	ebx
	call	DWORD PTR __imp_?out@?$codecvt@DDH@std@@QBEHAAHPBD1AAPBDPAD3AAPAD@Z
	test	eax, eax
	js	$LN1@overflow
	cmp	eax, 1
	jg	SHORT $LN260@overflow
; Line 353
	mov	edx, DWORD PTR __Str$72918[ebp+20]
	mov	eax, DWORD PTR __Str$72918[ebp]
	mov	ecx, eax
	cmp	edx, 16					; 00000010H
	jae	SHORT $LN216@overflow
	lea	ecx, DWORD PTR __Str$72918[ebp]
$LN216@overflow:
	mov	esi, DWORD PTR __Dest$72917[ebp]
	sub	esi, ecx
; Line 355
	je	SHORT $LN8@overflow
	cmp	edx, 16					; 00000010H
	jae	SHORT $LN235@overflow
	lea	eax, DWORD PTR __Str$72918[ebp]
$LN235@overflow:
	mov	ecx, DWORD PTR [edi+84]
	push	ecx
	push	esi
	push	1
	push	eax
	call	DWORD PTR __imp__fwrite
	add	esp, 16					; 00000010H
	cmp	esi, eax
	jne	SHORT $LN1@overflow
	mov	edx, DWORD PTR __Str$72918[ebp+20]
	mov	eax, DWORD PTR __Str$72918[ebp]
$LN8@overflow:
; Line 359
	lea	ecx, DWORD PTR __Ch$72915[ebp]
	mov	BYTE PTR [edi+73], 1
	cmp	DWORD PTR __Src$72916[ebp], ecx
	jne	SHORT $LN262@overflow
; Line 362
	test	esi, esi
	jne	$LN13@overflow
; Line 364
	cmp	DWORD PTR __Str$72918[ebp+16], 32	; 00000020H
; Line 365
	lea	ecx, DWORD PTR __Str$72918[ebp]
	jae	SHORT $LN4@overflow
	push	esi
	push	8
	call	?append@?$basic_string@DU?$char_traits@D@std@@V?$allocator@D@2@@std@@QAEAAV12@ID@Z ; std::basic_string<char,std::char_traits<char>,std::allocator<char> >::append
; Line 377
	jmp	$LN268@overflow
$LN260@overflow:
; Line 348
	cmp	eax, 3
	jne	SHORT $LN1@overflow
; Line 373
	mov	edx, DWORD PTR [edi+84]
	mov	eax, DWORD PTR __Ch$72915[ebp]
	push	edx
	push	eax
	call	??$_Fputc@D@std@@YA_NDPAU_iobuf@@@Z	; std::_Fputc<char>
	add	esp, 8
	test	al, al
	je	SHORT $LN25@overflow
	mov	esi, DWORD PTR __Meta$[ebp]
	lea	ecx, DWORD PTR __Str$72918[ebp]
	call	??1?$basic_string@DU?$char_traits@D@std@@V?$allocator@D@2@@std@@QAE@XZ ; std::basic_string<char,std::char_traits<char>,std::allocator<char> >::~basic_string<char,std::char_traits<char>,std::allocator<char> >
	mov	eax, esi
	jmp	SHORT $LN14@overflow
$LN25@overflow:
	lea	ecx, DWORD PTR __Str$72918[ebp]
	or	esi, -1
	call	??1?$basic_string@DU?$char_traits@D@std@@V?$allocator@D@2@@std@@QAE@XZ ; std::basic_string<char,std::char_traits<char>,std::allocator<char> >::~basic_string<char,std::char_traits<char>,std::allocator<char> >
	mov	eax, esi
	jmp	SHORT $LN14@overflow
$LN262@overflow:
; Line 360
	lea	ecx, DWORD PTR __Str$72918[ebp]
	call	??1?$basic_string@DU?$char_traits@D@std@@V?$allocator@D@2@@std@@QAE@XZ ; std::basic_string<char,std::char_traits<char>,std::allocator<char> >::~basic_string<char,std::char_traits<char>,std::allocator<char> >
	mov	eax, DWORD PTR __Meta$[ebp]
	jmp	SHORT $LN14@overflow
$LN1@overflow:
; Line 376
	lea	ecx, DWORD PTR __Str$72918[ebp]
$LN4@overflow:
	call	??1?$basic_string@DU?$char_traits@D@std@@V?$allocator@D@2@@std@@QAE@XZ ; std::basic_string<char,std::char_traits<char>,std::allocator<char> >::~basic_string<char,std::char_traits<char>,std::allocator<char> >
$LN265@overflow:
	or	eax, -1
$LN14@overflow:
; Line 379
	mov	ecx, DWORD PTR __$EHRec$[ebp]
	mov	DWORD PTR fs:0, ecx
	pop	ecx
	pop	edi
	pop	esi
	pop	ebx
	mov	ecx, DWORD PTR __$ArrayPad$[ebp]
	xor	ecx, ebp
	call	@__security_check_cookie@4
	mov	esp, ebp
	pop	ebp
	ret	4
_TEXT	ENDS
;	COMDAT text$x
text$x	SEGMENT
__unwindfunclet$?overflow@?$basic_filebuf@DU?$char_traits@D@std@@@std@@MAEHH@Z$0:
	lea	ecx, DWORD PTR __Str$72918[ebp]
	jmp	??1?$basic_string@DU?$char_traits@D@std@@V?$allocator@D@2@@std@@QAE@XZ ; std::basic_string<char,std::char_traits<char>,std::allocator<char> >::~basic_string<char,std::char_traits<char>,std::allocator<char> >
__ehhandler$?overflow@?$basic_filebuf@DU?$char_traits@D@std@@@std@@MAEHH@Z:
	mov	edx, DWORD PTR [esp+8]
	lea	eax, DWORD PTR [edx+12]
	mov	ecx, DWORD PTR [edx-60]
	xor	ecx, eax
	call	@__security_check_cookie@4
	mov	ecx, DWORD PTR [edx-4]
	xor	ecx, eax
	call	@__security_check_cookie@4
	mov	eax, OFFSET __ehfuncinfo$?overflow@?$basic_filebuf@DU?$char_traits@D@std@@@std@@MAEHH@Z
	jmp	___CxxFrameHandler3
text$x	ENDS
?overflow@?$basic_filebuf@DU?$char_traits@D@std@@@std@@MAEHH@Z ENDP ; std::basic_filebuf<char,std::char_traits<char> >::overflow
EXTRN	__imp_?_BADOFF@std@@3_JB:QWORD
EXTRN	__imp__fgetpos:PROC
EXTRN	__imp___fseeki64:PROC
; Function compile flags: /Ogtp
;	COMDAT ?seekoff@?$basic_filebuf@DU?$char_traits@D@std@@@std@@MAE?AV?$fpos@H@2@_JHH@Z
_TEXT	SEGMENT
___$ReturnUdt$ = 8					; size = 4
__Fileposition$ = 12					; size = 8
__Off$ = 12						; size = 8
__Way$ = 20						; size = 4
___formal$ = 24						; size = 4
?seekoff@?$basic_filebuf@DU?$char_traits@D@std@@@std@@MAE?AV?$fpos@H@2@_JHH@Z PROC ; std::basic_filebuf<char,std::char_traits<char> >::seekoff, COMDAT
; _this$ = ecx
; Line 490
	push	ebp
	mov	ebp, esp
	push	ebx
	push	esi
	mov	esi, ecx
; Line 495
	mov	ecx, DWORD PTR [esi+32]
	lea	eax, DWORD PTR [esi+72]
	push	edi
	cmp	DWORD PTR [ecx], eax
	jne	SHORT $LN22@seekoff
	cmp	DWORD PTR __Way$[ebp], 1
	jne	SHORT $LN22@seekoff
	cmp	DWORD PTR [esi+68], 0
	jne	SHORT $LN22@seekoff
; Line 496
	mov	ebx, DWORD PTR __Off$[ebp]
	mov	edi, DWORD PTR __Off$[ebp+4]
	add	ebx, -1
	adc	edi, -1
	jmp	SHORT $LN5@seekoff
$LN22@seekoff:
	mov	edi, DWORD PTR __Off$[ebp+4]
	mov	ebx, DWORD PTR __Off$[ebp]
$LN5@seekoff:
; Line 501
	cmp	DWORD PTR [esi+84], 0
	je	$LN24@seekoff
	mov	ecx, esi
	call	?_Endwrite@?$basic_filebuf@DU?$char_traits@D@std@@@std@@IAE_NXZ ; std::basic_filebuf<char,std::char_traits<char> >::_Endwrite
	test	al, al
	je	SHORT $LN24@seekoff
	mov	edx, ebx
	or	edx, edi
	jne	SHORT $LN23@seekoff
	cmp	DWORD PTR __Way$[ebp], 1
	je	SHORT $LN2@seekoff
$LN23@seekoff:
	mov	eax, DWORD PTR __Way$[ebp]
	mov	ecx, DWORD PTR [esi+84]
	push	eax
	push	edi
	push	ebx
	push	ecx
	call	DWORD PTR __imp___fseeki64
	add	esp, 16					; 00000010H
	test	eax, eax
	jne	SHORT $LN24@seekoff
$LN2@seekoff:
	mov	eax, DWORD PTR [esi+84]
	lea	edx, DWORD PTR __Fileposition$[ebp]
	push	edx
	push	eax
	call	DWORD PTR __imp__fgetpos
	add	esp, 8
	test	eax, eax
	jne	SHORT $LN24@seekoff
; Line 504
	mov	ecx, DWORD PTR [esi+16]
	lea	eax, DWORD PTR [esi+72]
	cmp	DWORD PTR [ecx], eax
	jne	SHORT $LN17@seekoff
	mov	edx, DWORD PTR [esi+60]
	mov	eax, DWORD PTR [esi+64]
	mov	DWORD PTR [ecx], edx
	mov	ecx, DWORD PTR [esi+32]
	mov	DWORD PTR [ecx], eax
	mov	edx, DWORD PTR [esi+48]
	sub	eax, eax
	mov	DWORD PTR [edx], eax
$LN17@seekoff:
; Line 505
	mov	eax, DWORD PTR ___$ReturnUdt$[ebp]
	mov	ecx, DWORD PTR __Fileposition$[ebp]
	mov	edx, DWORD PTR __Fileposition$[ebp+4]
	pop	edi
	mov	DWORD PTR [eax+8], ecx
	mov	ecx, DWORD PTR [esi+76]
	pop	esi
	mov	DWORD PTR [eax], 0
	mov	DWORD PTR [eax+4], 0
	mov	DWORD PTR [eax+12], edx
	mov	DWORD PTR [eax+16], ecx
	pop	ebx
; Line 507
	pop	ebp
	ret	20					; 00000014H
$LN24@seekoff:
; Line 502
	mov	ecx, DWORD PTR __imp_?_BADOFF@std@@3_JB
	mov	eax, DWORD PTR ___$ReturnUdt$[ebp]
	mov	edx, DWORD PTR [ecx]
	mov	ecx, DWORD PTR [ecx+4]
	pop	edi
	mov	DWORD PTR [eax+4], ecx
	xor	ecx, ecx
	pop	esi
	mov	DWORD PTR [eax], edx
	mov	DWORD PTR [eax+8], ecx
	mov	DWORD PTR [eax+12], ecx
	mov	DWORD PTR [eax+16], ecx
	pop	ebx
; Line 507
	pop	ebp
	ret	20					; 00000014H
?seekoff@?$basic_filebuf@DU?$char_traits@D@std@@@std@@MAE?AV?$fpos@H@2@_JHH@Z ENDP ; std::basic_filebuf<char,std::char_traits<char> >::seekoff
_TEXT	ENDS
EXTRN	__imp__fsetpos:PROC
; Function compile flags: /Ogtp
;	COMDAT ?seekpos@?$basic_filebuf@DU?$char_traits@D@std@@@std@@MAE?AV?$fpos@H@2@V32@H@Z
_TEXT	SEGMENT
__Fileposition$ = -8					; size = 8
___$ReturnUdt$ = 8					; size = 4
__Pos$ = 12						; size = 24
___formal$ = 36						; size = 4
?seekpos@?$basic_filebuf@DU?$char_traits@D@std@@@std@@MAE?AV?$fpos@H@2@V32@H@Z PROC ; std::basic_filebuf<char,std::char_traits<char> >::seekpos, COMDAT
; _this$ = ecx
; Line 512
	push	ebp
	mov	ebp, esp
	sub	esp, 8
; Line 513
	mov	eax, DWORD PTR __Pos$[ebp+8]
	push	ebx
; Line 514
	mov	ebx, DWORD PTR __Pos$[ebp+4]
	push	esi
	mov	esi, ecx
	mov	ecx, DWORD PTR __Pos$[ebp+12]
; Line 519
	xor	edx, edx
	push	edi
	mov	edi, DWORD PTR __Pos$[ebp]
	mov	DWORD PTR __Fileposition$[ebp], eax
	mov	DWORD PTR __Fileposition$[ebp+4], ecx
	cmp	DWORD PTR [esi+84], edx
	je	$LN2@seekpos
	mov	ecx, esi
	call	?_Endwrite@?$basic_filebuf@DU?$char_traits@D@std@@@std@@IAE_NXZ ; std::basic_filebuf<char,std::char_traits<char> >::_Endwrite
	test	al, al
	je	SHORT $LN16@seekpos
	mov	eax, DWORD PTR [esi+84]
	lea	edx, DWORD PTR __Fileposition$[ebp]
	push	edx
	push	eax
	call	DWORD PTR __imp__fsetpos
	add	esp, 8
	test	eax, eax
	jne	SHORT $LN16@seekpos
	mov	ecx, edi
	or	ecx, ebx
	je	SHORT $LN1@seekpos
	mov	edx, DWORD PTR [esi+84]
	push	1
	push	ebx
	push	edi
	push	edx
	call	DWORD PTR __imp___fseeki64
	add	esp, 16					; 00000010H
	test	eax, eax
	jne	SHORT $LN16@seekpos
$LN1@seekpos:
	mov	ecx, DWORD PTR [esi+84]
	lea	eax, DWORD PTR __Fileposition$[ebp]
	push	eax
	push	ecx
	call	DWORD PTR __imp__fgetpos
	add	esp, 8
	test	eax, eax
	jne	SHORT $LN16@seekpos
; Line 522
	mov	edx, DWORD PTR __Pos$[ebp+16]
; Line 524
	mov	ecx, esi
	mov	DWORD PTR [esi+76], edx
	call	?_Reset_back@?$basic_filebuf@DU?$char_traits@D@std@@@std@@AAEXXZ ; std::basic_filebuf<char,std::char_traits<char> >::_Reset_back
; Line 525
	mov	eax, DWORD PTR ___$ReturnUdt$[ebp]
	mov	ecx, DWORD PTR __Fileposition$[ebp]
	mov	edx, DWORD PTR __Fileposition$[ebp+4]
	pop	edi
	mov	DWORD PTR [eax+8], ecx
	mov	ecx, DWORD PTR [esi+76]
	pop	esi
	mov	DWORD PTR [eax], 0
	mov	DWORD PTR [eax+4], 0
	mov	DWORD PTR [eax+16], ecx
	mov	DWORD PTR [eax+12], edx
	pop	ebx
; Line 527
	mov	esp, ebp
	pop	ebp
	ret	32					; 00000020H
$LN16@seekpos:
; Line 525
	xor	edx, edx
$LN2@seekpos:
; Line 520
	mov	eax, DWORD PTR ___$ReturnUdt$[ebp]
	mov	ecx, DWORD PTR __imp_?_BADOFF@std@@3_JB
	mov	esi, DWORD PTR [ecx]
	mov	ecx, DWORD PTR [ecx+4]
	pop	edi
	mov	DWORD PTR [eax], esi
	pop	esi
	mov	DWORD PTR [eax+4], ecx
	mov	DWORD PTR [eax+8], edx
	mov	DWORD PTR [eax+16], edx
	mov	DWORD PTR [eax+12], edx
	pop	ebx
; Line 527
	mov	esp, ebp
	pop	ebp
	ret	32					; 00000020H
?seekpos@?$basic_filebuf@DU?$char_traits@D@std@@@std@@MAE?AV?$fpos@H@2@V32@H@Z ENDP ; std::basic_filebuf<char,std::char_traits<char> >::seekpos
_TEXT	ENDS
PUBLIC	?close@?$basic_filebuf@DU?$char_traits@D@std@@@std@@QAEPAV12@XZ ; std::basic_filebuf<char,std::char_traits<char> >::close
EXTRN	__imp__fclose:PROC
; Function compile flags: /Ogtp
;	COMDAT ?close@?$basic_filebuf@DU?$char_traits@D@std@@@std@@QAEPAV12@XZ
_TEXT	SEGMENT
?close@?$basic_filebuf@DU?$char_traits@D@std@@@std@@QAEPAV12@XZ PROC ; std::basic_filebuf<char,std::char_traits<char> >::close, COMDAT
; _this$ = ecx
; Line 292
	push	ebx
	push	esi
	mov	esi, ecx
; Line 294
	xor	ebx, ebx
	push	edi
	mov	edi, esi
	cmp	DWORD PTR [esi+84], ebx
; Line 296
	je	SHORT $LN18@close
; Line 298
	call	?_Endwrite@?$basic_filebuf@DU?$char_traits@D@std@@@std@@IAE_NXZ ; std::basic_filebuf<char,std::char_traits<char> >::_Endwrite
	test	al, al
	jne	SHORT $LN2@close
; Line 299
	xor	edi, edi
$LN2@close:
; Line 300
	mov	eax, DWORD PTR [esi+84]
	push	eax
	call	DWORD PTR __imp__fclose
	add	esp, 4
	test	eax, eax
	je	SHORT $LN1@close
$LN18@close:
; Line 301
	xor	edi, edi
$LN1@close:
; Line 303
	mov	ecx, esi
	mov	BYTE PTR [esi+80], bl
	mov	BYTE PTR [esi+73], bl
	call	DWORD PTR __imp_?_Init@?$basic_streambuf@DU?$char_traits@D@std@@@std@@IAEXXZ
	mov	DWORD PTR [esi+84], ebx
	mov	ecx, DWORD PTR ?_Stinit@?1??_Init@?$basic_filebuf@DU?$char_traits@D@std@@@std@@IAEXPAU_iobuf@@W4_Initfl@23@@Z@4HA
; Line 304
	mov	eax, edi
	pop	edi
	mov	DWORD PTR [esi+68], ebx
	mov	DWORD PTR [esi+76], ecx
	pop	esi
	pop	ebx
; Line 305
	ret	0
?close@?$basic_filebuf@DU?$char_traits@D@std@@@std@@QAEPAV12@XZ ENDP ; std::basic_filebuf<char,std::char_traits<char> >::close
_TEXT	ENDS
PUBLIC	??1?$basic_filebuf@DU?$char_traits@D@std@@@std@@UAE@XZ ; std::basic_filebuf<char,std::char_traits<char> >::~basic_filebuf<char,std::char_traits<char> >
;	COMDAT xdata$x
; File c:\program files (x86)\microsoft visual studio 10.0\vc\include\streambuf
xdata$x	SEGMENT
__unwindtable$??1?$basic_filebuf@DU?$char_traits@D@std@@@std@@UAE@XZ DD 0ffffffffH
	DD	FLAT:__unwindfunclet$??1?$basic_filebuf@DU?$char_traits@D@std@@@std@@UAE@XZ$0
__ehfuncinfo$??1?$basic_filebuf@DU?$char_traits@D@std@@@std@@UAE@XZ DD 019930522H
	DD	01H
	DD	FLAT:__unwindtable$??1?$basic_filebuf@DU?$char_traits@D@std@@@std@@UAE@XZ
	DD	2 DUP(00H)
	DD	2 DUP(00H)
	DD	00H
	DD	01H
; Function compile flags: /Ogtp
xdata$x	ENDS
;	COMDAT ??1?$basic_filebuf@DU?$char_traits@D@std@@@std@@UAE@XZ
_TEXT	SEGMENT
_this$ = -16						; size = 4
__$EHRec$ = -12						; size = 12
??1?$basic_filebuf@DU?$char_traits@D@std@@@std@@UAE@XZ PROC ; std::basic_filebuf<char,std::char_traits<char> >::~basic_filebuf<char,std::char_traits<char> >, COMDAT
; _this$ = ecx
; File c:\program files (x86)\microsoft visual studio 10.0\vc\include\fstream
; Line 143
	push	ebp
	mov	ebp, esp
	push	-1
	push	__ehhandler$??1?$basic_filebuf@DU?$char_traits@D@std@@@std@@UAE@XZ
	mov	eax, DWORD PTR fs:0
	push	eax
	push	ecx
	push	esi
	mov	eax, DWORD PTR ___security_cookie
	xor	eax, ebp
	push	eax
	lea	eax, DWORD PTR __$EHRec$[ebp]
	mov	DWORD PTR fs:0, eax
	mov	esi, ecx
	mov	DWORD PTR _this$[ebp], esi
	mov	DWORD PTR [esi], OFFSET ??_7?$basic_filebuf@DU?$char_traits@D@std@@@std@@6B@
; Line 144
	cmp	DWORD PTR [esi+84], 0
	mov	DWORD PTR __$EHRec$[ebp+8], 0
	je	SHORT $LN11@basic_file@2
; Line 145
	mov	ecx, DWORD PTR [esi+16]
	lea	edx, DWORD PTR [esi+72]
	cmp	DWORD PTR [ecx], edx
	jne	SHORT $LN11@basic_file@2
	mov	edx, DWORD PTR [esi+60]
	mov	eax, DWORD PTR [esi+64]
	mov	DWORD PTR [ecx], edx
	mov	ecx, DWORD PTR [esi+32]
	mov	DWORD PTR [ecx], eax
	mov	edx, DWORD PTR [esi+48]
	sub	eax, eax
	mov	DWORD PTR [edx], eax
$LN11@basic_file@2:
; Line 146
	cmp	BYTE PTR [esi+80], 0
	je	SHORT $LN1@basic_file@2
; Line 147
	mov	ecx, esi
	call	?close@?$basic_filebuf@DU?$char_traits@D@std@@@std@@QAEPAV12@XZ ; std::basic_filebuf<char,std::char_traits<char> >::close
$LN1@basic_file@2:
; Line 148
	mov	ecx, esi
	mov	DWORD PTR __$EHRec$[ebp+8], -1
	call	DWORD PTR __imp_??1?$basic_streambuf@DU?$char_traits@D@std@@@std@@UAE@XZ
	mov	ecx, DWORD PTR __$EHRec$[ebp]
	mov	DWORD PTR fs:0, ecx
	pop	ecx
	pop	esi
	mov	esp, ebp
	pop	ebp
	ret	0
_TEXT	ENDS
;	COMDAT text$x
text$x	SEGMENT
__unwindfunclet$??1?$basic_filebuf@DU?$char_traits@D@std@@@std@@UAE@XZ$0:
	mov	ecx, DWORD PTR _this$[ebp]
	jmp	DWORD PTR __imp_??1?$basic_streambuf@DU?$char_traits@D@std@@@std@@UAE@XZ
__ehhandler$??1?$basic_filebuf@DU?$char_traits@D@std@@@std@@UAE@XZ:
	mov	edx, DWORD PTR [esp+8]
	lea	eax, DWORD PTR [edx+12]
	mov	ecx, DWORD PTR [edx-12]
	xor	ecx, eax
	call	@__security_check_cookie@4
	mov	eax, OFFSET __ehfuncinfo$??1?$basic_filebuf@DU?$char_traits@D@std@@@std@@UAE@XZ
	jmp	___CxxFrameHandler3
text$x	ENDS
??1?$basic_filebuf@DU?$char_traits@D@std@@@std@@UAE@XZ ENDP ; std::basic_filebuf<char,std::char_traits<char> >::~basic_filebuf<char,std::char_traits<char> >
;	COMDAT xdata$x
xdata$x	SEGMENT
__unwindtable$??_G?$basic_filebuf@DU?$char_traits@D@std@@@std@@UAEPAXI@Z DD 0ffffffffH
	DD	FLAT:__unwindfunclet$??_G?$basic_filebuf@DU?$char_traits@D@std@@@std@@UAEPAXI@Z$0
__ehfuncinfo$??_G?$basic_filebuf@DU?$char_traits@D@std@@@std@@UAEPAXI@Z DD 019930522H
	DD	01H
	DD	FLAT:__unwindtable$??_G?$basic_filebuf@DU?$char_traits@D@std@@@std@@UAEPAXI@Z
	DD	2 DUP(00H)
	DD	2 DUP(00H)
	DD	00H
	DD	01H
; Function compile flags: /Ogtp
xdata$x	ENDS
;	COMDAT ??_G?$basic_filebuf@DU?$char_traits@D@std@@@std@@UAEPAXI@Z
_TEXT	SEGMENT
_this$ = -16						; size = 4
__$EHRec$ = -12						; size = 12
___flags$ = 8						; size = 4
??_G?$basic_filebuf@DU?$char_traits@D@std@@@std@@UAEPAXI@Z PROC ; std::basic_filebuf<char,std::char_traits<char> >::`scalar deleting destructor', COMDAT
; _this$ = ecx
	push	ebp
	mov	ebp, esp
	push	-1
	push	__ehhandler$??_G?$basic_filebuf@DU?$char_traits@D@std@@@std@@UAEPAXI@Z
	mov	eax, DWORD PTR fs:0
	push	eax
	push	ecx
	push	esi
	mov	eax, DWORD PTR ___security_cookie
	xor	eax, ebp
	push	eax
	lea	eax, DWORD PTR __$EHRec$[ebp]
	mov	DWORD PTR fs:0, eax
	mov	esi, ecx
	mov	DWORD PTR _this$[ebp], esi
	mov	DWORD PTR [esi], OFFSET ??_7?$basic_filebuf@DU?$char_traits@D@std@@@std@@6B@
	cmp	DWORD PTR [esi+84], 0
	mov	DWORD PTR __$EHRec$[ebp+8], 0
	je	SHORT $LN14@scalar@2
	mov	ecx, DWORD PTR [esi+16]
	lea	edx, DWORD PTR [esi+72]
	cmp	DWORD PTR [ecx], edx
	jne	SHORT $LN14@scalar@2
	mov	edx, DWORD PTR [esi+60]
	mov	eax, DWORD PTR [esi+64]
	mov	DWORD PTR [ecx], edx
	mov	ecx, DWORD PTR [esi+32]
	mov	DWORD PTR [ecx], eax
	mov	edx, DWORD PTR [esi+48]
	sub	eax, eax
	mov	DWORD PTR [edx], eax
$LN14@scalar@2:
	cmp	BYTE PTR [esi+80], 0
	je	SHORT $LN4@scalar@2
	mov	ecx, esi
	call	?close@?$basic_filebuf@DU?$char_traits@D@std@@@std@@QAEPAV12@XZ ; std::basic_filebuf<char,std::char_traits<char> >::close
$LN4@scalar@2:
	mov	ecx, esi
	mov	DWORD PTR __$EHRec$[ebp+8], -1
	call	DWORD PTR __imp_??1?$basic_streambuf@DU?$char_traits@D@std@@@std@@UAE@XZ
	test	BYTE PTR ___flags$[ebp], 1
	je	SHORT $LN16@scalar@2
	push	esi
	call	??3@YAXPAX@Z				; operator delete
	add	esp, 4
$LN16@scalar@2:
	mov	eax, esi
	mov	ecx, DWORD PTR __$EHRec$[ebp]
	mov	DWORD PTR fs:0, ecx
	pop	ecx
	pop	esi
	mov	esp, ebp
	pop	ebp
	ret	4
_TEXT	ENDS
;	COMDAT text$x
text$x	SEGMENT
__unwindfunclet$??_G?$basic_filebuf@DU?$char_traits@D@std@@@std@@UAEPAXI@Z$0:
	mov	ecx, DWORD PTR _this$[ebp]
	jmp	DWORD PTR __imp_??1?$basic_streambuf@DU?$char_traits@D@std@@@std@@UAE@XZ
__ehhandler$??_G?$basic_filebuf@DU?$char_traits@D@std@@@std@@UAEPAXI@Z:
	mov	edx, DWORD PTR [esp+8]
	lea	eax, DWORD PTR [edx+12]
	mov	ecx, DWORD PTR [edx-12]
	xor	ecx, eax
	call	@__security_check_cookie@4
	mov	eax, OFFSET __ehfuncinfo$??_G?$basic_filebuf@DU?$char_traits@D@std@@@std@@UAEPAXI@Z
	jmp	___CxxFrameHandler3
text$x	ENDS
??_G?$basic_filebuf@DU?$char_traits@D@std@@@std@@UAEPAXI@Z ENDP ; std::basic_filebuf<char,std::char_traits<char> >::`scalar deleting destructor'
PUBLIC	??_7?$basic_ifstream@DU?$char_traits@D@std@@@std@@6B@ ; std::basic_ifstream<char,std::char_traits<char> >::`vftable'
PUBLIC	??_8?$basic_ifstream@DU?$char_traits@D@std@@@std@@7B@ ; std::basic_ifstream<char,std::char_traits<char> >::`vbtable'
PUBLIC	??0?$basic_ifstream@DU?$char_traits@D@std@@@std@@QAE@PBDHH@Z ; std::basic_ifstream<char,std::char_traits<char> >::basic_ifstream<char,std::char_traits<char> >
PUBLIC	??_R4?$basic_ifstream@DU?$char_traits@D@std@@@std@@6B@ ; std::basic_ifstream<char,std::char_traits<char> >::`RTTI Complete Object Locator'
PUBLIC	??_R0?AV?$basic_ifstream@DU?$char_traits@D@std@@@std@@@8 ; std::basic_ifstream<char,std::char_traits<char> > `RTTI Type Descriptor'
PUBLIC	??_R3?$basic_ifstream@DU?$char_traits@D@std@@@std@@8 ; std::basic_ifstream<char,std::char_traits<char> >::`RTTI Class Hierarchy Descriptor'
PUBLIC	??_R2?$basic_ifstream@DU?$char_traits@D@std@@@std@@8 ; std::basic_ifstream<char,std::char_traits<char> >::`RTTI Base Class Array'
PUBLIC	??_R1A@?0A@EA@?$basic_ifstream@DU?$char_traits@D@std@@@std@@8 ; std::basic_ifstream<char,std::char_traits<char> >::`RTTI Base Class Descriptor at (0,-1,0,64)'
PUBLIC	??_R1A@?0A@EA@?$basic_istream@DU?$char_traits@D@std@@@std@@8 ; std::basic_istream<char,std::char_traits<char> >::`RTTI Base Class Descriptor at (0,-1,0,64)'
PUBLIC	??_R0?AV?$basic_istream@DU?$char_traits@D@std@@@std@@@8 ; std::basic_istream<char,std::char_traits<char> > `RTTI Type Descriptor'
PUBLIC	??_R3?$basic_istream@DU?$char_traits@D@std@@@std@@8 ; std::basic_istream<char,std::char_traits<char> >::`RTTI Class Hierarchy Descriptor'
PUBLIC	??_R2?$basic_istream@DU?$char_traits@D@std@@@std@@8 ; std::basic_istream<char,std::char_traits<char> >::`RTTI Base Class Array'
PUBLIC	??_R1A@A@3FA@?$basic_ios@DU?$char_traits@D@std@@@std@@8 ; std::basic_ios<char,std::char_traits<char> >::`RTTI Base Class Descriptor at (0,0,4,80)'
PUBLIC	??_R0?AV?$basic_ios@DU?$char_traits@D@std@@@std@@@8 ; std::basic_ios<char,std::char_traits<char> > `RTTI Type Descriptor'
PUBLIC	??_R3?$basic_ios@DU?$char_traits@D@std@@@std@@8	; std::basic_ios<char,std::char_traits<char> >::`RTTI Class Hierarchy Descriptor'
PUBLIC	??_R2?$basic_ios@DU?$char_traits@D@std@@@std@@8	; std::basic_ios<char,std::char_traits<char> >::`RTTI Base Class Array'
PUBLIC	??_R1A@?0A@EA@?$basic_ios@DU?$char_traits@D@std@@@std@@8 ; std::basic_ios<char,std::char_traits<char> >::`RTTI Base Class Descriptor at (0,-1,0,64)'
PUBLIC	??_R1A@?0A@EA@ios_base@std@@8			; std::ios_base::`RTTI Base Class Descriptor at (0,-1,0,64)'
PUBLIC	??_R0?AVios_base@std@@@8			; std::ios_base `RTTI Type Descriptor'
PUBLIC	??_R3ios_base@std@@8				; std::ios_base::`RTTI Class Hierarchy Descriptor'
PUBLIC	??_R2ios_base@std@@8				; std::ios_base::`RTTI Base Class Array'
PUBLIC	??_R17?0A@EA@?$_Iosb@H@std@@8			; std::_Iosb<int>::`RTTI Base Class Descriptor at (8,-1,0,64)'
PUBLIC	??_R0?AV?$_Iosb@H@std@@@8			; std::_Iosb<int> `RTTI Type Descriptor'
PUBLIC	??_R3?$_Iosb@H@std@@8				; std::_Iosb<int>::`RTTI Class Hierarchy Descriptor'
PUBLIC	??_R2?$_Iosb@H@std@@8				; std::_Iosb<int>::`RTTI Base Class Array'
PUBLIC	??_R1A@?0A@EA@?$_Iosb@H@std@@8			; std::_Iosb<int>::`RTTI Base Class Descriptor at (0,-1,0,64)'
PUBLIC	??_R1A@A@3EA@ios_base@std@@8			; std::ios_base::`RTTI Base Class Descriptor at (0,0,4,64)'
PUBLIC	??_R17A@3EA@?$_Iosb@H@std@@8			; std::_Iosb<int>::`RTTI Base Class Descriptor at (8,0,4,64)'
EXTRN	__imp_??1?$basic_istream@DU?$char_traits@D@std@@@std@@UAE@XZ:PROC
EXTRN	__imp_??1?$basic_ios@DU?$char_traits@D@std@@@std@@UAE@XZ:PROC
EXTRN	__imp_?setstate@?$basic_ios@DU?$char_traits@D@std@@@std@@QAEXH_N@Z:PROC
EXTRN	__imp_??0?$basic_istream@DU?$char_traits@D@std@@@std@@QAE@PAV?$basic_streambuf@DU?$char_traits@D@std@@@1@_N@Z:PROC
EXTRN	__imp_??_7?$basic_ios@DU?$char_traits@D@std@@@std@@6B@:QWORD
EXTRN	__imp_??_7ios_base@std@@6B@:QWORD
EXTRN	??_E?$basic_ifstream@DU?$char_traits@D@std@@@std@@UAEPAXI@Z:PROC ; std::basic_ifstream<char,std::char_traits<char> >::`vector deleting destructor'
;	COMDAT ??_R17A@3EA@?$_Iosb@H@std@@8
; File c:\program files (x86)\microsoft visual studio 10.0\vc\include\streambuf
rdata$r	SEGMENT
??_R17A@3EA@?$_Iosb@H@std@@8 DD FLAT:??_R0?AV?$_Iosb@H@std@@@8 ; std::_Iosb<int>::`RTTI Base Class Descriptor at (8,0,4,64)'
	DD	00H
	DD	08H
	DD	00H
	DD	04H
	DD	040H
	DD	FLAT:??_R3?$_Iosb@H@std@@8
rdata$r	ENDS
;	COMDAT ??_R1A@A@3EA@ios_base@std@@8
rdata$r	SEGMENT
??_R1A@A@3EA@ios_base@std@@8 DD FLAT:??_R0?AVios_base@std@@@8 ; std::ios_base::`RTTI Base Class Descriptor at (0,0,4,64)'
	DD	01H
	DD	00H
	DD	00H
	DD	04H
	DD	040H
	DD	FLAT:??_R3ios_base@std@@8
rdata$r	ENDS
;	COMDAT ??_R1A@?0A@EA@?$_Iosb@H@std@@8
rdata$r	SEGMENT
??_R1A@?0A@EA@?$_Iosb@H@std@@8 DD FLAT:??_R0?AV?$_Iosb@H@std@@@8 ; std::_Iosb<int>::`RTTI Base Class Descriptor at (0,-1,0,64)'
	DD	00H
	DD	00H
	DD	0ffffffffH
	DD	00H
	DD	040H
	DD	FLAT:??_R3?$_Iosb@H@std@@8
rdata$r	ENDS
;	COMDAT ??_R2?$_Iosb@H@std@@8
rdata$r	SEGMENT
??_R2?$_Iosb@H@std@@8 DD FLAT:??_R1A@?0A@EA@?$_Iosb@H@std@@8 ; std::_Iosb<int>::`RTTI Base Class Array'
rdata$r	ENDS
;	COMDAT ??_R3?$_Iosb@H@std@@8
rdata$r	SEGMENT
??_R3?$_Iosb@H@std@@8 DD 00H				; std::_Iosb<int>::`RTTI Class Hierarchy Descriptor'
	DD	00H
	DD	01H
	DD	FLAT:??_R2?$_Iosb@H@std@@8
rdata$r	ENDS
;	COMDAT ??_R0?AV?$_Iosb@H@std@@@8
_DATA	SEGMENT
??_R0?AV?$_Iosb@H@std@@@8 DD FLAT:??_7type_info@@6B@	; std::_Iosb<int> `RTTI Type Descriptor'
	DD	00H
	DB	'.?AV?$_Iosb@H@std@@', 00H
_DATA	ENDS
;	COMDAT ??_R17?0A@EA@?$_Iosb@H@std@@8
rdata$r	SEGMENT
??_R17?0A@EA@?$_Iosb@H@std@@8 DD FLAT:??_R0?AV?$_Iosb@H@std@@@8 ; std::_Iosb<int>::`RTTI Base Class Descriptor at (8,-1,0,64)'
	DD	00H
	DD	08H
	DD	0ffffffffH
	DD	00H
	DD	040H
	DD	FLAT:??_R3?$_Iosb@H@std@@8
rdata$r	ENDS
;	COMDAT ??_R2ios_base@std@@8
rdata$r	SEGMENT
??_R2ios_base@std@@8 DD FLAT:??_R1A@?0A@EA@ios_base@std@@8 ; std::ios_base::`RTTI Base Class Array'
	DD	FLAT:??_R17?0A@EA@?$_Iosb@H@std@@8
rdata$r	ENDS
;	COMDAT ??_R3ios_base@std@@8
rdata$r	SEGMENT
??_R3ios_base@std@@8 DD 00H				; std::ios_base::`RTTI Class Hierarchy Descriptor'
	DD	00H
	DD	02H
	DD	FLAT:??_R2ios_base@std@@8
rdata$r	ENDS
;	COMDAT ??_R0?AVios_base@std@@@8
_DATA	SEGMENT
??_R0?AVios_base@std@@@8 DD FLAT:??_7type_info@@6B@	; std::ios_base `RTTI Type Descriptor'
	DD	00H
	DB	'.?AVios_base@std@@', 00H
_DATA	ENDS
;	COMDAT ??_R1A@?0A@EA@ios_base@std@@8
rdata$r	SEGMENT
??_R1A@?0A@EA@ios_base@std@@8 DD FLAT:??_R0?AVios_base@std@@@8 ; std::ios_base::`RTTI Base Class Descriptor at (0,-1,0,64)'
	DD	01H
	DD	00H
	DD	0ffffffffH
	DD	00H
	DD	040H
	DD	FLAT:??_R3ios_base@std@@8
rdata$r	ENDS
;	COMDAT ??_R1A@?0A@EA@?$basic_ios@DU?$char_traits@D@std@@@std@@8
rdata$r	SEGMENT
??_R1A@?0A@EA@?$basic_ios@DU?$char_traits@D@std@@@std@@8 DD FLAT:??_R0?AV?$basic_ios@DU?$char_traits@D@std@@@std@@@8 ; std::basic_ios<char,std::char_traits<char> >::`RTTI Base Class Descriptor at (0,-1,0,64)'
	DD	02H
	DD	00H
	DD	0ffffffffH
	DD	00H
	DD	040H
	DD	FLAT:??_R3?$basic_ios@DU?$char_traits@D@std@@@std@@8
rdata$r	ENDS
;	COMDAT ??_R2?$basic_ios@DU?$char_traits@D@std@@@std@@8
rdata$r	SEGMENT
??_R2?$basic_ios@DU?$char_traits@D@std@@@std@@8 DD FLAT:??_R1A@?0A@EA@?$basic_ios@DU?$char_traits@D@std@@@std@@8 ; std::basic_ios<char,std::char_traits<char> >::`RTTI Base Class Array'
	DD	FLAT:??_R1A@?0A@EA@ios_base@std@@8
	DD	FLAT:??_R17?0A@EA@?$_Iosb@H@std@@8
rdata$r	ENDS
;	COMDAT ??_R3?$basic_ios@DU?$char_traits@D@std@@@std@@8
rdata$r	SEGMENT
??_R3?$basic_ios@DU?$char_traits@D@std@@@std@@8 DD 00H	; std::basic_ios<char,std::char_traits<char> >::`RTTI Class Hierarchy Descriptor'
	DD	00H
	DD	03H
	DD	FLAT:??_R2?$basic_ios@DU?$char_traits@D@std@@@std@@8
rdata$r	ENDS
;	COMDAT ??_R0?AV?$basic_ios@DU?$char_traits@D@std@@@std@@@8
_DATA	SEGMENT
??_R0?AV?$basic_ios@DU?$char_traits@D@std@@@std@@@8 DD FLAT:??_7type_info@@6B@ ; std::basic_ios<char,std::char_traits<char> > `RTTI Type Descriptor'
	DD	00H
	DB	'.?AV?$basic_ios@DU?$char_traits@D@std@@@std@@', 00H
_DATA	ENDS
;	COMDAT ??_R1A@A@3FA@?$basic_ios@DU?$char_traits@D@std@@@std@@8
rdata$r	SEGMENT
??_R1A@A@3FA@?$basic_ios@DU?$char_traits@D@std@@@std@@8 DD FLAT:??_R0?AV?$basic_ios@DU?$char_traits@D@std@@@std@@@8 ; std::basic_ios<char,std::char_traits<char> >::`RTTI Base Class Descriptor at (0,0,4,80)'
	DD	02H
	DD	00H
	DD	00H
	DD	04H
	DD	050H
	DD	FLAT:??_R3?$basic_ios@DU?$char_traits@D@std@@@std@@8
rdata$r	ENDS
;	COMDAT ??_R2?$basic_istream@DU?$char_traits@D@std@@@std@@8
rdata$r	SEGMENT
??_R2?$basic_istream@DU?$char_traits@D@std@@@std@@8 DD FLAT:??_R1A@?0A@EA@?$basic_istream@DU?$char_traits@D@std@@@std@@8 ; std::basic_istream<char,std::char_traits<char> >::`RTTI Base Class Array'
	DD	FLAT:??_R1A@A@3FA@?$basic_ios@DU?$char_traits@D@std@@@std@@8
	DD	FLAT:??_R1A@A@3EA@ios_base@std@@8
	DD	FLAT:??_R17A@3EA@?$_Iosb@H@std@@8
rdata$r	ENDS
;	COMDAT ??_R3?$basic_istream@DU?$char_traits@D@std@@@std@@8
rdata$r	SEGMENT
??_R3?$basic_istream@DU?$char_traits@D@std@@@std@@8 DD 00H ; std::basic_istream<char,std::char_traits<char> >::`RTTI Class Hierarchy Descriptor'
	DD	00H
	DD	04H
	DD	FLAT:??_R2?$basic_istream@DU?$char_traits@D@std@@@std@@8
rdata$r	ENDS
;	COMDAT ??_R0?AV?$basic_istream@DU?$char_traits@D@std@@@std@@@8
_DATA	SEGMENT
??_R0?AV?$basic_istream@DU?$char_traits@D@std@@@std@@@8 DD FLAT:??_7type_info@@6B@ ; std::basic_istream<char,std::char_traits<char> > `RTTI Type Descriptor'
	DD	00H
	DB	'.?AV?$basic_istream@DU?$char_traits@D@std@@@std@@', 00H
_DATA	ENDS
;	COMDAT ??_R1A@?0A@EA@?$basic_istream@DU?$char_traits@D@std@@@std@@8
rdata$r	SEGMENT
??_R1A@?0A@EA@?$basic_istream@DU?$char_traits@D@std@@@std@@8 DD FLAT:??_R0?AV?$basic_istream@DU?$char_traits@D@std@@@std@@@8 ; std::basic_istream<char,std::char_traits<char> >::`RTTI Base Class Descriptor at (0,-1,0,64)'
	DD	03H
	DD	00H
	DD	0ffffffffH
	DD	00H
	DD	040H
	DD	FLAT:??_R3?$basic_istream@DU?$char_traits@D@std@@@std@@8
rdata$r	ENDS
;	COMDAT ??_R1A@?0A@EA@?$basic_ifstream@DU?$char_traits@D@std@@@std@@8
rdata$r	SEGMENT
??_R1A@?0A@EA@?$basic_ifstream@DU?$char_traits@D@std@@@std@@8 DD FLAT:??_R0?AV?$basic_ifstream@DU?$char_traits@D@std@@@std@@@8 ; std::basic_ifstream<char,std::char_traits<char> >::`RTTI Base Class Descriptor at (0,-1,0,64)'
	DD	04H
	DD	00H
	DD	0ffffffffH
	DD	00H
	DD	040H
	DD	FLAT:??_R3?$basic_ifstream@DU?$char_traits@D@std@@@std@@8
rdata$r	ENDS
;	COMDAT ??_R2?$basic_ifstream@DU?$char_traits@D@std@@@std@@8
rdata$r	SEGMENT
??_R2?$basic_ifstream@DU?$char_traits@D@std@@@std@@8 DD FLAT:??_R1A@?0A@EA@?$basic_ifstream@DU?$char_traits@D@std@@@std@@8 ; std::basic_ifstream<char,std::char_traits<char> >::`RTTI Base Class Array'
	DD	FLAT:??_R1A@?0A@EA@?$basic_istream@DU?$char_traits@D@std@@@std@@8
	DD	FLAT:??_R1A@A@3FA@?$basic_ios@DU?$char_traits@D@std@@@std@@8
	DD	FLAT:??_R1A@A@3EA@ios_base@std@@8
	DD	FLAT:??_R17A@3EA@?$_Iosb@H@std@@8
rdata$r	ENDS
;	COMDAT ??_R3?$basic_ifstream@DU?$char_traits@D@std@@@std@@8
rdata$r	SEGMENT
??_R3?$basic_ifstream@DU?$char_traits@D@std@@@std@@8 DD 00H ; std::basic_ifstream<char,std::char_traits<char> >::`RTTI Class Hierarchy Descriptor'
	DD	00H
	DD	05H
	DD	FLAT:??_R2?$basic_ifstream@DU?$char_traits@D@std@@@std@@8
rdata$r	ENDS
;	COMDAT ??_R0?AV?$basic_ifstream@DU?$char_traits@D@std@@@std@@@8
_DATA	SEGMENT
??_R0?AV?$basic_ifstream@DU?$char_traits@D@std@@@std@@@8 DD FLAT:??_7type_info@@6B@ ; std::basic_ifstream<char,std::char_traits<char> > `RTTI Type Descriptor'
	DD	00H
	DB	'.?AV?$basic_ifstream@DU?$char_traits@D@std@@@std@@', 00H
_DATA	ENDS
;	COMDAT ??_R4?$basic_ifstream@DU?$char_traits@D@std@@@std@@6B@
rdata$r	SEGMENT
??_R4?$basic_ifstream@DU?$char_traits@D@std@@@std@@6B@ DD 00H ; std::basic_ifstream<char,std::char_traits<char> >::`RTTI Complete Object Locator'
	DD	068H
	DD	00H
	DD	FLAT:??_R0?AV?$basic_ifstream@DU?$char_traits@D@std@@@std@@@8
	DD	FLAT:??_R3?$basic_ifstream@DU?$char_traits@D@std@@@std@@8
rdata$r	ENDS
;	COMDAT ??_7?$basic_ifstream@DU?$char_traits@D@std@@@std@@6B@
CONST	SEGMENT
??_7?$basic_ifstream@DU?$char_traits@D@std@@@std@@6B@ DD FLAT:??_R4?$basic_ifstream@DU?$char_traits@D@std@@@std@@6B@ ; std::basic_ifstream<char,std::char_traits<char> >::`vftable'
	DD	FLAT:??_E?$basic_ifstream@DU?$char_traits@D@std@@@std@@UAEPAXI@Z
CONST	ENDS
;	COMDAT ??_8?$basic_ifstream@DU?$char_traits@D@std@@@std@@7B@
CONST	SEGMENT
??_8?$basic_ifstream@DU?$char_traits@D@std@@@std@@7B@ DD 00H ; std::basic_ifstream<char,std::char_traits<char> >::`vbtable'
	DD	068H
CONST	ENDS
;	COMDAT xdata$x
xdata$x	SEGMENT
__unwindtable$??0?$basic_ifstream@DU?$char_traits@D@std@@@std@@QAE@PBDHH@Z DD 0ffffffffH
	DD	FLAT:__unwindfunclet$??0?$basic_ifstream@DU?$char_traits@D@std@@@std@@QAE@PBDHH@Z$0
	DD	00H
	DD	FLAT:__unwindfunclet$??0?$basic_ifstream@DU?$char_traits@D@std@@@std@@QAE@PBDHH@Z$1
	DD	01H
	DD	FLAT:__unwindfunclet$??0?$basic_ifstream@DU?$char_traits@D@std@@@std@@QAE@PBDHH@Z$4
	DD	01H
	DD	FLAT:__unwindfunclet$??0?$basic_ifstream@DU?$char_traits@D@std@@@std@@QAE@PBDHH@Z$2
__ehfuncinfo$??0?$basic_ifstream@DU?$char_traits@D@std@@@std@@QAE@PBDHH@Z DD 019930522H
	DD	04H
	DD	FLAT:__unwindtable$??0?$basic_ifstream@DU?$char_traits@D@std@@@std@@QAE@PBDHH@Z
	DD	2 DUP(00H)
	DD	2 DUP(00H)
	DD	00H
	DD	01H
; Function compile flags: /Ogtp
xdata$x	ENDS
;	COMDAT ??0?$basic_ifstream@DU?$char_traits@D@std@@@std@@QAE@PBDHH@Z
_TEXT	SEGMENT
_this$ = -20						; size = 4
$T84379 = -16						; size = 4
__$EHRec$ = -12						; size = 12
__Filename$ = 8						; size = 4
__Mode$ = 12						; size = 4
__Prot$ = 16						; size = 4
$T84426 = 20						; size = 4
_$initVBases$ = 20					; size = 4
??0?$basic_ifstream@DU?$char_traits@D@std@@@std@@QAE@PBDHH@Z PROC ; std::basic_ifstream<char,std::char_traits<char> >::basic_ifstream<char,std::char_traits<char> >, COMDAT
; _this$ = ecx
; File c:\program files (x86)\microsoft visual studio 10.0\vc\include\fstream
; Line 714
	push	ebp
	mov	ebp, esp
	push	-1
	push	__ehhandler$??0?$basic_ifstream@DU?$char_traits@D@std@@@std@@QAE@PBDHH@Z
	mov	eax, DWORD PTR fs:0
	push	eax
	sub	esp, 8
	push	esi
	push	edi
	mov	eax, DWORD PTR ___security_cookie
	xor	eax, ebp
	push	eax
	lea	eax, DWORD PTR __$EHRec$[ebp]
	mov	DWORD PTR fs:0, eax
	mov	edi, ecx
	mov	DWORD PTR _this$[ebp], edi
	xor	eax, eax
	mov	DWORD PTR $T84379[ebp], eax
	cmp	DWORD PTR _$initVBases$[ebp], eax
	je	SHORT $LN2@basic_ifst
	mov	DWORD PTR [edi], OFFSET ??_8?$basic_ifstream@DU?$char_traits@D@std@@@std@@7B@
	mov	ecx, DWORD PTR __imp_??_7ios_base@std@@6B@
	mov	DWORD PTR [edi+104], ecx
	mov	edx, DWORD PTR __imp_??_7?$basic_ios@DU?$char_traits@D@std@@@std@@6B@
	mov	DWORD PTR [edi+104], edx
	mov	DWORD PTR __$EHRec$[ebp+8], eax
	mov	DWORD PTR $T84379[ebp], 1
$LN2@basic_ifst:
	push	eax
	push	eax
	lea	esi, DWORD PTR [edi+16]
	push	esi
	mov	ecx, edi
	call	DWORD PTR __imp_??0?$basic_istream@DU?$char_traits@D@std@@@std@@QAE@PAV?$basic_streambuf@DU?$char_traits@D@std@@@1@_N@Z
	mov	eax, DWORD PTR [edi]
	mov	ecx, DWORD PTR [eax+4]
	mov	DWORD PTR [edi+ecx], OFFSET ??_7?$basic_ifstream@DU?$char_traits@D@std@@@std@@6B@
	mov	ecx, esi
	mov	DWORD PTR __$EHRec$[ebp+8], 1
	mov	DWORD PTR $T84426[ebp], esi
	call	DWORD PTR __imp_??0?$basic_streambuf@DU?$char_traits@D@std@@@std@@IAE@XZ
	xor	al, al
	mov	ecx, esi
	mov	BYTE PTR __$EHRec$[ebp+8], 2
	mov	DWORD PTR [esi], OFFSET ??_7?$basic_filebuf@DU?$char_traits@D@std@@@std@@6B@
	mov	BYTE PTR [esi+80], al
	mov	BYTE PTR [esi+73], al
	call	DWORD PTR __imp_?_Init@?$basic_streambuf@DU?$char_traits@D@std@@@std@@IAEXXZ
	mov	DWORD PTR [esi+84], 0
	mov	edx, DWORD PTR ?_Stinit@?1??_Init@?$basic_filebuf@DU?$char_traits@D@std@@@std@@IAEXPAU_iobuf@@W4_Initfl@23@@Z@4HA
	mov	DWORD PTR [esi+76], edx
	mov	DWORD PTR [esi+68], 0
; Line 715
	mov	eax, DWORD PTR __Prot$[ebp]
	mov	ecx, DWORD PTR __Mode$[ebp]
	mov	edx, DWORD PTR __Filename$[ebp]
	push	eax
	or	ecx, 1
	push	ecx
	push	edx
	mov	ecx, esi
	mov	BYTE PTR __$EHRec$[ebp+8], 3
	call	?open@?$basic_filebuf@DU?$char_traits@D@std@@@std@@QAEPAV12@PBDHH@Z ; std::basic_filebuf<char,std::char_traits<char> >::open
	test	eax, eax
	jne	SHORT $LN26@basic_ifst
; Line 716
	push	eax
	mov	eax, DWORD PTR [edi]
	mov	ecx, DWORD PTR [eax+4]
	push	2
	add	ecx, edi
	call	DWORD PTR __imp_?setstate@?$basic_ios@DU?$char_traits@D@std@@@std@@QAEXH_N@Z
$LN26@basic_ifst:
; Line 717
	mov	eax, edi
	mov	ecx, DWORD PTR __$EHRec$[ebp]
	mov	DWORD PTR fs:0, ecx
	pop	ecx
	pop	edi
	pop	esi
	mov	esp, ebp
	pop	ebp
	ret	16					; 00000010H
_TEXT	ENDS
;	COMDAT text$x
text$x	SEGMENT
__unwindfunclet$??0?$basic_ifstream@DU?$char_traits@D@std@@@std@@QAE@PBDHH@Z$0:
	mov	eax, DWORD PTR $T84379[ebp]
	and	eax, 1
	je	$LN6@basic_ifst
	and	DWORD PTR $T84379[ebp], -2		; fffffffeH
	mov	ecx, DWORD PTR _this$[ebp]
	add	ecx, 104				; 00000068H
	jmp	DWORD PTR __imp_??1?$basic_ios@DU?$char_traits@D@std@@@std@@UAE@XZ
$LN6@basic_ifst:
	ret	0
__unwindfunclet$??0?$basic_ifstream@DU?$char_traits@D@std@@@std@@QAE@PBDHH@Z$1:
	mov	ecx, DWORD PTR _this$[ebp]
	add	ecx, 16					; 00000010H
	jmp	DWORD PTR __imp_??1?$basic_istream@DU?$char_traits@D@std@@@std@@UAE@XZ
__unwindfunclet$??0?$basic_ifstream@DU?$char_traits@D@std@@@std@@QAE@PBDHH@Z$4:
	mov	ecx, DWORD PTR $T84426[ebp]
	jmp	DWORD PTR __imp_??1?$basic_streambuf@DU?$char_traits@D@std@@@std@@UAE@XZ
__unwindfunclet$??0?$basic_ifstream@DU?$char_traits@D@std@@@std@@QAE@PBDHH@Z$2:
	mov	ecx, DWORD PTR _this$[ebp]
	add	ecx, 16					; 00000010H
	jmp	??1?$basic_filebuf@DU?$char_traits@D@std@@@std@@UAE@XZ ; std::basic_filebuf<char,std::char_traits<char> >::~basic_filebuf<char,std::char_traits<char> >
__ehhandler$??0?$basic_ifstream@DU?$char_traits@D@std@@@std@@QAE@PBDHH@Z:
	mov	edx, DWORD PTR [esp+8]
	lea	eax, DWORD PTR [edx+12]
	mov	ecx, DWORD PTR [edx-20]
	xor	ecx, eax
	call	@__security_check_cookie@4
	mov	eax, OFFSET __ehfuncinfo$??0?$basic_ifstream@DU?$char_traits@D@std@@@std@@QAE@PBDHH@Z
	jmp	___CxxFrameHandler3
text$x	ENDS
??0?$basic_ifstream@DU?$char_traits@D@std@@@std@@QAE@PBDHH@Z ENDP ; std::basic_ifstream<char,std::char_traits<char> >::basic_ifstream<char,std::char_traits<char> >
PUBLIC	??1?$basic_ifstream@DU?$char_traits@D@std@@@std@@UAE@XZ ; std::basic_ifstream<char,std::char_traits<char> >::~basic_ifstream<char,std::char_traits<char> >
EXTRN	__imp_??_7?$basic_istream@DU?$char_traits@D@std@@@std@@6B@:QWORD
;	COMDAT xdata$x
; File c:\program files (x86)\microsoft visual studio 10.0\vc\include\istream
xdata$x	SEGMENT
__unwindtable$??1?$basic_ifstream@DU?$char_traits@D@std@@@std@@UAE@XZ DD 0ffffffffH
	DD	FLAT:__unwindfunclet$??1?$basic_ifstream@DU?$char_traits@D@std@@@std@@UAE@XZ$0
	DD	00H
	DD	FLAT:__unwindfunclet$??1?$basic_ifstream@DU?$char_traits@D@std@@@std@@UAE@XZ$2
__ehfuncinfo$??1?$basic_ifstream@DU?$char_traits@D@std@@@std@@UAE@XZ DD 019930522H
	DD	02H
	DD	FLAT:__unwindtable$??1?$basic_ifstream@DU?$char_traits@D@std@@@std@@UAE@XZ
	DD	2 DUP(00H)
	DD	2 DUP(00H)
	DD	00H
	DD	01H
; Function compile flags: /Ogtp
xdata$x	ENDS
;	COMDAT ??1?$basic_ifstream@DU?$char_traits@D@std@@@std@@UAE@XZ
_TEXT	SEGMENT
$T84469 = -20						; size = 4
_this$ = -16						; size = 4
__$EHRec$ = -12						; size = 12
??1?$basic_ifstream@DU?$char_traits@D@std@@@std@@UAE@XZ PROC ; std::basic_ifstream<char,std::char_traits<char> >::~basic_ifstream<char,std::char_traits<char> >, COMDAT
; _this$ = ecx
; File c:\program files (x86)\microsoft visual studio 10.0\vc\include\fstream
; Line 845
	push	ebp
	mov	ebp, esp
	push	-1
	push	__ehhandler$??1?$basic_ifstream@DU?$char_traits@D@std@@@std@@UAE@XZ
	mov	eax, DWORD PTR fs:0
	push	eax
	sub	esp, 8
	push	esi
	mov	eax, DWORD PTR ___security_cookie
	xor	eax, ebp
	push	eax
	lea	eax, DWORD PTR __$EHRec$[ebp]
	mov	DWORD PTR fs:0, eax
	mov	DWORD PTR _this$[ebp], ecx
	mov	eax, DWORD PTR [ecx-104]
	mov	edx, DWORD PTR [eax+4]
	mov	DWORD PTR [edx+ecx-104], OFFSET ??_7?$basic_ifstream@DU?$char_traits@D@std@@@std@@6B@
; Line 846
	lea	esi, DWORD PTR [ecx-88]
	mov	DWORD PTR __$EHRec$[ebp+8], 0
	mov	DWORD PTR $T84469[ebp], esi
	mov	DWORD PTR [esi], OFFSET ??_7?$basic_filebuf@DU?$char_traits@D@std@@@std@@6B@
	cmp	DWORD PTR [esi+84], 0
	mov	BYTE PTR __$EHRec$[ebp+8], 1
	je	SHORT $LN15@basic_ifst@2
	mov	ecx, DWORD PTR [esi+16]
	lea	edx, DWORD PTR [esi+72]
	cmp	DWORD PTR [ecx], edx
	jne	SHORT $LN15@basic_ifst@2
	mov	edx, DWORD PTR [esi+60]
	mov	eax, DWORD PTR [esi+64]
	mov	DWORD PTR [ecx], edx
	mov	ecx, DWORD PTR [esi+32]
	mov	DWORD PTR [ecx], eax
	mov	edx, DWORD PTR [esi+48]
	sub	eax, eax
	mov	DWORD PTR [edx], eax
$LN15@basic_ifst@2:
	cmp	BYTE PTR [esi+80], 0
	je	SHORT $LN5@basic_ifst@2
	mov	ecx, esi
	call	?close@?$basic_filebuf@DU?$char_traits@D@std@@@std@@QAEPAV12@XZ ; std::basic_filebuf<char,std::char_traits<char> >::close
$LN5@basic_ifst@2:
	mov	ecx, esi
	mov	BYTE PTR __$EHRec$[ebp+8], 0
	call	DWORD PTR __imp_??1?$basic_streambuf@DU?$char_traits@D@std@@@std@@UAE@XZ
	mov	eax, DWORD PTR [esi-16]
	mov	ecx, DWORD PTR [eax+4]
	mov	edx, DWORD PTR __imp_??_7?$basic_istream@DU?$char_traits@D@std@@@std@@6B@
	mov	DWORD PTR [ecx+esi-16], edx
	mov	ecx, DWORD PTR __$EHRec$[ebp]
	mov	DWORD PTR fs:0, ecx
	pop	ecx
	pop	esi
	mov	esp, ebp
	pop	ebp
	ret	0
_TEXT	ENDS
;	COMDAT text$x
text$x	SEGMENT
__unwindfunclet$??1?$basic_ifstream@DU?$char_traits@D@std@@@std@@UAE@XZ$0:
	mov	ecx, DWORD PTR _this$[ebp]
	sub	ecx, 88					; 00000058H
	jmp	DWORD PTR __imp_??1?$basic_istream@DU?$char_traits@D@std@@@std@@UAE@XZ
__unwindfunclet$??1?$basic_ifstream@DU?$char_traits@D@std@@@std@@UAE@XZ$2:
	mov	ecx, DWORD PTR $T84469[ebp]
	jmp	DWORD PTR __imp_??1?$basic_streambuf@DU?$char_traits@D@std@@@std@@UAE@XZ
__ehhandler$??1?$basic_ifstream@DU?$char_traits@D@std@@@std@@UAE@XZ:
	mov	edx, DWORD PTR [esp+8]
	lea	eax, DWORD PTR [edx+12]
	mov	ecx, DWORD PTR [edx-16]
	xor	ecx, eax
	call	@__security_check_cookie@4
	mov	eax, OFFSET __ehfuncinfo$??1?$basic_ifstream@DU?$char_traits@D@std@@@std@@UAE@XZ
	jmp	___CxxFrameHandler3
text$x	ENDS
??1?$basic_ifstream@DU?$char_traits@D@std@@@std@@UAE@XZ ENDP ; std::basic_ifstream<char,std::char_traits<char> >::~basic_ifstream<char,std::char_traits<char> >
PUBLIC	??_D?$basic_ifstream@DU?$char_traits@D@std@@@std@@QAEXXZ ; std::basic_ifstream<char,std::char_traits<char> >::`vbase destructor'
EXTRN	__imp_?_Ios_base_dtor@ios_base@std@@CAXPAV12@@Z:PROC
; Function compile flags: /Ogtp
;	COMDAT ??_D?$basic_ifstream@DU?$char_traits@D@std@@@std@@QAEXXZ
_TEXT	SEGMENT
??_D?$basic_ifstream@DU?$char_traits@D@std@@@std@@QAEXXZ PROC ; std::basic_ifstream<char,std::char_traits<char> >::`vbase destructor', COMDAT
; _this$ = ecx
	push	esi
	lea	esi, DWORD PTR [ecx+104]
	mov	ecx, esi
	call	??1?$basic_ifstream@DU?$char_traits@D@std@@@std@@UAE@XZ ; std::basic_ifstream<char,std::char_traits<char> >::~basic_ifstream<char,std::char_traits<char> >
	mov	eax, DWORD PTR __imp_??_7?$basic_ios@DU?$char_traits@D@std@@@std@@6B@
	mov	DWORD PTR [esi], eax
	mov	ecx, DWORD PTR __imp_??_7ios_base@std@@6B@
	push	esi
	mov	DWORD PTR [esi], ecx
	call	DWORD PTR __imp_?_Ios_base_dtor@ios_base@std@@CAXPAV12@@Z
	add	esp, 4
	pop	esi
	ret	0
??_D?$basic_ifstream@DU?$char_traits@D@std@@@std@@QAEXXZ ENDP ; std::basic_ifstream<char,std::char_traits<char> >::`vbase destructor'
; Function compile flags: /Ogtp
_TEXT	ENDS
;	COMDAT ??_G?$basic_ifstream@DU?$char_traits@D@std@@@std@@UAEPAXI@Z
_TEXT	SEGMENT
___flags$ = 8						; size = 4
??_G?$basic_ifstream@DU?$char_traits@D@std@@@std@@UAEPAXI@Z PROC ; std::basic_ifstream<char,std::char_traits<char> >::`scalar deleting destructor', COMDAT
; _this$ = ecx
	push	ebp
	mov	ebp, esp
	push	esi
	push	edi
	lea	edi, DWORD PTR [ecx-104]
	lea	esi, DWORD PTR [edi+104]
	mov	ecx, esi
	call	??1?$basic_ifstream@DU?$char_traits@D@std@@@std@@UAE@XZ ; std::basic_ifstream<char,std::char_traits<char> >::~basic_ifstream<char,std::char_traits<char> >
	mov	eax, DWORD PTR __imp_??_7?$basic_ios@DU?$char_traits@D@std@@@std@@6B@
	mov	DWORD PTR [esi], eax
	mov	ecx, DWORD PTR __imp_??_7ios_base@std@@6B@
	push	esi
	mov	DWORD PTR [esi], ecx
	call	DWORD PTR __imp_?_Ios_base_dtor@ios_base@std@@CAXPAV12@@Z
	add	esp, 4
	test	BYTE PTR ___flags$[ebp], 1
	je	SHORT $LN11@scalar@3
	push	edi
	call	??3@YAXPAX@Z				; operator delete
	add	esp, 4
$LN11@scalar@3:
	mov	eax, edi
	pop	edi
	pop	esi
	pop	ebp
	ret	4
??_G?$basic_ifstream@DU?$char_traits@D@std@@@std@@UAEPAXI@Z ENDP ; std::basic_ifstream<char,std::char_traits<char> >::`scalar deleting destructor'
_TEXT	ENDS
PUBLIC	__$ArrayPad$
PUBLIC	??0Font@@QAE@IHHHPBD@Z				; Font::Font
EXTRN	__imp_??5?$basic_istream@DU?$char_traits@D@std@@@std@@QAEAAV01@AAH@Z:PROC
EXTRN	__imp__exit:PROC
EXTRN	?gLog@@YAXPADZZ:PROC				; gLog
xdata$x	SEGMENT
__unwindtable$??0Font@@QAE@IHHHPBD@Z DD 0ffffffffH
	DD	FLAT:__unwindfunclet$??0Font@@QAE@IHHHPBD@Z$0
__ehfuncinfo$??0Font@@QAE@IHHHPBD@Z DD 019930522H
	DD	01H
	DD	FLAT:__unwindtable$??0Font@@QAE@IHHHPBD@Z
	DD	2 DUP(00H)
	DD	2 DUP(00H)
	DD	00H
	DD	01H
; Function compile flags: /Ogtp
xdata$x	ENDS
_TEXT	SEGMENT
_in$ = -260						; size = 176
_space$ = -84						; size = 36
_ci$70537 = -84						; size = 36
tv448 = -48						; size = 4
tv441 = -48						; size = 4
tv356 = -48						; size = 4
tv345 = -48						; size = 4
_line$70520 = -44					; size = 28
__$ArrayPad$ = -16					; size = 4
__$EHRec$ = -12						; size = 12
_tex$ = 8						; size = 4
_tw$ = 12						; size = 4
_th$ = 16						; size = 4
_size$ = 20						; size = 4
_infofile$ = 24						; size = 4
??0Font@@QAE@IHHHPBD@Z PROC				; Font::Font
; _this$ = ecx
; File c:\programovani\wow editor\test\src\editor\font.cpp
; Line 10
	push	ebp
	mov	ebp, esp
	push	-1
	push	__ehhandler$??0Font@@QAE@IHHHPBD@Z
	mov	eax, DWORD PTR fs:0
	push	eax
	sub	esp, 248				; 000000f8H
	mov	eax, DWORD PTR ___security_cookie
	xor	eax, ebp
	mov	DWORD PTR __$ArrayPad$[ebp], eax
	push	ebx
	push	esi
	push	edi
	push	eax
	lea	eax, DWORD PTR __$EHRec$[ebp]
	mov	DWORD PTR fs:0, eax
	mov	eax, DWORD PTR _tex$[ebp]
	mov	edi, DWORD PTR _infofile$[ebp]
	mov	edx, DWORD PTR _th$[ebp]
	mov	ebx, ecx
	mov	ecx, DWORD PTR _tw$[ebp]
; Line 11
	push	1
	push	64					; 00000040H
	mov	DWORD PTR [ebx], eax
	mov	eax, DWORD PTR _size$[ebp]
	push	1
	mov	DWORD PTR [ebx+4], ecx
	push	edi
	lea	ecx, DWORD PTR _in$[ebp]
	mov	DWORD PTR [ebx+8], edx
	mov	DWORD PTR [ebx+12], eax
	call	??0?$basic_ifstream@DU?$char_traits@D@std@@@std@@QAE@PBDHH@Z ; std::basic_ifstream<char,std::char_traits<char> >::basic_ifstream<char,std::char_traits<char> >
	xor	esi, esi
	mov	DWORD PTR __$EHRec$[ebp+8], esi
; Line 12
	cmp	DWORD PTR _in$[ebp+100], esi
	jne	SHORT $LN7@Font
; Line 14
	push	edi
	push	OFFSET $SG70515
	call	?gLog@@YAXPADZZ				; gLog
	add	esp, 8
; Line 15
	push	1
	call	DWORD PTR __imp__exit
$LN33@Font:
$LN7@Font:
; Line 20
	push	9216					; 00002400H
	lea	ecx, DWORD PTR [ebx+16]
	push	esi
	push	ecx
	call	_memset
; Line 22
	mov	edx, DWORD PTR _in$[ebp]
	mov	eax, DWORD PTR [edx+4]
	mov	eax, DWORD PTR _in$[ebp+eax+12]
	add	esp, 12					; 0000000cH
	test	al, 1
	jne	$LN5@Font
	npad	7
$LL6@Font:
; Line 25
	lea	esi, DWORD PTR _line$70520[ebp]
	mov	edi, 7
	npad	8
$LL4@Font:
	push	esi
	lea	ecx, DWORD PTR _in$[ebp]
	call	DWORD PTR __imp_??5?$basic_istream@DU?$char_traits@D@std@@@std@@QAEAAV01@AAH@Z
	add	esi, 4
	dec	edi
	jne	SHORT $LL4@Font
; Line 27
	mov	ecx, DWORD PTR _size$[ebp]
	cmp	DWORD PTR _line$70520[ebp+4], ecx
	jne	SHORT $LN30@Font
; Line 36
	fild	DWORD PTR _tw$[ebp]
	mov	edx, DWORD PTR _line$70520[ebp+8]
	mov	eax, DWORD PTR _line$70520[ebp+12]
	mov	DWORD PTR _ci$70537[ebp], edx
	fstp	DWORD PTR tv345[ebp]
	mov	edx, DWORD PTR _line$70520[ebp+20]
	fild	DWORD PTR _line$70520[ebp+12]
	mov	DWORD PTR _ci$70537[ebp+12], edx
	fld	DWORD PTR tv345[ebp]
; Line 37
	add	edx, eax
	fld	ST(0)
	mov	DWORD PTR tv448[ebp], edx
	fdivp	ST(2), ST(0)
	mov	ecx, DWORD PTR _line$70520[ebp+16]
	mov	esi, DWORD PTR _line$70520[ebp+24]
	mov	DWORD PTR _ci$70537[ebp+16], esi
; Line 39
	add	esi, ecx
	mov	DWORD PTR _ci$70537[ebp+4], eax
; Line 41
	mov	eax, DWORD PTR _line$70520[ebp]
	mov	DWORD PTR _ci$70537[ebp+8], ecx
	lea	eax, DWORD PTR [eax+eax*8]
	lea	edi, DWORD PTR [ebx+eax*4+16]
	mov	ecx, 9
	fxch	ST(1)
	fstp	DWORD PTR _ci$70537[ebp+20]
	fidivr	DWORD PTR tv448[ebp]
	fstp	DWORD PTR _ci$70537[ebp+24]
	fild	DWORD PTR _th$[ebp]
	fstp	DWORD PTR tv356[ebp]
	fild	DWORD PTR _line$70520[ebp+16]
	fld	DWORD PTR tv356[ebp]
	mov	DWORD PTR tv441[ebp], esi
	fld	ST(0)
	lea	esi, DWORD PTR _ci$70537[ebp]
	fdivp	ST(2), ST(0)
	fxch	ST(1)
	fstp	DWORD PTR _ci$70537[ebp+28]
	fidivr	DWORD PTR tv441[ebp]
	fstp	DWORD PTR _ci$70537[ebp+32]
	rep movsd
$LN30@Font:
; Line 22
	mov	ecx, DWORD PTR _in$[ebp]
	mov	edx, DWORD PTR [ecx+4]
	test	BYTE PTR _in$[ebp+edx+12], 1
	je	$LL6@Font
	xor	esi, esi
$LN5@Font:
; Line 45
	mov	ecx, DWORD PTR _size$[ebp]
; Line 46
	mov	eax, 1431655766				; 55555556H
	imul	ecx
	mov	eax, edx
	mov	DWORD PTR _space$[ebp+16], ecx
	shr	eax, 31					; 0000001fH
	mov	DWORD PTR _space$[ebp], esi
	add	eax, edx
; Line 47
	mov	DWORD PTR _space$[ebp+8], esi
	mov	DWORD PTR _space$[ebp+4], esi
; Line 48
	mov	DWORD PTR _space$[ebp+32], esi
	mov	DWORD PTR _space$[ebp+28], esi
	mov	DWORD PTR _space$[ebp+24], esi
	mov	DWORD PTR _space$[ebp+20], esi
	mov	DWORD PTR _space$[ebp+12], eax
; Line 49
	lea	edi, DWORD PTR [ebx+1168]
	mov	ecx, 9
	lea	esi, DWORD PTR _space$[ebp]
	rep movsd
; Line 51
	lea	ecx, DWORD PTR _in$[ebp+104]
	mov	DWORD PTR [ebx+9232], 1065353216	; 3f800000H
	mov	DWORD PTR __$EHRec$[ebp+8], -1
	call	??1?$basic_ifstream@DU?$char_traits@D@std@@@std@@UAE@XZ ; std::basic_ifstream<char,std::char_traits<char> >::~basic_ifstream<char,std::char_traits<char> >
	mov	ecx, DWORD PTR __imp_??_7ios_base@std@@6B@
	lea	edx, DWORD PTR _in$[ebp+104]
	push	edx
	mov	DWORD PTR _in$[ebp+104], ecx
	call	DWORD PTR __imp_?_Ios_base_dtor@ios_base@std@@CAXPAV12@@Z
	add	esp, 4
	mov	eax, ebx
	mov	ecx, DWORD PTR __$EHRec$[ebp]
	mov	DWORD PTR fs:0, ecx
	pop	ecx
	pop	edi
	pop	esi
	pop	ebx
	mov	ecx, DWORD PTR __$ArrayPad$[ebp]
	xor	ecx, ebp
	call	@__security_check_cookie@4
	mov	esp, ebp
	pop	ebp
	ret	20					; 00000014H
$LN32@Font:
_TEXT	ENDS
text$x	SEGMENT
__unwindfunclet$??0Font@@QAE@IHHHPBD@Z$0:
	lea	ecx, DWORD PTR _in$[ebp]
	jmp	??_D?$basic_ifstream@DU?$char_traits@D@std@@@std@@QAEXXZ
__ehhandler$??0Font@@QAE@IHHHPBD@Z:
	mov	edx, DWORD PTR [esp+8]
	lea	eax, DWORD PTR [edx+12]
	mov	ecx, DWORD PTR [edx-264]
	xor	ecx, eax
	call	@__security_check_cookie@4
	mov	ecx, DWORD PTR [edx-4]
	xor	ecx, eax
	call	@__security_check_cookie@4
	mov	eax, OFFSET __ehfuncinfo$??0Font@@QAE@IHHHPBD@Z
	jmp	___CxxFrameHandler3
text$x	ENDS
??0Font@@QAE@IHHHPBD@Z ENDP				; Font::Font
END
