; Listing generated by Microsoft (R) Optimizing Compiler Version 16.00.40219.01 

	TITLE	C:\programovani\WoW Editor\Test\src\Editor\MapTile.cpp
	.686P
	.XMM
	include listing.inc
	.model	flat

INCLUDELIB MSVCRT
INCLUDELIB OLDNAMES

PUBLIC	?OddStrips@@3PAGA				; OddStrips
PUBLIC	?EvenStrips@@3PAGA				; EvenStrips
PUBLIC	?LineStrip@@3PAGA				; LineStrip
PUBLIC	?CoordGen@@3PAMA				; CoordGen
PUBLIC	?value@?$integral_constant@_N$0A@@tr1@std@@2_NB	; std::tr1::integral_constant<bool,0>::value
PUBLIC	?value@?$integral_constant@_N$00@tr1@std@@2_NB	; std::tr1::integral_constant<bool,1>::value
PUBLIC	?value@?$integral_constant@I$0A@@tr1@std@@2IB	; std::tr1::integral_constant<unsigned int,0>::value
PUBLIC	?_Rank@?$_Arithmetic_traits@_N@std@@2HB		; std::_Arithmetic_traits<bool>::_Rank
PUBLIC	?_Rank@?$_Arithmetic_traits@D@std@@2HB		; std::_Arithmetic_traits<char>::_Rank
PUBLIC	?_Rank@?$_Arithmetic_traits@C@std@@2HB		; std::_Arithmetic_traits<signed char>::_Rank
PUBLIC	?_Rank@?$_Arithmetic_traits@E@std@@2HB		; std::_Arithmetic_traits<unsigned char>::_Rank
PUBLIC	?_Rank@?$_Arithmetic_traits@F@std@@2HB		; std::_Arithmetic_traits<short>::_Rank
PUBLIC	?_Rank@?$_Arithmetic_traits@G@std@@2HB		; std::_Arithmetic_traits<unsigned short>::_Rank
PUBLIC	?_Rank@?$_Arithmetic_traits@H@std@@2HB		; std::_Arithmetic_traits<int>::_Rank
PUBLIC	?_Rank@?$_Arithmetic_traits@I@std@@2HB		; std::_Arithmetic_traits<unsigned int>::_Rank
PUBLIC	?_Rank@?$_Arithmetic_traits@J@std@@2HB		; std::_Arithmetic_traits<long>::_Rank
PUBLIC	?_Rank@?$_Arithmetic_traits@K@std@@2HB		; std::_Arithmetic_traits<unsigned long>::_Rank
PUBLIC	?_Rank@?$_Arithmetic_traits@_J@std@@2HB		; std::_Arithmetic_traits<__int64>::_Rank
PUBLIC	?_Rank@?$_Arithmetic_traits@_K@std@@2HB		; std::_Arithmetic_traits<unsigned __int64>::_Rank
PUBLIC	?_Rank@?$_Arithmetic_traits@M@std@@2HB		; std::_Arithmetic_traits<float>::_Rank
PUBLIC	?_Rank@?$_Arithmetic_traits@N@std@@2HB		; std::_Arithmetic_traits<double>::_Rank
PUBLIC	?_Rank@?$_Arithmetic_traits@O@std@@2HB		; std::_Arithmetic_traits<long double>::_Rank
PUBLIC	?collate@?$_Locbase@H@std@@2HB			; std::_Locbase<int>::collate
PUBLIC	?ctype@?$_Locbase@H@std@@2HB			; std::_Locbase<int>::ctype
PUBLIC	?monetary@?$_Locbase@H@std@@2HB			; std::_Locbase<int>::monetary
PUBLIC	?numeric@?$_Locbase@H@std@@2HB			; std::_Locbase<int>::numeric
PUBLIC	?time@?$_Locbase@H@std@@2HB			; std::_Locbase<int>::time
PUBLIC	?messages@?$_Locbase@H@std@@2HB			; std::_Locbase<int>::messages
PUBLIC	?all@?$_Locbase@H@std@@2HB			; std::_Locbase<int>::all
PUBLIC	?none@?$_Locbase@H@std@@2HB			; std::_Locbase<int>::none
PUBLIC	?skipws@?$_Iosb@H@std@@2W4_Fmtflags@12@B	; std::_Iosb<int>::skipws
PUBLIC	?unitbuf@?$_Iosb@H@std@@2W4_Fmtflags@12@B	; std::_Iosb<int>::unitbuf
PUBLIC	?uppercase@?$_Iosb@H@std@@2W4_Fmtflags@12@B	; std::_Iosb<int>::uppercase
PUBLIC	?showbase@?$_Iosb@H@std@@2W4_Fmtflags@12@B	; std::_Iosb<int>::showbase
PUBLIC	?showpoint@?$_Iosb@H@std@@2W4_Fmtflags@12@B	; std::_Iosb<int>::showpoint
PUBLIC	?showpos@?$_Iosb@H@std@@2W4_Fmtflags@12@B	; std::_Iosb<int>::showpos
PUBLIC	?left@?$_Iosb@H@std@@2W4_Fmtflags@12@B		; std::_Iosb<int>::left
PUBLIC	?right@?$_Iosb@H@std@@2W4_Fmtflags@12@B		; std::_Iosb<int>::right
PUBLIC	?internal@?$_Iosb@H@std@@2W4_Fmtflags@12@B	; std::_Iosb<int>::internal
PUBLIC	?dec@?$_Iosb@H@std@@2W4_Fmtflags@12@B		; std::_Iosb<int>::dec
PUBLIC	?oct@?$_Iosb@H@std@@2W4_Fmtflags@12@B		; std::_Iosb<int>::oct
PUBLIC	?hex@?$_Iosb@H@std@@2W4_Fmtflags@12@B		; std::_Iosb<int>::hex
PUBLIC	?scientific@?$_Iosb@H@std@@2W4_Fmtflags@12@B	; std::_Iosb<int>::scientific
PUBLIC	?fixed@?$_Iosb@H@std@@2W4_Fmtflags@12@B		; std::_Iosb<int>::fixed
PUBLIC	?hexfloat@?$_Iosb@H@std@@2W4_Fmtflags@12@B	; std::_Iosb<int>::hexfloat
PUBLIC	?boolalpha@?$_Iosb@H@std@@2W4_Fmtflags@12@B	; std::_Iosb<int>::boolalpha
PUBLIC	?_Stdio@?$_Iosb@H@std@@2W4_Fmtflags@12@B	; std::_Iosb<int>::_Stdio
PUBLIC	?adjustfield@?$_Iosb@H@std@@2W4_Fmtflags@12@B	; std::_Iosb<int>::adjustfield
PUBLIC	?basefield@?$_Iosb@H@std@@2W4_Fmtflags@12@B	; std::_Iosb<int>::basefield
PUBLIC	?floatfield@?$_Iosb@H@std@@2W4_Fmtflags@12@B	; std::_Iosb<int>::floatfield
PUBLIC	?goodbit@?$_Iosb@H@std@@2W4_Iostate@12@B	; std::_Iosb<int>::goodbit
PUBLIC	?eofbit@?$_Iosb@H@std@@2W4_Iostate@12@B		; std::_Iosb<int>::eofbit
PUBLIC	?failbit@?$_Iosb@H@std@@2W4_Iostate@12@B	; std::_Iosb<int>::failbit
PUBLIC	?badbit@?$_Iosb@H@std@@2W4_Iostate@12@B		; std::_Iosb<int>::badbit
PUBLIC	?_Hardfail@?$_Iosb@H@std@@2W4_Iostate@12@B	; std::_Iosb<int>::_Hardfail
PUBLIC	?in@?$_Iosb@H@std@@2W4_Openmode@12@B		; std::_Iosb<int>::in
PUBLIC	?out@?$_Iosb@H@std@@2W4_Openmode@12@B		; std::_Iosb<int>::out
PUBLIC	?ate@?$_Iosb@H@std@@2W4_Openmode@12@B		; std::_Iosb<int>::ate
PUBLIC	?app@?$_Iosb@H@std@@2W4_Openmode@12@B		; std::_Iosb<int>::app
PUBLIC	?trunc@?$_Iosb@H@std@@2W4_Openmode@12@B		; std::_Iosb<int>::trunc
PUBLIC	?_Nocreate@?$_Iosb@H@std@@2W4_Openmode@12@B	; std::_Iosb<int>::_Nocreate
PUBLIC	?_Noreplace@?$_Iosb@H@std@@2W4_Openmode@12@B	; std::_Iosb<int>::_Noreplace
PUBLIC	?binary@?$_Iosb@H@std@@2W4_Openmode@12@B	; std::_Iosb<int>::binary
PUBLIC	?beg@?$_Iosb@H@std@@2W4_Seekdir@12@B		; std::_Iosb<int>::beg
PUBLIC	?cur@?$_Iosb@H@std@@2W4_Seekdir@12@B		; std::_Iosb<int>::cur
PUBLIC	?end@?$_Iosb@H@std@@2W4_Seekdir@12@B		; std::_Iosb<int>::end
PUBLIC	?DrawMapContour@@3_NA				; DrawMapContour
PUBLIC	?drawFlags@@3_NA				; drawFlags
PUBLIC	?Contour@@3IA					; Contour
PUBLIC	?holetab_h@@3PAHA				; holetab_h
PUBLIC	?holetab_v@@3PAHA				; holetab_v
_BSS	SEGMENT
?OddStrips@@3PAGA DW 090H DUP (?)			; OddStrips
?EvenStrips@@3PAGA DW 090H DUP (?)			; EvenStrips
?LineStrip@@3PAGA DW 020H DUP (?)			; LineStrip
?CoordGen@@3PAMA DD 04H DUP (?)				; CoordGen
?DrawMapContour@@3_NA DB 01H DUP (?)			; DrawMapContour
	ALIGN	4

?drawFlags@@3_NA DB 01H DUP (?)				; drawFlags
	ALIGN	4

?Contour@@3IA DD 01H DUP (?)				; Contour
_BSS	ENDS
_DATA	SEGMENT
?holetab_h@@3PAHA DD 01111H				; holetab_h
	DD	02222H
	DD	04444H
	DD	08888H
?holetab_v@@3PAHA DD 0fH				; holetab_v
	DD	0f0H
	DD	0f00H
	DD	0f000H
_DATA	ENDS
CONST	SEGMENT
_LQ_DEFAULT_TILESIZE DD 040855555r		; 4.16667
_detail_size DD	041000000r			; 8
$SG82525 DB	'[World of Warcraft Studio - Editor] - Loading tile %d,%d'
	DB	0aH, 00H
	ORG $+2
$SG82526 DB	'[World of Warcraft Studio - Editor] -> Error loading %s', 0aH
	DB	00H
	ORG $+3
$SG82528 DB	'[World of Warcraft Studio - Editor] - Loading tile from '
	DB	'MPQ %d,%d', 0aH, 00H
	ORG $+1
$SG82674 DB	'[World of Warcraft Studio - Editor] - Unloading tile %d,'
	DB	'%d', 0aH, 00H
$SG82530 DB	'[World of Warcraft Studio - Editor] - Loading tile from '
	DB	'File %d,%d', 0aH, 00H
$SG82538 DB	'MCIN', 00H
	ORG $+3
$SG82545 DB	'MTEX', 00H
	ORG $+3
$SG82552 DB	'MMDX', 00H
	ORG $+3
$SG82559 DB	'MWMO', 00H
	ORG $+3
$SG82566 DB	'MDDF', 00H
	ORG $+3
$SG82573 DB	'MODF', 00H
	ORG $+3
$SG83415 DB	'[World of Warcraft Studio - Editor] - OpenGL Error %d', 0aH
	DB	00H
	ORG $+1
$SG85367 DB	'$', 00H
	ORG $+2
$SG82579 DB	'[World of Warcraft Studio - Editor] - Finished Processin'
	DB	'g all but MCNK''s in ', 00H
	ORG $+3
$SG82580 DB	'[World of Warcraft Studio - Editor] - Entire loading of '
	DB	'%s took ', 00H
	ORG $+3
$SG82586 DB	'[World of Warcraft Studio - Editor] - Loaded Chunk %d of'
	DB	' %s', 0aH, 00H
	ORG $+3
$SG83434 DB	'[World of Warcraft Studio - Editor] - OpenGL Error %d', 0aH
	DB	00H
	ORG $+5
$SG82597 DB	'[World of Warcraft Studio - Editor] - Finished Loading T'
	DB	'extures for %s', 0aH, 00H
$SG82614 DB	'[World of Warcraft Studio - Editor] - Finished Loading M'
	DB	'odels for %s', 0aH, 00H
	ORG $+2
$SG82640 DB	'[World of Warcraft Studio - Editor] - Finished Loading W'
	DB	'MOs for %s', 0aH, 00H
$SG83039 DB	'MCNR', 00H
	ORG $+3
$SG83056 DB	'MCVT', 00H
	ORG $+3
$SG83077 DB	'MCLY', 00H
	ORG $+3
$SG83088 DB	'MCSH', 00H
	ORG $+3
$SG83106 DB	'MCAL', 00H
	ORG $+3
$SG83136 DB	'MCLQ', 00H
	ORG $+3
$SG83139 DB	'MCSE', 00H
	ORG $+7
$SG83610 DB	'[World of Warcraft Studio - Editor] - Alpha Map has inva'
	DB	'lid texture binding', 0aH, 00H
	ORG $+3
$SG83682 DB	'[World of Warcraft Studio - Editor] - WTF how did you ge'
	DB	't here???', 00H
	ORG $+2
$SG85391 DB	'[World of Warcraft Studio - Editor] - Saving Chunk %d (%'
	DB	'd,%d)', 0aH, 00H
	ORG $+5
$SG85408 DB	'[World of Warcraft Studio - Editor] - ERROR: Trying to a'
	DB	'dd more than 2048 Doodads to a chunk', 0aH, 00H
	ORG $+2
$SG85415 DB	'[World of Warcraft Studio - Editor] - ERROR: Trying to a'
	DB	'dd more than 2048 Doodads to a chunk', 0aH, 00H
CONST	ENDS
;	COMDAT ?end@?$_Iosb@H@std@@2W4_Seekdir@12@B
CONST	SEGMENT
?end@?$_Iosb@H@std@@2W4_Seekdir@12@B DD 02H		; std::_Iosb<int>::end
CONST	ENDS
;	COMDAT ?cur@?$_Iosb@H@std@@2W4_Seekdir@12@B
CONST	SEGMENT
?cur@?$_Iosb@H@std@@2W4_Seekdir@12@B DD 01H		; std::_Iosb<int>::cur
CONST	ENDS
;	COMDAT ?beg@?$_Iosb@H@std@@2W4_Seekdir@12@B
CONST	SEGMENT
?beg@?$_Iosb@H@std@@2W4_Seekdir@12@B DD 00H		; std::_Iosb<int>::beg
CONST	ENDS
;	COMDAT ?binary@?$_Iosb@H@std@@2W4_Openmode@12@B
CONST	SEGMENT
?binary@?$_Iosb@H@std@@2W4_Openmode@12@B DD 020H	; std::_Iosb<int>::binary
CONST	ENDS
;	COMDAT ?_Noreplace@?$_Iosb@H@std@@2W4_Openmode@12@B
CONST	SEGMENT
?_Noreplace@?$_Iosb@H@std@@2W4_Openmode@12@B DD 080H	; std::_Iosb<int>::_Noreplace
CONST	ENDS
;	COMDAT ?_Nocreate@?$_Iosb@H@std@@2W4_Openmode@12@B
CONST	SEGMENT
?_Nocreate@?$_Iosb@H@std@@2W4_Openmode@12@B DD 040H	; std::_Iosb<int>::_Nocreate
CONST	ENDS
;	COMDAT ?trunc@?$_Iosb@H@std@@2W4_Openmode@12@B
CONST	SEGMENT
?trunc@?$_Iosb@H@std@@2W4_Openmode@12@B DD 010H		; std::_Iosb<int>::trunc
CONST	ENDS
;	COMDAT ?app@?$_Iosb@H@std@@2W4_Openmode@12@B
CONST	SEGMENT
?app@?$_Iosb@H@std@@2W4_Openmode@12@B DD 08H		; std::_Iosb<int>::app
CONST	ENDS
;	COMDAT ?ate@?$_Iosb@H@std@@2W4_Openmode@12@B
CONST	SEGMENT
?ate@?$_Iosb@H@std@@2W4_Openmode@12@B DD 04H		; std::_Iosb<int>::ate
CONST	ENDS
;	COMDAT ?out@?$_Iosb@H@std@@2W4_Openmode@12@B
CONST	SEGMENT
?out@?$_Iosb@H@std@@2W4_Openmode@12@B DD 02H		; std::_Iosb<int>::out
CONST	ENDS
;	COMDAT ?in@?$_Iosb@H@std@@2W4_Openmode@12@B
CONST	SEGMENT
?in@?$_Iosb@H@std@@2W4_Openmode@12@B DD 01H		; std::_Iosb<int>::in
CONST	ENDS
;	COMDAT ?_Hardfail@?$_Iosb@H@std@@2W4_Iostate@12@B
CONST	SEGMENT
?_Hardfail@?$_Iosb@H@std@@2W4_Iostate@12@B DD 010H	; std::_Iosb<int>::_Hardfail
CONST	ENDS
;	COMDAT ?badbit@?$_Iosb@H@std@@2W4_Iostate@12@B
CONST	SEGMENT
?badbit@?$_Iosb@H@std@@2W4_Iostate@12@B DD 04H		; std::_Iosb<int>::badbit
CONST	ENDS
;	COMDAT ?failbit@?$_Iosb@H@std@@2W4_Iostate@12@B
CONST	SEGMENT
?failbit@?$_Iosb@H@std@@2W4_Iostate@12@B DD 02H		; std::_Iosb<int>::failbit
CONST	ENDS
;	COMDAT ?eofbit@?$_Iosb@H@std@@2W4_Iostate@12@B
CONST	SEGMENT
?eofbit@?$_Iosb@H@std@@2W4_Iostate@12@B DD 01H		; std::_Iosb<int>::eofbit
CONST	ENDS
;	COMDAT ?goodbit@?$_Iosb@H@std@@2W4_Iostate@12@B
CONST	SEGMENT
?goodbit@?$_Iosb@H@std@@2W4_Iostate@12@B DD 00H		; std::_Iosb<int>::goodbit
CONST	ENDS
;	COMDAT ?floatfield@?$_Iosb@H@std@@2W4_Fmtflags@12@B
CONST	SEGMENT
?floatfield@?$_Iosb@H@std@@2W4_Fmtflags@12@B DD 03000H	; std::_Iosb<int>::floatfield
CONST	ENDS
;	COMDAT ?basefield@?$_Iosb@H@std@@2W4_Fmtflags@12@B
CONST	SEGMENT
?basefield@?$_Iosb@H@std@@2W4_Fmtflags@12@B DD 0e00H	; std::_Iosb<int>::basefield
CONST	ENDS
;	COMDAT ?adjustfield@?$_Iosb@H@std@@2W4_Fmtflags@12@B
CONST	SEGMENT
?adjustfield@?$_Iosb@H@std@@2W4_Fmtflags@12@B DD 01c0H	; std::_Iosb<int>::adjustfield
CONST	ENDS
;	COMDAT ?_Stdio@?$_Iosb@H@std@@2W4_Fmtflags@12@B
CONST	SEGMENT
?_Stdio@?$_Iosb@H@std@@2W4_Fmtflags@12@B DD 08000H	; std::_Iosb<int>::_Stdio
CONST	ENDS
;	COMDAT ?boolalpha@?$_Iosb@H@std@@2W4_Fmtflags@12@B
CONST	SEGMENT
?boolalpha@?$_Iosb@H@std@@2W4_Fmtflags@12@B DD 04000H	; std::_Iosb<int>::boolalpha
CONST	ENDS
;	COMDAT ?hexfloat@?$_Iosb@H@std@@2W4_Fmtflags@12@B
CONST	SEGMENT
?hexfloat@?$_Iosb@H@std@@2W4_Fmtflags@12@B DD 03000H	; std::_Iosb<int>::hexfloat
CONST	ENDS
;	COMDAT ?fixed@?$_Iosb@H@std@@2W4_Fmtflags@12@B
CONST	SEGMENT
?fixed@?$_Iosb@H@std@@2W4_Fmtflags@12@B DD 02000H	; std::_Iosb<int>::fixed
CONST	ENDS
;	COMDAT ?scientific@?$_Iosb@H@std@@2W4_Fmtflags@12@B
CONST	SEGMENT
?scientific@?$_Iosb@H@std@@2W4_Fmtflags@12@B DD 01000H	; std::_Iosb<int>::scientific
CONST	ENDS
;	COMDAT ?hex@?$_Iosb@H@std@@2W4_Fmtflags@12@B
CONST	SEGMENT
?hex@?$_Iosb@H@std@@2W4_Fmtflags@12@B DD 0800H		; std::_Iosb<int>::hex
CONST	ENDS
;	COMDAT ?oct@?$_Iosb@H@std@@2W4_Fmtflags@12@B
CONST	SEGMENT
?oct@?$_Iosb@H@std@@2W4_Fmtflags@12@B DD 0400H		; std::_Iosb<int>::oct
CONST	ENDS
;	COMDAT ?dec@?$_Iosb@H@std@@2W4_Fmtflags@12@B
CONST	SEGMENT
?dec@?$_Iosb@H@std@@2W4_Fmtflags@12@B DD 0200H		; std::_Iosb<int>::dec
CONST	ENDS
;	COMDAT ?internal@?$_Iosb@H@std@@2W4_Fmtflags@12@B
CONST	SEGMENT
?internal@?$_Iosb@H@std@@2W4_Fmtflags@12@B DD 0100H	; std::_Iosb<int>::internal
CONST	ENDS
;	COMDAT ?right@?$_Iosb@H@std@@2W4_Fmtflags@12@B
CONST	SEGMENT
?right@?$_Iosb@H@std@@2W4_Fmtflags@12@B DD 080H		; std::_Iosb<int>::right
CONST	ENDS
;	COMDAT ?left@?$_Iosb@H@std@@2W4_Fmtflags@12@B
CONST	SEGMENT
?left@?$_Iosb@H@std@@2W4_Fmtflags@12@B DD 040H		; std::_Iosb<int>::left
CONST	ENDS
;	COMDAT ?showpos@?$_Iosb@H@std@@2W4_Fmtflags@12@B
CONST	SEGMENT
?showpos@?$_Iosb@H@std@@2W4_Fmtflags@12@B DD 020H	; std::_Iosb<int>::showpos
CONST	ENDS
;	COMDAT ?showpoint@?$_Iosb@H@std@@2W4_Fmtflags@12@B
CONST	SEGMENT
?showpoint@?$_Iosb@H@std@@2W4_Fmtflags@12@B DD 010H	; std::_Iosb<int>::showpoint
CONST	ENDS
;	COMDAT ?showbase@?$_Iosb@H@std@@2W4_Fmtflags@12@B
CONST	SEGMENT
?showbase@?$_Iosb@H@std@@2W4_Fmtflags@12@B DD 08H	; std::_Iosb<int>::showbase
CONST	ENDS
;	COMDAT ?uppercase@?$_Iosb@H@std@@2W4_Fmtflags@12@B
CONST	SEGMENT
?uppercase@?$_Iosb@H@std@@2W4_Fmtflags@12@B DD 04H	; std::_Iosb<int>::uppercase
CONST	ENDS
;	COMDAT ?unitbuf@?$_Iosb@H@std@@2W4_Fmtflags@12@B
CONST	SEGMENT
?unitbuf@?$_Iosb@H@std@@2W4_Fmtflags@12@B DD 02H	; std::_Iosb<int>::unitbuf
CONST	ENDS
;	COMDAT ?skipws@?$_Iosb@H@std@@2W4_Fmtflags@12@B
CONST	SEGMENT
?skipws@?$_Iosb@H@std@@2W4_Fmtflags@12@B DD 01H		; std::_Iosb<int>::skipws
CONST	ENDS
;	COMDAT ?none@?$_Locbase@H@std@@2HB
CONST	SEGMENT
?none@?$_Locbase@H@std@@2HB DD 00H			; std::_Locbase<int>::none
CONST	ENDS
;	COMDAT ?all@?$_Locbase@H@std@@2HB
CONST	SEGMENT
?all@?$_Locbase@H@std@@2HB DD 03fH			; std::_Locbase<int>::all
CONST	ENDS
;	COMDAT ?messages@?$_Locbase@H@std@@2HB
CONST	SEGMENT
?messages@?$_Locbase@H@std@@2HB DD 020H			; std::_Locbase<int>::messages
CONST	ENDS
;	COMDAT ?time@?$_Locbase@H@std@@2HB
CONST	SEGMENT
?time@?$_Locbase@H@std@@2HB DD 010H			; std::_Locbase<int>::time
CONST	ENDS
;	COMDAT ?numeric@?$_Locbase@H@std@@2HB
CONST	SEGMENT
?numeric@?$_Locbase@H@std@@2HB DD 08H			; std::_Locbase<int>::numeric
CONST	ENDS
;	COMDAT ?monetary@?$_Locbase@H@std@@2HB
CONST	SEGMENT
?monetary@?$_Locbase@H@std@@2HB DD 04H			; std::_Locbase<int>::monetary
CONST	ENDS
;	COMDAT ?ctype@?$_Locbase@H@std@@2HB
CONST	SEGMENT
?ctype@?$_Locbase@H@std@@2HB DD 02H			; std::_Locbase<int>::ctype
CONST	ENDS
;	COMDAT ?collate@?$_Locbase@H@std@@2HB
CONST	SEGMENT
?collate@?$_Locbase@H@std@@2HB DD 01H			; std::_Locbase<int>::collate
CONST	ENDS
;	COMDAT ?_Rank@?$_Arithmetic_traits@O@std@@2HB
CONST	SEGMENT
?_Rank@?$_Arithmetic_traits@O@std@@2HB DD 09H		; std::_Arithmetic_traits<long double>::_Rank
CONST	ENDS
;	COMDAT ?_Rank@?$_Arithmetic_traits@N@std@@2HB
CONST	SEGMENT
?_Rank@?$_Arithmetic_traits@N@std@@2HB DD 08H		; std::_Arithmetic_traits<double>::_Rank
CONST	ENDS
;	COMDAT ?_Rank@?$_Arithmetic_traits@M@std@@2HB
CONST	SEGMENT
?_Rank@?$_Arithmetic_traits@M@std@@2HB DD 07H		; std::_Arithmetic_traits<float>::_Rank
CONST	ENDS
;	COMDAT ?_Rank@?$_Arithmetic_traits@_K@std@@2HB
CONST	SEGMENT
?_Rank@?$_Arithmetic_traits@_K@std@@2HB DD 06H		; std::_Arithmetic_traits<unsigned __int64>::_Rank
CONST	ENDS
;	COMDAT ?_Rank@?$_Arithmetic_traits@_J@std@@2HB
CONST	SEGMENT
?_Rank@?$_Arithmetic_traits@_J@std@@2HB DD 06H		; std::_Arithmetic_traits<__int64>::_Rank
CONST	ENDS
;	COMDAT ?_Rank@?$_Arithmetic_traits@K@std@@2HB
CONST	SEGMENT
?_Rank@?$_Arithmetic_traits@K@std@@2HB DD 05H		; std::_Arithmetic_traits<unsigned long>::_Rank
CONST	ENDS
;	COMDAT ?_Rank@?$_Arithmetic_traits@J@std@@2HB
CONST	SEGMENT
?_Rank@?$_Arithmetic_traits@J@std@@2HB DD 05H		; std::_Arithmetic_traits<long>::_Rank
CONST	ENDS
;	COMDAT ?_Rank@?$_Arithmetic_traits@I@std@@2HB
CONST	SEGMENT
?_Rank@?$_Arithmetic_traits@I@std@@2HB DD 04H		; std::_Arithmetic_traits<unsigned int>::_Rank
CONST	ENDS
;	COMDAT ?_Rank@?$_Arithmetic_traits@H@std@@2HB
CONST	SEGMENT
?_Rank@?$_Arithmetic_traits@H@std@@2HB DD 04H		; std::_Arithmetic_traits<int>::_Rank
CONST	ENDS
;	COMDAT ?_Rank@?$_Arithmetic_traits@G@std@@2HB
CONST	SEGMENT
?_Rank@?$_Arithmetic_traits@G@std@@2HB DD 03H		; std::_Arithmetic_traits<unsigned short>::_Rank
CONST	ENDS
;	COMDAT ?_Rank@?$_Arithmetic_traits@F@std@@2HB
CONST	SEGMENT
?_Rank@?$_Arithmetic_traits@F@std@@2HB DD 03H		; std::_Arithmetic_traits<short>::_Rank
CONST	ENDS
;	COMDAT ?_Rank@?$_Arithmetic_traits@E@std@@2HB
CONST	SEGMENT
?_Rank@?$_Arithmetic_traits@E@std@@2HB DD 02H		; std::_Arithmetic_traits<unsigned char>::_Rank
CONST	ENDS
;	COMDAT ?_Rank@?$_Arithmetic_traits@C@std@@2HB
CONST	SEGMENT
?_Rank@?$_Arithmetic_traits@C@std@@2HB DD 02H		; std::_Arithmetic_traits<signed char>::_Rank
CONST	ENDS
;	COMDAT ?_Rank@?$_Arithmetic_traits@D@std@@2HB
CONST	SEGMENT
?_Rank@?$_Arithmetic_traits@D@std@@2HB DD 02H		; std::_Arithmetic_traits<char>::_Rank
CONST	ENDS
;	COMDAT ?_Rank@?$_Arithmetic_traits@_N@std@@2HB
CONST	SEGMENT
?_Rank@?$_Arithmetic_traits@_N@std@@2HB DD 01H		; std::_Arithmetic_traits<bool>::_Rank
CONST	ENDS
;	COMDAT ?value@?$integral_constant@I$0A@@tr1@std@@2IB
CONST	SEGMENT
?value@?$integral_constant@I$0A@@tr1@std@@2IB DD 00H	; std::tr1::integral_constant<unsigned int,0>::value
CONST	ENDS
;	COMDAT ?value@?$integral_constant@_N$00@tr1@std@@2_NB
CONST	SEGMENT
?value@?$integral_constant@_N$00@tr1@std@@2_NB DB 01H	; std::tr1::integral_constant<bool,1>::value
CONST	ENDS
;	COMDAT ?value@?$integral_constant@_N$0A@@tr1@std@@2_NB
CONST	SEGMENT
?value@?$integral_constant@_N$0A@@tr1@std@@2_NB DB 00H	; std::tr1::integral_constant<bool,0>::value
CONST	ENDS
PUBLIC	??_7bad_alloc@std@@6B@				; std::bad_alloc::`vftable'
PUBLIC	??0bad_alloc@std@@QAE@PBD@Z			; std::bad_alloc::bad_alloc
PUBLIC	??_R4bad_alloc@std@@6B@				; std::bad_alloc::`RTTI Complete Object Locator'
PUBLIC	??_R0?AVbad_alloc@std@@@8			; std::bad_alloc `RTTI Type Descriptor'
PUBLIC	??_R3bad_alloc@std@@8				; std::bad_alloc::`RTTI Class Hierarchy Descriptor'
PUBLIC	??_R2bad_alloc@std@@8				; std::bad_alloc::`RTTI Base Class Array'
PUBLIC	??_R1A@?0A@EA@bad_alloc@std@@8			; std::bad_alloc::`RTTI Base Class Descriptor at (0,-1,0,64)'
PUBLIC	??_R1A@?0A@EA@exception@std@@8			; std::exception::`RTTI Base Class Descriptor at (0,-1,0,64)'
PUBLIC	??_R0?AVexception@std@@@8			; std::exception `RTTI Type Descriptor'
PUBLIC	??_R3exception@std@@8				; std::exception::`RTTI Class Hierarchy Descriptor'
PUBLIC	??_R2exception@std@@8				; std::exception::`RTTI Base Class Array'
EXTRN	__imp_??0exception@std@@QAE@ABQBD@Z:PROC
EXTRN	??_7type_info@@6B@:QWORD			; type_info::`vftable'
EXTRN	??_Ebad_alloc@std@@UAEPAXI@Z:PROC		; std::bad_alloc::`vector deleting destructor'
EXTRN	?what@exception@std@@UBEPBDXZ:PROC		; std::exception::what
;	COMDAT ??_R2exception@std@@8
; File c:\program files (x86)\microsoft visual studio 10.0\vc\include\exception
rdata$r	SEGMENT
??_R2exception@std@@8 DD FLAT:??_R1A@?0A@EA@exception@std@@8 ; std::exception::`RTTI Base Class Array'
rdata$r	ENDS
;	COMDAT ??_R3exception@std@@8
rdata$r	SEGMENT
??_R3exception@std@@8 DD 00H				; std::exception::`RTTI Class Hierarchy Descriptor'
	DD	00H
	DD	01H
	DD	FLAT:??_R2exception@std@@8
rdata$r	ENDS
;	COMDAT ??_R0?AVexception@std@@@8
_DATA	SEGMENT
??_R0?AVexception@std@@@8 DD FLAT:??_7type_info@@6B@	; std::exception `RTTI Type Descriptor'
	DD	00H
	DB	'.?AVexception@std@@', 00H
_DATA	ENDS
;	COMDAT ??_R1A@?0A@EA@exception@std@@8
rdata$r	SEGMENT
??_R1A@?0A@EA@exception@std@@8 DD FLAT:??_R0?AVexception@std@@@8 ; std::exception::`RTTI Base Class Descriptor at (0,-1,0,64)'
	DD	00H
	DD	00H
	DD	0ffffffffH
	DD	00H
	DD	040H
	DD	FLAT:??_R3exception@std@@8
rdata$r	ENDS
;	COMDAT ??_R1A@?0A@EA@bad_alloc@std@@8
rdata$r	SEGMENT
??_R1A@?0A@EA@bad_alloc@std@@8 DD FLAT:??_R0?AVbad_alloc@std@@@8 ; std::bad_alloc::`RTTI Base Class Descriptor at (0,-1,0,64)'
	DD	01H
	DD	00H
	DD	0ffffffffH
	DD	00H
	DD	040H
	DD	FLAT:??_R3bad_alloc@std@@8
rdata$r	ENDS
;	COMDAT ??_R2bad_alloc@std@@8
rdata$r	SEGMENT
??_R2bad_alloc@std@@8 DD FLAT:??_R1A@?0A@EA@bad_alloc@std@@8 ; std::bad_alloc::`RTTI Base Class Array'
	DD	FLAT:??_R1A@?0A@EA@exception@std@@8
rdata$r	ENDS
;	COMDAT ??_R3bad_alloc@std@@8
rdata$r	SEGMENT
??_R3bad_alloc@std@@8 DD 00H				; std::bad_alloc::`RTTI Class Hierarchy Descriptor'
	DD	00H
	DD	02H
	DD	FLAT:??_R2bad_alloc@std@@8
rdata$r	ENDS
;	COMDAT ??_R0?AVbad_alloc@std@@@8
_DATA	SEGMENT
??_R0?AVbad_alloc@std@@@8 DD FLAT:??_7type_info@@6B@	; std::bad_alloc `RTTI Type Descriptor'
	DD	00H
	DB	'.?AVbad_alloc@std@@', 00H
_DATA	ENDS
;	COMDAT ??_R4bad_alloc@std@@6B@
rdata$r	SEGMENT
??_R4bad_alloc@std@@6B@ DD 00H				; std::bad_alloc::`RTTI Complete Object Locator'
	DD	00H
	DD	00H
	DD	FLAT:??_R0?AVbad_alloc@std@@@8
	DD	FLAT:??_R3bad_alloc@std@@8
rdata$r	ENDS
;	COMDAT ??_7bad_alloc@std@@6B@
CONST	SEGMENT
??_7bad_alloc@std@@6B@ DD FLAT:??_R4bad_alloc@std@@6B@	; std::bad_alloc::`vftable'
	DD	FLAT:??_Ebad_alloc@std@@UAEPAXI@Z
	DD	FLAT:?what@exception@std@@UBEPBDXZ
; Function compile flags: /Ogtp
CONST	ENDS
;	COMDAT ??0bad_alloc@std@@QAE@PBD@Z
_TEXT	SEGMENT
__Message$ = 8						; size = 4
??0bad_alloc@std@@QAE@PBD@Z PROC			; std::bad_alloc::bad_alloc, COMDAT
; _this$ = ecx
; Line 345
	push	ebp
	mov	ebp, esp
	push	esi
	lea	eax, DWORD PTR __Message$[ebp]
	push	eax
	mov	esi, ecx
	call	DWORD PTR __imp_??0exception@std@@QAE@ABQBD@Z
	mov	DWORD PTR [esi], OFFSET ??_7bad_alloc@std@@6B@
; Line 346
	mov	eax, esi
	pop	esi
	pop	ebp
	ret	4
??0bad_alloc@std@@QAE@PBD@Z ENDP			; std::bad_alloc::bad_alloc
_TEXT	ENDS
PUBLIC	??1bad_alloc@std@@UAE@XZ			; std::bad_alloc::~bad_alloc
EXTRN	__imp_??1exception@std@@UAE@XZ:PROC
; Function compile flags: /Ogtp
;	COMDAT ??1bad_alloc@std@@UAE@XZ
_TEXT	SEGMENT
??1bad_alloc@std@@UAE@XZ PROC				; std::bad_alloc::~bad_alloc, COMDAT
; _this$ = ecx
; Line 354
	mov	DWORD PTR [ecx], OFFSET ??_7bad_alloc@std@@6B@
; Line 355
	jmp	DWORD PTR __imp_??1exception@std@@UAE@XZ
??1bad_alloc@std@@UAE@XZ ENDP				; std::bad_alloc::~bad_alloc
_TEXT	ENDS
EXTRN	??3@YAXPAX@Z:PROC				; operator delete
; Function compile flags: /Ogtp
;	COMDAT ??_Gbad_alloc@std@@UAEPAXI@Z
_TEXT	SEGMENT
___flags$ = 8						; size = 4
??_Gbad_alloc@std@@UAEPAXI@Z PROC			; std::bad_alloc::`scalar deleting destructor', COMDAT
; _this$ = ecx
	push	ebp
	mov	ebp, esp
	push	esi
	mov	esi, ecx
	mov	DWORD PTR [esi], OFFSET ??_7bad_alloc@std@@6B@
	call	DWORD PTR __imp_??1exception@std@@UAE@XZ
	test	BYTE PTR ___flags$[ebp], 1
	je	SHORT $LN6@scalar
	push	esi
	call	??3@YAXPAX@Z				; operator delete
	add	esp, 4
$LN6@scalar:
	mov	eax, esi
	pop	esi
	pop	ebp
	ret	4
??_Gbad_alloc@std@@UAEPAXI@Z ENDP			; std::bad_alloc::`scalar deleting destructor'
_TEXT	ENDS
PUBLIC	??2@YAPAXIPAX@Z					; operator new
; Function compile flags: /Ogtp
;	COMDAT ??2@YAPAXIPAX@Z
_TEXT	SEGMENT
___formal$ = 8						; size = 4
__Where$ = 12						; size = 4
??2@YAPAXIPAX@Z PROC					; operator new, COMDAT
; File c:\program files (x86)\microsoft visual studio 10.0\vc\include\new
; Line 56
	push	ebp
	mov	ebp, esp
; Line 57
	mov	eax, DWORD PTR __Where$[ebp]
; Line 58
	pop	ebp
	ret	0
??2@YAPAXIPAX@Z ENDP					; operator new
_TEXT	ENDS
PUBLIC	??3@YAXPAX0@Z					; operator delete
; Function compile flags: /Ogtp
;	COMDAT ??3@YAXPAX0@Z
_TEXT	SEGMENT
___formal$ = 8						; size = 4
___formal$ = 12						; size = 4
??3@YAXPAX0@Z PROC					; operator delete, COMDAT
; Line 62
	ret	0
??3@YAXPAX0@Z ENDP					; operator delete
_TEXT	ENDS
PUBLIC	?compare@?$char_traits@D@std@@SAHPBD0I@Z	; std::char_traits<char>::compare
; Function compile flags: /Ogtp
;	COMDAT ?compare@?$char_traits@D@std@@SAHPBD0I@Z
_TEXT	SEGMENT
__First1$ = 8						; size = 4
__First2$ = 12						; size = 4
__Count$ = 16						; size = 4
?compare@?$char_traits@D@std@@SAHPBD0I@Z PROC		; std::char_traits<char>::compare, COMDAT
; File c:\program files (x86)\microsoft visual studio 10.0\vc\include\iosfwd
; Line 485
	push	ebp
	mov	ebp, esp
; Line 486
	mov	ecx, DWORD PTR __First2$[ebp]
	mov	edx, DWORD PTR __First1$[ebp]
	push	esi
	mov	esi, DWORD PTR __Count$[ebp]
	push	edi
	cmp	esi, 4
	jb	SHORT $LN11@compare
$LL4@compare:
	mov	eax, DWORD PTR [edx]
	cmp	eax, DWORD PTR [ecx]
	jne	SHORT $LN5@compare
	sub	esi, 4
	add	ecx, 4
	add	edx, 4
	cmp	esi, 4
	jae	SHORT $LL4@compare
$LN11@compare:
	test	esi, esi
	je	SHORT $LN6@compare
$LN5@compare:
	movzx	eax, BYTE PTR [edx]
	movzx	edi, BYTE PTR [ecx]
	sub	eax, edi
	jne	SHORT $LN7@compare
	cmp	esi, 1
	jbe	SHORT $LN6@compare
	movzx	eax, BYTE PTR [edx+1]
	movzx	edi, BYTE PTR [ecx+1]
	sub	eax, edi
	jne	SHORT $LN7@compare
	cmp	esi, 2
	jbe	SHORT $LN6@compare
	movzx	eax, BYTE PTR [edx+2]
	movzx	edi, BYTE PTR [ecx+2]
	sub	eax, edi
	jne	SHORT $LN7@compare
	cmp	esi, 3
	jbe	SHORT $LN6@compare
	movzx	eax, BYTE PTR [edx+3]
	movzx	ecx, BYTE PTR [ecx+3]
	sub	eax, ecx
$LN7@compare:
	sar	eax, 31					; 0000001fH
	pop	edi
	or	eax, 1
	pop	esi
; Line 487
	pop	ebp
	ret	0
$LN6@compare:
	pop	edi
; Line 486
	xor	eax, eax
	pop	esi
; Line 487
	pop	ebp
	ret	0
?compare@?$char_traits@D@std@@SAHPBD0I@Z ENDP		; std::char_traits<char>::compare
_TEXT	ENDS
PUBLIC	?length@?$char_traits@D@std@@SAIPBD@Z		; std::char_traits<char>::length
; Function compile flags: /Ogtp
;	COMDAT ?length@?$char_traits@D@std@@SAIPBD@Z
_TEXT	SEGMENT
__First$ = 8						; size = 4
?length@?$char_traits@D@std@@SAIPBD@Z PROC		; std::char_traits<char>::length, COMDAT
; Line 490
	push	ebp
	mov	ebp, esp
; Line 491
	mov	eax, DWORD PTR __First$[ebp]
	lea	edx, DWORD PTR [eax+1]
	npad	7
$LL3@length:
	mov	cl, BYTE PTR [eax]
	inc	eax
	test	cl, cl
	jne	SHORT $LL3@length
	sub	eax, edx
; Line 492
	pop	ebp
	ret	0
?length@?$char_traits@D@std@@SAIPBD@Z ENDP		; std::char_traits<char>::length
_TEXT	ENDS
PUBLIC	?copy@?$char_traits@D@std@@SAPADPADPBDI@Z	; std::char_traits<char>::copy
EXTRN	_memcpy:PROC
; Function compile flags: /Ogtp
;	COMDAT ?copy@?$char_traits@D@std@@SAPADPADPBDI@Z
_TEXT	SEGMENT
__First1$ = 8						; size = 4
__First2$ = 12						; size = 4
__Count$ = 16						; size = 4
?copy@?$char_traits@D@std@@SAPADPADPBDI@Z PROC		; std::char_traits<char>::copy, COMDAT
; Line 496
	push	ebp
	mov	ebp, esp
; Line 498
	pop	ebp
; Line 497
	jmp	_memcpy
?copy@?$char_traits@D@std@@SAPADPADPBDI@Z ENDP		; std::char_traits<char>::copy
_TEXT	ENDS
PUBLIC	?move@?$char_traits@D@std@@SAPADPADPBDI@Z	; std::char_traits<char>::move
EXTRN	__imp__memmove:PROC
; Function compile flags: /Ogtp
;	COMDAT ?move@?$char_traits@D@std@@SAPADPADPBDI@Z
_TEXT	SEGMENT
__First1$ = 8						; size = 4
__First2$ = 12						; size = 4
__Count$ = 16						; size = 4
?move@?$char_traits@D@std@@SAPADPADPBDI@Z PROC		; std::char_traits<char>::move, COMDAT
; Line 516
	push	ebp
	mov	ebp, esp
; Line 518
	pop	ebp
; Line 517
	jmp	DWORD PTR __imp__memmove
?move@?$char_traits@D@std@@SAPADPADPBDI@Z ENDP		; std::char_traits<char>::move
_TEXT	ENDS
PUBLIC	?assign@?$char_traits@D@std@@SAXAADABD@Z	; std::char_traits<char>::assign
; Function compile flags: /Ogtp
;	COMDAT ?assign@?$char_traits@D@std@@SAXAADABD@Z
_TEXT	SEGMENT
__Left$ = 8						; size = 4
__Right$ = 12						; size = 4
?assign@?$char_traits@D@std@@SAXAADABD@Z PROC		; std::char_traits<char>::assign, COMDAT
; Line 526
	push	ebp
	mov	ebp, esp
; Line 527
	mov	eax, DWORD PTR __Right$[ebp]
	mov	cl, BYTE PTR [eax]
	mov	edx, DWORD PTR __Left$[ebp]
	mov	BYTE PTR [edx], cl
; Line 528
	pop	ebp
	ret	0
?assign@?$char_traits@D@std@@SAXAADABD@Z ENDP		; std::char_traits<char>::assign
_TEXT	ENDS
PUBLIC	_fabsf
EXTRN	__fltused:DWORD
; Function compile flags: /Ogtp
;	COMDAT _fabsf
_TEXT	SEGMENT
tv129 = 8						; size = 4
__X$ = 8						; size = 4
_fabsf	PROC						; COMDAT
; File c:\program files (x86)\microsoft visual studio 10.0\vc\include\math.h
; Line 395
	push	ebp
	mov	ebp, esp
	fld	DWORD PTR __X$[ebp]
	fabs
	fstp	DWORD PTR tv129[ebp]
	fld	DWORD PTR tv129[ebp]
	pop	ebp
	ret	0
_fabsf	ENDP
_TEXT	ENDS
PUBLIC	_cosf
EXTRN	__CIcos:PROC
; Function compile flags: /Ogtp
;	COMDAT _cosf
_TEXT	SEGMENT
tv69 = 8						; size = 4
__X$ = 8						; size = 4
_cosf	PROC						; COMDAT
; Line 410
	push	ebp
	mov	ebp, esp
	fld	DWORD PTR __X$[ebp]
	call	__CIcos
	fstp	DWORD PTR tv69[ebp]
	fld	DWORD PTR tv69[ebp]
	pop	ebp
	ret	0
_cosf	ENDP
_TEXT	ENDS
PUBLIC	_powf
EXTRN	__CIpow:PROC
; Function compile flags: /Ogtp
;	COMDAT _powf
_TEXT	SEGMENT
tv72 = 8						; size = 4
__X$ = 8						; size = 4
__Y$ = 12						; size = 4
_powf	PROC						; COMDAT
; Line 428
	push	ebp
	mov	ebp, esp
	fld	DWORD PTR __X$[ebp]
	fld	DWORD PTR __Y$[ebp]
	call	__CIpow
	fstp	DWORD PTR tv72[ebp]
	fld	DWORD PTR tv72[ebp]
	pop	ebp
	ret	0
_powf	ENDP
_TEXT	ENDS
PUBLIC	_sinf
EXTRN	__CIsin:PROC
; Function compile flags: /Ogtp
;	COMDAT _sinf
_TEXT	SEGMENT
tv69 = 8						; size = 4
__X$ = 8						; size = 4
_sinf	PROC						; COMDAT
; Line 430
	push	ebp
	mov	ebp, esp
	fld	DWORD PTR __X$[ebp]
	call	__CIsin
	fstp	DWORD PTR tv69[ebp]
	fld	DWORD PTR tv69[ebp]
	pop	ebp
	ret	0
_sinf	ENDP
_TEXT	ENDS
PUBLIC	_sqrtf
EXTRN	__CIsqrt:PROC
; Function compile flags: /Ogtp
;	COMDAT _sqrtf
_TEXT	SEGMENT
tv69 = 8						; size = 4
__X$ = 8						; size = 4
_sqrtf	PROC						; COMDAT
; Line 434
	push	ebp
	mov	ebp, esp
	fld	DWORD PTR __X$[ebp]
	call	__CIsqrt
	fstp	DWORD PTR tv69[ebp]
	fld	DWORD PTR tv69[ebp]
	pop	ebp
	ret	0
_sqrtf	ENDP
_TEXT	ENDS
PUBLIC	?abs@@YAMM@Z					; abs
; Function compile flags: /Ogtp
;	COMDAT ?abs@@YAMM@Z
_TEXT	SEGMENT
tv131 = 8						; size = 4
__X$ = 8						; size = 4
?abs@@YAMM@Z PROC					; abs, COMDAT
; Line 500
	push	ebp
	mov	ebp, esp
	fld	DWORD PTR __X$[ebp]
	fabs
	fstp	DWORD PTR tv131[ebp]
	fld	DWORD PTR tv131[ebp]
	pop	ebp
	ret	0
?abs@@YAMM@Z ENDP					; abs
_TEXT	ENDS
PUBLIC	?cos@@YAMM@Z					; cos
; Function compile flags: /Ogtp
;	COMDAT ?cos@@YAMM@Z
_TEXT	SEGMENT
tv73 = 8						; size = 4
__X$ = 8						; size = 4
?cos@@YAMM@Z PROC					; cos, COMDAT
; Line 512
	push	ebp
	mov	ebp, esp
	fld	DWORD PTR __X$[ebp]
	call	__CIcos
	fstp	DWORD PTR tv73[ebp]
	fld	DWORD PTR tv73[ebp]
	pop	ebp
	ret	0
?cos@@YAMM@Z ENDP					; cos
_TEXT	ENDS
PUBLIC	?pow@@YAMMM@Z					; pow
; Function compile flags: /Ogtp
;	COMDAT ?pow@@YAMMM@Z
_TEXT	SEGMENT
tv77 = 8						; size = 4
__X$ = 8						; size = 4
__Y$ = 12						; size = 4
?pow@@YAMMM@Z PROC					; pow, COMDAT
; Line 534
	push	ebp
	mov	ebp, esp
	fld	DWORD PTR __X$[ebp]
	fld	DWORD PTR __Y$[ebp]
	call	__CIpow
	fstp	DWORD PTR tv77[ebp]
	fld	DWORD PTR tv77[ebp]
	pop	ebp
	ret	0
?pow@@YAMMM@Z ENDP					; pow
_TEXT	ENDS
PUBLIC	?sin@@YAMM@Z					; sin
; Function compile flags: /Ogtp
;	COMDAT ?sin@@YAMM@Z
_TEXT	SEGMENT
tv73 = 8						; size = 4
__X$ = 8						; size = 4
?sin@@YAMM@Z PROC					; sin, COMDAT
; Line 538
	push	ebp
	mov	ebp, esp
	fld	DWORD PTR __X$[ebp]
	call	__CIsin
	fstp	DWORD PTR tv73[ebp]
	fld	DWORD PTR tv73[ebp]
	pop	ebp
	ret	0
?sin@@YAMM@Z ENDP					; sin
_TEXT	ENDS
PUBLIC	?sqrt@@YAMM@Z					; sqrt
; Function compile flags: /Ogtp
;	COMDAT ?sqrt@@YAMM@Z
_TEXT	SEGMENT
tv73 = 8						; size = 4
__X$ = 8						; size = 4
?sqrt@@YAMM@Z PROC					; sqrt, COMDAT
; Line 542
	push	ebp
	mov	ebp, esp
	fld	DWORD PTR __X$[ebp]
	call	__CIsqrt
	fstp	DWORD PTR tv73[ebp]
	fld	DWORD PTR tv73[ebp]
	pop	ebp
	ret	0
?sqrt@@YAMM@Z ENDP					; sqrt
_TEXT	ENDS
PUBLIC	?_Adopt@_Iterator_base0@std@@QAEXPBX@Z		; std::_Iterator_base0::_Adopt
; Function compile flags: /Ogtp
;	COMDAT ?_Adopt@_Iterator_base0@std@@QAEXPBX@Z
_TEXT	SEGMENT
___formal$ = 8						; size = 4
?_Adopt@_Iterator_base0@std@@QAEXPBX@Z PROC		; std::_Iterator_base0::_Adopt, COMDAT
; _this$ = ecx
; File c:\program files (x86)\microsoft visual studio 10.0\vc\include\xutility
; Line 49
	ret	4
?_Adopt@_Iterator_base0@std@@QAEXPBX@Z ENDP		; std::_Iterator_base0::_Adopt
_TEXT	ENDS
PUBLIC	??0Vec3D@@QAE@MMM@Z				; Vec3D::Vec3D
; Function compile flags: /Ogtp
;	COMDAT ??0Vec3D@@QAE@MMM@Z
_TEXT	SEGMENT
_x0$ = 8						; size = 4
_y0$ = 12						; size = 4
_z0$ = 16						; size = 4
??0Vec3D@@QAE@MMM@Z PROC				; Vec3D::Vec3D, COMDAT
; _this$ = ecx
; File c:\programovani\wow editor\test\src\editor\vec3d.h
; Line 12
	push	ebp
	mov	ebp, esp
	mov	edx, DWORD PTR _y0$[ebp]
	mov	eax, ecx
	mov	ecx, DWORD PTR _x0$[ebp]
	mov	DWORD PTR [eax], ecx
	mov	ecx, DWORD PTR _z0$[ebp]
	mov	DWORD PTR [eax+4], edx
	mov	DWORD PTR [eax+8], ecx
	pop	ebp
	ret	12					; 0000000cH
??0Vec3D@@QAE@MMM@Z ENDP				; Vec3D::Vec3D
_TEXT	ENDS
PUBLIC	??0Vec3D@@QAE@ABV0@@Z				; Vec3D::Vec3D
; Function compile flags: /Ogtp
;	COMDAT ??0Vec3D@@QAE@ABV0@@Z
_TEXT	SEGMENT
_v$ = 8							; size = 4
??0Vec3D@@QAE@ABV0@@Z PROC				; Vec3D::Vec3D, COMDAT
; _this$ = ecx
; Line 14
	push	ebp
	mov	ebp, esp
	mov	eax, ecx
	mov	ecx, DWORD PTR _v$[ebp]
	mov	edx, DWORD PTR [ecx]
	mov	DWORD PTR [eax], edx
	mov	edx, DWORD PTR [ecx+4]
	mov	DWORD PTR [eax+4], edx
	mov	ecx, DWORD PTR [ecx+8]
	mov	DWORD PTR [eax+8], ecx
	pop	ebp
	ret	4
??0Vec3D@@QAE@ABV0@@Z ENDP				; Vec3D::Vec3D
_TEXT	ENDS
PUBLIC	??4Vec3D@@QAEAAV0@ABV0@@Z			; Vec3D::operator=
; Function compile flags: /Ogtp
;	COMDAT ??4Vec3D@@QAEAAV0@ABV0@@Z
_TEXT	SEGMENT
_v$ = 8							; size = 4
??4Vec3D@@QAEAAV0@ABV0@@Z PROC				; Vec3D::operator=, COMDAT
; _this$ = ecx
; Line 17
	push	ebp
	mov	ebp, esp
	mov	eax, ecx
; Line 18
	mov	ecx, DWORD PTR _v$[ebp]
	mov	edx, DWORD PTR [ecx]
	mov	DWORD PTR [eax], edx
; Line 19
	mov	edx, DWORD PTR [ecx+4]
	mov	DWORD PTR [eax+4], edx
; Line 20
	mov	ecx, DWORD PTR [ecx+8]
	mov	DWORD PTR [eax+8], ecx
; Line 22
	pop	ebp
	ret	4
??4Vec3D@@QAEAAV0@ABV0@@Z ENDP				; Vec3D::operator=
_TEXT	ENDS
PUBLIC	??HVec3D@@QBE?AV0@ABV0@@Z			; Vec3D::operator+
; Function compile flags: /Ogtp
;	COMDAT ??HVec3D@@QBE?AV0@ABV0@@Z
_TEXT	SEGMENT
___$ReturnUdt$ = 8					; size = 4
_v$ = 12						; size = 4
??HVec3D@@QBE?AV0@ABV0@@Z PROC				; Vec3D::operator+, COMDAT
; _this$ = ecx
; Line 25
	push	ebp
	mov	ebp, esp
; Line 26
	mov	edx, DWORD PTR _v$[ebp]
	fld	DWORD PTR [edx]
	mov	eax, DWORD PTR ___$ReturnUdt$[ebp]
	fadd	DWORD PTR [ecx]
	fstp	DWORD PTR [eax]
	fld	DWORD PTR [edx+4]
	fadd	DWORD PTR [ecx+4]
	fstp	DWORD PTR [eax+4]
	fld	DWORD PTR [edx+8]
	fadd	DWORD PTR [ecx+8]
	fstp	DWORD PTR [eax+8]
; Line 28
	pop	ebp
	ret	8
??HVec3D@@QBE?AV0@ABV0@@Z ENDP				; Vec3D::operator+
_TEXT	ENDS
PUBLIC	??GVec3D@@QBE?AV0@ABV0@@Z			; Vec3D::operator-
; Function compile flags: /Ogtp
;	COMDAT ??GVec3D@@QBE?AV0@ABV0@@Z
_TEXT	SEGMENT
___$ReturnUdt$ = 8					; size = 4
_v$ = 12						; size = 4
??GVec3D@@QBE?AV0@ABV0@@Z PROC				; Vec3D::operator-, COMDAT
; _this$ = ecx
; Line 31
	push	ebp
	mov	ebp, esp
; Line 32
	mov	edx, DWORD PTR _v$[ebp]
	fld	DWORD PTR [ecx]
	fsub	DWORD PTR [edx]
	mov	eax, DWORD PTR ___$ReturnUdt$[ebp]
	fstp	DWORD PTR [eax]
	fld	DWORD PTR [ecx+4]
	fsub	DWORD PTR [edx+4]
	fstp	DWORD PTR [eax+4]
	fld	DWORD PTR [ecx+8]
	fsub	DWORD PTR [edx+8]
	fstp	DWORD PTR [eax+8]
; Line 34
	pop	ebp
	ret	8
??GVec3D@@QBE?AV0@ABV0@@Z ENDP				; Vec3D::operator-
_TEXT	ENDS
PUBLIC	??DVec3D@@QBE?AV0@M@Z				; Vec3D::operator*
; Function compile flags: /Ogtp
;	COMDAT ??DVec3D@@QBE?AV0@M@Z
_TEXT	SEGMENT
___$ReturnUdt$ = 8					; size = 4
_d$ = 12						; size = 4
??DVec3D@@QBE?AV0@M@Z PROC				; Vec3D::operator*, COMDAT
; _this$ = ecx
; Line 42
	push	ebp
	mov	ebp, esp
; Line 43
	fld	DWORD PTR [ecx]
	mov	eax, DWORD PTR ___$ReturnUdt$[ebp]
	fld	DWORD PTR _d$[ebp]
	fld	ST(0)
	fmulp	ST(2), ST(0)
	fxch	ST(1)
	fstp	DWORD PTR [eax]
	fld	DWORD PTR [ecx+4]
	fmul	ST(0), ST(1)
	fstp	DWORD PTR [eax+4]
	fmul	DWORD PTR [ecx+8]
	fstp	DWORD PTR [eax+8]
; Line 45
	pop	ebp
	ret	8
??DVec3D@@QBE?AV0@M@Z ENDP				; Vec3D::operator*
_TEXT	ENDS
PUBLIC	??LVec3D@@QBE?AV0@ABV0@@Z			; Vec3D::operator%
; Function compile flags: /Ogtp
;	COMDAT ??LVec3D@@QBE?AV0@ABV0@@Z
_TEXT	SEGMENT
___$ReturnUdt$ = 8					; size = 4
_v$ = 12						; size = 4
??LVec3D@@QBE?AV0@ABV0@@Z PROC				; Vec3D::operator%, COMDAT
; _this$ = ecx
; Line 53
	push	ebp
	mov	ebp, esp
; Line 54
	mov	edx, DWORD PTR _v$[ebp]
	fld	DWORD PTR [edx+8]
	mov	eax, DWORD PTR ___$ReturnUdt$[ebp]
	fmul	DWORD PTR [ecx+4]
	fld	DWORD PTR [edx+4]
	fmul	DWORD PTR [ecx+8]
	fsubp	ST(1), ST(0)
	fstp	DWORD PTR [eax]
	fld	DWORD PTR [ecx+8]
	fmul	DWORD PTR [edx]
	fld	DWORD PTR [ecx]
	fmul	DWORD PTR [edx+8]
	fsubp	ST(1), ST(0)
	fstp	DWORD PTR [eax+4]
	fld	DWORD PTR [edx+4]
	fmul	DWORD PTR [ecx]
	fld	DWORD PTR [edx]
	fmul	DWORD PTR [ecx+4]
	fsubp	ST(1), ST(0)
	fstp	DWORD PTR [eax+8]
; Line 56
	pop	ebp
	ret	8
??LVec3D@@QBE?AV0@ABV0@@Z ENDP				; Vec3D::operator%
_TEXT	ENDS
PUBLIC	??XVec3D@@QAEAAV0@M@Z				; Vec3D::operator*=
; Function compile flags: /Ogtp
;	COMDAT ??XVec3D@@QAEAAV0@M@Z
_TEXT	SEGMENT
_d$ = 8							; size = 4
??XVec3D@@QAEAAV0@M@Z PROC				; Vec3D::operator*=, COMDAT
; _this$ = ecx
; Line 75
	push	ebp
	mov	ebp, esp
	mov	eax, ecx
; Line 76
	fld	DWORD PTR [eax]
	fld	DWORD PTR _d$[ebp]
	fld	ST(0)
	fmulp	ST(2), ST(0)
	fxch	ST(1)
	fstp	DWORD PTR [eax]
; Line 77
	fld	DWORD PTR [eax+4]
	fmul	ST(0), ST(1)
	fstp	DWORD PTR [eax+4]
; Line 78
	fmul	DWORD PTR [eax+8]
	fstp	DWORD PTR [eax+8]
; Line 80
	pop	ebp
	ret	4
??XVec3D@@QAEAAV0@M@Z ENDP				; Vec3D::operator*=
_TEXT	ENDS
PUBLIC	?length@Vec3D@@QBEMXZ				; Vec3D::length
; Function compile flags: /Ogtp
;	COMDAT ?length@Vec3D@@QBEMXZ
_TEXT	SEGMENT
tv170 = -4						; size = 4
tv161 = -4						; size = 4
?length@Vec3D@@QBEMXZ PROC				; Vec3D::length, COMDAT
; _this$ = ecx
; Line 88
	push	ebp
	mov	ebp, esp
	push	ecx
; Line 89
	fld	DWORD PTR [ecx+4]
	fld	DWORD PTR [ecx]
	fld	DWORD PTR [ecx+8]
	fld	ST(1)
	fmulp	ST(2), ST(0)
	fld	ST(2)
	fmulp	ST(3), ST(0)
	fxch	ST(1)
	faddp	ST(2), ST(0)
	fmul	ST(0), ST(0)
	faddp	ST(1), ST(0)
	fstp	DWORD PTR tv170[ebp]
	fld	DWORD PTR tv170[ebp]
	call	__CIsqrt
	fstp	DWORD PTR tv161[ebp]
	fld	DWORD PTR tv161[ebp]
; Line 90
	mov	esp, ebp
	pop	ebp
	ret	0
?length@Vec3D@@QBEMXZ ENDP				; Vec3D::length
_TEXT	ENDS
PUBLIC	__real@3ff0000000000000
PUBLIC	?normalize@Vec3D@@QAEAAV1@XZ			; Vec3D::normalize
;	COMDAT __real@3ff0000000000000
CONST	SEGMENT
__real@3ff0000000000000 DQ 03ff0000000000000r	; 1
; Function compile flags: /Ogtp
CONST	ENDS
;	COMDAT ?normalize@Vec3D@@QAEAAV1@XZ
_TEXT	SEGMENT
tv206 = -4						; size = 4
tv196 = -4						; size = 4
$T103027 = -4						; size = 4
?normalize@Vec3D@@QAEAAV1@XZ PROC			; Vec3D::normalize, COMDAT
; _this$ = ecx
; Line 93
	push	ebp
	mov	ebp, esp
	push	ecx
	push	esi
	mov	esi, ecx
; Line 94
	fld	DWORD PTR [esi+4]
	fld	DWORD PTR [esi]
	fld	DWORD PTR [esi+8]
	fld	ST(1)
	fmulp	ST(2), ST(0)
	fld	ST(2)
	fmulp	ST(3), ST(0)
	fxch	ST(1)
	faddp	ST(2), ST(0)
	fmul	ST(0), ST(0)
	faddp	ST(1), ST(0)
	fstp	DWORD PTR tv206[ebp]
	fld	DWORD PTR tv206[ebp]
	call	__CIsqrt
	fstp	DWORD PTR tv196[ebp]
	fld	DWORD PTR tv196[ebp]
; Line 95
	mov	eax, esi
	fld1
	fdivrp	ST(1), ST(0)
	fstp	DWORD PTR $T103027[ebp]
	fld	DWORD PTR [esi]
	fld	DWORD PTR $T103027[ebp]
	fld	ST(0)
	fmulp	ST(2), ST(0)
	fxch	ST(1)
	fstp	DWORD PTR [esi]
	fld	ST(0)
	fmul	DWORD PTR [esi+4]
	fstp	DWORD PTR [esi+4]
	fmul	DWORD PTR [esi+8]
	fstp	DWORD PTR [esi+8]
	pop	esi
; Line 96
	mov	esp, ebp
	pop	ebp
	ret	0
?normalize@Vec3D@@QAEAAV1@XZ ENDP			; Vec3D::normalize
_TEXT	ENDS
PUBLIC	??BVec3D@@QAEPAMXZ				; Vec3D::operator float *
; Function compile flags: /Ogtp
;	COMDAT ??BVec3D@@QAEPAMXZ
_TEXT	SEGMENT
??BVec3D@@QAEPAMXZ PROC					; Vec3D::operator float *, COMDAT
; _this$ = ecx
; Line 112
	mov	eax, ecx
; Line 114
	ret	0
??BVec3D@@QAEPAMXZ ENDP					; Vec3D::operator float *
_TEXT	ENDS
PUBLIC	?getSize@MPQFile@@QAEIXZ			; MPQFile::getSize
; Function compile flags: /Ogtp
;	COMDAT ?getSize@MPQFile@@QAEIXZ
_TEXT	SEGMENT
?getSize@MPQFile@@QAEIXZ PROC				; MPQFile::getSize, COMDAT
; _this$ = ecx
; File c:\programovani\wow editor\test\src\editor\mpq.h
; Line 46
	mov	eax, DWORD PTR [ecx+1040]
	ret	0
?getSize@MPQFile@@QAEIXZ ENDP				; MPQFile::getSize
_TEXT	ENDS
PUBLIC	?getPos@MPQFile@@QAEIXZ				; MPQFile::getPos
; Function compile flags: /Ogtp
;	COMDAT ?getPos@MPQFile@@QAEIXZ
_TEXT	SEGMENT
?getPos@MPQFile@@QAEIXZ PROC				; MPQFile::getPos, COMDAT
; _this$ = ecx
; Line 47
	mov	eax, DWORD PTR [ecx+1032]
	ret	0
?getPos@MPQFile@@QAEIXZ ENDP				; MPQFile::getPos
_TEXT	ENDS
PUBLIC	?getBuffer@MPQFile@@QAEPADXZ			; MPQFile::getBuffer
; Function compile flags: /Ogtp
;	COMDAT ?getBuffer@MPQFile@@QAEPADXZ
_TEXT	SEGMENT
?getBuffer@MPQFile@@QAEPADXZ PROC			; MPQFile::getBuffer, COMDAT
; _this$ = ecx
; Line 48
	mov	eax, DWORD PTR [ecx+1028]
	ret	0
?getBuffer@MPQFile@@QAEPADXZ ENDP			; MPQFile::getBuffer
_TEXT	ENDS
PUBLIC	?getPointer@MPQFile@@QAEPADXZ			; MPQFile::getPointer
; Function compile flags: /Ogtp
;	COMDAT ?getPointer@MPQFile@@QAEPADXZ
_TEXT	SEGMENT
?getPointer@MPQFile@@QAEPADXZ PROC			; MPQFile::getPointer, COMDAT
; _this$ = ecx
; Line 49
	mov	eax, DWORD PTR [ecx+1032]
	add	eax, DWORD PTR [ecx+1028]
	ret	0
?getPointer@MPQFile@@QAEPADXZ ENDP			; MPQFile::getPointer
_TEXT	ENDS
PUBLIC	?isEof@MPQFile@@QAE_NXZ				; MPQFile::isEof
; Function compile flags: /Ogtp
;	COMDAT ?isEof@MPQFile@@QAE_NXZ
_TEXT	SEGMENT
?isEof@MPQFile@@QAE_NXZ PROC				; MPQFile::isEof, COMDAT
; _this$ = ecx
; Line 50
	mov	al, BYTE PTR [ecx+1024]
	ret	0
?isEof@MPQFile@@QAE_NXZ ENDP				; MPQFile::isEof
_TEXT	ENDS
PUBLIC	?isExternal@MPQFile@@QAE_NXZ			; MPQFile::isExternal
; Function compile flags: /Ogtp
;	COMDAT ?isExternal@MPQFile@@QAE_NXZ
_TEXT	SEGMENT
?isExternal@MPQFile@@QAE_NXZ PROC			; MPQFile::isExternal, COMDAT
; _this$ = ecx
; Line 54
	mov	al, BYTE PTR [ecx+1048]
	ret	0
?isExternal@MPQFile@@QAE_NXZ ENDP			; MPQFile::isExternal
_TEXT	ENDS
PUBLIC	?setBuffer@MPQFile@@QAEXPADI@Z			; MPQFile::setBuffer
; Function compile flags: /Ogtp
;	COMDAT ?setBuffer@MPQFile@@QAEXPADI@Z
_TEXT	SEGMENT
_Buf$ = 8						; size = 4
_Size$ = 12						; size = 4
?setBuffer@MPQFile@@QAEXPADI@Z PROC			; MPQFile::setBuffer, COMDAT
; _this$ = ecx
; Line 57
	push	ebp
	mov	ebp, esp
	push	esi
	mov	esi, ecx
; Line 58
	mov	eax, DWORD PTR [esi+1028]
	test	eax, eax
	je	SHORT $LN1@setBuffer
; Line 59
	push	eax
	call	??3@YAXPAX@Z				; operator delete
	add	esp, 4
$LN1@setBuffer:
; Line 60
	mov	eax, DWORD PTR _Buf$[ebp]
; Line 61
	mov	ecx, DWORD PTR _Size$[ebp]
	mov	DWORD PTR [esi+1028], eax
	mov	DWORD PTR [esi+1040], ecx
	mov	DWORD PTR [esi+1044], 0
	pop	esi
; Line 62
	pop	ebp
	ret	8
?setBuffer@MPQFile@@QAEXPADI@Z ENDP			; MPQFile::setBuffer
_TEXT	ENDS
PUBLIC	?flipcc@@YAXPAD@Z				; flipcc
; Function compile flags: /Ogtp
;	COMDAT ?flipcc@@YAXPAD@Z
_TEXT	SEGMENT
_fcc$ = 8						; size = 4
?flipcc@@YAXPAD@Z PROC					; flipcc, COMDAT
; Line 67
	push	ebp
	mov	ebp, esp
; Line 69
	mov	eax, DWORD PTR _fcc$[ebp]
; Line 70
	movzx	edx, BYTE PTR [eax+3]
	mov	cl, BYTE PTR [eax]
	mov	BYTE PTR [eax], dl
; Line 73
	movzx	edx, BYTE PTR [eax+2]
	mov	BYTE PTR [eax+3], cl
	mov	cl, BYTE PTR [eax+1]
	mov	BYTE PTR [eax+1], dl
; Line 74
	mov	BYTE PTR [eax+2], cl
; Line 75
	pop	ebp
	ret	0
?flipcc@@YAXPAD@Z ENDP					; flipcc
_TEXT	ENDS
PUBLIC	??0Vec4D@@QAE@MMMM@Z				; Vec4D::Vec4D
; Function compile flags: /Ogtp
;	COMDAT ??0Vec4D@@QAE@MMMM@Z
_TEXT	SEGMENT
_x0$ = 8						; size = 4
_y0$ = 12						; size = 4
_z0$ = 16						; size = 4
_w0$ = 20						; size = 4
??0Vec4D@@QAE@MMMM@Z PROC				; Vec4D::Vec4D, COMDAT
; _this$ = ecx
; File c:\programovani\wow editor\test\src\editor\quaternion.h
; Line 12
	push	ebp
	mov	ebp, esp
	mov	edx, DWORD PTR _y0$[ebp]
	mov	eax, ecx
	mov	ecx, DWORD PTR _x0$[ebp]
	mov	DWORD PTR [eax], ecx
	mov	ecx, DWORD PTR _z0$[ebp]
	mov	DWORD PTR [eax+4], edx
	mov	edx, DWORD PTR _w0$[ebp]
	mov	DWORD PTR [eax+8], ecx
	mov	DWORD PTR [eax+12], edx
	pop	ebp
	ret	16					; 00000010H
??0Vec4D@@QAE@MMMM@Z ENDP				; Vec4D::Vec4D
_TEXT	ENDS
PUBLIC	??0Matrix@@QAE@XZ				; Matrix::Matrix
; Function compile flags: /Ogtp
;	COMDAT ??0Matrix@@QAE@XZ
_TEXT	SEGMENT
??0Matrix@@QAE@XZ PROC					; Matrix::Matrix, COMDAT
; _this$ = ecx
; File c:\programovani\wow editor\test\src\editor\matrix.h
; Line 12
	mov	eax, ecx
; Line 14
	ret	0
??0Matrix@@QAE@XZ ENDP					; Matrix::Matrix
_TEXT	ENDS
PUBLIC	??0Matrix@@QAE@ABV0@@Z				; Matrix::Matrix
; Function compile flags: /Ogtp
;	COMDAT ??0Matrix@@QAE@ABV0@@Z
_TEXT	SEGMENT
_p$ = 8							; size = 4
??0Matrix@@QAE@ABV0@@Z PROC				; Matrix::Matrix, COMDAT
; _this$ = ecx
; Line 16
	push	ebp
	mov	ebp, esp
	mov	eax, ecx
; Line 22
	mov	ecx, DWORD PTR _p$[ebp]
	mov	edx, DWORD PTR [ecx]
	mov	DWORD PTR [eax], edx
	mov	edx, DWORD PTR [ecx+4]
	mov	DWORD PTR [eax+4], edx
	mov	edx, DWORD PTR [ecx+8]
	mov	DWORD PTR [eax+8], edx
	mov	edx, DWORD PTR [ecx+12]
	mov	DWORD PTR [eax+12], edx
	mov	edx, DWORD PTR [ecx+16]
	mov	DWORD PTR [eax+16], edx
	mov	edx, DWORD PTR [ecx+20]
	mov	DWORD PTR [eax+20], edx
	mov	edx, DWORD PTR [ecx+24]
	mov	DWORD PTR [eax+24], edx
	mov	edx, DWORD PTR [ecx+28]
	mov	DWORD PTR [eax+28], edx
	mov	edx, DWORD PTR [ecx+32]
	mov	DWORD PTR [eax+32], edx
	mov	edx, DWORD PTR [ecx+36]
	mov	DWORD PTR [eax+36], edx
	mov	edx, DWORD PTR [ecx+40]
	mov	DWORD PTR [eax+40], edx
	mov	edx, DWORD PTR [ecx+44]
	mov	DWORD PTR [eax+44], edx
	mov	edx, DWORD PTR [ecx+48]
	mov	DWORD PTR [eax+48], edx
	mov	edx, DWORD PTR [ecx+52]
	mov	DWORD PTR [eax+52], edx
	mov	edx, DWORD PTR [ecx+56]
	mov	DWORD PTR [eax+56], edx
	mov	ecx, DWORD PTR [ecx+60]
	mov	DWORD PTR [eax+60], ecx
; Line 25
	pop	ebp
	ret	4
??0Matrix@@QAE@ABV0@@Z ENDP				; Matrix::Matrix
_TEXT	ENDS
PUBLIC	??4Matrix@@QAEAAV0@ABV0@@Z			; Matrix::operator=
; Function compile flags: /Ogtp
;	COMDAT ??4Matrix@@QAEAAV0@ABV0@@Z
_TEXT	SEGMENT
_p$ = 8							; size = 4
??4Matrix@@QAEAAV0@ABV0@@Z PROC				; Matrix::operator=, COMDAT
; _this$ = ecx
; Line 28
	push	ebp
	mov	ebp, esp
	mov	eax, ecx
; Line 33
	mov	ecx, DWORD PTR _p$[ebp]
	mov	edx, DWORD PTR [ecx]
	mov	DWORD PTR [eax], edx
	mov	edx, DWORD PTR [ecx+4]
	mov	DWORD PTR [eax+4], edx
	mov	edx, DWORD PTR [ecx+8]
	mov	DWORD PTR [eax+8], edx
	mov	edx, DWORD PTR [ecx+12]
	mov	DWORD PTR [eax+12], edx
	mov	edx, DWORD PTR [ecx+16]
	mov	DWORD PTR [eax+16], edx
	mov	edx, DWORD PTR [ecx+20]
	mov	DWORD PTR [eax+20], edx
	mov	edx, DWORD PTR [ecx+24]
	mov	DWORD PTR [eax+24], edx
	mov	edx, DWORD PTR [ecx+28]
	mov	DWORD PTR [eax+28], edx
	mov	edx, DWORD PTR [ecx+32]
	mov	DWORD PTR [eax+32], edx
	mov	edx, DWORD PTR [ecx+36]
	mov	DWORD PTR [eax+36], edx
	mov	edx, DWORD PTR [ecx+40]
	mov	DWORD PTR [eax+40], edx
	mov	edx, DWORD PTR [ecx+44]
	mov	DWORD PTR [eax+44], edx
	mov	edx, DWORD PTR [ecx+48]
	mov	DWORD PTR [eax+48], edx
	mov	edx, DWORD PTR [ecx+52]
	mov	DWORD PTR [eax+52], edx
	mov	edx, DWORD PTR [ecx+56]
	mov	DWORD PTR [eax+56], edx
	mov	ecx, DWORD PTR [ecx+60]
	mov	DWORD PTR [eax+60], ecx
; Line 37
	pop	ebp
	ret	4
??4Matrix@@QAEAAV0@ABV0@@Z ENDP				; Matrix::operator=
_TEXT	ENDS
PUBLIC	?zero@Matrix@@QAEXXZ				; Matrix::zero
; Function compile flags: /Ogtp
;	COMDAT ?zero@Matrix@@QAEXXZ
_TEXT	SEGMENT
?zero@Matrix@@QAEXXZ PROC				; Matrix::zero, COMDAT
; _this$ = ecx
; Line 45
	xor	eax, eax
	mov	DWORD PTR [ecx], eax
	mov	DWORD PTR [ecx+4], eax
	mov	DWORD PTR [ecx+8], eax
	mov	DWORD PTR [ecx+12], eax
	mov	DWORD PTR [ecx+16], eax
	mov	DWORD PTR [ecx+20], eax
	mov	DWORD PTR [ecx+24], eax
	mov	DWORD PTR [ecx+28], eax
	mov	DWORD PTR [ecx+32], eax
	mov	DWORD PTR [ecx+36], eax
	mov	DWORD PTR [ecx+40], eax
	mov	DWORD PTR [ecx+44], eax
	mov	DWORD PTR [ecx+48], eax
	mov	DWORD PTR [ecx+52], eax
	mov	DWORD PTR [ecx+56], eax
	mov	DWORD PTR [ecx+60], eax
; Line 48
	ret	0
?zero@Matrix@@QAEXXZ ENDP				; Matrix::zero
_TEXT	ENDS
PUBLIC	?unit@Matrix@@QAEXXZ				; Matrix::unit
; Function compile flags: /Ogtp
;	COMDAT ?unit@Matrix@@QAEXXZ
_TEXT	SEGMENT
?unit@Matrix@@QAEXXZ PROC				; Matrix::unit, COMDAT
; _this$ = ecx
; Line 52
	xor	eax, eax
	mov	DWORD PTR [ecx+4], eax
	mov	DWORD PTR [ecx+8], eax
	mov	DWORD PTR [ecx+12], eax
	mov	DWORD PTR [ecx+16], eax
	mov	DWORD PTR [ecx+24], eax
	mov	DWORD PTR [ecx+28], eax
	mov	DWORD PTR [ecx+32], eax
	mov	DWORD PTR [ecx+36], eax
	mov	DWORD PTR [ecx+44], eax
	mov	DWORD PTR [ecx+48], eax
	mov	DWORD PTR [ecx+52], eax
	mov	DWORD PTR [ecx+56], eax
; Line 53
	mov	eax, 1065353216				; 3f800000H
	mov	DWORD PTR [ecx+60], eax
	mov	DWORD PTR [ecx+40], eax
	mov	DWORD PTR [ecx+20], eax
	mov	DWORD PTR [ecx], eax
; Line 54
	ret	0
?unit@Matrix@@QAEXXZ ENDP				; Matrix::unit
_TEXT	ENDS
PUBLIC	??DMatrix@@QBE?AVVec3D@@ABV1@@Z			; Matrix::operator*
; Function compile flags: /Ogtp
;	COMDAT ??DMatrix@@QBE?AVVec3D@@ABV1@@Z
_TEXT	SEGMENT
___$ReturnUdt$ = 8					; size = 4
_v$ = 12						; size = 4
??DMatrix@@QBE?AVVec3D@@ABV1@@Z PROC			; Matrix::operator*, COMDAT
; _this$ = ecx
; Line 179
	push	ebp
	mov	ebp, esp
; Line 181
	mov	edx, DWORD PTR _v$[ebp]
	fld	DWORD PTR [ecx+4]
	fmul	DWORD PTR [edx+4]
	mov	eax, DWORD PTR ___$ReturnUdt$[ebp]
	fld	DWORD PTR [edx]
	fmul	DWORD PTR [ecx]
	faddp	ST(1), ST(0)
	fld	DWORD PTR [ecx+8]
	fmul	DWORD PTR [edx+8]
	faddp	ST(1), ST(0)
	fadd	DWORD PTR [ecx+12]
	fstp	DWORD PTR [eax]
; Line 182
	fld	DWORD PTR [ecx+20]
	fmul	DWORD PTR [edx+4]
	fld	DWORD PTR [ecx+16]
	fmul	DWORD PTR [edx]
	faddp	ST(1), ST(0)
	fld	DWORD PTR [ecx+24]
	fmul	DWORD PTR [edx+8]
	faddp	ST(1), ST(0)
	fadd	DWORD PTR [ecx+28]
	fstp	DWORD PTR [eax+4]
; Line 183
	fld	DWORD PTR [ecx+36]
	fmul	DWORD PTR [edx+4]
	fld	DWORD PTR [ecx+32]
	fmul	DWORD PTR [edx]
	faddp	ST(1), ST(0)
	fld	DWORD PTR [ecx+40]
	fmul	DWORD PTR [edx+8]
	faddp	ST(1), ST(0)
	fadd	DWORD PTR [ecx+44]
	fstp	DWORD PTR [eax+8]
; Line 185
	pop	ebp
	ret	8
??DMatrix@@QBE?AVVec3D@@ABV1@@Z ENDP			; Matrix::operator*
_TEXT	ENDS
PUBLIC	??DMatrix@@QBE?AV0@ABV0@@Z			; Matrix::operator*
; Function compile flags: /Ogtp
;	COMDAT ??DMatrix@@QBE?AV0@ABV0@@Z
_TEXT	SEGMENT
___$ReturnUdt$ = 8					; size = 4
_p$ = 12						; size = 4
??DMatrix@@QBE?AV0@ABV0@@Z PROC				; Matrix::operator*, COMDAT
; _this$ = ecx
; Line 188
	push	ebp
	mov	ebp, esp
; Line 190
	mov	edx, DWORD PTR _p$[ebp]
	fld	DWORD PTR [edx]
	mov	eax, DWORD PTR ___$ReturnUdt$[ebp]
	fmul	DWORD PTR [ecx]
	fld	DWORD PTR [edx+16]
	fmul	DWORD PTR [ecx+4]
	faddp	ST(1), ST(0)
	fld	DWORD PTR [edx+32]
	fmul	DWORD PTR [ecx+8]
	faddp	ST(1), ST(0)
	fld	DWORD PTR [edx+48]
	fmul	DWORD PTR [ecx+12]
	faddp	ST(1), ST(0)
	fstp	DWORD PTR [eax]
; Line 191
	fld	DWORD PTR [edx+20]
	fmul	DWORD PTR [ecx+4]
	fld	DWORD PTR [ecx]
	fmul	DWORD PTR [edx+4]
	faddp	ST(1), ST(0)
	fld	DWORD PTR [edx+36]
	fmul	DWORD PTR [ecx+8]
	faddp	ST(1), ST(0)
	fld	DWORD PTR [ecx+12]
	fmul	DWORD PTR [edx+52]
	faddp	ST(1), ST(0)
	fstp	DWORD PTR [eax+4]
; Line 192
	fld	DWORD PTR [edx+24]
	fmul	DWORD PTR [ecx+4]
	fld	DWORD PTR [edx+8]
	fmul	DWORD PTR [ecx]
	faddp	ST(1), ST(0)
	fld	DWORD PTR [ecx+8]
	fmul	DWORD PTR [edx+40]
	faddp	ST(1), ST(0)
	fld	DWORD PTR [ecx+12]
	fmul	DWORD PTR [edx+56]
	faddp	ST(1), ST(0)
	fstp	DWORD PTR [eax+8]
; Line 193
	fld	DWORD PTR [edx+28]
	fmul	DWORD PTR [ecx+4]
	fld	DWORD PTR [ecx]
	fmul	DWORD PTR [edx+12]
	faddp	ST(1), ST(0)
	fld	DWORD PTR [edx+44]
	fmul	DWORD PTR [ecx+8]
	faddp	ST(1), ST(0)
	fld	DWORD PTR [ecx+12]
	fmul	DWORD PTR [edx+60]
	faddp	ST(1), ST(0)
	fstp	DWORD PTR [eax+12]
; Line 195
	fld	DWORD PTR [ecx+20]
	fmul	DWORD PTR [edx+16]
	fld	DWORD PTR [ecx+16]
	fmul	DWORD PTR [edx]
	faddp	ST(1), ST(0)
	fld	DWORD PTR [edx+32]
	fmul	DWORD PTR [ecx+24]
	faddp	ST(1), ST(0)
	fld	DWORD PTR [edx+48]
	fmul	DWORD PTR [ecx+28]
	faddp	ST(1), ST(0)
	fstp	DWORD PTR [eax+16]
; Line 196
	fld	DWORD PTR [ecx+16]
	fmul	DWORD PTR [edx+4]
	fld	DWORD PTR [edx+20]
	fmul	DWORD PTR [ecx+20]
	faddp	ST(1), ST(0)
	fld	DWORD PTR [edx+36]
	fmul	DWORD PTR [ecx+24]
	faddp	ST(1), ST(0)
	fld	DWORD PTR [ecx+28]
	fmul	DWORD PTR [edx+52]
	faddp	ST(1), ST(0)
	fstp	DWORD PTR [eax+20]
; Line 197
	fld	DWORD PTR [edx+24]
	fmul	DWORD PTR [ecx+20]
	fld	DWORD PTR [edx+8]
	fmul	DWORD PTR [ecx+16]
	faddp	ST(1), ST(0)
	fld	DWORD PTR [edx+40]
	fmul	DWORD PTR [ecx+24]
	faddp	ST(1), ST(0)
	fld	DWORD PTR [edx+56]
	fmul	DWORD PTR [ecx+28]
	faddp	ST(1), ST(0)
	fstp	DWORD PTR [eax+24]
; Line 198
	fld	DWORD PTR [ecx+16]
	fmul	DWORD PTR [edx+12]
	fld	DWORD PTR [edx+28]
	fmul	DWORD PTR [ecx+20]
	faddp	ST(1), ST(0)
	fld	DWORD PTR [edx+44]
	fmul	DWORD PTR [ecx+24]
	faddp	ST(1), ST(0)
	fld	DWORD PTR [ecx+28]
	fmul	DWORD PTR [edx+60]
	faddp	ST(1), ST(0)
	fstp	DWORD PTR [eax+28]
; Line 200
	fld	DWORD PTR [ecx+36]
	fmul	DWORD PTR [edx+16]
	fld	DWORD PTR [ecx+32]
	fmul	DWORD PTR [edx]
	faddp	ST(1), ST(0)
	fld	DWORD PTR [edx+32]
	fmul	DWORD PTR [ecx+40]
	faddp	ST(1), ST(0)
	fld	DWORD PTR [edx+48]
	fmul	DWORD PTR [ecx+44]
	faddp	ST(1), ST(0)
	fstp	DWORD PTR [eax+32]
; Line 201
	fld	DWORD PTR [ecx+32]
	fmul	DWORD PTR [edx+4]
	fld	DWORD PTR [edx+20]
	fmul	DWORD PTR [ecx+36]
	faddp	ST(1), ST(0)
	fld	DWORD PTR [edx+36]
	fmul	DWORD PTR [ecx+40]
	faddp	ST(1), ST(0)
	fld	DWORD PTR [ecx+44]
	fmul	DWORD PTR [edx+52]
	faddp	ST(1), ST(0)
	fstp	DWORD PTR [eax+36]
; Line 202
	fld	DWORD PTR [edx+24]
	fmul	DWORD PTR [ecx+36]
	fld	DWORD PTR [ecx+32]
	fmul	DWORD PTR [edx+8]
	faddp	ST(1), ST(0)
	fld	DWORD PTR [edx+40]
	fmul	DWORD PTR [ecx+40]
	faddp	ST(1), ST(0)
	fld	DWORD PTR [edx+56]
	fmul	DWORD PTR [ecx+44]
	faddp	ST(1), ST(0)
	fstp	DWORD PTR [eax+40]
; Line 203
	fld	DWORD PTR [ecx+32]
	fmul	DWORD PTR [edx+12]
	fld	DWORD PTR [edx+28]
	fmul	DWORD PTR [ecx+36]
	faddp	ST(1), ST(0)
	fld	DWORD PTR [edx+44]
	fmul	DWORD PTR [ecx+40]
	faddp	ST(1), ST(0)
	fld	DWORD PTR [ecx+44]
	fmul	DWORD PTR [edx+60]
	faddp	ST(1), ST(0)
	fstp	DWORD PTR [eax+44]
; Line 205
	fld	DWORD PTR [ecx+52]
	fmul	DWORD PTR [edx+16]
	fld	DWORD PTR [ecx+48]
	fmul	DWORD PTR [edx]
	faddp	ST(1), ST(0)
	fld	DWORD PTR [edx+32]
	fmul	DWORD PTR [ecx+56]
	faddp	ST(1), ST(0)
	fld	DWORD PTR [edx+48]
	fmul	DWORD PTR [ecx+60]
	faddp	ST(1), ST(0)
	fstp	DWORD PTR [eax+48]
; Line 206
	fld	DWORD PTR [ecx+48]
	fmul	DWORD PTR [edx+4]
	fld	DWORD PTR [edx+20]
	fmul	DWORD PTR [ecx+52]
	faddp	ST(1), ST(0)
	fld	DWORD PTR [edx+36]
	fmul	DWORD PTR [ecx+56]
	faddp	ST(1), ST(0)
	fld	DWORD PTR [ecx+60]
	fmul	DWORD PTR [edx+52]
	faddp	ST(1), ST(0)
	fstp	DWORD PTR [eax+52]
; Line 207
	fld	DWORD PTR [ecx+52]
	fmul	DWORD PTR [edx+24]
	fld	DWORD PTR [ecx+48]
	fmul	DWORD PTR [edx+8]
	faddp	ST(1), ST(0)
	fld	DWORD PTR [ecx+56]
	fmul	DWORD PTR [edx+40]
	faddp	ST(1), ST(0)
	fld	DWORD PTR [edx+56]
	fmul	DWORD PTR [ecx+60]
	faddp	ST(1), ST(0)
	fstp	DWORD PTR [eax+56]
; Line 208
	fld	DWORD PTR [ecx+48]
	fmul	DWORD PTR [edx+12]
	fld	DWORD PTR [edx+28]
	fmul	DWORD PTR [ecx+52]
	faddp	ST(1), ST(0)
	fld	DWORD PTR [edx+44]
	fmul	DWORD PTR [ecx+56]
	faddp	ST(1), ST(0)
	fld	DWORD PTR [ecx+60]
	fmul	DWORD PTR [edx+60]
	faddp	ST(1), ST(0)
	fstp	DWORD PTR [eax+60]
; Line 211
	pop	ebp
	ret	8
??DMatrix@@QBE?AV0@ABV0@@Z ENDP				; Matrix::operator*
_TEXT	ENDS
PUBLIC	?transpose@Matrix@@QAEXXZ			; Matrix::transpose
; Function compile flags: /Ogtp
;	COMDAT ?transpose@Matrix@@QAEXXZ
_TEXT	SEGMENT
_i$68911 = -12						; size = 4
tv1369 = -8						; size = 4
_this$ = -4						; size = 4
?transpose@Matrix@@QAEXXZ PROC				; Matrix::transpose, COMDAT
; _this$ = ecx
; Line 270
	push	ebp
	mov	ebp, esp
	sub	esp, 12					; 0000000cH
	push	ebx
	mov	eax, ecx
	push	esi
; Line 271
	lea	edx, DWORD PTR [eax+16]
	push	edi
	mov	DWORD PTR _this$[ebp], eax
	mov	ebx, 1
	mov	DWORD PTR tv1369[ebp], edx
	npad	7
$LL6@transpose:
; Line 273
	xor	edi, edi
	cmp	ebx, 4
	jl	SHORT $LC14@transpose
	lea	esi, DWORD PTR [ebx-4]
	shr	esi, 2
	inc	esi
	lea	ecx, DWORD PTR [esi*4]
	lea	eax, DWORD PTR [eax+ebx*4+32]
	mov	DWORD PTR _i$68911[ebp], ecx
	npad	4
$LL15@transpose:
; Line 276
	mov	ecx, DWORD PTR [eax-32]
	mov	edi, DWORD PTR [edx]
	mov	DWORD PTR [edx], ecx
	mov	ecx, DWORD PTR [eax-16]
; Line 277
	mov	DWORD PTR [eax-32], edi
	mov	edi, DWORD PTR [edx+4]
	mov	DWORD PTR [edx+4], ecx
	mov	ecx, DWORD PTR [eax]
	mov	DWORD PTR [eax-16], edi
	mov	edi, DWORD PTR [edx+8]
	mov	DWORD PTR [edx+8], ecx
	mov	ecx, DWORD PTR [eax+16]
	mov	DWORD PTR [eax], edi
	mov	edi, DWORD PTR [edx+12]
	mov	DWORD PTR [edx+12], ecx
	mov	DWORD PTR [eax+16], edi
	add	eax, 64					; 00000040H
	add	edx, 16					; 00000010H
	dec	esi
	jne	SHORT $LL15@transpose
; Line 273
	mov	edi, DWORD PTR _i$68911[ebp]
	mov	eax, DWORD PTR _this$[ebp]
$LC14@transpose:
	cmp	edi, ebx
	jae	SHORT $LN5@transpose
	lea	edx, DWORD PTR [edi+ebx*4]
	lea	ecx, DWORD PTR [ebx+edi*4]
	mov	esi, ebx
	lea	edx, DWORD PTR [eax+edx*4]
	lea	eax, DWORD PTR [eax+ecx*4]
	sub	esi, edi
	npad	1
$LC3@transpose:
; Line 276
	mov	ecx, DWORD PTR [eax]
	mov	edi, DWORD PTR [edx]
	mov	DWORD PTR [edx], ecx
; Line 277
	mov	DWORD PTR [eax], edi
	add	eax, 16					; 00000010H
	add	edx, 4
	dec	esi
	jne	SHORT $LC3@transpose
; Line 273
	mov	eax, DWORD PTR _this$[ebp]
$LN5@transpose:
; Line 271
	mov	edx, DWORD PTR tv1369[ebp]
	inc	ebx
	add	edx, 16					; 00000010H
	mov	DWORD PTR tv1369[ebp], edx
	cmp	ebx, 4
	jb	$LL6@transpose
	pop	edi
	pop	esi
	pop	ebx
; Line 280
	mov	esp, ebp
	pop	ebp
	ret	0
?transpose@Matrix@@QAEXXZ ENDP				; Matrix::transpose
_TEXT	ENDS
PUBLIC	__$ArrayPad$
PUBLIC	??XMatrix@@QAEAAV0@ABV0@@Z			; Matrix::operator*=
EXTRN	___security_cookie:DWORD
EXTRN	@__security_check_cookie@4:PROC
; Function compile flags: /Ogtp
;	COMDAT ??XMatrix@@QAEAAV0@ABV0@@Z
_TEXT	SEGMENT
$T68918 = -68						; size = 64
__$ArrayPad$ = -4					; size = 4
_p$ = 8							; size = 4
??XMatrix@@QAEAAV0@ABV0@@Z PROC				; Matrix::operator*=, COMDAT
; _this$ = ecx
; Line 283
	push	ebp
	mov	ebp, esp
	sub	esp, 68					; 00000044H
	mov	eax, DWORD PTR ___security_cookie
	xor	eax, ebp
	mov	DWORD PTR __$ArrayPad$[ebp], eax
	mov	eax, DWORD PTR _p$[ebp]
	push	esi
; Line 284
	push	eax
	lea	eax, DWORD PTR $T68918[ebp]
	push	eax
	mov	esi, ecx
	call	??DMatrix@@QBE?AV0@ABV0@@Z		; Matrix::operator*
	push	eax
	mov	ecx, esi
	call	??4Matrix@@QAEAAV0@ABV0@@Z		; Matrix::operator=
; Line 285
	mov	ecx, DWORD PTR __$ArrayPad$[ebp]
	xor	ecx, ebp
	pop	esi
	call	@__security_check_cookie@4
	mov	esp, ebp
	pop	ebp
	ret	4
??XMatrix@@QAEAAV0@ABV0@@Z ENDP				; Matrix::operator*=
_TEXT	ENDS
PUBLIC	??_FVec4D@@QAEXXZ				; Vec4D::`default constructor closure'
; Function compile flags: /Ogtp
;	COMDAT ??_FVec4D@@QAEXXZ
_TEXT	SEGMENT
??_FVec4D@@QAEXXZ PROC					; Vec4D::`default constructor closure', COMDAT
; _this$ = ecx
	xor	eax, eax
	mov	DWORD PTR [ecx], eax
	mov	DWORD PTR [ecx+4], eax
	mov	DWORD PTR [ecx+8], eax
	mov	DWORD PTR [ecx+12], eax
	ret	0
??_FVec4D@@QAEXXZ ENDP					; Vec4D::`default constructor closure'
_TEXT	ENDS
PUBLIC	??_H@YGXPAXIHP6EPAX0@Z@Z			; `vector constructor iterator'
; Function compile flags: /Ogtp
;	COMDAT ??_H@YGXPAXIHP6EPAX0@Z@Z
_TEXT	SEGMENT
___t$ = 8						; size = 4
___s$ = 12						; size = 4
___n$ = 16						; size = 4
___f$ = 20						; size = 4
??_H@YGXPAXIHP6EPAX0@Z@Z PROC				; `vector constructor iterator', COMDAT
	push	ebp
	mov	ebp, esp
	push	edi
	mov	edi, DWORD PTR ___n$[ebp]
	dec	edi
	js	SHORT $LN1@vector
	push	ebx
	mov	ebx, DWORD PTR ___f$[ebp]
	push	esi
	mov	esi, DWORD PTR ___t$[ebp]
$LL2@vector:
	mov	ecx, esi
	call	ebx
	add	esi, DWORD PTR ___s$[ebp]
	dec	edi
	jns	SHORT $LL2@vector
	pop	esi
	pop	ebx
$LN1@vector:
	pop	edi
	pop	ebp
	ret	16					; 00000010H
??_H@YGXPAXIHP6EPAX0@Z@Z ENDP				; `vector constructor iterator'
_TEXT	ENDS
PUBLIC	?getRadius@brush@@QAEMXZ			; brush::getRadius
; Function compile flags: /Ogtp
;	COMDAT ?getRadius@brush@@QAEMXZ
_TEXT	SEGMENT
?getRadius@brush@@QAEMXZ PROC				; brush::getRadius, COMDAT
; _this$ = ecx
; File c:\programovani\wow editor\test\src\editor\brush.h
; Line 17
	fld	DWORD PTR [ecx+12]
	ret	0
?getRadius@brush@@QAEMXZ ENDP				; brush::getRadius
_TEXT	ENDS
PUBLIC	__real@3f800000
PUBLIC	__real@00000000
PUBLIC	?getValue@brush@@QAEMM@Z			; brush::getValue
;	COMDAT __real@3f800000
CONST	SEGMENT
__real@3f800000 DD 03f800000r			; 1
CONST	ENDS
;	COMDAT __real@00000000
CONST	SEGMENT
__real@00000000 DD 000000000r			; 0
; Function compile flags: /Ogtp
CONST	ENDS
;	COMDAT ?getValue@brush@@QAEMM@Z
_TEXT	SEGMENT
tv131 = 8						; size = 4
_dist$ = 8						; size = 4
?getValue@brush@@QAEMM@Z PROC				; brush::getValue, COMDAT
; _this$ = ecx
; Line 19
	push	ebp
	mov	ebp, esp
; Line 20
	fld	DWORD PTR _dist$[ebp]
	fld	DWORD PTR [ecx+12]
	fcomp	ST(1)
	fnstsw	ax
	test	ah, 5
	jp	SHORT $LN2@getValue
	fstp	ST(0)
; Line 21
	fldz
; Line 25
	pop	ebp
	ret	4
$LN2@getValue:
; Line 22
	fld	DWORD PTR [ecx+4]
	fcomp	ST(1)
	fnstsw	ax
	test	ah, 65					; 00000041H
	jne	SHORT $LN1@getValue
	fstp	ST(0)
; Line 23
	fld1
; Line 25
	pop	ebp
	ret	4
$LN1@getValue:
; Line 24
	fsub	DWORD PTR [ecx+4]
	fdiv	DWORD PTR [ecx+8]
	fld1
	fsubrp	ST(1), ST(0)
	fstp	DWORD PTR tv131[ebp]
	fld	DWORD PTR tv131[ebp]
; Line 25
	pop	ebp
	ret	4
?getValue@brush@@QAEMM@Z ENDP				; brush::getValue
_TEXT	ENDS
PUBLIC	??_7MapNode@@6B@				; MapNode::`vftable'
PUBLIC	??0MapNode@@QAE@HHH@Z				; MapNode::MapNode
PUBLIC	??_R4MapNode@@6B@				; MapNode::`RTTI Complete Object Locator'
PUBLIC	??_R0?AVMapNode@@@8				; MapNode `RTTI Type Descriptor'
PUBLIC	??_R3MapNode@@8					; MapNode::`RTTI Class Hierarchy Descriptor'
PUBLIC	??_R2MapNode@@8					; MapNode::`RTTI Base Class Array'
PUBLIC	??_R1A@?0A@EA@MapNode@@8			; MapNode::`RTTI Base Class Descriptor at (0,-1,0,64)'
PUBLIC	?draw@MapNode@@UAEXXZ				; MapNode::draw
PUBLIC	?drawSelect@MapNode@@UAEXXZ			; MapNode::drawSelect
PUBLIC	?drawColor@MapNode@@UAEXXZ			; MapNode::drawColor
;	COMDAT ??_R1A@?0A@EA@MapNode@@8
; File c:\programovani\wow editor\test\src\editor\vec3d.h
rdata$r	SEGMENT
??_R1A@?0A@EA@MapNode@@8 DD FLAT:??_R0?AVMapNode@@@8	; MapNode::`RTTI Base Class Descriptor at (0,-1,0,64)'
	DD	00H
	DD	00H
	DD	0ffffffffH
	DD	00H
	DD	040H
	DD	FLAT:??_R3MapNode@@8
rdata$r	ENDS
;	COMDAT ??_R2MapNode@@8
rdata$r	SEGMENT
??_R2MapNode@@8 DD FLAT:??_R1A@?0A@EA@MapNode@@8	; MapNode::`RTTI Base Class Array'
rdata$r	ENDS
;	COMDAT ??_R3MapNode@@8
rdata$r	SEGMENT
??_R3MapNode@@8 DD 00H					; MapNode::`RTTI Class Hierarchy Descriptor'
	DD	00H
	DD	01H
	DD	FLAT:??_R2MapNode@@8
rdata$r	ENDS
;	COMDAT ??_R0?AVMapNode@@@8
_DATA	SEGMENT
??_R0?AVMapNode@@@8 DD FLAT:??_7type_info@@6B@		; MapNode `RTTI Type Descriptor'
	DD	00H
	DB	'.?AVMapNode@@', 00H
_DATA	ENDS
;	COMDAT ??_R4MapNode@@6B@
rdata$r	SEGMENT
??_R4MapNode@@6B@ DD 00H				; MapNode::`RTTI Complete Object Locator'
	DD	00H
	DD	00H
	DD	FLAT:??_R0?AVMapNode@@@8
	DD	FLAT:??_R3MapNode@@8
rdata$r	ENDS
;	COMDAT ??_7MapNode@@6B@
CONST	SEGMENT
??_7MapNode@@6B@ DD FLAT:??_R4MapNode@@6B@		; MapNode::`vftable'
	DD	FLAT:?draw@MapNode@@UAEXXZ
	DD	FLAT:?drawSelect@MapNode@@UAEXXZ
	DD	FLAT:?drawColor@MapNode@@UAEXXZ
; Function compile flags: /Ogtp
CONST	ENDS
;	COMDAT ??0MapNode@@QAE@HHH@Z
_TEXT	SEGMENT
_x$ = 8							; size = 4
_y$ = 12						; size = 4
_s$ = 16						; size = 4
??0MapNode@@QAE@HHH@Z PROC				; MapNode::MapNode, COMDAT
; _this$ = ecx
; File c:\programovani\wow editor\test\src\editor\maptile.h
; Line 35
	push	ebp
	mov	ebp, esp
	mov	edx, DWORD PTR _y$[ebp]
	mov	eax, ecx
	mov	ecx, DWORD PTR _x$[ebp]
	mov	DWORD PTR [eax+4], ecx
	mov	ecx, DWORD PTR _s$[ebp]
	mov	DWORD PTR [eax+12], ecx
	xor	ecx, ecx
	mov	DWORD PTR [eax], OFFSET ??_7MapNode@@6B@
	mov	DWORD PTR [eax+8], edx
	mov	DWORD PTR [eax+16], ecx
	mov	DWORD PTR [eax+20], ecx
	mov	DWORD PTR [eax+24], ecx
	mov	DWORD PTR [eax+28], ecx
	mov	DWORD PTR [eax+32], ecx
	mov	DWORD PTR [eax+36], ecx
	mov	DWORD PTR [eax+40], ecx
	mov	DWORD PTR [eax+44], ecx
	mov	DWORD PTR [eax+48], ecx
	pop	ebp
	ret	12					; 0000000cH
??0MapNode@@QAE@HHH@Z ENDP				; MapNode::MapNode
_TEXT	ENDS
PUBLIC	??_FVec3D@@QAEXXZ				; Vec3D::`default constructor closure'
; Function compile flags: /Ogtp
;	COMDAT ??_FVec3D@@QAEXXZ
_TEXT	SEGMENT
??_FVec3D@@QAEXXZ PROC					; Vec3D::`default constructor closure', COMDAT
; _this$ = ecx
	xor	eax, eax
	mov	DWORD PTR [ecx], eax
	mov	DWORD PTR [ecx+4], eax
	mov	DWORD PTR [ecx+8], eax
	ret	0
??_FVec3D@@QAEXXZ ENDP					; Vec3D::`default constructor closure'
_TEXT	ENDS
PUBLIC	?getSelectTex@World@@QAEIXZ			; World::getSelectTex
; Function compile flags: /Ogtp
;	COMDAT ?getSelectTex@World@@QAEIXZ
_TEXT	SEGMENT
?getSelectTex@World@@QAEIXZ PROC			; World::getSelectTex, COMDAT
; _this$ = ecx
; File c:\programovani\wow editor\test\src\editor\world.h
; Line 109
	mov	eax, DWORD PTR [ecx+21248]
	ret	0
?getSelectTex@World@@QAEIXZ ENDP			; World::getSelectTex
_TEXT	ENDS
PUBLIC	__real@4062c00000000000
PUBLIC	__real@c06f400000000000
PUBLIC	__real@4059000000000000
PUBLIC	__real@c059000000000000
PUBLIC	__real@0000000000000000
PUBLIC	__real@4072c00000000000
PUBLIC	__real@43960000
PUBLIC	__real@3fe0000000000000
PUBLIC	__real@3fe8000000000000
PUBLIC	__real@3fd0000000000000
PUBLIC	__real@4079000000000000
PUBLIC	__real@4082c00000000000
PUBLIC	__real@44160000
PUBLIC	__real@408f400000000000
PUBLIC	?HeightColor@@YAXMPAVVec3D@@@Z			; HeightColor
;	COMDAT __real@4062c00000000000
; File c:\programovani\wow editor\test\src\editor\vec3d.h
CONST	SEGMENT
__real@4062c00000000000 DQ 04062c00000000000r	; 150
CONST	ENDS
;	COMDAT __real@c06f400000000000
CONST	SEGMENT
__real@c06f400000000000 DQ 0c06f400000000000r	; -250
CONST	ENDS
;	COMDAT __real@4059000000000000
CONST	SEGMENT
__real@4059000000000000 DQ 04059000000000000r	; 100
CONST	ENDS
;	COMDAT __real@c059000000000000
CONST	SEGMENT
__real@c059000000000000 DQ 0c059000000000000r	; -100
CONST	ENDS
;	COMDAT __real@0000000000000000
CONST	SEGMENT
__real@0000000000000000 DQ 00000000000000000r	; 0
CONST	ENDS
;	COMDAT __real@4072c00000000000
CONST	SEGMENT
__real@4072c00000000000 DQ 04072c00000000000r	; 300
CONST	ENDS
;	COMDAT __real@43960000
CONST	SEGMENT
__real@43960000 DD 043960000r			; 300
CONST	ENDS
;	COMDAT __real@3fe0000000000000
CONST	SEGMENT
__real@3fe0000000000000 DQ 03fe0000000000000r	; 0.5
CONST	ENDS
;	COMDAT __real@3fe8000000000000
CONST	SEGMENT
__real@3fe8000000000000 DQ 03fe8000000000000r	; 0.75
CONST	ENDS
;	COMDAT __real@3fd0000000000000
CONST	SEGMENT
__real@3fd0000000000000 DQ 03fd0000000000000r	; 0.25
CONST	ENDS
;	COMDAT __real@4079000000000000
CONST	SEGMENT
__real@4079000000000000 DQ 04079000000000000r	; 400
CONST	ENDS
;	COMDAT __real@4082c00000000000
CONST	SEGMENT
__real@4082c00000000000 DQ 04082c00000000000r	; 600
CONST	ENDS
;	COMDAT __real@44160000
CONST	SEGMENT
__real@44160000 DD 044160000r			; 600
CONST	ENDS
;	COMDAT __real@408f400000000000
CONST	SEGMENT
__real@408f400000000000 DQ 0408f400000000000r	; 1000
; Function compile flags: /Ogtp
CONST	ENDS
_TEXT	SEGMENT
tv253 = 8						; size = 4
_Amount$ = 8						; size = 4
_height$ = 8						; size = 4
_Color$ = 12						; size = 4
?HeightColor@@YAXMPAVVec3D@@@Z PROC			; HeightColor
; File c:\programovani\wow editor\test\src\editor\maptile.cpp
; Line 31
	push	ebp
	mov	ebp, esp
; Line 34
	fld	DWORD PTR _height$[ebp]
	fcom	QWORD PTR __real@408f400000000000
	fnstsw	ax
	test	ah, 65					; 00000041H
	jne	SHORT $LN12@HeightColo
; Line 36
	mov	eax, DWORD PTR _Color$[ebp]
	fstp	ST(0)
	mov	ecx, 1065353216				; 3f800000H
	mov	DWORD PTR [eax], ecx
; Line 37
	mov	DWORD PTR [eax+4], ecx
; Line 38
	mov	DWORD PTR [eax+8], ecx
; Line 78
	pop	ebp
	ret	0
$LN12@HeightColo:
; Line 40
	fld	DWORD PTR __real@44160000
	fcomp	ST(1)
	fnstsw	ax
	test	ah, 5
	jp	SHORT $LN10@HeightColo
; Line 42
	fsub	QWORD PTR __real@4082c00000000000
; Line 43
	mov	eax, DWORD PTR _Color$[ebp]
	fdiv	QWORD PTR __real@4079000000000000
	fstp	DWORD PTR _Amount$[ebp]
	fld	DWORD PTR _Amount$[ebp]
	fld	QWORD PTR __real@3fd0000000000000
; Line 45
	mov	ecx, DWORD PTR _Amount$[ebp]
	fmul	ST(0), ST(1)
	mov	DWORD PTR [eax+8], ecx
	fadd	QWORD PTR __real@3fe8000000000000
	fstp	DWORD PTR [eax]
	fld	QWORD PTR __real@3fe0000000000000
	fmul	ST(1), ST(0)
	faddp	ST(1), ST(0)
	fstp	DWORD PTR [eax+4]
; Line 78
	pop	ebp
	ret	0
$LN10@HeightColo:
; Line 47
	fld	DWORD PTR __real@43960000
	fcomp	ST(1)
	fnstsw	ax
	test	ah, 5
	jp	SHORT $LN8@HeightColo
; Line 49
	fld	QWORD PTR __real@4072c00000000000
; Line 50
	mov	eax, DWORD PTR _Color$[ebp]
	fsub	ST(1), ST(0)
; Line 52
	mov	DWORD PTR [eax+8], 0
	fdivp	ST(1), ST(0)
	fstp	DWORD PTR _Amount$[ebp]
	fld	DWORD PTR _Amount$[ebp]
	fld	QWORD PTR __real@3fe8000000000000
	fmul	ST(0), ST(1)
	fstp	DWORD PTR [eax]
	fmul	QWORD PTR __real@3fe0000000000000
	fld1
	fsubrp	ST(1), ST(0)
	fstp	DWORD PTR [eax+4]
; Line 78
	pop	ebp
	ret	0
$LN8@HeightColo:
; Line 54
	fldz
	fcomp	ST(1)
	fnstsw	ax
	test	ah, 5
	jp	SHORT $LN6@HeightColo
; Line 56
	fsub	QWORD PTR __real@0000000000000000
; Line 58
	mov	eax, DWORD PTR _Color$[ebp]
; Line 59
	mov	DWORD PTR [eax+4], 1065353216		; 3f800000H
; Line 60
	mov	DWORD PTR [eax+8], 0
	fdiv	QWORD PTR __real@4072c00000000000
	fstp	DWORD PTR tv253[ebp]
	fld	DWORD PTR tv253[ebp]
	fld1
	fsubrp	ST(1), ST(0)
	fstp	DWORD PTR [eax]
; Line 78
	pop	ebp
	ret	0
$LN6@HeightColo:
; Line 62
	fld	QWORD PTR __real@c059000000000000
	fcom	ST(1)
	fnstsw	ax
	test	ah, 5
	jp	SHORT $LN30@HeightColo
; Line 64
	fsubp	ST(1), ST(0)
; Line 65
	mov	eax, DWORD PTR _Color$[ebp]
	mov	DWORD PTR [eax], 0
; Line 67
	mov	DWORD PTR [eax+8], 1065353216		; 3f800000H
	fdiv	QWORD PTR __real@4059000000000000
	fstp	DWORD PTR [eax+4]
; Line 78
	pop	ebp
	ret	0
$LN30@HeightColo:
; Line 62
	fstp	ST(0)
; Line 69
	fld	QWORD PTR __real@c06f400000000000
	fcom	ST(1)
	fnstsw	ax
	test	ah, 5
; Line 72
	mov	eax, DWORD PTR _Color$[ebp]
	jp	SHORT $LN33@HeightColo
	fsubp	ST(1), ST(0)
	mov	DWORD PTR [eax], 0
; Line 73
	mov	DWORD PTR [eax+4], 0
	fdiv	QWORD PTR __real@4062c00000000000
; Line 77
	fstp	DWORD PTR [eax+8]
; Line 78
	pop	ebp
	ret	0
$LN33@HeightColo:
; Line 69
	fstp	ST(1)
	fstp	ST(0)
; Line 77
	fld	DWORD PTR [eax]
	fldz
	fmul	ST(1), ST(0)
	fxch	ST(1)
	fstp	DWORD PTR [eax]
	fld	DWORD PTR [eax+4]
	fmul	ST(0), ST(1)
	fstp	DWORD PTR [eax+4]
	fmul	DWORD PTR [eax+8]
	fstp	DWORD PTR [eax+8]
; Line 78
	pop	ebp
	ret	0
?HeightColor@@YAXMPAVVec3D@@@Z ENDP			; HeightColor
_TEXT	ENDS
PUBLIC	__$ArrayPad$
PUBLIC	?GenerateContourMap@@YAXXZ			; GenerateContourMap
EXTRN	__imp__glTexParameteri@12:PROC
EXTRN	__imp__glTexGenfv@12:PROC
EXTRN	__imp__glTexGeni@12:PROC
EXTRN	__imp__glEnable@4:PROC
EXTRN	_gluBuild2DMipmaps@28:PROC
EXTRN	__imp__glBindTexture@8:PROC
EXTRN	__imp__glGenTextures@8:PROC
EXTRN	_memset:PROC
; Function compile flags: /Ogtp
_TEXT	SEGMENT
_CTexture$ = -516					; size = 512
__$ArrayPad$ = -4					; size = 4
?GenerateContourMap@@YAXXZ PROC				; GenerateContourMap
; Line 85
	push	ebp
	mov	ebp, esp
	sub	esp, 516				; 00000204H
	mov	eax, DWORD PTR ___security_cookie
	xor	eax, ebp
	mov	DWORD PTR __$ArrayPad$[ebp], eax
; Line 88
	xor	eax, eax
	push	esi
; Line 94
	push	512					; 00000200H
	push	eax
	mov	DWORD PTR ?CoordGen@@3PAMA, eax
	mov	DWORD PTR ?CoordGen@@3PAMA+8, eax
	mov	DWORD PTR ?CoordGen@@3PAMA+12, eax
	lea	eax, DWORD PTR _CTexture$[ebp]
	push	eax
	mov	DWORD PTR ?CoordGen@@3PAMA+4, 1048576000 ; 3e800000H
	call	_memset
	add	esp, 12					; 0000000cH
; Line 95
	mov	al, 255					; 000000ffH
; Line 99
	push	OFFSET ?Contour@@3IA			; Contour
	push	1
	mov	BYTE PTR _CTexture$[ebp+67], al
	mov	BYTE PTR _CTexture$[ebp+71], al
	mov	BYTE PTR _CTexture$[ebp+75], al
	call	DWORD PTR __imp__glGenTextures@8
; Line 100
	mov	ecx, DWORD PTR ?Contour@@3IA		; Contour
	push	ecx
	push	3553					; 00000de1H
	call	DWORD PTR __imp__glBindTexture@8
; Line 102
	lea	edx, DWORD PTR _CTexture$[ebp]
	push	edx
	push	5121					; 00001401H
	push	6408					; 00001908H
	push	1
	push	128					; 00000080H
	push	4
	push	3553					; 00000de1H
	call	_gluBuild2DMipmaps@28
; Line 141
	push	3168					; 00000c60H
	call	DWORD PTR __imp__glEnable@4
; Line 142
	push	9217					; 00002401H
	push	9472					; 00002500H
	push	8192					; 00002000H
	call	DWORD PTR __imp__glTexGeni@12
; Line 143
	push	OFFSET ?CoordGen@@3PAMA			; CoordGen
	push	9473					; 00002501H
	push	8192					; 00002000H
	call	DWORD PTR __imp__glTexGenfv@12
; Line 145
	mov	esi, DWORD PTR __imp__glTexParameteri@12
	push	9987					; 00002703H
	push	10241					; 00002801H
	push	3553					; 00000de1H
	call	esi
; Line 146
	push	9728					; 00002600H
	push	10240					; 00002800H
	push	3553					; 00000de1H
	call	esi
; Line 147
	push	10497					; 00002901H
	push	10242					; 00002802H
	push	3553					; 00000de1H
	call	esi
; Line 148
	mov	ecx, DWORD PTR __$ArrayPad$[ebp]
	xor	ecx, ebp
	pop	esi
	call	@__security_check_cookie@4
	mov	esp, ebp
	pop	ebp
	ret	0
?GenerateContourMap@@YAXXZ ENDP				; GenerateContourMap
_TEXT	ENDS
PUBLIC	?isHole@@YA_NHHH@Z				; isHole
; Function compile flags: /Ogtp
_TEXT	SEGMENT
_holes$ = 8						; size = 4
_i$ = 12						; size = 4
_j$ = 16						; size = 4
?isHole@@YA_NHHH@Z PROC					; isHole
; Line 731
	push	ebp
	mov	ebp, esp
; Line 732
	mov	eax, DWORD PTR _i$[ebp]
	mov	eax, DWORD PTR ?holetab_h@@3PAHA[eax*4]
	mov	ecx, DWORD PTR _j$[ebp]
	and	eax, DWORD PTR ?holetab_v@@3PAHA[ecx*4]
	and	eax, DWORD PTR _holes$[ebp]
	neg	eax
	sbb	eax, eax
	neg	eax
; Line 733
	pop	ebp
	ret	0
?isHole@@YA_NHHH@Z ENDP					; isHole
_TEXT	ENDS
PUBLIC	?indexMapBuf@@YAHHH@Z				; indexMapBuf
; Function compile flags: /Ogtp
_TEXT	SEGMENT
_x$ = 8							; size = 4
_y$ = 12						; size = 4
?indexMapBuf@@YAHHH@Z PROC				; indexMapBuf
; Line 736
	push	ebp
	mov	ebp, esp
	push	esi
; Line 737
	mov	esi, DWORD PTR _y$[ebp]
	lea	eax, DWORD PTR [esi+1]
	cdq
	sub	eax, edx
	mov	ecx, eax
	mov	eax, DWORD PTR _x$[ebp]
	sar	ecx, 1
	push	edi
	lea	edi, DWORD PTR [ecx+eax]
	mov	eax, esi
	cdq
	sub	eax, edx
	lea	ecx, DWORD PTR [edi+ecx*8]
	sar	eax, 1
	pop	edi
	lea	eax, DWORD PTR [ecx+eax*8]
	pop	esi
; Line 738
	pop	ebp
	ret	0
?indexMapBuf@@YAHHH@Z ENDP				; indexMapBuf
_TEXT	ENDS
PUBLIC	__real@4099000000000000
PUBLIC	__real@402e000000000000
PUBLIC	__$ArrayPad$
PUBLIC	?SetAnim@@YAXH@Z				; SetAnim
EXTRN	__imp__glTranslatef@12:PROC
EXTRN	?gWorld@@3PAVWorld@@A:DWORD			; gWorld
EXTRN	__imp__glPushMatrix@0:PROC
EXTRN	__imp__glMatrixMode@4:PROC
EXTRN	?glActiveTextureARB@@3P6GXI@ZA:DWORD		; glActiveTextureARB
EXTRN	__ftol2_sse_excpt:PROC
;	COMDAT __real@4099000000000000
CONST	SEGMENT
__real@4099000000000000 DQ 04099000000000000r	; 1600
CONST	ENDS
;	COMDAT __real@402e000000000000
CONST	SEGMENT
__real@402e000000000000 DQ 0402e000000000000r	; 15
; Function compile flags: /Ogtp
CONST	ENDS
_TEXT	SEGMENT
tv282 = -72						; size = 4
tv271 = -72						; size = 4
tv268 = -72						; size = 4
tv264 = -72						; size = 4
_f$83198 = -72						; size = 4
_texanimxtab$83192 = -68				; size = 32
_texanimytab$83193 = -36				; size = 32
__$ArrayPad$ = -4					; size = 4
_anim$ = 8						; size = 4
?SetAnim@@YAXH@Z PROC					; SetAnim
; Line 1098
	push	ebp
	mov	ebp, esp
	sub	esp, 72					; 00000048H
	mov	eax, DWORD PTR ___security_cookie
	xor	eax, ebp
	mov	DWORD PTR __$ArrayPad$[ebp], eax
	push	ebx
	push	esi
; Line 1099
	mov	esi, DWORD PTR _anim$[ebp]
	xor	ebx, ebx
	cmp	esi, ebx
	je	$LN1@SetAnim
; Line 1101
	push	edi
	push	33984					; 000084c0H
	call	DWORD PTR ?glActiveTextureARB@@3P6GXI@ZA ; glActiveTextureARB
; Line 1102
	push	5890					; 00001702H
	call	DWORD PTR __imp__glMatrixMode@4
; Line 1103
	call	DWORD PTR __imp__glPushMatrix@0
; Line 1108
	mov	eax, -1082130432			; bf800000H
	mov	DWORD PTR _texanimxtab$83192[ebp+20], eax
	mov	DWORD PTR _texanimxtab$83192[ebp+24], eax
	mov	DWORD PTR _texanimxtab$83192[ebp+28], eax
; Line 1109
	mov	DWORD PTR _texanimytab$83193[ebp+12], eax
	mov	DWORD PTR _texanimytab$83193[ebp+16], eax
	mov	DWORD PTR _texanimytab$83193[ebp+20], eax
	mov	ecx, 1065353216				; 3f800000H
	mov	DWORD PTR _texanimxtab$83192[ebp+4], ecx
	mov	DWORD PTR _texanimxtab$83192[ebp+8], ecx
	mov	DWORD PTR _texanimxtab$83192[ebp+12], ecx
	mov	DWORD PTR _texanimytab$83193[ebp], ecx
	mov	DWORD PTR _texanimytab$83193[ebp+4], ecx
	mov	DWORD PTR _texanimytab$83193[ebp+28], ecx
; Line 1113
	mov	eax, esi
	sar	eax, 2
	and	eax, 16					; 00000010H
	mov	ecx, esi
	and	ecx, 32					; 00000020H
	or	eax, ecx
	sar	eax, 2
	mov	edx, esi
	and	edx, 16					; 00000010H
	or	eax, edx
	mov	edi, esi
	sar	eax, 2
	and	esi, 8
	or	eax, esi
	mov	DWORD PTR tv282[ebp], eax
	fild	DWORD PTR tv282[ebp]
	mov	eax, DWORD PTR ?gWorld@@3PAVWorld@@A	; gWorld
	and	edi, 7
	mov	DWORD PTR _texanimxtab$83192[ebp], ebx
	fdiv	QWORD PTR __real@402e000000000000
	mov	DWORD PTR _texanimxtab$83192[ebp+16], ebx
	mov	DWORD PTR _texanimytab$83193[ebp+8], ebx
	mov	DWORD PTR _texanimytab$83193[ebp+24], ebx
	fmul	DWORD PTR [eax+20892]
	call	__ftol2_sse_excpt
	cdq
	mov	ecx, 1600				; 00000640H
	idiv	ecx
; Line 1114
	sub	esp, 12					; 0000000cH
	mov	DWORD PTR [esp+8], ebx
	mov	DWORD PTR tv271[ebp], edx
	fild	DWORD PTR tv271[ebp]
	fdiv	QWORD PTR __real@4099000000000000
	fstp	DWORD PTR _f$83198[ebp]
	fld	DWORD PTR _texanimytab$83193[ebp+edi*4]
	fld	DWORD PTR _f$83198[ebp]
	fld	ST(0)
	fmulp	ST(2), ST(0)
	fxch	ST(1)
	fstp	DWORD PTR tv268[ebp]
	fld	DWORD PTR tv268[ebp]
	fstp	DWORD PTR [esp+4]
	fld	DWORD PTR _texanimxtab$83192[ebp+edi*4]
	fchs
	fmulp	ST(1), ST(0)
	fstp	DWORD PTR tv264[ebp]
	fld	DWORD PTR tv264[ebp]
	fstp	DWORD PTR [esp]
	call	DWORD PTR __imp__glTranslatef@12
	pop	edi
$LN1@SetAnim:
; Line 1116
	mov	ecx, DWORD PTR __$ArrayPad$[ebp]
	pop	esi
	xor	ecx, ebp
	pop	ebx
	call	@__security_check_cookie@4
	mov	esp, ebp
	pop	ebp
	ret	0
?SetAnim@@YAXH@Z ENDP					; SetAnim
_TEXT	ENDS
PUBLIC	?RemoveAnim@@YAXH@Z				; RemoveAnim
EXTRN	__imp__glPopMatrix@0:PROC
; Function compile flags: /Ogtp
_TEXT	SEGMENT
_anim$ = 8						; size = 4
?RemoveAnim@@YAXH@Z PROC				; RemoveAnim
; Line 1119
	push	ebp
	mov	ebp, esp
; Line 1120
	cmp	DWORD PTR _anim$[ebp], 0
	je	SHORT $LN1@RemoveAnim
; Line 1122
	call	DWORD PTR __imp__glPopMatrix@0
; Line 1123
	push	5888					; 00001700H
	call	DWORD PTR __imp__glMatrixMode@4
; Line 1124
	push	33985					; 000084c1H
	call	DWORD PTR ?glActiveTextureARB@@3P6GXI@ZA ; glActiveTextureARB
$LN1@RemoveAnim:
; Line 1126
	pop	ebp
	ret	0
?RemoveAnim@@YAXH@Z ENDP				; RemoveAnim
_TEXT	ENDS
PUBLIC	?drawTextures@MapChunk@@QAEXXZ			; MapChunk::drawTextures
EXTRN	__imp__glDrawElements@16:PROC
EXTRN	__imp__glColorPointer@16:PROC
EXTRN	__imp__glVertexPointer@16:PROC
EXTRN	?glBindBufferARB@@3P6GXII@ZA:DWORD		; glBindBufferARB
EXTRN	?glMultiTexCoord2fARB@@3P6GXIMM@ZA:DWORD	; glMultiTexCoord2fARB
EXTRN	__imp__glEnd@0:PROC
EXTRN	__imp__glVertex3f@12:PROC
EXTRN	__imp__glTexCoord2f@8:PROC
EXTRN	__imp__glBegin@4:PROC
EXTRN	__imp__glDisable@4:PROC
EXTRN	__imp__glColor4f@16:PROC
; Function compile flags: /Ogtp
_TEXT	SEGMENT
tv480 = -12						; size = 4
tv457 = -12						; size = 4
tv454 = -12						; size = 4
tv442 = -12						; size = 4
tv530 = -8						; size = 4
tv510 = -8						; size = 4
tv507 = -8						; size = 4
tv496 = -8						; size = 4
_i$83218 = -8						; size = 4
_this$ = -4						; size = 4
?drawTextures@MapChunk@@QAEXXZ PROC			; MapChunk::drawTextures
; _this$ = ecx
; Line 1131
	push	ebp
	mov	ebp, esp
	sub	esp, 12					; 0000000cH
	push	ebx
	push	esi
	push	edi
; Line 1132
	sub	esp, 16					; 00000010H
	mov	DWORD PTR [esp+12], 1065353216		; 3f800000H
	mov	DWORD PTR [esp+8], 1065353216		; 3f800000H
	mov	edi, ecx
	mov	DWORD PTR [esp+4], 1065353216		; 3f800000H
	mov	DWORD PTR _this$[ebp], edi
	mov	DWORD PTR [esp], 1065353216		; 3f800000H
	call	DWORD PTR __imp__glColor4f@16
; Line 1134
	cmp	DWORD PTR [edi+204], 0
	mov	ebx, DWORD PTR __imp__glTexParameteri@12
; Line 1136
	push	33984					; 000084c0H
	jle	SHORT $LN6@drawTextur
	call	DWORD PTR ?glActiveTextureARB@@3P6GXI@ZA ; glActiveTextureARB
; Line 1137
	push	3553					; 00000de1H
	call	DWORD PTR __imp__glEnable@4
; Line 1138
	mov	eax, DWORD PTR [edi+268]
	push	eax
	push	3553					; 00000de1H
	call	DWORD PTR __imp__glBindTexture@8
; Line 1139
	push	10497					; 00002901H
	push	10242					; 00002802H
	push	3553					; 00000de1H
	call	ebx
; Line 1140
	push	10497					; 00002901H
	push	10243					; 00002803H
	push	3553					; 00000de1H
	call	ebx
; Line 1142
	push	33985					; 000084c1H
	call	DWORD PTR ?glActiveTextureARB@@3P6GXI@ZA ; glActiveTextureARB
; Line 1143
	push	3553					; 00000de1H
	call	DWORD PTR __imp__glDisable@4
; Line 1145
	jmp	SHORT $LN5@drawTextur
$LN6@drawTextur:
; Line 1147
	call	DWORD PTR ?glActiveTextureARB@@3P6GXI@ZA ; glActiveTextureARB
; Line 1148
	mov	esi, DWORD PTR __imp__glDisable@4
	push	3553					; 00000de1H
	call	esi
; Line 1150
	push	33985					; 000084c1H
	call	DWORD PTR ?glActiveTextureARB@@3P6GXI@ZA ; glActiveTextureARB
; Line 1151
	push	3553					; 00000de1H
	call	esi
$LN5@drawTextur:
; Line 1154
	mov	ecx, DWORD PTR [edi+12620]
	push	ecx
	call	?SetAnim@@YAXH@Z			; SetAnim
	add	esp, 4
; Line 1155
	push	5
	call	DWORD PTR __imp__glBegin@4
; Line 1156
	sub	esp, 8
	mov	DWORD PTR [esp+4], 1090519040		; 41000000H
	mov	DWORD PTR [esp], 0
	call	DWORD PTR __imp__glTexCoord2f@8
; Line 1157
	fild	DWORD PTR [edi+8]
	mov	esi, DWORD PTR __imp__glVertex3f@12
	sub	esp, 12					; 0000000cH
	fadd	QWORD PTR __real@3ff0000000000000
	mov	DWORD PTR [esp+8], -1073741824		; c0000000H
	fstp	DWORD PTR tv530[ebp]
	fld	DWORD PTR tv530[ebp]
	fstp	DWORD PTR [esp+4]
	fild	DWORD PTR [edi+4]
	fstp	DWORD PTR [esp]
	call	esi
; Line 1158
	sub	esp, 8
	mov	DWORD PTR [esp+4], 0
	mov	DWORD PTR [esp], 0
	call	DWORD PTR __imp__glTexCoord2f@8
; Line 1159
	fild	DWORD PTR [edi+8]
	sub	esp, 12					; 0000000cH
	mov	DWORD PTR [esp+8], -1073741824		; c0000000H
	fstp	DWORD PTR [esp+4]
	fild	DWORD PTR [edi+4]
	fstp	DWORD PTR [esp]
	call	esi
; Line 1160
	sub	esp, 8
	mov	DWORD PTR [esp+4], 1090519040		; 41000000H
	mov	DWORD PTR [esp], 1090519040		; 41000000H
	call	DWORD PTR __imp__glTexCoord2f@8
; Line 1161
	fild	DWORD PTR [edi+8]
	fld1
	sub	esp, 12					; 0000000cH
	fadd	ST(1), ST(0)
	mov	DWORD PTR [esp+8], -1073741824		; c0000000H
	fxch	ST(1)
	fstp	DWORD PTR tv510[ebp]
	fld	DWORD PTR tv510[ebp]
	fstp	DWORD PTR [esp+4]
	fiadd	DWORD PTR [edi+4]
	fstp	DWORD PTR tv507[ebp]
	fld	DWORD PTR tv507[ebp]
	fstp	DWORD PTR [esp]
	call	esi
; Line 1162
	sub	esp, 8
	mov	DWORD PTR [esp+4], 0
	mov	DWORD PTR [esp], 1090519040		; 41000000H
	call	DWORD PTR __imp__glTexCoord2f@8
; Line 1163
	fild	DWORD PTR [edi+8]
	sub	esp, 12					; 0000000cH
	mov	DWORD PTR [esp+8], -1073741824		; c0000000H
	fstp	DWORD PTR [esp+4]
	fild	DWORD PTR [edi+4]
	fadd	QWORD PTR __real@3ff0000000000000
	fstp	DWORD PTR tv496[ebp]
	fld	DWORD PTR tv496[ebp]
	fstp	DWORD PTR [esp]
	call	esi
; Line 1164
	call	DWORD PTR __imp__glEnd@0
; Line 1165
	cmp	DWORD PTR [edi+12620], 0
	je	SHORT $LN9@drawTextur
	call	DWORD PTR __imp__glPopMatrix@0
	push	5888					; 00001700H
	call	DWORD PTR __imp__glMatrixMode@4
	push	33985					; 000084c1H
	call	DWORD PTR ?glActiveTextureARB@@3P6GXI@ZA ; glActiveTextureARB
$LN9@drawTextur:
; Line 1171
	mov	eax, 1
	mov	DWORD PTR _i$83218[ebp], eax
	cmp	DWORD PTR [edi+204], eax
	jle	$LN1@drawTextur
	add	edi, 12624				; 00003150H
$LL3@drawTextur:
; Line 1173
	push	33984					; 000084c0H
	call	DWORD PTR ?glActiveTextureARB@@3P6GXI@ZA ; glActiveTextureARB
; Line 1174
	push	3553					; 00000de1H
	call	DWORD PTR __imp__glEnable@4
; Line 1175
	mov	edx, DWORD PTR [edi-12352]
	push	edx
	push	3553					; 00000de1H
	call	DWORD PTR __imp__glBindTexture@8
; Line 1176
	push	10497					; 00002901H
	push	10242					; 00002802H
	push	3553					; 00000de1H
	call	ebx
; Line 1177
	push	10497					; 00002901H
	push	10243					; 00002803H
	push	3553					; 00000de1H
	call	ebx
; Line 1179
	push	33985					; 000084c1H
	call	DWORD PTR ?glActiveTextureARB@@3P6GXI@ZA ; glActiveTextureARB
; Line 1180
	push	3553					; 00000de1H
	call	DWORD PTR __imp__glEnable@4
; Line 1181
	mov	eax, DWORD PTR [edi-20]
	push	eax
	push	3553					; 00000de1H
	call	DWORD PTR __imp__glBindTexture@8
; Line 1182
	push	33071					; 0000812fH
	push	10242					; 00002802H
	push	3553					; 00000de1H
	call	ebx
; Line 1183
	push	33071					; 0000812fH
	push	10243					; 00002803H
	push	3553					; 00000de1H
	call	ebx
; Line 1185
	mov	ecx, DWORD PTR [edi]
	push	ecx
	call	?SetAnim@@YAXH@Z			; SetAnim
	add	esp, 4
; Line 1187
	push	5
	call	DWORD PTR __imp__glBegin@4
; Line 1188
	sub	esp, 8
	mov	DWORD PTR [esp+4], 0
	mov	DWORD PTR [esp], 1090519040		; 41000000H
	push	33984					; 000084c0H
	call	DWORD PTR ?glMultiTexCoord2fARB@@3P6GXIMM@ZA ; glMultiTexCoord2fARB
; Line 1189
	sub	esp, 8
	mov	DWORD PTR [esp+4], 0
	mov	DWORD PTR [esp], 1064828928		; 3f780000H
	push	33985					; 000084c1H
	call	DWORD PTR ?glMultiTexCoord2fARB@@3P6GXIMM@ZA ; glMultiTexCoord2fARB
; Line 1190
	mov	eax, DWORD PTR _this$[ebp]
	fild	DWORD PTR [eax+8]
	sub	esp, 12					; 0000000cH
	mov	DWORD PTR [esp+8], -1073741824		; c0000000H
	fstp	DWORD PTR [esp+4]
	fild	DWORD PTR [eax+4]
	fadd	QWORD PTR __real@3ff0000000000000
	fstp	DWORD PTR tv480[ebp]
	fld	DWORD PTR tv480[ebp]
	fstp	DWORD PTR [esp]
	call	esi
; Line 1191
	sub	esp, 8
	mov	DWORD PTR [esp+4], 0
	mov	DWORD PTR [esp], 0
	push	33984					; 000084c0H
	call	DWORD PTR ?glMultiTexCoord2fARB@@3P6GXIMM@ZA ; glMultiTexCoord2fARB
; Line 1192
	sub	esp, 8
	mov	DWORD PTR [esp+4], 0
	mov	DWORD PTR [esp], 0
	push	33985					; 000084c1H
	call	DWORD PTR ?glMultiTexCoord2fARB@@3P6GXIMM@ZA ; glMultiTexCoord2fARB
; Line 1193
	mov	eax, DWORD PTR _this$[ebp]
	fild	DWORD PTR [eax+8]
	sub	esp, 12					; 0000000cH
	mov	DWORD PTR [esp+8], -1073741824		; c0000000H
	fstp	DWORD PTR [esp+4]
	fild	DWORD PTR [eax+4]
	fstp	DWORD PTR [esp]
	call	esi
; Line 1194
	sub	esp, 8
	mov	DWORD PTR [esp+4], 1090519040		; 41000000H
	mov	DWORD PTR [esp], 1090519040		; 41000000H
	push	33984					; 000084c0H
	call	DWORD PTR ?glMultiTexCoord2fARB@@3P6GXIMM@ZA ; glMultiTexCoord2fARB
; Line 1195
	sub	esp, 8
	mov	DWORD PTR [esp+4], 1064828928		; 3f780000H
	mov	DWORD PTR [esp], 1064828928		; 3f780000H
	push	33985					; 000084c1H
	call	DWORD PTR ?glMultiTexCoord2fARB@@3P6GXIMM@ZA ; glMultiTexCoord2fARB
; Line 1196
	mov	eax, DWORD PTR _this$[ebp]
	fild	DWORD PTR [eax+8]
	sub	esp, 12					; 0000000cH
	fld1
	mov	DWORD PTR [esp+8], -1073741824		; c0000000H
	fadd	ST(1), ST(0)
	fxch	ST(1)
	fstp	DWORD PTR tv457[ebp]
	fld	DWORD PTR tv457[ebp]
	fstp	DWORD PTR [esp+4]
	fiadd	DWORD PTR [eax+4]
	fstp	DWORD PTR tv454[ebp]
	fld	DWORD PTR tv454[ebp]
	fstp	DWORD PTR [esp]
	call	esi
; Line 1197
	sub	esp, 8
	mov	DWORD PTR [esp+4], 1090519040		; 41000000H
	mov	DWORD PTR [esp], 0
	push	33984					; 000084c0H
	call	DWORD PTR ?glMultiTexCoord2fARB@@3P6GXIMM@ZA ; glMultiTexCoord2fARB
; Line 1198
	sub	esp, 8
	mov	DWORD PTR [esp+4], 1064828928		; 3f780000H
	mov	DWORD PTR [esp], 0
	push	33985					; 000084c1H
	call	DWORD PTR ?glMultiTexCoord2fARB@@3P6GXIMM@ZA ; glMultiTexCoord2fARB
; Line 1199
	mov	eax, DWORD PTR _this$[ebp]
	fild	DWORD PTR [eax+8]
	sub	esp, 12					; 0000000cH
	mov	DWORD PTR [esp+8], -1073741824		; c0000000H
	fadd	QWORD PTR __real@3ff0000000000000
	fstp	DWORD PTR tv442[ebp]
	fld	DWORD PTR tv442[ebp]
	fstp	DWORD PTR [esp+4]
	fild	DWORD PTR [eax+4]
	fstp	DWORD PTR [esp]
	call	esi
; Line 1200
	call	DWORD PTR __imp__glEnd@0
; Line 1202
	cmp	DWORD PTR [edi], 0
	je	SHORT $LN2@drawTextur
	call	DWORD PTR __imp__glPopMatrix@0
	push	5888					; 00001700H
	call	DWORD PTR __imp__glMatrixMode@4
	push	33985					; 000084c1H
	call	DWORD PTR ?glActiveTextureARB@@3P6GXI@ZA ; glActiveTextureARB
$LN2@drawTextur:
; Line 1171
	mov	eax, DWORD PTR _i$83218[ebp]
	mov	edx, DWORD PTR _this$[ebp]
	inc	eax
	add	edi, 4
	mov	DWORD PTR _i$83218[ebp], eax
	cmp	eax, DWORD PTR [edx+204]
	jl	$LL3@drawTextur
	mov	edi, edx
$LN1@drawTextur:
; Line 1205
	push	33984					; 000084c0H
	call	DWORD PTR ?glActiveTextureARB@@3P6GXI@ZA ; glActiveTextureARB
; Line 1206
	mov	esi, DWORD PTR __imp__glDisable@4
	push	3553					; 00000de1H
	call	esi
; Line 1208
	push	33985					; 000084c1H
	call	DWORD PTR ?glActiveTextureARB@@3P6GXI@ZA ; glActiveTextureARB
; Line 1209
	push	3553					; 00000de1H
	call	esi
; Line 1211
	mov	eax, DWORD PTR [edi+12644]
	push	eax
	push	34962					; 00008892H
	call	DWORD PTR ?glBindBufferARB@@3P6GXII@ZA	; glBindBufferARB
; Line 1212
	push	0
	push	0
	push	5126					; 00001406H
	push	3
	call	DWORD PTR __imp__glVertexPointer@16
; Line 1213
	mov	ecx, DWORD PTR [edi+12648]
	push	ecx
	push	34962					; 00008892H
	call	DWORD PTR ?glBindBufferARB@@3P6GXII@ZA	; glBindBufferARB
; Line 1214
	push	0
	push	0
	push	5126					; 00001406H
	push	4
	call	DWORD PTR __imp__glColorPointer@16
; Line 1216
	mov	edx, DWORD PTR ?gWorld@@3PAVWorld@@A	; gWorld
	mov	eax, DWORD PTR [edx+20920]
	push	eax
	push	5123					; 00001403H
	push	318					; 0000013eH
	push	5
	call	DWORD PTR __imp__glDrawElements@16
	pop	edi
	pop	esi
	pop	ebx
; Line 1217
	mov	esp, ebp
	pop	ebp
	ret	0
?drawTextures@MapChunk@@QAEXXZ ENDP			; MapChunk::drawTextures
_TEXT	ENDS
PUBLIC	?initStrip@MapChunk@@QAEXH@Z			; MapChunk::initStrip
EXTRN	??_U@YAPAXI@Z:PROC				; operator new[]
; Function compile flags: /Ogtp
_TEXT	SEGMENT
_this$ = -44						; size = 4
tv783 = -40						; size = 4
tv614 = -36						; size = 4
tv618 = -32						; size = 4
tv621 = -28						; size = 4
tv777 = -24						; size = 4
tv688 = -20						; size = 4
tv76 = -16						; size = 4
tv544 = -12						; size = 4
tv662 = -8						; size = 4
_first$ = -1						; size = 1
_holes$ = 8						; size = 4
?initStrip@MapChunk@@QAEXH@Z PROC			; MapChunk::initStrip
; _this$ = ecx
; Line 1220
	push	ebp
	mov	ebp, esp
	sub	esp, 44					; 0000002cH
	push	ebx
	push	esi
	push	edi
	mov	esi, ecx
; Line 1221
	push	512					; 00000200H
	mov	DWORD PTR _this$[ebp], esi
	call	??_U@YAPAXI@Z				; operator new[]
; Line 1223
	mov	ebx, 1
; Line 1224
	mov	edx, OFFSET ?holetab_v@@3PAHA		; holetab_v
	add	esp, 4
	sub	edx, ebx
	mov	DWORD PTR [esi+12652], eax
	mov	ecx, eax
	mov	BYTE PTR _first$[ebp], bl
	mov	DWORD PTR tv777[ebp], ebx
	mov	DWORD PTR tv783[ebp], edx
	npad	8
$LL15@initStrip:
; Line 1226
	mov	eax, OFFSET ?holetab_h@@3PAHA		; holetab_h
	mov	DWORD PTR tv662[ebp], 0
	mov	DWORD PTR tv688[ebp], eax
	npad	1
$LL12@initStrip:
; Line 1228
	mov	esi, DWORD PTR _holes$[ebp]
	and	esi, DWORD PTR [eax]
	test	esi, DWORD PTR [edx+ebx]
	jne	$LN11@initStrip
; Line 1232
	mov	DWORD PTR tv76[ebp], 2
$LL36@initStrip:
; Line 1236
	cmp	BYTE PTR _first$[ebp], 0
	jne	SHORT $LN5@initStrip
; Line 1238
	lea	eax, DWORD PTR [ebx-1]
	cdq
	sub	eax, edx
	mov	esi, eax
	mov	eax, ebx
	cdq
	sub	eax, edx
	mov	edx, DWORD PTR tv662[ebp]
	sar	eax, 1
	add	edx, eax
	sar	esi, 1
	lea	eax, DWORD PTR [edx+eax*8]
	lea	edx, DWORD PTR [eax+esi*8]
	mov	WORD PTR [ecx], dx
	add	ecx, 2
	jmp	SHORT $LN4@initStrip
$LN5@initStrip:
; Line 1239
	mov	BYTE PTR _first$[ebp], 0
$LN4@initStrip:
; Line 1240
	mov	eax, ebx
	cdq
	sub	eax, edx
	sar	eax, 1
	mov	DWORD PTR tv544[ebp], eax
	lea	eax, DWORD PTR [ebx-1]
	cdq
	sub	eax, edx
	sar	eax, 1
	mov	DWORD PTR tv621[ebp], eax
	lea	eax, DWORD PTR [ebx+2]
	mov	DWORD PTR tv614[ebp], eax
	cdq
	sub	eax, edx
	mov	esi, eax
	lea	eax, DWORD PTR [ebx+1]
	cdq
	sub	eax, edx
	xor	edi, edi
	sar	esi, 1
	sar	eax, 1
	mov	DWORD PTR tv618[ebp], eax
$LL37@initStrip:
; Line 1242
	movzx	eax, WORD PTR tv662[ebp]
	mov	ebx, DWORD PTR tv544[ebp]
	add	ebx, eax
	mov	eax, DWORD PTR tv544[ebp]
	lea	eax, DWORD PTR [ebx+eax*8]
	mov	ebx, DWORD PTR tv621[ebp]
	lea	eax, DWORD PTR [eax+ebx*8]
	movzx	edx, di
	add	eax, edx
	mov	WORD PTR [ecx], ax
; Line 1243
	movzx	eax, WORD PTR tv662[ebp]
	add	eax, esi
	lea	ebx, DWORD PTR [eax+esi*8]
	mov	eax, DWORD PTR tv618[ebp]
	lea	ebx, DWORD PTR [ebx+eax*8]
	add	ebx, edx
	mov	WORD PTR [ecx+2], bx
	inc	edi
	add	ecx, 4
	cmp	edi, 3
	jl	SHORT $LL37@initStrip
; Line 1245
	mov	edx, DWORD PTR tv662[ebp]
	mov	ebx, DWORD PTR tv614[ebp]
	add	edx, esi
	lea	edx, DWORD PTR [edx+esi*8]
	lea	eax, DWORD PTR [edx+eax*8+2]
	mov	WORD PTR [ecx], ax
	add	ecx, 2
	dec	DWORD PTR tv76[ebp]
	jne	$LL36@initStrip
; Line 1234
	mov	eax, DWORD PTR tv688[ebp]
	mov	ebx, DWORD PTR tv777[ebp]
	mov	edx, DWORD PTR tv783[ebp]
$LN11@initStrip:
; Line 1226
	add	DWORD PTR tv662[ebp], 2
	add	eax, 4
	mov	DWORD PTR tv688[ebp], eax
	cmp	eax, OFFSET ?holetab_h@@3PAHA+16
	jl	$LL12@initStrip
; Line 1224
	add	ebx, 4
	mov	DWORD PTR tv777[ebp], ebx
	cmp	ebx, 17					; 00000011H
	jl	$LL15@initStrip
; Line 1250
	mov	eax, DWORD PTR _this$[ebp]
	sub	ecx, DWORD PTR [eax+12652]
	pop	edi
	sar	ecx, 1
	pop	esi
	mov	DWORD PTR [eax+12656], ecx
	pop	ebx
; Line 1251
	mov	esp, ebp
	pop	ebp
	ret	4
?initStrip@MapChunk@@QAEXH@Z ENDP			; MapChunk::initStrip
_TEXT	ENDS
PUBLIC	??_GLiquid@@QAEPAXI@Z				; Liquid::`scalar deleting destructor'
EXTRN	??1Liquid@@QAE@XZ:PROC				; Liquid::~Liquid
; Function compile flags: /Ogtp
;	COMDAT ??_GLiquid@@QAEPAXI@Z
_TEXT	SEGMENT
___flags$ = 8						; size = 4
??_GLiquid@@QAEPAXI@Z PROC				; Liquid::`scalar deleting destructor', COMDAT
; _this$ = ecx
	push	ebp
	mov	ebp, esp
	push	esi
	mov	esi, ecx
	call	??1Liquid@@QAE@XZ			; Liquid::~Liquid
	test	BYTE PTR ___flags$[ebp], 1
	je	SHORT $LN4@scalar@2
	push	esi
	call	??3@YAXPAX@Z				; operator delete
	add	esp, 4
$LN4@scalar@2:
	mov	eax, esi
	pop	esi
	pop	ebp
	ret	4
??_GLiquid@@QAEPAXI@Z ENDP				; Liquid::`scalar deleting destructor'
_TEXT	ENDS
PUBLIC	__real@4010aaaaa0000000
PUBLIC	__real@4000aaaaa0000000
PUBLIC	?GetVertex@MapChunk@@QAE_NMMPAVVec3D@@@Z	; MapChunk::GetVertex
;	COMDAT __real@4010aaaaa0000000
; File c:\programovani\wow editor\test\src\editor\vec3d.h
CONST	SEGMENT
__real@4010aaaaa0000000 DQ 04010aaaaa0000000r	; 4.16667
CONST	ENDS
;	COMDAT __real@4000aaaaa0000000
CONST	SEGMENT
__real@4000aaaaa0000000 DQ 04000aaaaa0000000r	; 2.08333
; Function compile flags: /Ogtp
CONST	ENDS
_TEXT	SEGMENT
tv213 = -4						; size = 4
_x$ = 8							; size = 4
tv233 = 12						; size = 4
tv226 = 12						; size = 4
_column$ = 12						; size = 4
_z$ = 12						; size = 4
_V$ = 16						; size = 4
?GetVertex@MapChunk@@QAE_NMMPAVVec3D@@@Z PROC		; MapChunk::GetVertex
; _this$ = ecx
; File c:\programovani\wow editor\test\src\editor\maptile.cpp
; Line 1278
	push	ebp
	mov	ebp, esp
	push	ecx
; Line 1285
	fld	DWORD PTR _z$[ebp]
	push	ebx
	mov	ebx, ecx
	fsub	DWORD PTR [ebx+216]
	push	esi
	push	edi
	fstp	DWORD PTR tv233[ebp]
	fld	DWORD PTR tv233[ebp]
	fld	QWORD PTR __real@4000aaaaa0000000
	fdiv	ST(1), ST(0)
	fld	QWORD PTR __real@3fe0000000000000
	fadd	ST(2), ST(0)
	fxch	ST(2)
	call	__ftol2_sse_excpt
	mov	edi, eax
; Line 1286
	mov	esi, edi
	and	esi, -2147483647			; 80000001H
	jns	SHORT $LN7@GetVertex
	dec	esi
	or	esi, -2					; fffffffeH
	inc	esi
$LN7@GetVertex:
	fld	DWORD PTR _x$[ebp]
	mov	DWORD PTR tv213[ebp], esi
	fsub	DWORD PTR [ebx+208]
	fstp	DWORD PTR tv226[ebp]
	fild	DWORD PTR tv213[ebp]
	fmulp	ST(1), ST(0)
	fsubr	DWORD PTR tv226[ebp]
	fdiv	QWORD PTR __real@4010aaaaa0000000
	faddp	ST(1), ST(0)
	call	__ftol2_sse_excpt
	mov	DWORD PTR _column$[ebp], eax
; Line 1287
	test	edi, edi
	js	SHORT $LN1@GetVertex
	test	eax, eax
	js	SHORT $LN1@GetVertex
	cmp	edi, 16					; 00000010H
	jg	SHORT $LN1@GetVertex
	mov	ecx, esi
	neg	ecx
	sbb	ecx, ecx
	add	ecx, 9
	cmp	eax, ecx
	jg	SHORT $LN1@GetVertex
; Line 1290
	neg	esi
	sbb	esi, esi
	mov	eax, edi
	cdq
	sub	eax, edx
	sar	eax, 1
	mov	ecx, eax
	and	esi, 9
	add	esi, DWORD PTR _column$[ebp]
	shl	ecx, 4
	add	ecx, eax
	add	ecx, esi
	lea	edx, DWORD PTR [ecx+ecx*2]
	mov	ecx, DWORD PTR _V$[ebp]
	lea	eax, DWORD PTR [ebx+edx*4+14404]
	mov	edx, DWORD PTR [eax]
	mov	DWORD PTR [ecx], edx
	mov	edx, DWORD PTR [eax+4]
	pop	edi
	mov	DWORD PTR [ecx+4], edx
	mov	eax, DWORD PTR [eax+8]
	pop	esi
	mov	DWORD PTR [ecx+8], eax
; Line 1291
	mov	al, 1
	pop	ebx
; Line 1292
	mov	esp, ebp
	pop	ebp
	ret	12					; 0000000cH
$LN1@GetVertex:
	pop	edi
	pop	esi
; Line 1288
	xor	al, al
	pop	ebx
; Line 1292
	mov	esp, ebp
	pop	ebp
	ret	12					; 0000000cH
?GetVertex@MapChunk@@QAE_NMMPAVVec3D@@@Z ENDP		; MapChunk::GetVertex
_TEXT	ENDS
PUBLIC	__$ArrayPad$
PUBLIC	?CreateStrips@@YAXXZ				; CreateStrips
; Function compile flags: /Ogtp
_TEXT	SEGMENT
_i$83289 = -48						; size = 4
tv548 = -44						; size = 4
_Temp$ = -40						; size = 36
__$ArrayPad$ = -4					; size = 4
?CreateStrips@@YAXXZ PROC				; CreateStrips
; Line 1299
	push	ebp
	mov	ebp, esp
	sub	esp, 48					; 00000030H
	mov	eax, DWORD PTR ___security_cookie
	xor	eax, ebp
	mov	DWORD PTR __$ArrayPad$[ebp], eax
	push	ebx
; Line 1303
	xor	edx, edx
	xor	eax, eax
	push	esi
	mov	DWORD PTR _i$83289[ebp], edx
	mov	DWORD PTR tv548[ebp], eax
	push	edi
	npad	3
$LL39@CreateStri:
; Line 1305
	mov	ecx, edx
	shl	ecx, 4
	add	ecx, edx
	lea	ebx, DWORD PTR [ecx+17]
	mov	WORD PTR ?OddStrips@@3PAGA[eax], bx
; Line 1306
	xor	esi, esi
$LL21@CreateStri:
; Line 1308
	movzx	edx, si
	lea	edi, DWORD PTR [ecx+edx]
	mov	WORD PTR ?OddStrips@@3PAGA[eax+2], di
; Line 1309
	lea	edi, DWORD PTR [ecx+edx+9]
; Line 1310
	add	edx, ebx
	mov	WORD PTR ?OddStrips@@3PAGA[eax+4], di
	mov	WORD PTR ?EvenStrips@@3PAGA[eax], dx
; Line 1311
	mov	WORD PTR ?EvenStrips@@3PAGA[eax+2], di
	inc	esi
	add	eax, 4
	cmp	esi, 8
	jl	SHORT $LL21@CreateStri
; Line 1313
	mov	eax, DWORD PTR tv548[ebp]
	lea	edx, DWORD PTR [ecx+8]
	mov	WORD PTR ?OddStrips@@3PAGA[eax+34], dx
; Line 1314
	add	ecx, 25					; 00000019H
; Line 1315
	mov	WORD PTR ?EvenStrips@@3PAGA[eax+34], dx
	mov	edx, DWORD PTR _i$83289[ebp]
	mov	WORD PTR ?EvenStrips@@3PAGA[eax+32], cx
	add	eax, 36					; 00000024H
	inc	edx
	mov	DWORD PTR _i$83289[ebp], edx
	mov	DWORD PTR tv548[ebp], eax
	cmp	eax, 288				; 00000120H
	jl	SHORT $LL39@CreateStri
; Line 1319
	xor	ebx, ebx
	npad	8
$LL18@CreateStri:
; Line 1321
	lea	edi, DWORD PTR ?OddStrips@@3PAGA[ebx]
	lea	ecx, DWORD PTR _Temp$[ebp+34]
	mov	eax, edi
	mov	edx, 18					; 00000012H
$LL15@CreateStri:
; Line 1322
	mov	si, WORD PTR [eax]
	mov	WORD PTR [ecx], si
	add	eax, 2
	sub	ecx, 2
	dec	edx
	jne	SHORT $LL15@CreateStri
; Line 1323
	mov	ecx, 9
	lea	esi, DWORD PTR _Temp$[ebp]
	rep movsd
	lea	edi, DWORD PTR ?EvenStrips@@3PAGA[ebx]
	lea	ecx, DWORD PTR _Temp$[ebp+34]
	mov	eax, edi
	mov	edx, 18					; 00000012H
	npad	7
$LL12@CreateStri:
; Line 1325
	mov	si, WORD PTR [eax]
	mov	WORD PTR [ecx], si
	add	eax, 2
	sub	ecx, 2
	dec	edx
	jne	SHORT $LL12@CreateStri
; Line 1326
	add	ebx, 36					; 00000024H
	mov	ecx, 9
	lea	esi, DWORD PTR _Temp$[ebp]
	rep movsd
	cmp	ebx, 288				; 00000120H
	jl	SHORT $LL18@CreateStri
; Line 1330
	pop	edi
	pop	esi
	xor	eax, eax
	pop	ebx
	npad	7
$LL9@CreateStri:
; Line 1332
	cmp	eax, 9
	jge	SHORT $LN6@CreateStri
; Line 1333
	mov	WORD PTR ?LineStrip@@3PAGA[eax*2], ax
	jmp	SHORT $LN8@CreateStri
$LN6@CreateStri:
; Line 1334
	cmp	eax, 17					; 00000011H
	jge	SHORT $LN4@CreateStri
; Line 1335
	lea	edx, DWORD PTR [eax-8]
	add	edx, edx
	lea	ecx, DWORD PTR [eax+edx*8]
	mov	WORD PTR ?LineStrip@@3PAGA[eax*2], cx
	jmp	SHORT $LN8@CreateStri
$LN4@CreateStri:
; Line 1336
	cmp	eax, 25					; 00000019H
	jge	SHORT $LN2@CreateStri
; Line 1337
	mov	edx, 160				; 000000a0H
	sub	edx, eax
; Line 1338
	jmp	SHORT $LN40@CreateStri
$LN2@CreateStri:
; Line 1339
	mov	ecx, 32					; 00000020H
	sub	ecx, eax
	mov	edx, ecx
	shl	edx, 4
	add	edx, ecx
$LN40@CreateStri:
	mov	WORD PTR ?LineStrip@@3PAGA[eax*2], dx
$LN8@CreateStri:
; Line 1330
	inc	eax
	cmp	eax, 32					; 00000020H
	jl	SHORT $LL9@CreateStri
; Line 1341
	mov	ecx, DWORD PTR __$ArrayPad$[ebp]
	xor	ecx, ebp
	call	@__security_check_cookie@4
	mov	esp, ebp
	pop	ebp
	ret	0
?CreateStrips@@YAXXZ ENDP				; CreateStrips
_TEXT	ENDS
PUBLIC	_this$GSCopy$
PUBLIC	__$ArrayPad$
PUBLIC	?drawPass@MapChunk@@QAEXH@Z			; MapChunk::drawPass
; Function compile flags: /Ogtp
_TEXT	SEGMENT
_this$GSCopy$ = -76					; size = 4
tv290 = -72						; size = 4
tv279 = -72						; size = 4
tv276 = -72						; size = 4
tv272 = -72						; size = 4
_f$83349 = -72						; size = 4
_texanimxtab$83343 = -68				; size = 32
_texanimytab$83344 = -36				; size = 32
__$ArrayPad$ = -4					; size = 4
_anim$ = 8						; size = 4
?drawPass@MapChunk@@QAEXH@Z PROC			; MapChunk::drawPass
; _this$ = ecx
; Line 1394
	push	ebp
	mov	ebp, esp
	sub	esp, 76					; 0000004cH
	mov	eax, DWORD PTR ___security_cookie
	xor	eax, ebp
	mov	DWORD PTR __$ArrayPad$[ebp], eax
	push	ebx
	push	esi
; Line 1395
	mov	esi, DWORD PTR _anim$[ebp]
	xor	ebx, ebx
; Line 1423
	mov	DWORD PTR _this$GSCopy$[ebp], ecx
	cmp	esi, ebx
	je	$LN2@drawPass
; Line 1396
	push	edi
	push	33984					; 000084c0H
	call	DWORD PTR ?glActiveTextureARB@@3P6GXI@ZA ; glActiveTextureARB
; Line 1397
	push	5890					; 00001702H
	call	DWORD PTR __imp__glMatrixMode@4
; Line 1398
	call	DWORD PTR __imp__glPushMatrix@0
; Line 1403
	mov	eax, -1082130432			; bf800000H
	mov	DWORD PTR _texanimxtab$83343[ebp+20], eax
	mov	DWORD PTR _texanimxtab$83343[ebp+24], eax
	mov	DWORD PTR _texanimxtab$83343[ebp+28], eax
; Line 1404
	mov	DWORD PTR _texanimytab$83344[ebp+12], eax
	mov	DWORD PTR _texanimytab$83344[ebp+16], eax
	mov	DWORD PTR _texanimytab$83344[ebp+20], eax
	mov	ecx, 1065353216				; 3f800000H
	mov	DWORD PTR _texanimxtab$83343[ebp+4], ecx
	mov	DWORD PTR _texanimxtab$83343[ebp+8], ecx
	mov	DWORD PTR _texanimxtab$83343[ebp+12], ecx
	mov	DWORD PTR _texanimytab$83344[ebp], ecx
	mov	DWORD PTR _texanimytab$83344[ebp+4], ecx
	mov	DWORD PTR _texanimytab$83344[ebp+28], ecx
; Line 1408
	mov	eax, esi
	sar	eax, 2
	and	eax, 16					; 00000010H
	mov	ecx, esi
	and	ecx, 32					; 00000020H
	or	eax, ecx
	sar	eax, 2
	mov	edx, esi
	and	edx, 16					; 00000010H
	or	eax, edx
	mov	ecx, esi
	sar	eax, 2
	and	ecx, 8
	or	eax, ecx
	mov	DWORD PTR tv290[ebp], eax
	fild	DWORD PTR tv290[ebp]
	mov	edx, DWORD PTR ?gWorld@@3PAVWorld@@A	; gWorld
	mov	edi, esi
	and	edi, 7
	fdiv	QWORD PTR __real@402e000000000000
	mov	DWORD PTR _texanimxtab$83343[ebp], ebx
	mov	DWORD PTR _texanimxtab$83343[ebp+16], ebx
	mov	DWORD PTR _texanimytab$83344[ebp+8], ebx
	mov	DWORD PTR _texanimytab$83344[ebp+24], ebx
	fmul	DWORD PTR [edx+20892]
	call	__ftol2_sse_excpt
	cdq
	mov	ecx, 1600				; 00000640H
	idiv	ecx
; Line 1409
	sub	esp, 12					; 0000000cH
	mov	DWORD PTR [esp+8], ebx
	mov	DWORD PTR tv279[ebp], edx
	fild	DWORD PTR tv279[ebp]
	fdiv	QWORD PTR __real@4099000000000000
	fstp	DWORD PTR _f$83349[ebp]
	fld	DWORD PTR _texanimytab$83344[ebp+edi*4]
	fld	DWORD PTR _f$83349[ebp]
	fld	ST(0)
	fmulp	ST(2), ST(0)
	fxch	ST(1)
	fstp	DWORD PTR tv276[ebp]
	fld	DWORD PTR tv276[ebp]
	fstp	DWORD PTR [esp+4]
	fld	DWORD PTR _texanimxtab$83343[ebp+edi*4]
	fchs
	fmulp	ST(1), ST(0)
	fstp	DWORD PTR tv272[ebp]
	fld	DWORD PTR tv272[ebp]
	fstp	DWORD PTR [esp]
	call	DWORD PTR __imp__glTranslatef@12
	mov	ecx, DWORD PTR _this$GSCopy$[ebp]
	pop	edi
$LN2@drawPass:
; Line 1423
	mov	edx, DWORD PTR [ecx+12652]
	mov	eax, DWORD PTR [ecx+12656]
	push	edx
	push	5123					; 00001403H
	push	eax
	push	5
	call	DWORD PTR __imp__glDrawElements@16
; Line 1425
	cmp	esi, ebx
	pop	esi
	pop	ebx
	je	SHORT $LN1@drawPass
; Line 1427
	call	DWORD PTR __imp__glPopMatrix@0
; Line 1428
	push	5888					; 00001700H
	call	DWORD PTR __imp__glMatrixMode@4
; Line 1429
	push	33985					; 000084c1H
	call	DWORD PTR ?glActiveTextureARB@@3P6GXI@ZA ; glActiveTextureARB
$LN1@drawPass:
; Line 1431
	mov	ecx, DWORD PTR __$ArrayPad$[ebp]
	xor	ecx, ebp
	call	@__security_check_cookie@4
	mov	esp, ebp
	pop	ebp
	ret	4
?drawPass@MapChunk@@QAEXH@Z ENDP			; MapChunk::drawPass
_TEXT	ENDS
PUBLIC	?drawLines@MapChunk@@QAEXXZ			; MapChunk::drawLines
EXTRN	__imp__glHint@8:PROC
EXTRN	__imp__glLineWidth@4:PROC
EXTRN	?intersects@Frustum@@QBE_NABVVec3D@@0@Z:PROC	; Frustum::intersects
; Function compile flags: /Ogtp
_TEXT	SEGMENT
?drawLines@MapChunk@@QAEXXZ PROC			; MapChunk::drawLines
; _this$ = ecx
; Line 1434
	push	edi
	mov	edi, ecx
; Line 1435
	lea	eax, DWORD PTR [edi+28]
	push	eax
	lea	ecx, DWORD PTR [edi+16]
	push	ecx
	mov	ecx, DWORD PTR ?gWorld@@3PAVWorld@@A	; gWorld
	add	ecx, 20952				; 000051d8H
	call	?intersects@Frustum@@QBE_NABVVec3D@@0@Z	; Frustum::intersects
	test	al, al
	je	$LN9@drawLines
; Line 1439
	mov	edx, DWORD PTR [edi+12636]
	push	esi
	push	edx
	push	34962					; 00008892H
	call	DWORD PTR ?glBindBufferARB@@3P6GXII@ZA	; glBindBufferARB
; Line 1440
	push	0
	push	0
	push	5126					; 00001406H
	push	3
	call	DWORD PTR __imp__glVertexPointer@16
; Line 1442
	mov	esi, DWORD PTR __imp__glDisable@4
	push	3553					; 00000de1H
	call	esi
; Line 1443
	push	2896					; 00000b50H
	call	esi
; Line 1445
	call	DWORD PTR __imp__glPushMatrix@0
; Line 1446
	mov	esi, DWORD PTR __imp__glColor4f@16
	sub	esp, 16					; 00000010H
	mov	DWORD PTR [esp+12], 1056964608		; 3f000000H
	mov	DWORD PTR [esp+8], 0
	mov	DWORD PTR [esp+4], 0
	mov	DWORD PTR [esp], 1065353216		; 3f800000H
	call	esi
; Line 1447
	sub	esp, 12					; 0000000cH
	mov	DWORD PTR [esp+8], 0
	mov	DWORD PTR [esp+4], 1028443341		; 3d4ccccdH
	mov	DWORD PTR [esp], 0
	call	DWORD PTR __imp__glTranslatef@12
; Line 1448
	push	2848					; 00000b20H
	call	DWORD PTR __imp__glEnable@4
; Line 1449
	push	ecx
	mov	DWORD PTR [esp], 1069547520		; 3fc00000H
	call	DWORD PTR __imp__glLineWidth@4
; Line 1450
	push	4354					; 00001102H
	push	3154					; 00000c52H
	call	DWORD PTR __imp__glHint@8
; Line 1451
	mov	eax, DWORD PTR [edi+4]
	cmp	eax, 15					; 0000000fH
	je	SHORT $LN22@drawLines
	cmp	DWORD PTR [edi+8], 0
; Line 1453
	jne	SHORT $LN25@drawLines
; Line 1455
	cmp	eax, 15					; 0000000fH
	jne	$LN3@drawLines
$LN22@drawLines:
	cmp	DWORD PTR [edi+8], 0
	jne	SHORT $LN5@drawLines
; Line 1457
	sub	esp, 16					; 00000010H
	mov	DWORD PTR [esp+12], 1056964608		; 3f000000H
	mov	DWORD PTR [esp+8], 0
	mov	DWORD PTR [esp+4], 1065353216		; 3f800000H
	mov	DWORD PTR [esp], 0
	call	esi
$LN25@drawLines:
; Line 1458
	push	OFFSET ?LineStrip@@3PAGA		; LineStrip
	push	5123					; 00001403H
	push	17					; 00000011H
	push	3
	call	DWORD PTR __imp__glDrawElements@16
	jmp	$LN1@drawLines
$LN5@drawLines:
; Line 1460
	cmp	eax, 15					; 0000000fH
	jne	SHORT $LN3@drawLines
; Line 1462
	mov	edi, DWORD PTR __imp__glDrawElements@16
	push	OFFSET ?LineStrip@@3PAGA		; LineStrip
	push	5123					; 00001403H
	push	9
	push	3
	call	edi
; Line 1463
	sub	esp, 16					; 00000010H
	mov	DWORD PTR [esp+12], 1056964608		; 3f000000H
	mov	DWORD PTR [esp+8], 0
	mov	DWORD PTR [esp+4], 1065353216		; 3f800000H
	mov	DWORD PTR [esp], 0
; Line 1464
	jmp	SHORT $LN24@drawLines
$LN3@drawLines:
; Line 1466
	cmp	DWORD PTR [edi+8], 0
	jne	SHORT $LN1@drawLines
; Line 1468
	sub	esp, 16					; 00000010H
	mov	DWORD PTR [esp+12], 1056964608		; 3f000000H
	mov	DWORD PTR [esp+8], 0
	mov	DWORD PTR [esp+4], 1065353216		; 3f800000H
	mov	DWORD PTR [esp], 0
	call	esi
; Line 1469
	mov	edi, DWORD PTR __imp__glDrawElements@16
	push	OFFSET ?LineStrip@@3PAGA		; LineStrip
	push	5123					; 00001403H
	push	9
	push	3
	call	edi
; Line 1470
	sub	esp, 16					; 00000010H
	mov	DWORD PTR [esp+12], 1056964608		; 3f000000H
	mov	DWORD PTR [esp+8], 0
	mov	DWORD PTR [esp+4], 0
	mov	DWORD PTR [esp], 1065353216		; 3f800000H
$LN24@drawLines:
	call	esi
; Line 1471
	push	OFFSET ?LineStrip@@3PAGA+16
	push	5123					; 00001403H
	push	9
	push	3
	call	edi
$LN1@drawLines:
; Line 1474
	call	DWORD PTR __imp__glPopMatrix@0
; Line 1476
	sub	esp, 16					; 00000010H
	mov	DWORD PTR [esp+12], 1065353216		; 3f800000H
	mov	DWORD PTR [esp+8], 1065353216		; 3f800000H
	mov	DWORD PTR [esp+4], 1065353216		; 3f800000H
	mov	DWORD PTR [esp], 1065353216		; 3f800000H
	call	esi
	pop	esi
$LN9@drawLines:
	pop	edi
; Line 1477
	ret	0
?drawLines@MapChunk@@QAEXXZ ENDP			; MapChunk::drawLines
_TEXT	ENDS
PUBLIC	__$ArrayPad$
PUBLIC	?drawContour@MapChunk@@QAEXXZ			; MapChunk::drawContour
EXTRN	__imp__glBlendFunc@8:PROC
; Function compile flags: /Ogtp
_TEXT	SEGMENT
__$ArrayPad$ = -4					; size = 4
?drawContour@MapChunk@@QAEXXZ PROC			; MapChunk::drawContour
; _this$ = ecx
; Line 1480
	push	ebp
	mov	ebp, esp
	push	ecx
	mov	eax, DWORD PTR ___security_cookie
	xor	eax, ebp
	mov	DWORD PTR __$ArrayPad$[ebp], eax
; Line 1481
	cmp	BYTE PTR ?DrawMapContour@@3_NA, 0	; DrawMapContour
	push	ebx
	mov	ebx, ecx
	je	$LN3@drawContou
; Line 1483
	push	esi
	push	edi
	sub	esp, 16					; 00000010H
	mov	DWORD PTR [esp+12], 1065353216		; 3f800000H
	mov	DWORD PTR [esp+8], 1065353216		; 3f800000H
	mov	DWORD PTR [esp+4], 1065353216		; 3f800000H
	mov	DWORD PTR [esp], 1065353216		; 3f800000H
	call	DWORD PTR __imp__glColor4f@16
; Line 1484
	push	33984					; 000084c0H
	call	DWORD PTR ?glActiveTextureARB@@3P6GXI@ZA ; glActiveTextureARB
; Line 1485
	mov	edi, DWORD PTR __imp__glEnable@4
	push	3553					; 00000de1H
	call	edi
; Line 1486
	push	3042					; 00000be2H
	call	edi
; Line 1487
	push	771					; 00000303H
	push	770					; 00000302H
	call	DWORD PTR __imp__glBlendFunc@8
; Line 1488
	mov	esi, DWORD PTR __imp__glDisable@4
	push	3008					; 00000bc0H
	call	esi
; Line 1489
	cmp	DWORD PTR ?Contour@@3IA, 0		; Contour
	jne	SHORT $LN1@drawContou
; Line 1490
	call	?GenerateContourMap@@YAXXZ		; GenerateContourMap
$LN1@drawContou:
; Line 1491
	mov	eax, DWORD PTR ?Contour@@3IA		; Contour
	push	eax
	push	3553					; 00000de1H
	call	DWORD PTR __imp__glBindTexture@8
; Line 1493
	push	3168					; 00000c60H
	call	edi
; Line 1494
	push	9217					; 00002401H
	push	9472					; 00002500H
	push	8192					; 00002000H
	call	DWORD PTR __imp__glTexGeni@12
; Line 1495
	push	OFFSET ?CoordGen@@3PAMA			; CoordGen
	push	9473					; 00002501H
	push	8192					; 00002000H
	call	DWORD PTR __imp__glTexGenfv@12
; Line 1497
	mov	ecx, DWORD PTR [ebx+12652]
	mov	edx, DWORD PTR [ebx+12656]
	push	ecx
	push	5123					; 00001403H
	push	edx
	push	5
	call	DWORD PTR __imp__glDrawElements@16
; Line 1498
	push	3553					; 00000de1H
	call	esi
; Line 1499
	push	3168					; 00000c60H
	call	esi
	pop	edi
	pop	esi
$LN3@drawContou:
; Line 1500
	mov	ecx, DWORD PTR __$ArrayPad$[ebp]
	xor	ecx, ebp
	pop	ebx
	call	@__security_check_cookie@4
	mov	esp, ebp
	pop	ebp
	ret	0
?drawContour@MapChunk@@QAEXXZ ENDP			; MapChunk::drawContour
_TEXT	ENDS
PUBLIC	?drawNoDetail@MapChunk@@QAEXXZ			; MapChunk::drawNoDetail
EXTRN	__imp__glEnableClientState@4:PROC
EXTRN	__imp__glDisableClientState@4:PROC
; Function compile flags: /Ogtp
_TEXT	SEGMENT
?drawNoDetail@MapChunk@@QAEXXZ PROC			; MapChunk::drawNoDetail
; _this$ = ecx
; Line 1704
	push	esi
	push	edi
; Line 1705
	push	33985					; 000084c1H
	mov	edi, ecx
	call	DWORD PTR ?glActiveTextureARB@@3P6GXI@ZA ; glActiveTextureARB
; Line 1706
	mov	esi, DWORD PTR __imp__glDisable@4
	push	3553					; 00000de1H
	call	esi
; Line 1707
	push	33984					; 000084c0H
	call	DWORD PTR ?glActiveTextureARB@@3P6GXI@ZA ; glActiveTextureARB
; Line 1708
	push	3553					; 00000de1H
	call	esi
; Line 1709
	push	2896					; 00000b50H
	call	esi
; Line 1716
	mov	eax, DWORD PTR [edi+12636]
	push	eax
	push	34962					; 00008892H
	call	DWORD PTR ?glBindBufferARB@@3P6GXII@ZA	; glBindBufferARB
; Line 1717
	push	0
	push	0
	push	5126					; 00001406H
	push	3
	call	DWORD PTR __imp__glVertexPointer@16
; Line 1718
	push	32885					; 00008075H
	call	DWORD PTR __imp__glDisableClientState@4
; Line 1719
	mov	ecx, DWORD PTR ?gWorld@@3PAVWorld@@A	; gWorld
	mov	edx, DWORD PTR [ecx+20916]
	push	edx
	push	5123					; 00001403H
	push	158					; 0000009eH
	push	5
	call	DWORD PTR __imp__glDrawElements@16
; Line 1720
	push	32885					; 00008075H
	call	DWORD PTR __imp__glEnableClientState@4
; Line 1722
	sub	esp, 16					; 00000010H
	mov	DWORD PTR [esp+12], 1065353216		; 3f800000H
	mov	DWORD PTR [esp+8], 1065353216		; 3f800000H
	mov	DWORD PTR [esp+4], 1065353216		; 3f800000H
	mov	DWORD PTR [esp], 1065353216		; 3f800000H
	call	DWORD PTR __imp__glColor4f@16
; Line 1725
	mov	esi, DWORD PTR __imp__glEnable@4
	push	2896					; 00000b50H
	call	esi
; Line 1726
	push	33985					; 000084c1H
	call	DWORD PTR ?glActiveTextureARB@@3P6GXI@ZA ; glActiveTextureARB
; Line 1727
	push	3553					; 00000de1H
	call	esi
; Line 1728
	push	33984					; 000084c0H
	call	DWORD PTR ?glActiveTextureARB@@3P6GXI@ZA ; glActiveTextureARB
; Line 1729
	push	3553					; 00000de1H
	call	esi
	pop	edi
	pop	esi
; Line 1730
	ret	0
?drawNoDetail@MapChunk@@QAEXXZ ENDP			; MapChunk::drawNoDetail
_TEXT	ENDS
PUBLIC	?drawSelect@MapChunk@@UAEXXZ			; MapChunk::drawSelect
EXTRN	__imp__glPopName@0:PROC
EXTRN	__imp__glVertex3fv@4:PROC
EXTRN	?gLog@@YAXPADZZ:PROC				; gLog
EXTRN	__imp__glGetError@0:PROC
EXTRN	__imp__glPushName@4:PROC
EXTRN	?addNameMapChunk@@YAIPAVMapChunk@@@Z:PROC	; addNameMapChunk
; Function compile flags: /Ogtp
_TEXT	SEGMENT
$T103442 = -16						; size = 12
tv373 = -4						; size = 4
tv366 = -4						; size = 4
_mydist$ = -4						; size = 4
?drawSelect@MapChunk@@UAEXXZ PROC			; MapChunk::drawSelect
; _this$ = ecx
; Line 1733
	push	ebp
	mov	ebp, esp
	sub	esp, 16					; 00000010H
	push	esi
	mov	esi, ecx
; Line 1736
	lea	eax, DWORD PTR [esi+28]
	push	eax
	lea	ecx, DWORD PTR [esi+16]
	push	ecx
	mov	ecx, DWORD PTR ?gWorld@@3PAVWorld@@A	; gWorld
	add	ecx, 20952				; 000051d8H
	call	?intersects@Frustum@@QBE_NABVVec3D@@0@Z	; Frustum::intersects
	test	al, al
	je	$LN12@drawSelect
; Line 1738
	push	edi
	mov	edi, DWORD PTR ?gWorld@@3PAVWorld@@A	; gWorld
	fld	DWORD PTR [edi+20928]
	fsub	DWORD PTR [esi+40]
	fstp	DWORD PTR $T103442[ebp]
	fld	DWORD PTR [edi+20932]
	fsub	DWORD PTR [esi+44]
	fstp	DWORD PTR $T103442[ebp+4]
	fld	DWORD PTR [edi+20936]
	fsub	DWORD PTR [esi+48]
	fstp	DWORD PTR $T103442[ebp+8]
	fld	DWORD PTR $T103442[ebp+4]
	fld	DWORD PTR $T103442[ebp]
	fld	DWORD PTR $T103442[ebp+8]
	fld	ST(1)
	fmulp	ST(2), ST(0)
	fld	ST(2)
	fmulp	ST(3), ST(0)
	fxch	ST(1)
	faddp	ST(2), ST(0)
	fmul	ST(0), ST(0)
	faddp	ST(1), ST(0)
	fstp	DWORD PTR tv373[ebp]
	fld	DWORD PTR tv373[ebp]
	call	__CIsqrt
	fstp	DWORD PTR tv366[ebp]
	fld	DWORD PTR tv366[ebp]
	fsub	DWORD PTR [esi+220]
	fstp	DWORD PTR _mydist$[ebp]
; Line 1740
	fld	DWORD PTR _mydist$[ebp]
	fld	DWORD PTR [edi+20860]
	fcompp
	fnstsw	ax
	test	ah, 5
	jnp	$LN29@drawSelect
; Line 1743
	cmp	DWORD PTR [esi+224], -1
	jne	SHORT $LN9@drawSelect
; Line 1744
	push	esi
	call	?addNameMapChunk@@YAIPAVMapChunk@@@Z	; addNameMapChunk
	add	esp, 4
	mov	DWORD PTR [esi+224], eax
$LN9@drawSelect:
; Line 1745
	mov	edx, DWORD PTR [esi+224]
	push	edx
	call	DWORD PTR __imp__glPushName@4
; Line 1746
	call	DWORD PTR __imp__glGetError@0
; Line 1747
	test	eax, eax
	je	SHORT $LN8@drawSelect
; Line 1748
	push	eax
	push	OFFSET $SG83415
	call	?gLog@@YAXPADZZ				; gLog
	add	esp, 8
$LN8@drawSelect:
; Line 1750
	cmp	BYTE PTR [esi+238], 0
	jne	SHORT $LN4@drawSelect
; Line 1752
	mov	ecx, DWORD PTR ?gWorld@@3PAVWorld@@A	; gWorld
; Line 1753
	cmp	BYTE PTR [ecx+20904], 0
	je	SHORT $LN5@drawSelect
; Line 1755
	fld	DWORD PTR _mydist$[ebp]
	fld	DWORD PTR [ecx+20856]
	fcompp
	fnstsw	ax
	test	ah, 65					; 00000041H
; Line 1757
	jne	SHORT $LN5@drawSelect
; Line 1759
	mov	eax, DWORD PTR [ecx+20920]
	mov	DWORD PTR [esi+12652], eax
; Line 1760
	mov	DWORD PTR [esi+12656], 318		; 0000013eH
; Line 1761
	jmp	SHORT $LN4@drawSelect
$LN5@drawSelect:
; Line 1762
	mov	ecx, DWORD PTR [ecx+20916]
	mov	DWORD PTR [esi+12652], ecx
; Line 1763
	mov	DWORD PTR [esi+12656], 158		; 0000009eH
$LN4@drawSelect:
; Line 1768
	push	5
	call	DWORD PTR __imp__glBegin@4
; Line 1769
	xor	edi, edi
	cmp	DWORD PTR [esi+12656], edi
	jle	SHORT $LN1@drawSelect
	push	ebx
	mov	ebx, DWORD PTR __imp__glVertex3fv@4
	npad	4
$LL3@drawSelect:
; Line 1770
	mov	edx, DWORD PTR [esi+12652]
	movsx	eax, WORD PTR [edx+edi*2]
	lea	eax, DWORD PTR [eax+eax*2]
	lea	ecx, DWORD PTR [esi+eax*4+14404]
	push	ecx
	call	ebx
	inc	edi
	cmp	edi, DWORD PTR [esi+12656]
	jl	SHORT $LL3@drawSelect
	pop	ebx
$LN1@drawSelect:
; Line 1771
	call	DWORD PTR __imp__glEnd@0
; Line 1773
	call	DWORD PTR __imp__glPopName@0
$LN29@drawSelect:
	pop	edi
$LN12@drawSelect:
	pop	esi
; Line 1774
	mov	esp, ebp
	pop	ebp
	ret	0
?drawSelect@MapChunk@@UAEXXZ ENDP			; MapChunk::drawSelect
_TEXT	ENDS
PUBLIC	?drawSelect2@MapChunk@@QAEXXZ			; MapChunk::drawSelect2
; Function compile flags: /Ogtp
_TEXT	SEGMENT
$T103481 = -16						; size = 12
tv481 = -4						; size = 4
tv474 = -4						; size = 4
_mydist$ = -4						; size = 4
?drawSelect2@MapChunk@@QAEXXZ PROC			; MapChunk::drawSelect2
; _this$ = ecx
; Line 1777
	push	ebp
	mov	ebp, esp
	sub	esp, 16					; 00000010H
	push	esi
	push	edi
; Line 1780
	mov	edi, DWORD PTR ?gWorld@@3PAVWorld@@A	; gWorld
	fld	DWORD PTR [edi+20928]
	mov	esi, ecx
	fsub	DWORD PTR [esi+40]
	fstp	DWORD PTR $T103481[ebp]
	fld	DWORD PTR [edi+20932]
	fsub	DWORD PTR [esi+44]
	fstp	DWORD PTR $T103481[ebp+4]
	fld	DWORD PTR [edi+20936]
	fsub	DWORD PTR [esi+48]
	fstp	DWORD PTR $T103481[ebp+8]
	fld	DWORD PTR $T103481[ebp+4]
	fld	DWORD PTR $T103481[ebp]
	fld	DWORD PTR $T103481[ebp+8]
	fld	ST(1)
	fmulp	ST(2), ST(0)
	fld	ST(2)
	fmulp	ST(3), ST(0)
	fxch	ST(1)
	faddp	ST(2), ST(0)
	fmul	ST(0), ST(0)
	faddp	ST(1), ST(0)
	fstp	DWORD PTR tv481[ebp]
	fld	DWORD PTR tv481[ebp]
	call	__CIsqrt
	fstp	DWORD PTR tv474[ebp]
	fld	DWORD PTR tv474[ebp]
	fsub	DWORD PTR [esi+220]
	fstp	DWORD PTR _mydist$[ebp]
; Line 1782
	fld	DWORD PTR _mydist$[ebp]
	fld	DWORD PTR [edi+20860]
	fcompp
	fnstsw	ax
	test	ah, 5
	jnp	$LN11@drawSelect@2
; Line 1785
	cmp	DWORD PTR [esi+224], -1
	jne	SHORT $LN9@drawSelect@2
; Line 1786
	push	esi
	call	?addNameMapChunk@@YAIPAVMapChunk@@@Z	; addNameMapChunk
	add	esp, 4
	mov	DWORD PTR [esi+224], eax
$LN9@drawSelect@2:
; Line 1787
	mov	eax, DWORD PTR [esi+224]
	push	eax
	call	DWORD PTR __imp__glPushName@4
; Line 1788
	call	DWORD PTR __imp__glGetError@0
; Line 1789
	test	eax, eax
	je	SHORT $LN8@drawSelect@2
; Line 1790
	push	eax
	push	OFFSET $SG83434
	call	?gLog@@YAXPADZZ				; gLog
	add	esp, 8
$LN8@drawSelect@2:
; Line 1792
	cmp	BYTE PTR [esi+238], 0
	jne	SHORT $LN4@drawSelect@2
; Line 1794
	mov	ecx, DWORD PTR ?gWorld@@3PAVWorld@@A	; gWorld
; Line 1795
	cmp	BYTE PTR [ecx+20904], 0
	je	SHORT $LN5@drawSelect@2
; Line 1797
	fld	DWORD PTR _mydist$[ebp]
	fld	DWORD PTR [ecx+20856]
	fcompp
	fnstsw	ax
	test	ah, 65					; 00000041H
; Line 1799
	jne	SHORT $LN5@drawSelect@2
; Line 1801
	mov	ecx, DWORD PTR [ecx+20920]
	mov	DWORD PTR [esi+12652], ecx
; Line 1802
	mov	DWORD PTR [esi+12656], 318		; 0000013eH
; Line 1804
	jmp	SHORT $LN4@drawSelect@2
$LN5@drawSelect@2:
; Line 1806
	mov	edx, DWORD PTR [ecx+20916]
	mov	DWORD PTR [esi+12652], edx
; Line 1807
	mov	DWORD PTR [esi+12656], 158		; 0000009eH
$LN4@drawSelect@2:
; Line 1811
	push	2884					; 00000b44H
	call	DWORD PTR __imp__glDisable@4
; Line 1812
	mov	eax, DWORD PTR [esi+12656]
	sub	eax, 2
	xor	edi, edi
	test	eax, eax
	jle	SHORT $LN1@drawSelect@2
	push	ebx
	mov	ebx, DWORD PTR __imp__glVertex3fv@4
$LL3@drawSelect@2:
; Line 1814
	push	edi
	call	DWORD PTR __imp__glPushName@4
; Line 1815
	push	4
	call	DWORD PTR __imp__glBegin@4
; Line 1816
	mov	ecx, DWORD PTR [esi+12652]
	movsx	eax, WORD PTR [ecx+edi*2]
	lea	edx, DWORD PTR [eax+eax*2]
	lea	eax, DWORD PTR [esi+edx*4+14404]
	push	eax
	call	ebx
; Line 1817
	mov	ecx, DWORD PTR [esi+12652]
	movsx	eax, WORD PTR [ecx+edi*2+2]
	lea	edx, DWORD PTR [eax+eax*2]
	lea	eax, DWORD PTR [esi+edx*4+14404]
	push	eax
	call	ebx
; Line 1818
	mov	ecx, DWORD PTR [esi+12652]
	movsx	eax, WORD PTR [ecx+edi*2+4]
	lea	edx, DWORD PTR [eax+eax*2]
	lea	eax, DWORD PTR [esi+edx*4+14404]
	push	eax
	call	ebx
; Line 1819
	call	DWORD PTR __imp__glEnd@0
; Line 1820
	call	DWORD PTR __imp__glPopName@0
	mov	ecx, DWORD PTR [esi+12656]
	inc	edi
	sub	ecx, 2
	cmp	edi, ecx
	jl	SHORT $LL3@drawSelect@2
	pop	ebx
$LN1@drawSelect@2:
; Line 1822
	push	2884					; 00000b44H
	call	DWORD PTR __imp__glEnable@4
; Line 1824
	call	DWORD PTR __imp__glPopName@0
$LN11@drawSelect@2:
	pop	edi
	pop	esi
; Line 1825
	mov	esp, ebp
	pop	ebp
	ret	0
?drawSelect2@MapChunk@@QAEXXZ ENDP			; MapChunk::drawSelect2
_TEXT	ENDS
PUBLIC	__real@4008000000000000
PUBLIC	?getSelectionCoord@MapChunk@@QAEXPAM0@Z		; MapChunk::getSelectionCoord
;	COMDAT __real@4008000000000000
; File c:\programovani\wow editor\test\src\editor\world.h
CONST	SEGMENT
__real@4008000000000000 DQ 04008000000000000r	; 3
; Function compile flags: /Ogtp
CONST	ENDS
_TEXT	SEGMENT
_x$ = 8							; size = 4
_z$ = 12						; size = 4
?getSelectionCoord@MapChunk@@QAEXPAM0@Z PROC		; MapChunk::getSelectionCoord
; _this$ = ecx
; File c:\programovani\wow editor\test\src\editor\maptile.cpp
; Line 1828
	push	ebp
	mov	ebp, esp
; Line 1830
	mov	edx, DWORD PTR [ecx+12652]
	mov	eax, DWORD PTR ?gWorld@@3PAVWorld@@A	; gWorld
	mov	eax, DWORD PTR [eax+21248]
	push	esi
	movsx	esi, WORD PTR [edx+eax*2+2]
	lea	esi, DWORD PTR [esi+esi*2]
	fld	DWORD PTR [ecx+esi*4+14404]
	movsx	esi, WORD PTR [edx+eax*2]
	lea	esi, DWORD PTR [esi+esi*2]
	fadd	DWORD PTR [ecx+esi*4+14404]
	movsx	esi, WORD PTR [edx+eax*2+4]
	lea	esi, DWORD PTR [esi+esi*2]
	fadd	DWORD PTR [ecx+esi*4+14404]
	mov	esi, DWORD PTR _x$[ebp]
	fld	QWORD PTR __real@4008000000000000
	fdiv	ST(1), ST(0)
	fxch	ST(1)
	fstp	DWORD PTR [esi]
; Line 1831
	movsx	esi, WORD PTR [edx+eax*2]
	lea	esi, DWORD PTR [esi+esi*2+3603]
	fld	DWORD PTR [ecx+esi*4]
	movsx	esi, WORD PTR [edx+eax*2+2]
	movsx	eax, WORD PTR [edx+eax*2+4]
	lea	esi, DWORD PTR [esi+esi*2+3603]
	lea	edx, DWORD PTR [eax+eax*2+3603]
	mov	eax, DWORD PTR _z$[ebp]
	fadd	DWORD PTR [ecx+esi*4]
	pop	esi
	fadd	DWORD PTR [ecx+edx*4]
	fdivrp	ST(1), ST(0)
	fstp	DWORD PTR [eax]
; Line 1832
	pop	ebp
	ret	8
?getSelectionCoord@MapChunk@@QAEXPAM0@Z ENDP		; MapChunk::getSelectionCoord
_TEXT	ENDS
PUBLIC	?getSelectionHeight@MapChunk@@QAEMXZ		; MapChunk::getSelectionHeight
; Function compile flags: /Ogtp
_TEXT	SEGMENT
tv173 = -4						; size = 4
?getSelectionHeight@MapChunk@@QAEMXZ PROC		; MapChunk::getSelectionHeight
; _this$ = ecx
; Line 1835
	push	ebp
	mov	ebp, esp
	push	ecx
; Line 1837
	mov	edx, DWORD PTR [ecx+12652]
	mov	eax, DWORD PTR ?gWorld@@3PAVWorld@@A	; gWorld
	mov	eax, DWORD PTR [eax+21248]
	push	esi
	movsx	esi, WORD PTR [edx+eax*2+2]
	lea	esi, DWORD PTR [esi+esi*2]
	fld	DWORD PTR [ecx+esi*4+14408]
	movsx	esi, WORD PTR [edx+eax*2]
	movsx	eax, WORD PTR [edx+eax*2+4]
	lea	esi, DWORD PTR [esi+esi*2]
	lea	edx, DWORD PTR [eax+eax*2]
	fadd	DWORD PTR [ecx+esi*4+14408]
	pop	esi
	fadd	DWORD PTR [ecx+edx*4+14408]
	fdiv	QWORD PTR __real@4008000000000000
	fstp	DWORD PTR tv173[ebp]
	fld	DWORD PTR tv173[ebp]
; Line 1838
	mov	esp, ebp
	pop	ebp
	ret	0
?getSelectionHeight@MapChunk@@QAEMXZ ENDP		; MapChunk::getSelectionHeight
_TEXT	ENDS
PUBLIC	?recalcNorms@MapChunk@@QAEXXZ			; MapChunk::recalcNorms
EXTRN	?glBufferDataARB@@3P6GXIHPBXI@ZA:DWORD		; glBufferDataARB
EXTRN	?GetVertex@World@@QAE_NMMPAVVec3D@@@Z:PROC	; World::GetVertex
; Function compile flags: /Ogtp
_TEXT	SEGMENT
_Norm$ = -256						; size = 12
$T103537 = -244						; size = 12
$T103542 = -232						; size = 12
$T103531 = -220						; size = 12
$T103544 = -208						; size = 12
$T103534 = -196						; size = 12
$T103539 = -184						; size = 12
$T103541 = -172						; size = 12
$T103543 = -160						; size = 12
$T103538 = -148						; size = 12
$T103533 = -136						; size = 12
_this$ = -124						; size = 4
$T103536 = -120						; size = 12
$T103532 = -108						; size = 12
$T103540 = -96						; size = 12
$T103535 = -84						; size = 12
$T103545 = -72						; size = 12
tv1747 = -60						; size = 4
_P2$ = -56						; size = 12
_P4$ = -44						; size = 12
_P3$ = -32						; size = 12
_P1$ = -20						; size = 12
tv4762 = -8						; size = 4
tv4755 = -8						; size = 4
tv3797 = -8						; size = 4
tv3783 = -8						; size = 4
tv3599 = -8						; size = 4
tv3585 = -8						; size = 4
tv3571 = -8						; size = 4
$T103799 = -8						; size = 4
tv4917 = -4						; size = 4
tv4868 = -4						; size = 4
tv4858 = -4						; size = 4
tv4857 = -4						; size = 4
tv4847 = -4						; size = 4
tv4846 = -4						; size = 4
tv4836 = -4						; size = 4
tv4835 = -4						; size = 4
tv3802 = -4						; size = 4
tv3788 = -4						; size = 4
tv3774 = -4						; size = 4
tv3769 = -4						; size = 4
tv3764 = -4						; size = 4
tv3757 = -4						; size = 4
tv3561 = -4						; size = 4
_ShadowAmount$ = -4					; size = 4
?recalcNorms@MapChunk@@QAEXXZ PROC			; MapChunk::recalcNorms
; _this$ = ecx
; Line 1841
	push	ebp
	mov	ebp, esp
	sub	esp, 256				; 00000100H
; Line 1842
	xor	eax, eax
	mov	DWORD PTR _this$[ebp], ecx
	mov	DWORD PTR _P1$[ebp], eax
	mov	DWORD PTR _P1$[ebp+4], eax
	mov	DWORD PTR _P1$[ebp+8], eax
	mov	DWORD PTR _P2$[ebp], eax
	mov	DWORD PTR _P2$[ebp+4], eax
	mov	DWORD PTR _P2$[ebp+8], eax
	mov	DWORD PTR _P3$[ebp], eax
	mov	DWORD PTR _P3$[ebp+4], eax
	mov	DWORD PTR _P3$[ebp+8], eax
	mov	DWORD PTR _P4$[ebp], eax
	mov	DWORD PTR _P4$[ebp+4], eax
	mov	DWORD PTR _P4$[ebp+8], eax
; Line 1845
	cmp	BYTE PTR [ecx+200], al
	je	$LN14@recalcNorm
; Line 1847
	push	ebx
	push	esi
	push	edi
	mov	BYTE PTR [ecx+200], al
	lea	esi, DWORD PTR [ecx+14412]
	mov	DWORD PTR tv1747[ebp], 145		; 00000091H
	npad	12
$LL131@recalcNorm:
	fld	QWORD PTR __real@4000aaaaa0000000
; Line 1851
	mov	ecx, DWORD PTR ?gWorld@@3PAVWorld@@A	; gWorld
	fld	DWORD PTR [esi]
	lea	eax, DWORD PTR _P1$[ebp]
	fsub	ST(0), ST(1)
	push	eax
	sub	esp, 8
	fstp	DWORD PTR tv4917[ebp]
	fld	DWORD PTR tv4917[ebp]
	fstp	DWORD PTR [esp+4]
	fsubr	DWORD PTR [esi-8]
	fstp	DWORD PTR tv4868[ebp]
	fld	DWORD PTR tv4868[ebp]
	fstp	DWORD PTR [esp]
	call	?GetVertex@World@@QAE_NMMPAVVec3D@@@Z	; World::GetVertex
	test	al, al
	jne	SHORT $LN132@recalcNorm
; Line 1853
	fld	DWORD PTR [esi-8]
; Line 1854
	mov	ecx, DWORD PTR [esi-4]
	fld	QWORD PTR __real@4000aaaaa0000000
	mov	DWORD PTR _P1$[ebp+4], ecx
	fsub	ST(1), ST(0)
	fxch	ST(1)
	fstp	DWORD PTR _P1$[ebp]
; Line 1855
	fld	DWORD PTR [esi]
	fsub	ST(0), ST(1)
	fstp	DWORD PTR _P1$[ebp+8]
	jmp	SHORT $LN9@recalcNorm
$LN132@recalcNorm:
	fld	QWORD PTR __real@4000aaaaa0000000
$LN9@recalcNorm:
; Line 1858
	fld	DWORD PTR [esi]
	mov	ecx, DWORD PTR ?gWorld@@3PAVWorld@@A	; gWorld
	fsub	ST(0), ST(1)
	lea	edx, DWORD PTR _P2$[ebp]
	push	edx
	sub	esp, 8
	fstp	DWORD PTR tv4858[ebp]
	fld	DWORD PTR tv4858[ebp]
	fstp	DWORD PTR [esp+4]
	fadd	DWORD PTR [esi-8]
	fstp	DWORD PTR tv4857[ebp]
	fld	DWORD PTR tv4857[ebp]
	fstp	DWORD PTR [esp]
	call	?GetVertex@World@@QAE_NMMPAVVec3D@@@Z	; World::GetVertex
	test	al, al
	jne	SHORT $LN133@recalcNorm
; Line 1860
	fld	DWORD PTR [esi-8]
; Line 1861
	mov	eax, DWORD PTR [esi-4]
	fld	QWORD PTR __real@4000aaaaa0000000
	mov	DWORD PTR _P2$[ebp+4], eax
	fadd	ST(1), ST(0)
	fxch	ST(1)
	fstp	DWORD PTR _P2$[ebp]
; Line 1862
	fld	DWORD PTR [esi]
	fsub	ST(0), ST(1)
	fstp	DWORD PTR _P2$[ebp+8]
	jmp	SHORT $LN8@recalcNorm
$LN133@recalcNorm:
	fld	QWORD PTR __real@4000aaaaa0000000
$LN8@recalcNorm:
; Line 1865
	fld	DWORD PTR [esi]
	lea	ecx, DWORD PTR _P3$[ebp]
	fadd	ST(0), ST(1)
	push	ecx
	mov	ecx, DWORD PTR ?gWorld@@3PAVWorld@@A	; gWorld
	sub	esp, 8
	fstp	DWORD PTR tv4847[ebp]
	fld	DWORD PTR tv4847[ebp]
	fstp	DWORD PTR [esp+4]
	fadd	DWORD PTR [esi-8]
	fstp	DWORD PTR tv4846[ebp]
	fld	DWORD PTR tv4846[ebp]
	fstp	DWORD PTR [esp]
	call	?GetVertex@World@@QAE_NMMPAVVec3D@@@Z	; World::GetVertex
	test	al, al
	jne	SHORT $LN134@recalcNorm
; Line 1867
	fld	DWORD PTR [esi-8]
; Line 1868
	mov	edx, DWORD PTR [esi-4]
	fld	QWORD PTR __real@4000aaaaa0000000
	mov	DWORD PTR _P3$[ebp+4], edx
	fadd	ST(1), ST(0)
	fxch	ST(1)
	fstp	DWORD PTR _P3$[ebp]
; Line 1869
	fld	DWORD PTR [esi]
	fadd	ST(0), ST(1)
	fstp	DWORD PTR _P3$[ebp+8]
	jmp	SHORT $LN7@recalcNorm
$LN134@recalcNorm:
	fld	QWORD PTR __real@4000aaaaa0000000
$LN7@recalcNorm:
; Line 1872
	fld	DWORD PTR [esi]
	mov	ecx, DWORD PTR ?gWorld@@3PAVWorld@@A	; gWorld
	fadd	ST(0), ST(1)
	lea	eax, DWORD PTR _P4$[ebp]
	push	eax
	sub	esp, 8
	fstp	DWORD PTR tv4836[ebp]
	fld	DWORD PTR tv4836[ebp]
	fstp	DWORD PTR [esp+4]
	fsubr	DWORD PTR [esi-8]
	fstp	DWORD PTR tv4835[ebp]
	fld	DWORD PTR tv4835[ebp]
	fstp	DWORD PTR [esp]
	call	?GetVertex@World@@QAE_NMMPAVVec3D@@@Z	; World::GetVertex
	test	al, al
	jne	SHORT $LN6@recalcNorm
; Line 1874
	fld	DWORD PTR [esi-8]
; Line 1875
	mov	ecx, DWORD PTR [esi-4]
	fld	QWORD PTR __real@4000aaaaa0000000
	mov	DWORD PTR _P4$[ebp+4], ecx
	fsub	ST(1), ST(0)
	fxch	ST(1)
	fstp	DWORD PTR _P4$[ebp]
; Line 1876
	fadd	DWORD PTR [esi]
	fstp	DWORD PTR _P4$[ebp+8]
$LN6@recalcNorm:
; Line 1879
	fld	DWORD PTR _P1$[ebp]
	fsub	DWORD PTR [esi-8]
	fstp	DWORD PTR tv3757[ebp]
	mov	eax, DWORD PTR tv3757[ebp]
	fld	DWORD PTR _P1$[ebp+4]
	fsub	DWORD PTR [esi-4]
	mov	DWORD PTR $T103532[ebp], eax
	fstp	DWORD PTR tv3764[ebp]
	fld	DWORD PTR _P1$[ebp+8]
	mov	ecx, DWORD PTR tv3764[ebp]
	fsub	DWORD PTR [esi]
	mov	DWORD PTR $T103532[ebp+4], ecx
	fstp	DWORD PTR tv3561[ebp]
	fld	DWORD PTR _P2$[ebp]
	mov	edx, DWORD PTR tv3561[ebp]
	fsub	DWORD PTR [esi-8]
	mov	DWORD PTR $T103532[ebp+8], edx
	fstp	DWORD PTR tv3769[ebp]
	fld	DWORD PTR _P2$[ebp+4]
	mov	edi, DWORD PTR tv3769[ebp]
	fsub	DWORD PTR [esi-4]
	mov	DWORD PTR $T103531[ebp], edi
; Line 1880
	mov	DWORD PTR $T103535[ebp], edi
	fstp	DWORD PTR tv3774[ebp]
	fld	DWORD PTR _P2$[ebp+8]
	mov	ebx, DWORD PTR tv3774[ebp]
	fsub	DWORD PTR [esi]
	mov	DWORD PTR $T103531[ebp+4], ebx
	mov	edi, DWORD PTR tv3774[ebp]
	mov	DWORD PTR $T103535[ebp+4], edi
	fstp	DWORD PTR tv3571[ebp]
	mov	ebx, DWORD PTR tv3571[ebp]
	fld	DWORD PTR $T103531[ebp+4]
	fld	ST(0)
	mov	DWORD PTR $T103531[ebp+8], ebx
	fld	DWORD PTR $T103532[ebp+8]
	mov	DWORD PTR $T103535[ebp+8], ebx
	fld	ST(0)
	fmulp	ST(2), ST(0)
	fld	DWORD PTR $T103531[ebp+8]
	fld	ST(0)
	fld	DWORD PTR $T103532[ebp+4]
	fld	ST(0)
	fmulp	ST(2), ST(0)
	fxch	ST(4)
	fsubrp	ST(1), ST(0)
	fstp	DWORD PTR $T103533[ebp]
	fld	DWORD PTR $T103532[ebp]
	fld	ST(0)
	fmulp	ST(2), ST(0)
	fld	DWORD PTR $T103531[ebp]
	fld	ST(0)
	fmulp	ST(4), ST(0)
	fxch	ST(2)
	fsubrp	ST(3), ST(0)
	fxch	ST(2)
	fstp	DWORD PTR $T103533[ebp+4]
	fmulp	ST(2), ST(0)
	fmulp	ST(2), ST(0)
	fsubrp	ST(1), ST(0)
	fstp	DWORD PTR $T103533[ebp+8]
	fld	DWORD PTR _P3$[ebp]
	fsub	DWORD PTR [esi-8]
	fstp	DWORD PTR tv3783[ebp]
	fld	DWORD PTR _P3$[ebp+4]
	mov	edi, DWORD PTR tv3783[ebp]
	fsub	DWORD PTR [esi-4]
	mov	DWORD PTR $T103534[ebp], edi
	fstp	DWORD PTR tv3788[ebp]
	fld	DWORD PTR _P3$[ebp+8]
	mov	ebx, DWORD PTR tv3788[ebp]
	fsub	DWORD PTR [esi]
	mov	DWORD PTR $T103534[ebp+4], ebx
	fstp	DWORD PTR tv3585[ebp]
	fld	DWORD PTR $T103534[ebp+4]
	mov	ebx, DWORD PTR tv3585[ebp]
	fld	ST(0)
	mov	DWORD PTR $T103534[ebp+8], ebx
	fld	DWORD PTR $T103535[ebp+8]
	fld	ST(0)
	fmulp	ST(2), ST(0)
	fld	DWORD PTR $T103534[ebp+8]
; Line 1881
	mov	DWORD PTR $T103538[ebp], edi
	fld	ST(0)
	mov	edi, DWORD PTR tv3788[ebp]
	fld	DWORD PTR $T103535[ebp+4]
	mov	DWORD PTR $T103538[ebp+8], ebx
	fld	ST(0)
	mov	DWORD PTR $T103538[ebp+4], edi
	fmulp	ST(2), ST(0)
; Line 1882
	mov	DWORD PTR $T103540[ebp+4], ecx
	fxch	ST(4)
	mov	DWORD PTR $T103540[ebp+8], edx
	mov	DWORD PTR $T103540[ebp], eax
	fsubrp	ST(1), ST(0)
	fstp	DWORD PTR $T103536[ebp]
	fld	DWORD PTR $T103535[ebp]
	fld	ST(0)
	fmulp	ST(2), ST(0)
	fld	DWORD PTR $T103534[ebp]
	fld	ST(0)
	fmulp	ST(4), ST(0)
	fxch	ST(2)
	fsubrp	ST(3), ST(0)
	fxch	ST(2)
	fstp	DWORD PTR $T103536[ebp+4]
	fmulp	ST(2), ST(0)
	fmulp	ST(2), ST(0)
	fsubrp	ST(1), ST(0)
	fstp	DWORD PTR $T103536[ebp+8]
	fld	DWORD PTR _P4$[ebp]
	fsub	DWORD PTR [esi-8]
	fstp	DWORD PTR tv3797[ebp]
	fld	DWORD PTR _P4$[ebp+4]
	mov	edi, DWORD PTR tv3797[ebp]
	fsub	DWORD PTR [esi-4]
	mov	DWORD PTR $T103537[ebp], edi
	mov	DWORD PTR $T103541[ebp], edi
	fstp	DWORD PTR tv3802[ebp]
	fld	DWORD PTR _P4$[ebp+8]
	mov	ebx, DWORD PTR tv3802[ebp]
	fsub	DWORD PTR [esi]
	mov	DWORD PTR $T103537[ebp+4], ebx
	mov	edi, DWORD PTR tv3802[ebp]
	mov	DWORD PTR $T103541[ebp+4], edi
	fstp	DWORD PTR tv3599[ebp]
	fld	DWORD PTR $T103537[ebp+4]
	mov	ebx, DWORD PTR tv3599[ebp]
	fld	ST(0)
	mov	DWORD PTR $T103537[ebp+8], ebx
	fld	DWORD PTR $T103538[ebp+8]
	mov	DWORD PTR $T103541[ebp+8], ebx
	fld	ST(0)
	fmulp	ST(2), ST(0)
	fld	DWORD PTR $T103537[ebp+8]
	fld	ST(0)
	fld	DWORD PTR $T103538[ebp+4]
	fld	ST(0)
	fmulp	ST(2), ST(0)
	fxch	ST(4)
	fsubrp	ST(1), ST(0)
	fstp	DWORD PTR $T103539[ebp]
	fld	DWORD PTR $T103538[ebp]
	fld	ST(0)
	fmulp	ST(2), ST(0)
	fld	DWORD PTR $T103537[ebp]
	fld	ST(0)
	fmulp	ST(4), ST(0)
	fxch	ST(2)
	fsubrp	ST(3), ST(0)
	fxch	ST(2)
	fstp	DWORD PTR $T103539[ebp+4]
	fmulp	ST(2), ST(0)
	fmulp	ST(2), ST(0)
	fsubrp	ST(1), ST(0)
	fstp	DWORD PTR $T103539[ebp+8]
	fld	DWORD PTR $T103540[ebp+4]
	fld	ST(0)
	fld	DWORD PTR $T103541[ebp+8]
	fld	ST(0)
	fmulp	ST(2), ST(0)
	fld	DWORD PTR $T103540[ebp+8]
	fld	ST(0)
	fld	DWORD PTR $T103541[ebp+4]
	fld	ST(0)
	fmulp	ST(2), ST(0)
	fxch	ST(4)
	fsubrp	ST(1), ST(0)
	fstp	DWORD PTR $T103542[ebp]
	fld	DWORD PTR $T103541[ebp]
	fld	ST(0)
	fmulp	ST(2), ST(0)
	fld	DWORD PTR $T103540[ebp]
	fld	ST(0)
	fmulp	ST(4), ST(0)
	fxch	ST(2)
	fsubrp	ST(3), ST(0)
	fxch	ST(2)
	fstp	DWORD PTR $T103542[ebp+4]
	fmulp	ST(2), ST(0)
	fmulp	ST(2), ST(0)
	fsubrp	ST(1), ST(0)
	fstp	DWORD PTR $T103542[ebp+8]
; Line 1884
	fld	DWORD PTR $T103536[ebp]
	fadd	DWORD PTR $T103533[ebp]
	fstp	DWORD PTR $T103543[ebp]
	fld	DWORD PTR $T103536[ebp+4]
	fadd	DWORD PTR $T103533[ebp+4]
	fstp	DWORD PTR $T103543[ebp+4]
	fld	DWORD PTR $T103536[ebp+8]
	fadd	DWORD PTR $T103533[ebp+8]
	fstp	DWORD PTR $T103543[ebp+8]
	fld	DWORD PTR $T103543[ebp]
	fadd	DWORD PTR $T103539[ebp]
	fstp	DWORD PTR $T103544[ebp]
	fld	DWORD PTR $T103543[ebp+4]
	fadd	DWORD PTR $T103539[ebp+4]
	fstp	DWORD PTR $T103544[ebp+4]
	fld	DWORD PTR $T103543[ebp+8]
	fadd	DWORD PTR $T103539[ebp+8]
	fstp	DWORD PTR $T103544[ebp+8]
	fld	DWORD PTR $T103544[ebp]
	fadd	DWORD PTR $T103542[ebp]
	fstp	DWORD PTR $T103545[ebp]
	fld	DWORD PTR $T103544[ebp+4]
	fadd	DWORD PTR $T103542[ebp+4]
	fstp	DWORD PTR $T103545[ebp+4]
	fld	DWORD PTR $T103544[ebp+8]
	fadd	DWORD PTR $T103542[ebp+8]
	fstp	DWORD PTR $T103545[ebp+8]
; Line 1885
	fld	DWORD PTR $T103545[ebp]
	fld	DWORD PTR $T103545[ebp+4]
	fld	DWORD PTR $T103545[ebp+8]
	fld	ST(1)
	fmulp	ST(2), ST(0)
	fld	ST(2)
	fmulp	ST(3), ST(0)
	fxch	ST(1)
	faddp	ST(2), ST(0)
	fmul	ST(0), ST(0)
	faddp	ST(1), ST(0)
	fstp	DWORD PTR tv4762[ebp]
	fld	DWORD PTR tv4762[ebp]
	call	__CIsqrt
	fstp	DWORD PTR tv4755[ebp]
	fld	DWORD PTR tv4755[ebp]
	fld1
	fdivrp	ST(1), ST(0)
	fstp	DWORD PTR $T103799[ebp]
	fld	DWORD PTR $T103545[ebp]
	fld	DWORD PTR $T103799[ebp]
	fld	ST(0)
	fmulp	ST(2), ST(0)
	fxch	ST(1)
	fstp	DWORD PTR _Norm$[ebp]
	fld	DWORD PTR $T103545[ebp+4]
; Line 1886
	mov	edx, DWORD PTR _Norm$[ebp]
	fmul	ST(0), ST(1)
	mov	DWORD PTR [esi-1748], edx
	fstp	DWORD PTR _Norm$[ebp+4]
	mov	eax, DWORD PTR _Norm$[ebp+4]
	fmul	DWORD PTR $T103545[ebp+8]
	fstp	DWORD PTR _Norm$[ebp+8]
	mov	ecx, DWORD PTR _Norm$[ebp+8]
	mov	DWORD PTR [esi-1744], eax
	mov	DWORD PTR [esi-1740], ecx
	add	esi, 12					; 0000000cH
	dec	DWORD PTR tv1747[ebp]
	jne	$LL131@recalcNorm
; Line 1888
	mov	edi, DWORD PTR _this$[ebp]
	mov	edx, DWORD PTR [edi+12640]
	push	edx
	push	34962					; 00008892H
	call	DWORD PTR ?glBindBufferARB@@3P6GXII@ZA	; glBindBufferARB
; Line 1889
	push	35044					; 000088e4H
	lea	esi, DWORD PTR [edi+12664]
	push	esi
	push	1740					; 000006ccH
	push	34962					; 00008892H
	call	DWORD PTR ?glBufferDataARB@@3P6GXIHPBXI@ZA ; glBufferDataARB
	fldz
	fld	QWORD PTR __real@3fe0000000000000
	mov	edx, esi
	fld1
	lea	ecx, DWORD PTR [edi+17888]
	mov	ebx, 29					; 0000001dH
	xor	esi, esi
$LN5@recalcNorm:
; Line 1895
	fld	DWORD PTR [edx+4]
	fsub	DWORD PTR [edx]
	fsub	DWORD PTR [edx+8]
	fsubr	ST(0), ST(1)
	fstp	DWORD PTR _ShadowAmount$[ebp]
; Line 1896
	fld	DWORD PTR _ShadowAmount$[ebp]
	fcom	ST(3)
	fnstsw	ax
	test	ah, 5
	jp	SHORT $LN2@recalcNorm
	fstp	ST(0)
; Line 1897
	mov	DWORD PTR _ShadowAmount$[ebp], esi
; Line 1898
	jmp	SHORT $LN1@recalcNorm
$LN2@recalcNorm:
	fld1
	fcompp
	fnstsw	ax
	test	ah, 5
	jp	SHORT $LN1@recalcNorm
; Line 1899
	mov	DWORD PTR _ShadowAmount$[ebp], 1065353216 ; 3f800000H
$LN1@recalcNorm:
; Line 1905
	fld	DWORD PTR _ShadowAmount$[ebp]
	mov	DWORD PTR [ecx-4], esi
	fmul	ST(0), ST(2)
	mov	DWORD PTR [ecx], esi
	mov	DWORD PTR [ecx+4], esi
	fstp	DWORD PTR [ecx+8]
	fld	DWORD PTR [edx+16]
	fsub	DWORD PTR [edx+12]
	fsub	DWORD PTR [edx+20]
	fsubr	ST(0), ST(1)
	fstp	DWORD PTR _ShadowAmount$[ebp]
	fld	DWORD PTR _ShadowAmount$[ebp]
	fcom	ST(3)
	fnstsw	ax
	test	ah, 5
	jp	SHORT $LN123@recalcNorm
; Line 1897
	fstp	ST(0)
	mov	DWORD PTR _ShadowAmount$[ebp], esi
; Line 1898
	jmp	SHORT $LN124@recalcNorm
$LN123@recalcNorm:
	fld1
	fcompp
	fnstsw	ax
	test	ah, 5
	jp	SHORT $LN124@recalcNorm
; Line 1899
	mov	DWORD PTR _ShadowAmount$[ebp], 1065353216 ; 3f800000H
$LN124@recalcNorm:
; Line 1905
	fld	DWORD PTR _ShadowAmount$[ebp]
	mov	DWORD PTR [ecx+12], esi
	fmul	ST(0), ST(2)
	mov	DWORD PTR [ecx+16], esi
	mov	DWORD PTR [ecx+20], esi
	fstp	DWORD PTR [ecx+24]
	fld	DWORD PTR [edx+28]
	fsub	DWORD PTR [edx+24]
	fsub	DWORD PTR [edx+32]
	fsubr	ST(0), ST(1)
	fstp	DWORD PTR _ShadowAmount$[ebp]
	fld	DWORD PTR _ShadowAmount$[ebp]
	fcom	ST(3)
	fnstsw	ax
	test	ah, 5
	jp	SHORT $LN125@recalcNorm
; Line 1897
	fstp	ST(0)
	mov	DWORD PTR _ShadowAmount$[ebp], esi
; Line 1898
	jmp	SHORT $LN126@recalcNorm
$LN125@recalcNorm:
	fld1
	fcompp
	fnstsw	ax
	test	ah, 5
	jp	SHORT $LN126@recalcNorm
; Line 1899
	mov	DWORD PTR _ShadowAmount$[ebp], 1065353216 ; 3f800000H
$LN126@recalcNorm:
; Line 1905
	fld	DWORD PTR _ShadowAmount$[ebp]
	mov	DWORD PTR [ecx+28], esi
	fmul	ST(0), ST(2)
	mov	DWORD PTR [ecx+32], esi
	mov	DWORD PTR [ecx+36], esi
	fstp	DWORD PTR [ecx+40]
	fld	DWORD PTR [edx+40]
	fsub	DWORD PTR [edx+36]
	fsub	DWORD PTR [edx+44]
	fsubr	ST(0), ST(1)
	fstp	DWORD PTR _ShadowAmount$[ebp]
	fld	DWORD PTR _ShadowAmount$[ebp]
	fcom	ST(3)
	fnstsw	ax
	test	ah, 5
	jp	SHORT $LN127@recalcNorm
; Line 1897
	fstp	ST(0)
	mov	DWORD PTR _ShadowAmount$[ebp], esi
; Line 1898
	jmp	SHORT $LN128@recalcNorm
$LN127@recalcNorm:
	fld1
	fcompp
	fnstsw	ax
	test	ah, 5
	jp	SHORT $LN128@recalcNorm
; Line 1899
	mov	DWORD PTR _ShadowAmount$[ebp], 1065353216 ; 3f800000H
$LN128@recalcNorm:
; Line 1905
	fld	DWORD PTR _ShadowAmount$[ebp]
	mov	DWORD PTR [ecx+44], esi
	fmul	ST(0), ST(2)
	mov	DWORD PTR [ecx+48], esi
	mov	DWORD PTR [ecx+52], esi
	fstp	DWORD PTR [ecx+56]
	fld	DWORD PTR [edx+52]
	fsub	DWORD PTR [edx+48]
	fsub	DWORD PTR [edx+56]
	fsubr	ST(0), ST(1)
	fstp	DWORD PTR _ShadowAmount$[ebp]
	fld	DWORD PTR _ShadowAmount$[ebp]
	fcom	ST(3)
	fnstsw	ax
	test	ah, 5
	jp	SHORT $LN129@recalcNorm
; Line 1897
	fstp	ST(0)
	mov	DWORD PTR _ShadowAmount$[ebp], esi
; Line 1898
	jmp	SHORT $LN130@recalcNorm
$LN129@recalcNorm:
	fld1
	fcompp
	fnstsw	ax
	test	ah, 5
	jp	SHORT $LN130@recalcNorm
; Line 1899
	mov	DWORD PTR _ShadowAmount$[ebp], 1065353216 ; 3f800000H
$LN130@recalcNorm:
; Line 1905
	fld	DWORD PTR _ShadowAmount$[ebp]
	mov	DWORD PTR [ecx+60], esi
	fmul	ST(0), ST(2)
	mov	DWORD PTR [ecx+64], esi
	mov	DWORD PTR [ecx+68], esi
	add	edx, 60					; 0000003cH
	fstp	DWORD PTR [ecx+72]
	add	ecx, 80					; 00000050H
	dec	ebx
	jne	$LN5@recalcNorm
; Line 1908
	mov	eax, DWORD PTR [edi+12648]
	fstp	ST(2)
	push	eax
	fstp	ST(1)
	push	34962					; 00008892H
	fstp	ST(0)
	call	DWORD PTR ?glBindBufferARB@@3P6GXII@ZA	; glBindBufferARB
; Line 1909
	push	35044					; 000088e4H
	add	edi, 17884				; 000045dcH
	push	edi
	push	2320					; 00000910H
	push	34962					; 00008892H
	call	DWORD PTR ?glBufferDataARB@@3P6GXIHPBXI@ZA ; glBufferDataARB
	pop	edi
	pop	esi
	pop	ebx
$LN14@recalcNorm:
; Line 1910
	mov	esp, ebp
	pop	ebp
	ret	0
?recalcNorms@MapChunk@@QAEXXZ ENDP			; MapChunk::recalcNorms
_TEXT	ENDS
PUBLIC	__real@404791fa556f33a0
PUBLIC	__real@4030aaaaa0000000
PUBLIC	?changeTerrain@MapChunk@@QAEXMMMMH@Z		; MapChunk::changeTerrain
;	COMDAT __real@404791fa556f33a0
; File c:\program files (x86)\microsoft visual studio 10.0\vc\include\math.h
CONST	SEGMENT
__real@404791fa556f33a0 DQ 0404791fa556f33a0r	; 47.1405
CONST	ENDS
;	COMDAT __real@4030aaaaa0000000
CONST	SEGMENT
__real@4030aaaaa0000000 DQ 04030aaaaa0000000r	; 16.6667
; Function compile flags: /Ogtp
CONST	ENDS
_TEXT	SEGMENT
tv631 = -12						; size = 4
tv625 = -12						; size = 4
tv172 = -12						; size = 4
_xdiff$ = -8						; size = 4
_zdiff$ = -4						; size = 4
_x$ = 8							; size = 4
_z$ = 12						; size = 4
_change$ = 16						; size = 4
_radius$ = 20						; size = 4
tv610 = 24						; size = 4
tv604 = 24						; size = 4
_dist$ = 24						; size = 4
_BrushType$ = 24					; size = 4
?changeTerrain@MapChunk@@QAEXMMMMH@Z PROC		; MapChunk::changeTerrain
; _this$ = ecx
; File c:\programovani\wow editor\test\src\editor\maptile.cpp
; Line 1913
	push	ebp
	mov	ebp, esp
	sub	esp, 12					; 0000000cH
	push	edi
	mov	edi, ecx
; Line 1918
	fld	DWORD PTR [edi+208]
	mov	BYTE PTR [edi+200], 0
	fsub	DWORD PTR _x$[ebp]
	fld	QWORD PTR __real@4030aaaaa0000000
	fadd	ST(1), ST(0)
	fxch	ST(1)
	fstp	DWORD PTR _xdiff$[ebp]
; Line 1919
	fld	DWORD PTR [edi+216]
	fsub	DWORD PTR _z$[ebp]
	faddp	ST(1), ST(0)
	fstp	DWORD PTR _zdiff$[ebp]
	fld	DWORD PTR _zdiff$[ebp]
; Line 1920
	fld	DWORD PTR _xdiff$[ebp]
	fmul	ST(0), ST(0)
	fld	ST(1)
	fmulp	ST(2), ST(0)
	faddp	ST(1), ST(0)
; Line 1922
	fstp	DWORD PTR tv631[ebp]
	fld	DWORD PTR tv631[ebp]
	call	__CIsqrt
	fstp	DWORD PTR tv625[ebp]
	fld	DWORD PTR tv625[ebp]
	fld	DWORD PTR _radius$[ebp]
	fadd	QWORD PTR __real@404791fa556f33a0
	fcompp
	fnstsw	ax
	test	ah, 5
	jnp	$LN1@changeTerr
; Line 1925
	push	ebx
	mov	ebx, DWORD PTR _BrushType$[ebp]
	push	esi
	mov	DWORD PTR [edi+20], 1259902591		; 4b18967fH
; Line 1926
	mov	DWORD PTR [edi+32], -887581057		; cb18967fH
	lea	esi, DWORD PTR [edi+14408]
	mov	DWORD PTR tv172[ebp], 145		; 00000091H
	npad	7
$LL12@changeTerr:
; Line 1930
	fld	DWORD PTR [esi-4]
	fsub	DWORD PTR _x$[ebp]
	fstp	DWORD PTR _xdiff$[ebp]
; Line 1931
	fld	DWORD PTR [esi+4]
	fsub	DWORD PTR _z$[ebp]
	fstp	DWORD PTR _zdiff$[ebp]
; Line 1933
	fld	DWORD PTR _zdiff$[ebp]
	fld	DWORD PTR _xdiff$[ebp]
	fmul	ST(0), ST(0)
	fld	ST(1)
	fmulp	ST(2), ST(0)
	faddp	ST(1), ST(0)
	fstp	DWORD PTR tv610[ebp]
	fld	DWORD PTR tv610[ebp]
	call	__CIsqrt
	fstp	DWORD PTR tv604[ebp]
	fld	DWORD PTR tv604[ebp]
	fstp	DWORD PTR _dist$[ebp]
; Line 1935
	fld	DWORD PTR _dist$[ebp]
	fld	DWORD PTR _radius$[ebp]
	fcom	ST(1)
	fnstsw	ax
	test	ah, 65					; 00000041H
	jne	SHORT $LN28@changeTerr
; Line 1937
	test	ebx, ebx
	jne	SHORT $LN8@changeTerr
	fstp	ST(1)
	fstp	ST(0)
; Line 1938
	fld	DWORD PTR [esi]
	fadd	DWORD PTR _change$[ebp]
	fstp	DWORD PTR [esi]
; Line 1943
	mov	BYTE PTR [edi+200], 1
	jmp	SHORT $LN26@changeTerr
$LN8@changeTerr:
; Line 1939
	cmp	ebx, 1
	jne	SHORT $LN6@changeTerr
; Line 1940
	fdivp	ST(1), ST(0)
	fld1
	fsubrp	ST(1), ST(0)
	fmul	DWORD PTR _change$[ebp]
	fadd	DWORD PTR [esi]
	fstp	DWORD PTR [esi]
; Line 1943
	mov	BYTE PTR [edi+200], bl
	jmp	SHORT $LN26@changeTerr
$LN6@changeTerr:
; Line 1941
	cmp	ebx, 2
	jne	SHORT $LN37@changeTerr
; Line 1942
	fld	DWORD PTR _change$[ebp]
	fxch	ST(2)
	fdivrp	ST(1), ST(0)
	fadd	QWORD PTR __real@3ff0000000000000
	fdivp	ST(1), ST(0)
	fadd	DWORD PTR [esi]
	fstp	DWORD PTR [esi]
; Line 1943
	mov	BYTE PTR [edi+200], 1
	jmp	SHORT $LN26@changeTerr
$LN37@changeTerr:
; Line 1942
	fstp	ST(1)
; Line 1943
	mov	BYTE PTR [edi+200], 1
	fstp	ST(0)
	jmp	SHORT $LN26@changeTerr
$LN28@changeTerr:
	fstp	ST(1)
	fstp	ST(0)
$LN26@changeTerr:
; Line 1946
	fld	DWORD PTR [esi]
	fld	DWORD PTR [edi+20]
	fcompp
	fnstsw	ax
	test	ah, 65					; 00000041H
	jne	SHORT $LN3@changeTerr
	mov	eax, DWORD PTR [esi]
	mov	DWORD PTR [edi+20], eax
$LN3@changeTerr:
; Line 1947
	fld	DWORD PTR [esi]
	fld	DWORD PTR [edi+32]
	fcompp
	fnstsw	ax
	test	ah, 5
	jp	SHORT $LN11@changeTerr
	mov	ecx, DWORD PTR [esi]
	mov	DWORD PTR [edi+32], ecx
$LN11@changeTerr:
; Line 1928
	add	esi, 12					; 0000000cH
	dec	DWORD PTR tv172[ebp]
	jne	$LL12@changeTerr
; Line 1949
	cmp	BYTE PTR [edi+200], 0
	pop	esi
	pop	ebx
	je	SHORT $LN1@changeTerr
; Line 1951
	mov	edx, DWORD PTR [edi+12636]
	push	edx
	push	34962					; 00008892H
	call	DWORD PTR ?glBindBufferARB@@3P6GXII@ZA	; glBindBufferARB
; Line 1952
	push	35044					; 000088e4H
	add	edi, 14404				; 00003844H
	push	edi
	push	1740					; 000006ccH
	push	34962					; 00008892H
	call	DWORD PTR ?glBufferDataARB@@3P6GXIHPBXI@ZA ; glBufferDataARB
$LN1@changeTerr:
	pop	edi
; Line 1954
	mov	esp, ebp
	pop	ebp
	ret	20					; 00000014H
?changeTerrain@MapChunk@@QAEXMMMMH@Z ENDP		; MapChunk::changeTerrain
_TEXT	ENDS
PUBLIC	?flattenTerrain@MapChunk@@QAEXMMMMMH@Z		; MapChunk::flattenTerrain
; Function compile flags: /Ogtp
_TEXT	SEGMENT
tv695 = -12						; size = 4
tv689 = -12						; size = 4
tv357 = -12						; size = 4
_xdiff$ = -8						; size = 4
_zdiff$ = -4						; size = 4
_x$ = 8							; size = 4
_z$ = 12						; size = 4
_h$ = 16						; size = 4
_remain$ = 20						; size = 4
_radius$ = 24						; size = 4
tv673 = 28						; size = 4
tv667 = 28						; size = 4
tv648 = 28						; size = 4
tv645 = 28						; size = 4
tv639 = 28						; size = 4
_nremain$ = 28						; size = 4
_dist$ = 28						; size = 4
_BrushType$ = 28					; size = 4
?flattenTerrain@MapChunk@@QAEXMMMMMH@Z PROC		; MapChunk::flattenTerrain
; _this$ = ecx
; Line 1957
	push	ebp
	mov	ebp, esp
	sub	esp, 12					; 0000000cH
	push	edi
	mov	edi, ecx
; Line 1961
	fld	DWORD PTR [edi+208]
	mov	BYTE PTR [edi+200], 0
	fsub	DWORD PTR _x$[ebp]
	fld	QWORD PTR __real@4030aaaaa0000000
	fadd	ST(1), ST(0)
	fxch	ST(1)
	fstp	DWORD PTR _xdiff$[ebp]
; Line 1962
	fld	DWORD PTR [edi+216]
	fsub	DWORD PTR _z$[ebp]
	faddp	ST(1), ST(0)
	fstp	DWORD PTR _zdiff$[ebp]
	fld	DWORD PTR _zdiff$[ebp]
; Line 1963
	fld	DWORD PTR _xdiff$[ebp]
	fmul	ST(0), ST(0)
	fld	ST(1)
	fmulp	ST(2), ST(0)
	faddp	ST(1), ST(0)
; Line 1965
	fstp	DWORD PTR tv695[ebp]
	fld	DWORD PTR tv695[ebp]
	call	__CIsqrt
	fstp	DWORD PTR tv689[ebp]
	fld	DWORD PTR tv689[ebp]
	fld	DWORD PTR _radius$[ebp]
	fadd	QWORD PTR __real@404791fa556f33a0
	fcompp
	fnstsw	ax
	test	ah, 5
	jnp	$LN1@flattenTer
; Line 1968
	push	ebx
	mov	ebx, DWORD PTR _BrushType$[ebp]
	push	esi
	mov	DWORD PTR [edi+20], 1259902591		; 4b18967fH
; Line 1969
	mov	DWORD PTR [edi+32], -887581057		; cb18967fH
	lea	esi, DWORD PTR [edi+14408]
	mov	DWORD PTR tv357[ebp], 145		; 00000091H
	npad	7
$LL12@flattenTer:
; Line 1973
	fld	DWORD PTR [esi-4]
	fsub	DWORD PTR _x$[ebp]
	fstp	DWORD PTR _xdiff$[ebp]
; Line 1974
	fld	DWORD PTR [esi+4]
	fsub	DWORD PTR _z$[ebp]
	fstp	DWORD PTR _zdiff$[ebp]
; Line 1976
	fld	DWORD PTR _zdiff$[ebp]
	fld	DWORD PTR _xdiff$[ebp]
	fmul	ST(0), ST(0)
	fld	ST(1)
	fmulp	ST(2), ST(0)
	faddp	ST(1), ST(0)
	fstp	DWORD PTR tv673[ebp]
	fld	DWORD PTR tv673[ebp]
	call	__CIsqrt
	fstp	DWORD PTR tv667[ebp]
	fld	DWORD PTR tv667[ebp]
	fstp	DWORD PTR _dist$[ebp]
; Line 1978
	fld	DWORD PTR _dist$[ebp]
	fld	DWORD PTR _radius$[ebp]
	fcom	ST(1)
	fnstsw	ax
	test	ah, 65					; 00000041H
	jne	$LN32@flattenTer
; Line 1980
	test	ebx, ebx
	jne	SHORT $LN8@flattenTer
	fstp	ST(0)
	fstp	ST(0)
; Line 1982
	fld	DWORD PTR _remain$[ebp]
	fld	ST(0)
	fld1
	fsubrp	ST(1), ST(0)
	fmul	DWORD PTR _h$[ebp]
	fld	DWORD PTR [esi]
	fmulp	ST(2), ST(0)
	faddp	ST(1), ST(0)
	fstp	DWORD PTR [esi]
; Line 1995
	mov	BYTE PTR [edi+200], 1
	jmp	SHORT $LN30@flattenTer
$LN8@flattenTer:
; Line 1984
	cmp	ebx, 1
	jne	SHORT $LN6@flattenTer
; Line 1986
	fdivp	ST(1), ST(0)
	fld1
	fld	ST(0)
	fsubrp	ST(2), ST(0)
	fld	DWORD PTR _remain$[ebp]
	fsubr	ST(0), ST(1)
	fmulp	ST(2), ST(0)
$LN43@flattenTer:
	fld	ST(0)
	fsubrp	ST(2), ST(0)
	fxch	ST(1)
	fstp	DWORD PTR _nremain$[ebp]
; Line 1987
	fld	DWORD PTR _nremain$[ebp]
	fld	ST(0)
	fsubp	ST(2), ST(0)
	fld	DWORD PTR _h$[ebp]
	fmulp	ST(2), ST(0)
	fmul	DWORD PTR [esi]
	faddp	ST(1), ST(0)
	fstp	DWORD PTR [esi]
; Line 1995
	mov	BYTE PTR [edi+200], 1
	jmp	SHORT $LN30@flattenTer
$LN6@flattenTer:
; Line 1989
	cmp	ebx, 2
	jne	SHORT $LN41@flattenTer
; Line 1991
	fld	DWORD PTR _remain$[ebp]
	fld1
	fld	ST(0)
	fsubrp	ST(2), ST(0)
	fxch	ST(1)
	fstp	DWORD PTR tv648[ebp]
	fld	DWORD PTR tv648[ebp]
	fxch	ST(3)
	fdivrp	ST(2), ST(0)
	faddp	ST(1), ST(0)
	fstp	DWORD PTR tv645[ebp]
	fld	DWORD PTR tv645[ebp]
	call	__CIpow
	fstp	DWORD PTR tv639[ebp]
	fld	DWORD PTR tv639[ebp]
	fld1
; Line 1992
	jmp	SHORT $LN43@flattenTer
$LN41@flattenTer:
	fstp	ST(0)
; Line 1995
	mov	BYTE PTR [edi+200], 1
	fstp	ST(0)
	jmp	SHORT $LN30@flattenTer
$LN32@flattenTer:
	fstp	ST(0)
	fstp	ST(0)
$LN30@flattenTer:
; Line 1998
	fld	DWORD PTR [esi]
	fld	DWORD PTR [edi+20]
	fcompp
	fnstsw	ax
	test	ah, 65					; 00000041H
	jne	SHORT $LN3@flattenTer
	mov	eax, DWORD PTR [esi]
	mov	DWORD PTR [edi+20], eax
$LN3@flattenTer:
; Line 1999
	fld	DWORD PTR [esi]
	fld	DWORD PTR [edi+32]
	fcompp
	fnstsw	ax
	test	ah, 5
	jp	SHORT $LN11@flattenTer
	mov	ecx, DWORD PTR [esi]
	mov	DWORD PTR [edi+32], ecx
$LN11@flattenTer:
; Line 1971
	add	esi, 12					; 0000000cH
	dec	DWORD PTR tv357[ebp]
	jne	$LL12@flattenTer
; Line 2001
	cmp	BYTE PTR [edi+200], 0
	pop	esi
	pop	ebx
	je	SHORT $LN1@flattenTer
; Line 2003
	mov	edx, DWORD PTR [edi+12636]
	push	edx
	push	34962					; 00008892H
	call	DWORD PTR ?glBindBufferARB@@3P6GXII@ZA	; glBindBufferARB
; Line 2004
	push	35044					; 000088e4H
	add	edi, 14404				; 00003844H
	push	edi
	push	1740					; 000006ccH
	push	34962					; 00008892H
	call	DWORD PTR ?glBufferDataARB@@3P6GXIHPBXI@ZA ; glBufferDataARB
$LN1@flattenTer:
	pop	edi
; Line 2006
	mov	esp, ebp
	pop	ebp
	ret	24					; 00000018H
?flattenTerrain@MapChunk@@QAEXMMMMMH@Z ENDP		; MapChunk::flattenTerrain
_TEXT	ENDS
PUBLIC	?blurTerrain@MapChunk@@QAEXMMMMH@Z		; MapChunk::blurTerrain
; Function compile flags: /Ogtp
_TEXT	SEGMENT
_TempVec$83578 = -64					; size = 12
tv623 = -52						; size = 8
tv805 = -44						; size = 4
tv802 = -44						; size = 4
tv796 = -44						; size = 4
tv767 = -44						; size = 4
tv894 = -40						; size = 4
tv887 = -40						; size = 4
tv252 = -40						; size = 4
_this$ = -36						; size = 4
tv872 = -32						; size = 4
tv866 = -32						; size = 4
_dist$ = -32						; size = 4
_tx$83575 = -28						; size = 4
_k$83585 = -28						; size = 4
_j$83581 = -28						; size = 4
_tz$83576 = -24						; size = 4
tv892 = -20						; size = 4
_TotalWeight$83574 = -16				; size = 4
_TotalHeight$83573 = -12				; size = 4
tv853 = -8						; size = 4
tv841 = -8						; size = 4
tv835 = -8						; size = 4
_nremain$ = -8						; size = 4
_dist2$ = -8						; size = 4
_xdiff$ = -8						; size = 4
_h$83577 = -4						; size = 4
_zdiff$ = -4						; size = 4
_x$ = 8							; size = 4
_z$ = 12						; size = 4
_remain$ = 16						; size = 4
_radius$ = 20						; size = 4
_BrushType$ = 24					; size = 4
?blurTerrain@MapChunk@@QAEXMMMMH@Z PROC			; MapChunk::blurTerrain
; _this$ = ecx
; Line 2009
	push	ebp
	mov	ebp, esp
	sub	esp, 64					; 00000040H
	push	edi
	mov	edi, ecx
; Line 2013
	fld	DWORD PTR [edi+208]
	mov	DWORD PTR _this$[ebp], edi
	fsub	DWORD PTR _x$[ebp]
	mov	BYTE PTR [edi+200], 0
	fld	QWORD PTR __real@4030aaaaa0000000
	fadd	ST(1), ST(0)
	fxch	ST(1)
	fstp	DWORD PTR _xdiff$[ebp]
; Line 2014
	fld	DWORD PTR [edi+216]
	fsub	DWORD PTR _z$[ebp]
	faddp	ST(1), ST(0)
	fstp	DWORD PTR _zdiff$[ebp]
	fld	DWORD PTR _zdiff$[ebp]
; Line 2015
	fld	DWORD PTR _xdiff$[ebp]
	fmul	ST(0), ST(0)
	fld	ST(1)
	fmulp	ST(2), ST(0)
	faddp	ST(1), ST(0)
; Line 2017
	fstp	DWORD PTR tv894[ebp]
	fld	DWORD PTR tv894[ebp]
	call	__CIsqrt
	fstp	DWORD PTR tv887[ebp]
	fld	DWORD PTR tv887[ebp]
	fld	DWORD PTR _radius$[ebp]
	fadd	QWORD PTR __real@404791fa556f33a0
	fcompp
	fnstsw	ax
	test	ah, 5
	jnp	$LN1@blurTerrai
; Line 2020
	push	ebx
	push	esi
	lea	esi, DWORD PTR [edi+14408]
	mov	DWORD PTR [edi+20], 1259902591		; 4b18967fH
; Line 2021
	mov	DWORD PTR [edi+32], -887581057		; cb18967fH
	mov	DWORD PTR tv892[ebp], esi
	mov	DWORD PTR tv252[ebp], 145		; 00000091H
	npad	4
$LL19@blurTerrai:
; Line 2025
	fld	DWORD PTR [esi-4]
	fsub	DWORD PTR _x$[ebp]
	fstp	DWORD PTR _xdiff$[ebp]
; Line 2026
	fld	DWORD PTR [esi+4]
	fsub	DWORD PTR _z$[ebp]
	fstp	DWORD PTR _zdiff$[ebp]
; Line 2028
	fld	DWORD PTR _zdiff$[ebp]
	fld	DWORD PTR _xdiff$[ebp]
	fmul	ST(0), ST(0)
	fld	ST(1)
	fmulp	ST(2), ST(0)
	faddp	ST(1), ST(0)
	fstp	DWORD PTR tv872[ebp]
	fld	DWORD PTR tv872[ebp]
	call	__CIsqrt
	fstp	DWORD PTR tv866[ebp]
	fld	DWORD PTR tv866[ebp]
	fstp	DWORD PTR _dist$[ebp]
; Line 2030
	fld	DWORD PTR _dist$[ebp]
	fld	DWORD PTR _radius$[ebp]
	fcom	ST(1)
	fnstsw	ax
	test	ah, 65					; 00000041H
	jne	$LN51@blurTerrai
; Line 2038
	fld	ST(0)
	xor	ebx, ebx
	fld	QWORD PTR __real@4010aaaaa0000000
	mov	DWORD PTR _TempVec$83578[ebp], ebx
	fdiv	ST(1), ST(0)
	mov	DWORD PTR _TempVec$83578[ebp+4], ebx
	mov	DWORD PTR _TempVec$83578[ebp+8], ebx
	fxch	ST(1)
	call	__ftol2_sse_excpt
	mov	edi, eax
; Line 2040
	mov	DWORD PTR _TotalHeight$83573[ebp], ebx
; Line 2041
	mov	DWORD PTR _TotalWeight$83574[ebp], ebx
; Line 2042
	mov	ebx, edi
	neg	ebx
	add	ebx, ebx
	lea	eax, DWORD PTR [edi+edi]
	mov	DWORD PTR _j$83581[ebp], ebx
	cmp	ebx, eax
	jg	$LN54@blurTerrai
	mov	esi, edi
	fstp	ST(2)
	fld	QWORD PTR __real@3fe0000000000000
	neg	esi
	mov	DWORD PTR tv767[ebp], esi
$LN15@blurTerrai:
; Line 2044
	fild	DWORD PTR _j$83581[ebp]
; Line 2045
	mov	DWORD PTR _k$83585[ebp], esi
	fmul	ST(0), ST(3)
	fmul	ST(0), ST(1)
	fadd	DWORD PTR _z$[ebp]
	fstp	DWORD PTR _tz$83576[ebp]
	cmp	esi, edi
	jg	$LN14@blurTerrai
	mov	eax, ebx
	fstp	ST(1)
	and	eax, -2147483647			; 80000001H
	jns	SHORT $LN80@blurTerrai
	dec	eax
	or	eax, -2					; fffffffeH
	inc	eax
$LN80@blurTerrai:
	mov	DWORD PTR tv853[ebp], eax
	fild	DWORD PTR tv853[ebp]
	fmul	ST(0), ST(2)
	fmulp	ST(1), ST(0)
	fstp	QWORD PTR tv623[ebp]
	jmp	SHORT $LN12@blurTerrai
$LL65@blurTerrai:
	fstp	ST(0)
	fld	QWORD PTR __real@4010aaaaa0000000
$LN12@blurTerrai:
; Line 2047
	fimul	DWORD PTR _k$83585[ebp]
; Line 2048
	mov	eax, DWORD PTR tv892[ebp]
	fadd	DWORD PTR _x$[ebp]
	fadd	QWORD PTR tv623[ebp]
	fstp	DWORD PTR _tx$83575[ebp]
	fld	DWORD PTR _tx$83575[ebp]
	fsub	DWORD PTR [eax-4]
	fstp	DWORD PTR _xdiff$[ebp]
; Line 2049
	fld	DWORD PTR _tz$83576[ebp]
	fsub	DWORD PTR [eax+4]
	fstp	DWORD PTR _zdiff$[ebp]
; Line 2050
	fld	DWORD PTR _zdiff$[ebp]
	fld	DWORD PTR _xdiff$[ebp]
	fmul	ST(0), ST(0)
	fld	ST(1)
	fmulp	ST(2), ST(0)
	faddp	ST(1), ST(0)
	fstp	DWORD PTR tv841[ebp]
	fld	DWORD PTR tv841[ebp]
	call	__CIsqrt
	fstp	DWORD PTR tv835[ebp]
	fld	DWORD PTR tv835[ebp]
	fstp	DWORD PTR _dist2$[ebp]
; Line 2051
	fld	DWORD PTR _dist2$[ebp]
	fld	DWORD PTR _radius$[ebp]
	fcom	ST(1)
	fnstsw	ax
	fstp	ST(1)
	test	ah, 5
	jnp	SHORT $LN11@blurTerrai
; Line 2053
	mov	edx, DWORD PTR _tz$83576[ebp]
	fstp	ST(0)
	mov	eax, DWORD PTR _tx$83575[ebp]
	lea	ecx, DWORD PTR _TempVec$83578[ebp]
	push	ecx
	mov	ecx, DWORD PTR ?gWorld@@3PAVWorld@@A	; gWorld
	sub	esp, 8
	mov	DWORD PTR [esp+4], edx
	mov	DWORD PTR [esp], eax
	call	?GetVertex@World@@QAE_NMMPAVVec3D@@@Z	; World::GetVertex
; Line 2054
	fld	DWORD PTR _dist2$[ebp]
	fld	DWORD PTR _radius$[ebp]
	fld	ST(0)
	fdivp	ST(2), ST(0)
	fld1
	fsubrp	ST(2), ST(0)
	fld	DWORD PTR _TempVec$83578[ebp+4]
	fmul	ST(0), ST(2)
	fadd	DWORD PTR _TotalHeight$83573[ebp]
	fstp	DWORD PTR _TotalHeight$83573[ebp]
; Line 2055
	fld	DWORD PTR _TotalWeight$83574[ebp]
	faddp	ST(2), ST(0)
	fxch	ST(1)
	fstp	DWORD PTR _TotalWeight$83574[ebp]
$LN11@blurTerrai:
; Line 2045
	inc	esi
	mov	DWORD PTR _k$83585[ebp], esi
	cmp	esi, edi
	jle	$LL65@blurTerrai
	fld	QWORD PTR __real@4010aaaaa0000000
	mov	esi, DWORD PTR tv767[ebp]
	fld	QWORD PTR __real@3fe0000000000000
	fxch	ST(1)
	fxch	ST(2)
	fxch	ST(1)
$LN14@blurTerrai:
; Line 2042
	inc	ebx
	lea	eax, DWORD PTR [edi+edi]
	mov	DWORD PTR _j$83581[ebp], ebx
	cmp	ebx, eax
	jle	$LN15@blurTerrai
	mov	esi, DWORD PTR tv892[ebp]
	fstp	ST(0)
	fstp	ST(1)
	fld	DWORD PTR _dist$[ebp]
	fxch	ST(1)
$LN48@blurTerrai:
; Line 2059
	fld	DWORD PTR _TotalHeight$83573[ebp]
; Line 2061
	mov	eax, DWORD PTR _BrushType$[ebp]
	fdiv	DWORD PTR _TotalWeight$83574[ebp]
	fstp	DWORD PTR _h$83577[ebp]
	test	eax, eax
	jne	SHORT $LN8@blurTerrai
; Line 2076
	mov	ecx, DWORD PTR _this$[ebp]
	fstp	ST(0)
	fstp	ST(0)
	mov	edi, ecx
	fld	DWORD PTR _remain$[ebp]
	fld	ST(0)
	fld1
	fsubrp	ST(1), ST(0)
	fmul	DWORD PTR _h$83577[ebp]
	fld	DWORD PTR [esi]
	fmulp	ST(2), ST(0)
	faddp	ST(1), ST(0)
	fstp	DWORD PTR [esi]
	mov	BYTE PTR [ecx+200], 1
	jmp	$LN49@blurTerrai
$LN54@blurTerrai:
; Line 2042
	fstp	ST(0)
	jmp	SHORT $LN48@blurTerrai
$LN8@blurTerrai:
; Line 2065
	cmp	eax, 1
	jne	SHORT $LN6@blurTerrai
; Line 2067
	fdivp	ST(1), ST(0)
	fld1
	fld	ST(0)
	fsubrp	ST(2), ST(0)
	fld	DWORD PTR _remain$[ebp]
	fsubr	ST(0), ST(1)
	fmulp	ST(2), ST(0)
$LN81@blurTerrai:
	fld	ST(0)
; Line 2076
	mov	ecx, DWORD PTR _this$[ebp]
	fsubrp	ST(2), ST(0)
	mov	edi, ecx
	fxch	ST(1)
	fstp	DWORD PTR _nremain$[ebp]
	fld	DWORD PTR _nremain$[ebp]
	fld	ST(0)
	fsubp	ST(2), ST(0)
	fld	DWORD PTR _h$83577[ebp]
	fmulp	ST(2), ST(0)
	fmul	DWORD PTR [esi]
	faddp	ST(1), ST(0)
	fstp	DWORD PTR [esi]
	mov	BYTE PTR [ecx+200], 1
	jmp	SHORT $LN49@blurTerrai
$LN6@blurTerrai:
; Line 2070
	cmp	eax, 2
	jne	SHORT $LN78@blurTerrai
; Line 2072
	fld	DWORD PTR _remain$[ebp]
	fld1
	fld	ST(0)
	fsubrp	ST(2), ST(0)
	fxch	ST(1)
	fstp	DWORD PTR tv805[ebp]
	fld	DWORD PTR tv805[ebp]
	fxch	ST(3)
	fdivrp	ST(2), ST(0)
	faddp	ST(1), ST(0)
	fstp	DWORD PTR tv802[ebp]
	fld	DWORD PTR tv802[ebp]
	call	__CIpow
	fstp	DWORD PTR tv796[ebp]
	fld	DWORD PTR tv796[ebp]
	fld1
; Line 2073
	jmp	SHORT $LN81@blurTerrai
$LN78@blurTerrai:
; Line 2076
	mov	ecx, DWORD PTR _this$[ebp]
	fstp	ST(0)
	fstp	ST(0)
	mov	BYTE PTR [ecx+200], 1
	mov	edi, ecx
	jmp	SHORT $LN49@blurTerrai
$LN51@blurTerrai:
	fstp	ST(0)
	fstp	ST(0)
$LN49@blurTerrai:
; Line 2079
	fld	DWORD PTR [esi]
	fld	DWORD PTR [edi+20]
	fcompp
	fnstsw	ax
	test	ah, 65					; 00000041H
	jne	SHORT $LN3@blurTerrai
	mov	edx, DWORD PTR [esi]
	mov	DWORD PTR [edi+20], edx
$LN3@blurTerrai:
; Line 2080
	fld	DWORD PTR [esi]
	fld	DWORD PTR [edi+32]
	fcompp
	fnstsw	ax
	test	ah, 5
	jp	SHORT $LN18@blurTerrai
	mov	eax, DWORD PTR [esi]
	mov	DWORD PTR [edi+32], eax
$LN18@blurTerrai:
; Line 2023
	add	esi, 12					; 0000000cH
	dec	DWORD PTR tv252[ebp]
	mov	DWORD PTR tv892[ebp], esi
	jne	$LL19@blurTerrai
; Line 2082
	cmp	BYTE PTR [edi+200], 0
	pop	esi
	pop	ebx
	je	SHORT $LN1@blurTerrai
; Line 2084
	mov	ecx, DWORD PTR [edi+12636]
	push	ecx
	push	34962					; 00008892H
	call	DWORD PTR ?glBindBufferARB@@3P6GXII@ZA	; glBindBufferARB
; Line 2085
	push	35044					; 000088e4H
	add	edi, 14404				; 00003844H
	push	edi
	push	1740					; 000006ccH
	push	34962					; 00008892H
	call	DWORD PTR ?glBufferDataARB@@3P6GXIHPBXI@ZA ; glBufferDataARB
$LN1@blurTerrai:
	pop	edi
; Line 2087
	mov	esp, ebp
	pop	ebp
	ret	20					; 00000014H
?blurTerrain@MapChunk@@QAEXMMMMH@Z ENDP			; MapChunk::blurTerrain
_TEXT	ENDS
PUBLIC	?eraseTextures@MapChunk@@QAEXXZ			; MapChunk::eraseTextures
; Function compile flags: /Ogtp
_TEXT	SEGMENT
?eraseTextures@MapChunk@@QAEXXZ PROC			; MapChunk::eraseTextures
; _this$ = ecx
; Line 2118
	mov	DWORD PTR [ecx+204], 0
; Line 2119
	ret	0
?eraseTextures@MapChunk@@QAEXXZ ENDP			; MapChunk::eraseTextures
_TEXT	ENDS
PUBLIC	?addTexture@MapChunk@@QAEHI@Z			; MapChunk::addTexture
EXTRN	__imp__glTexImage2D@36:PROC
; Function compile flags: /Ogtp
_TEXT	SEGMENT
_texture$ = 8						; size = 4
?addTexture@MapChunk@@QAEHI@Z PROC			; MapChunk::addTexture
; _this$ = ecx
; Line 2122
	push	ebp
	mov	ebp, esp
	push	esi
	mov	esi, ecx
; Line 2124
	mov	eax, DWORD PTR [esi+204]
	push	edi
	or	edi, -1
	cmp	eax, 4
	jge	$LN2@addTexture
; Line 2126
	mov	edi, eax
; Line 2127
	inc	eax
	mov	DWORD PTR [esi+204], eax
; Line 2128
	mov	eax, DWORD PTR _texture$[ebp]
	mov	DWORD PTR [esi+edi*4+268], eax
; Line 2129
	xor	eax, eax
	mov	DWORD PTR [esi+edi*4+12620], eax
; Line 2130
	mov	DWORD PTR [esi+edi*4+284], eax
; Line 2131
	mov	DWORD PTR [esi+edi*4+300], eax
; Line 2132
	cmp	edi, eax
	je	$LN2@addTexture
; Line 2134
	cmp	DWORD PTR [esi+edi*4+12600], 1
	jae	SHORT $LN1@addTexture
; Line 2136
	push	OFFSET $SG83610
	call	?gLog@@YAXPADZZ				; gLog
; Line 2137
	dec	DWORD PTR [esi+204]
	add	esp, 4
	pop	edi
; Line 2138
	or	eax, -1
	pop	esi
; Line 2150
	pop	ebp
	ret	4
$LN1@addTexture:
	push	ebx
; Line 2140
	mov	ecx, edi
	shl	ecx, 12					; 0000000cH
	push	4096					; 00001000H
	lea	ebx, DWORD PTR [ecx+esi-3780]
	push	eax
	push	ebx
	call	_memset
; Line 2141
	mov	edx, DWORD PTR [esi+edi*4+12600]
	add	esp, 12					; 0000000cH
	push	edx
	push	3553					; 00000de1H
	call	DWORD PTR __imp__glBindTexture@8
; Line 2142
	push	ebx
	push	5121					; 00001401H
	push	6406					; 00001906H
	push	0
	push	64					; 00000040H
	push	64					; 00000040H
	push	6406					; 00001906H
	push	0
	push	3553					; 00000de1H
	call	DWORD PTR __imp__glTexImage2D@36
; Line 2143
	mov	esi, DWORD PTR __imp__glTexParameteri@12
	push	9729					; 00002601H
	push	10241					; 00002801H
	push	3553					; 00000de1H
	call	esi
; Line 2144
	push	9729					; 00002601H
	push	10240					; 00002800H
	push	3553					; 00000de1H
	call	esi
; Line 2145
	push	33071					; 0000812fH
	push	10242					; 00002802H
	push	3553					; 00000de1H
	call	esi
; Line 2146
	push	33071					; 0000812fH
	push	10243					; 00002803H
	push	3553					; 00000de1H
	call	esi
	pop	ebx
$LN2@addTexture:
; Line 2149
	mov	eax, edi
	pop	edi
	pop	esi
; Line 2150
	pop	ebp
	ret	4
?addTexture@MapChunk@@QAEHI@Z ENDP			; MapChunk::addTexture
_TEXT	ENDS
PUBLIC	?drawWater@MapChunk@@QAEXXZ			; MapChunk::drawWater
EXTRN	?draw@Liquid@@QAEXXZ:PROC			; Liquid::draw
; Function compile flags: /Ogtp
_TEXT	SEGMENT
?drawWater@MapChunk@@QAEXXZ PROC			; MapChunk::drawWater
; _this$ = ecx
; Line 2320
	cmp	BYTE PTR [ecx+236], 0
	je	SHORT $LN1@drawWater
; Line 2322
	mov	ecx, DWORD PTR [ecx+12660]
	jmp	?draw@Liquid@@QAEXXZ			; Liquid::draw
$LN1@drawWater:
; Line 2324
	ret	0
?drawWater@MapChunk@@QAEXXZ ENDP			; MapChunk::drawWater
; Function compile flags: /Ogtp
?draw@MapNode@@UAEXXZ PROC				; MapNode::draw
; _this$ = ecx
; Line 2330
	ret	0
?draw@MapNode@@UAEXXZ ENDP				; MapNode::draw
; Function compile flags: /Ogtp
?drawSelect@MapNode@@UAEXXZ PROC			; MapNode::drawSelect
; _this$ = ecx
; Line 2336
	ret	0
?drawSelect@MapNode@@UAEXXZ ENDP			; MapNode::drawSelect
; Function compile flags: /Ogtp
?drawColor@MapNode@@UAEXXZ PROC			; MapNode::drawColor
; _this$ = ecx
; Line 2339
	push	esi
	mov	esi, ecx
; Line 2340
	lea	eax, DWORD PTR [esi+28]
	push	eax
	lea	ecx, DWORD PTR [esi+16]
	push	ecx
	mov	ecx, DWORD PTR ?gWorld@@3PAVWorld@@A	; gWorld
	add	ecx, 20952				; 000051d8H
	call	?intersects@Frustum@@QBE_NABVVec3D@@0@Z	; Frustum::intersects
	test	al, al
	je	SHORT $LN1@drawColor
; Line 2341
	push	edi
	add	esi, 52					; 00000034H
	mov	edi, 4
	npad	7
$LL3@drawColor:
	mov	ecx, DWORD PTR [esi]
	mov	edx, DWORD PTR [ecx]
	mov	eax, DWORD PTR [edx+8]
	call	eax
	add	esi, 4
	dec	edi
	jne	SHORT $LL3@drawColor
	pop	edi
$LN1@drawColor:
	pop	esi
; Line 2342
	ret	0
?drawColor@MapNode@@UAEXXZ ENDP				; MapNode::drawColor
_TEXT	ENDS
PUBLIC	?setup@MapNode@@QAEXPAVMapTile@@@Z		; MapNode::setup
EXTRN	??2@YAPAXI@Z:PROC				; operator new
; Function compile flags: /Ogtp
_TEXT	SEGMENT
_t$ = 8							; size = 4
?setup@MapNode@@QAEXPAVMapTile@@@Z PROC			; MapNode::setup
; _this$ = ecx
; Line 2345
	push	ebp
	mov	ebp, esp
; Line 2346
	mov	eax, 1259902591				; 4b18967fH
	push	esi
	mov	esi, ecx
; Line 2348
	mov	ecx, DWORD PTR _t$[ebp]
	mov	DWORD PTR [esi+16], eax
	mov	DWORD PTR [esi+20], eax
	mov	DWORD PTR [esi+24], eax
	mov	eax, -887581057				; cb18967fH
	mov	DWORD PTR [esi+28], eax
	mov	DWORD PTR [esi+32], eax
	mov	DWORD PTR [esi+36], eax
; Line 2349
	mov	eax, DWORD PTR [esi+12]
	push	edi
	mov	DWORD PTR [esi+68], ecx
	cmp	eax, 2
	jne	SHORT $LN14@setup
; Line 2352
	mov	eax, DWORD PTR [esi+8]
	shl	eax, 4
	add	eax, DWORD PTR [esi+4]
	imul	eax, 20204				; 00004eecH
	add	eax, ecx
	lea	ecx, DWORD PTR [eax+2264]
	mov	DWORD PTR [esi+52], ecx
; Line 2353
	lea	edx, DWORD PTR [eax+22468]
; Line 2354
	lea	ecx, DWORD PTR [eax+325528]
; Line 2355
	add	eax, 345732				; 00054684H
	mov	DWORD PTR [esi+56], edx
	mov	DWORD PTR [esi+60], ecx
	mov	DWORD PTR [esi+64], eax
; Line 2357
	jmp	$LN10@setup
$LN14@setup:
; Line 2359
	cdq
	push	ebx
	sub	eax, edx
	mov	ebx, eax
; Line 2360
	push	72					; 00000048H
	sar	ebx, 1
	call	??2@YAPAXI@Z				; operator new
	xor	edi, edi
	add	esp, 4
	cmp	eax, edi
	je	SHORT $LN17@setup
	mov	ecx, DWORD PTR [esi+8]
	mov	edx, DWORD PTR [esi+4]
	mov	DWORD PTR [eax], OFFSET ??_7MapNode@@6B@
	mov	DWORD PTR [eax+4], edx
	mov	DWORD PTR [eax+8], ecx
	mov	DWORD PTR [eax+12], ebx
	mov	DWORD PTR [eax+16], edi
	mov	DWORD PTR [eax+20], edi
	mov	DWORD PTR [eax+24], edi
	mov	DWORD PTR [eax+28], edi
	mov	DWORD PTR [eax+32], edi
	mov	DWORD PTR [eax+36], edi
	mov	DWORD PTR [eax+40], edi
	mov	DWORD PTR [eax+44], edi
	mov	DWORD PTR [eax+48], edi
	jmp	SHORT $LN18@setup
$LN17@setup:
	xor	eax, eax
$LN18@setup:
; Line 2361
	push	72					; 00000048H
	mov	DWORD PTR [esi+52], eax
	call	??2@YAPAXI@Z				; operator new
	add	esp, 4
	cmp	eax, edi
	je	SHORT $LN19@setup
	mov	ecx, DWORD PTR [esi+4]
	mov	edx, DWORD PTR [esi+8]
	mov	DWORD PTR [eax], OFFSET ??_7MapNode@@6B@
	mov	DWORD PTR [eax+8], edx
	mov	DWORD PTR [eax+12], ebx
	add	ecx, ebx
	mov	DWORD PTR [eax+4], ecx
	mov	DWORD PTR [eax+16], edi
	mov	DWORD PTR [eax+20], edi
	mov	DWORD PTR [eax+24], edi
	mov	DWORD PTR [eax+28], edi
	mov	DWORD PTR [eax+32], edi
	mov	DWORD PTR [eax+36], edi
	mov	DWORD PTR [eax+40], edi
	mov	DWORD PTR [eax+44], edi
	mov	DWORD PTR [eax+48], edi
	jmp	SHORT $LN20@setup
$LN19@setup:
	xor	eax, eax
$LN20@setup:
; Line 2362
	push	72					; 00000048H
	mov	DWORD PTR [esi+56], eax
	call	??2@YAPAXI@Z				; operator new
	add	esp, 4
	cmp	eax, edi
	je	SHORT $LN21@setup
	mov	ecx, DWORD PTR [esi+8]
	mov	edx, DWORD PTR [esi+4]
	mov	DWORD PTR [eax], OFFSET ??_7MapNode@@6B@
	mov	DWORD PTR [eax+4], edx
	mov	DWORD PTR [eax+12], ebx
	add	ecx, ebx
	mov	DWORD PTR [eax+8], ecx
	mov	DWORD PTR [eax+16], edi
	mov	DWORD PTR [eax+20], edi
	mov	DWORD PTR [eax+24], edi
	mov	DWORD PTR [eax+28], edi
	mov	DWORD PTR [eax+32], edi
	mov	DWORD PTR [eax+36], edi
	mov	DWORD PTR [eax+40], edi
	mov	DWORD PTR [eax+44], edi
	mov	DWORD PTR [eax+48], edi
	jmp	SHORT $LN22@setup
$LN21@setup:
	xor	eax, eax
$LN22@setup:
; Line 2363
	push	72					; 00000048H
	mov	DWORD PTR [esi+60], eax
	call	??2@YAPAXI@Z				; operator new
	add	esp, 4
	cmp	eax, edi
	je	SHORT $LN23@setup
	mov	ecx, DWORD PTR [esi+8]
	mov	edx, DWORD PTR [esi+4]
	mov	DWORD PTR [eax], OFFSET ??_7MapNode@@6B@
	mov	DWORD PTR [eax+12], ebx
	add	ecx, ebx
	mov	DWORD PTR [eax+8], ecx
	add	edx, ebx
	mov	DWORD PTR [eax+4], edx
	mov	DWORD PTR [eax+16], edi
	mov	DWORD PTR [eax+20], edi
	mov	DWORD PTR [eax+24], edi
	mov	DWORD PTR [eax+28], edi
	mov	DWORD PTR [eax+32], edi
	mov	DWORD PTR [eax+36], edi
	mov	DWORD PTR [eax+40], edi
	mov	DWORD PTR [eax+44], edi
	mov	DWORD PTR [eax+48], edi
	jmp	SHORT $LN24@setup
$LN23@setup:
	xor	eax, eax
$LN24@setup:
	mov	DWORD PTR [esi+64], eax
	lea	edi, DWORD PTR [esi+52]
	mov	ebx, 4
$LL12@setup:
; Line 2366
	mov	edx, DWORD PTR [esi+68]
	mov	ecx, DWORD PTR [edi]
	push	edx
	call	?setup@MapNode@@QAEXPAVMapTile@@@Z	; MapNode::setup
	add	edi, 4
	dec	ebx
	jne	SHORT $LL12@setup
	pop	ebx
$LN10@setup:
; Line 2369
	lea	ecx, DWORD PTR [esi+52]
	mov	edi, 4
$LL9@setup:
; Line 2371
	mov	edx, DWORD PTR [ecx]
	fld	DWORD PTR [edx+16]
	fld	DWORD PTR [esi+16]
	fcompp
	fnstsw	ax
	test	ah, 65					; 00000041H
	jne	SHORT $LN6@setup
	mov	eax, DWORD PTR [edx+16]
	mov	DWORD PTR [esi+16], eax
$LN6@setup:
; Line 2372
	mov	edx, DWORD PTR [ecx]
	fld	DWORD PTR [edx+20]
	fld	DWORD PTR [esi+20]
	fcompp
	fnstsw	ax
	test	ah, 65					; 00000041H
	jne	SHORT $LN5@setup
	mov	edx, DWORD PTR [edx+20]
	mov	DWORD PTR [esi+20], edx
$LN5@setup:
; Line 2373
	mov	edx, DWORD PTR [ecx]
	fld	DWORD PTR [edx+24]
	fld	DWORD PTR [esi+24]
	fcompp
	fnstsw	ax
	test	ah, 65					; 00000041H
	jne	SHORT $LN4@setup
	mov	eax, DWORD PTR [edx+24]
	mov	DWORD PTR [esi+24], eax
$LN4@setup:
; Line 2374
	mov	edx, DWORD PTR [ecx]
	fld	DWORD PTR [edx+28]
	fld	DWORD PTR [esi+28]
	fcompp
	fnstsw	ax
	test	ah, 5
	jp	SHORT $LN3@setup
	mov	edx, DWORD PTR [edx+28]
	mov	DWORD PTR [esi+28], edx
$LN3@setup:
; Line 2375
	mov	edx, DWORD PTR [ecx]
	fld	DWORD PTR [edx+32]
	fld	DWORD PTR [esi+32]
	fcompp
	fnstsw	ax
	test	ah, 5
	jp	SHORT $LN2@setup
	mov	eax, DWORD PTR [edx+32]
	mov	DWORD PTR [esi+32], eax
$LN2@setup:
; Line 2376
	mov	edx, DWORD PTR [ecx]
	fld	DWORD PTR [edx+36]
	fld	DWORD PTR [esi+36]
	fcompp
	fnstsw	ax
	test	ah, 5
	jp	SHORT $LN8@setup
	mov	edx, DWORD PTR [edx+36]
	mov	DWORD PTR [esi+36], edx
$LN8@setup:
; Line 2369
	add	ecx, 4
	dec	edi
	jne	$LL9@setup
	pop	edi
	pop	esi
; Line 2378
	pop	ebp
	ret	4
?setup@MapNode@@QAEXPAVMapTile@@@Z ENDP			; MapNode::setup
_TEXT	ENDS
PUBLIC	?cleanup@MapNode@@QAEXXZ			; MapNode::cleanup
; Function compile flags: /Ogtp
_TEXT	SEGMENT
?cleanup@MapNode@@QAEXXZ PROC				; MapNode::cleanup
; _this$ = ecx
; Line 2382
	cmp	DWORD PTR [ecx+12], 2
	jle	SHORT $LN1@cleanup
; Line 2384
	push	esi
	push	edi
	lea	esi, DWORD PTR [ecx+52]
	mov	edi, 4
$LL3@cleanup:
; Line 2386
	mov	ecx, DWORD PTR [esi]
	call	?cleanup@MapNode@@QAEXXZ		; MapNode::cleanup
; Line 2387
	mov	eax, DWORD PTR [esi]
	push	eax
	call	??3@YAXPAX@Z				; operator delete
	add	esp, 4
	add	esi, 4
	dec	edi
	jne	SHORT $LL3@cleanup
	pop	edi
	pop	esi
$LN1@cleanup:
; Line 2390
	ret	0
?cleanup@MapNode@@QAEXXZ ENDP				; MapNode::cleanup
_TEXT	ENDS
PUBLIC	?getChunk@MapTile@@QAEPAVMapChunk@@II@Z		; MapTile::getChunk
; Function compile flags: /Ogtp
_TEXT	SEGMENT
_x$ = 8							; size = 4
_z$ = 12						; size = 4
?getChunk@MapTile@@QAEPAVMapChunk@@II@Z PROC		; MapTile::getChunk
; _this$ = ecx
; Line 2393
	push	ebp
	mov	ebp, esp
; Line 2395
	mov	eax, DWORD PTR _z$[ebp]
	shl	eax, 4
	add	eax, DWORD PTR _x$[ebp]
	imul	eax, 20204				; 00004eecH
	lea	eax, DWORD PTR [eax+ecx+2264]
; Line 2396
	pop	ebp
	ret	8
?getChunk@MapTile@@QAEPAVMapChunk@@II@Z ENDP		; MapTile::getChunk
_TEXT	ENDS
PUBLIC	__real@405fc00000000000
PUBLIC	__real@c05fc00000000000
PUBLIC	?roundc@@YADM@Z					; roundc
;	COMDAT __real@405fc00000000000
CONST	SEGMENT
__real@405fc00000000000 DQ 0405fc00000000000r	; 127
CONST	ENDS
;	COMDAT __real@c05fc00000000000
CONST	SEGMENT
__real@c05fc00000000000 DQ 0c05fc00000000000r	; -127
; Function compile flags: /Ogtp
CONST	ENDS
_TEXT	SEGMENT
_a$ = 8							; size = 4
?roundc@@YADM@Z PROC					; roundc
; Line 2399
	push	ebp
	mov	ebp, esp
; Line 2400
	fldz
	fld	DWORD PTR _a$[ebp]
	fcom	ST(1)
	fnstsw	ax
	test	ah, 5
	jp	SHORT $LN5@roundc
; Line 2401
	fsub	QWORD PTR __real@3fe0000000000000
	fstp	DWORD PTR _a$[ebp]
	fld	DWORD PTR _a$[ebp]
$LN5@roundc:
; Line 2402
	fcom	ST(1)
	fnstsw	ax
	fstp	ST(1)
	test	ah, 65					; 00000041H
	jne	SHORT $LN4@roundc
; Line 2403
	fadd	QWORD PTR __real@3fe0000000000000
	fstp	DWORD PTR _a$[ebp]
	fld	DWORD PTR _a$[ebp]
$LN4@roundc:
; Line 2404
	fcom	QWORD PTR __real@c05fc00000000000
	fnstsw	ax
	test	ah, 5
	jp	SHORT $LN3@roundc
; Line 2405
	mov	DWORD PTR _a$[ebp], -1023541248		; c2fe0000H
; Line 2406
	fstp	ST(0)
; Line 2407
	fld	DWORD PTR _a$[ebp]
; Line 2409
	pop	ebp
; Line 2408
	jmp	__ftol2_sse_excpt
$LN3@roundc:
; Line 2406
	fcom	QWORD PTR __real@405fc00000000000
	fnstsw	ax
	test	ah, 65					; 00000041H
	jne	SHORT $LN1@roundc
; Line 2407
	mov	DWORD PTR _a$[ebp], 1123942400		; 42fe0000H
	fstp	ST(0)
	fld	DWORD PTR _a$[ebp]
$LN1@roundc:
; Line 2409
	pop	ebp
; Line 2408
	jmp	__ftol2_sse_excpt
?roundc@@YADM@Z ENDP					; roundc
_TEXT	ENDS
PUBLIC	?pointInside@@YA_NVVec3D@@QAV1@@Z		; pointInside
; Function compile flags: /Ogtp
_TEXT	SEGMENT
_point$ = 8						; size = 12
_extents$ = 20						; size = 4
?pointInside@@YA_NVVec3D@@QAV1@@Z PROC			; pointInside
; Line 2412
	push	ebp
	mov	ebp, esp
; Line 2413
	fld	DWORD PTR _point$[ebp]
	mov	ecx, DWORD PTR _extents$[ebp]
	fld	DWORD PTR [ecx]
	fcomp	ST(1)
	fnstsw	ax
	test	ah, 65					; 00000041H
	jp	SHORT $LN11@pointInsid
	fld	DWORD PTR _point$[ebp+8]
	fld	DWORD PTR [ecx+8]
	fcomp	ST(1)
	fnstsw	ax
	test	ah, 65					; 00000041H
	jp	SHORT $LN8@pointInsid
	fld	DWORD PTR [ecx+12]
	fcomp	ST(2)
	fnstsw	ax
	fstp	ST(1)
	test	ah, 1
	jne	SHORT $LN11@pointInsid
	fld	DWORD PTR [ecx+20]
	fcompp
	fnstsw	ax
	test	ah, 1
	jne	SHORT $LN1@pointInsid
; Line 2414
	mov	al, 1
; Line 2416
	pop	ebp
	ret	0
$LN8@pointInsid:
; Line 2413
	fstp	ST(0)
$LN11@pointInsid:
	fstp	ST(0)
$LN1@pointInsid:
; Line 2415
	xor	al, al
; Line 2416
	pop	ebp
	ret	0
?pointInside@@YA_NVVec3D@@QAV1@@Z ENDP			; pointInside
_TEXT	ENDS
PUBLIC	?checkInside@@YA_NQAVVec3D@@0@Z			; checkInside
; Function compile flags: /Ogtp
_TEXT	SEGMENT
$T104224 = -12						; size = 12
$T104213 = -12						; size = 12
_extentA$ = 8						; size = 4
_extentB$ = 12						; size = 4
?checkInside@@YA_NQAVVec3D@@0@Z PROC			; checkInside
; Line 2419
	push	ebp
	mov	ebp, esp
	sub	esp, 12					; 0000000cH
; Line 2420
	mov	edx, DWORD PTR _extentB$[ebp]
	push	esi
	mov	esi, DWORD PTR _extentA$[ebp]
	mov	eax, DWORD PTR [esi]
	mov	ecx, DWORD PTR [esi+8]
	mov	DWORD PTR $T104213[ebp], eax
	fld	DWORD PTR $T104213[ebp]
	fld	DWORD PTR [edx]
	mov	DWORD PTR $T104213[ebp+8], ecx
	fcomp	ST(1)
	fnstsw	ax
	test	ah, 65					; 00000041H
	jp	SHORT $LN30@checkInsid
	fld	DWORD PTR $T104213[ebp+8]
	fld	DWORD PTR [edx+8]
	fcomp	ST(1)
	fnstsw	ax
	test	ah, 65					; 00000041H
	jp	SHORT $LN27@checkInsid
	fld	DWORD PTR [edx+12]
	fcomp	ST(2)
	fnstsw	ax
	fstp	ST(1)
	test	ah, 1
	jne	SHORT $LN30@checkInsid
	fld	DWORD PTR [edx+20]
	fcompp
	fnstsw	ax
	test	ah, 1
	jne	SHORT $LN4@checkInsid
$LN41@checkInsid:
; Line 2421
	mov	al, 1
; Line 2429
	pop	esi
	mov	esp, ebp
	pop	ebp
	ret	0
$LN27@checkInsid:
; Line 2420
	fstp	ST(0)
$LN30@checkInsid:
	fstp	ST(0)
$LN4@checkInsid:
; Line 2422
	mov	eax, DWORD PTR [esi+12]
	mov	ecx, DWORD PTR [esi+20]
	mov	DWORD PTR $T104224[ebp], eax
	fld	DWORD PTR $T104224[ebp]
	fld	DWORD PTR [edx]
	mov	DWORD PTR $T104224[ebp+8], ecx
	fcomp	ST(1)
	fnstsw	ax
	test	ah, 65					; 00000041H
	jp	SHORT $LN39@checkInsid
	fld	DWORD PTR $T104224[ebp+8]
	fld	DWORD PTR [edx+8]
	fcomp	ST(1)
	fnstsw	ax
	test	ah, 65					; 00000041H
	jp	SHORT $LN36@checkInsid
	fld	DWORD PTR [edx+12]
	fcomp	ST(2)
	fnstsw	ax
	fstp	ST(1)
	test	ah, 1
	jne	SHORT $LN39@checkInsid
	fld	DWORD PTR [edx+20]
	fcompp
	fnstsw	ax
	test	ah, 1
	jne	SHORT $LN3@checkInsid
; Line 2423
	mov	al, 1
; Line 2429
	pop	esi
	mov	esp, ebp
	pop	ebp
	ret	0
$LN36@checkInsid:
; Line 2422
	fstp	ST(0)
$LN39@checkInsid:
	fstp	ST(0)
$LN3@checkInsid:
; Line 2424
	mov	ecx, DWORD PTR [edx]
	push	esi
	sub	esp, 12					; 0000000cH
	mov	eax, esp
	mov	DWORD PTR [eax], ecx
	mov	ecx, DWORD PTR [edx+4]
	mov	DWORD PTR [eax+4], ecx
	mov	ecx, DWORD PTR [edx+8]
	mov	DWORD PTR [eax+8], ecx
	call	?pointInside@@YA_NVVec3D@@QAV1@@Z	; pointInside
	add	esp, 16					; 00000010H
	test	al, al
; Line 2425
	jne	SHORT $LN41@checkInsid
; Line 2426
	mov	ecx, DWORD PTR [edx+12]
	push	esi
	sub	esp, 12					; 0000000cH
	mov	eax, esp
	mov	DWORD PTR [eax], ecx
	mov	ecx, DWORD PTR [edx+16]
	mov	DWORD PTR [eax+4], ecx
	mov	edx, DWORD PTR [edx+20]
	mov	DWORD PTR [eax+8], edx
	call	?pointInside@@YA_NVVec3D@@QAV1@@Z	; pointInside
	add	esp, 16					; 00000010H
	test	al, al
	setne	al
; Line 2429
	pop	esi
	mov	esp, ebp
	pop	ebp
	ret	0
?checkInside@@YA_NQAVVec3D@@0@Z ENDP			; checkInside
_TEXT	ENDS
PUBLIC	__real@4040aaaaa0000000
PUBLIC	?GetVertex@MapTile@@QAE_NMMPAVVec3D@@@Z		; MapTile::GetVertex
;	COMDAT __real@4040aaaaa0000000
CONST	SEGMENT
__real@4040aaaaa0000000 DQ 04040aaaaa0000000r	; 33.3333
; Function compile flags: /Ogtp
CONST	ENDS
_TEXT	SEGMENT
tv182 = -4						; size = 4
tv176 = -4						; size = 4
_x$ = 8							; size = 4
_z$ = 12						; size = 4
_V$ = 16						; size = 4
?GetVertex@MapTile@@QAE_NMMPAVVec3D@@@Z PROC		; MapTile::GetVertex
; _this$ = ecx
; Line 2778
	push	ebp
	mov	ebp, esp
	push	ecx
; Line 2785
	fld	DWORD PTR _x$[ebp]
	push	esi
	mov	esi, ecx
	fsub	DWORD PTR [esi+2256]
	push	edi
	fstp	DWORD PTR tv182[ebp]
	fld	DWORD PTR tv182[ebp]
	fld	QWORD PTR __real@4040aaaaa0000000
	fdiv	ST(1), ST(0)
	fxch	ST(1)
	call	__ftol2_sse_excpt
; Line 2786
	fld	DWORD PTR _z$[ebp]
	fsub	DWORD PTR [esi+2260]
	mov	edi, eax
	fstp	DWORD PTR tv176[ebp]
	fdivr	DWORD PTR tv176[ebp]
	call	__ftol2_sse_excpt
; Line 2787
	cmp	edi, 15					; 0000000fH
	ja	SHORT $LN1@GetVertex@2
	cmp	eax, 15					; 0000000fH
	ja	SHORT $LN1@GetVertex@2
; Line 2789
	mov	ecx, DWORD PTR _V$[ebp]
	mov	edx, DWORD PTR _z$[ebp]
	shl	eax, 4
	add	eax, edi
	imul	eax, 20204				; 00004eecH
	push	ecx
	mov	ecx, DWORD PTR _x$[ebp]
	sub	esp, 8
	mov	DWORD PTR [esp+4], edx
	mov	DWORD PTR [esp], ecx
	lea	ecx, DWORD PTR [eax+esi+2264]
	call	?GetVertex@MapChunk@@QAE_NMMPAVVec3D@@@Z ; MapChunk::GetVertex
	pop	edi
	pop	esi
; Line 2790
	mov	esp, ebp
	pop	ebp
	ret	12					; 0000000cH
$LN1@GetVertex@2:
	pop	edi
; Line 2788
	xor	al, al
	pop	esi
; Line 2790
	mov	esp, ebp
	pop	ebp
	ret	12					; 0000000cH
?GetVertex@MapTile@@QAE_NMMPAVVec3D@@@Z ENDP		; MapTile::GetVertex
_TEXT	ENDS
PUBLIC	?size@?$basic_string@DU?$char_traits@D@std@@V?$allocator@D@2@@std@@QBEIXZ ; std::basic_string<char,std::char_traits<char>,std::allocator<char> >::size
; Function compile flags: /Ogtp
;	COMDAT ?size@?$basic_string@DU?$char_traits@D@std@@V?$allocator@D@2@@std@@QBEIXZ
_TEXT	SEGMENT
?size@?$basic_string@DU?$char_traits@D@std@@V?$allocator@D@2@@std@@QBEIXZ PROC ; std::basic_string<char,std::char_traits<char>,std::allocator<char> >::size, COMDAT
; _this$ = ecx
; File c:\program files (x86)\microsoft visual studio 10.0\vc\include\xstring
; Line 1511
	mov	eax, DWORD PTR [ecx+16]
; Line 1512
	ret	0
?size@?$basic_string@DU?$char_traits@D@std@@V?$allocator@D@2@@std@@QBEIXZ ENDP ; std::basic_string<char,std::char_traits<char>,std::allocator<char> >::size
_TEXT	ENDS
PUBLIC	??A?$vector@V?$basic_string@DU?$char_traits@D@std@@V?$allocator@D@2@@std@@V?$allocator@V?$basic_string@DU?$char_traits@D@std@@V?$allocator@D@2@@std@@@2@@std@@QAEAAV?$basic_string@DU?$char_traits@D@std@@V?$allocator@D@2@@1@I@Z ; std::vector<std::basic_string<char,std::char_traits<char>,std::allocator<char> >,std::allocator<std::basic_string<char,std::char_traits<char>,std::allocator<char> > > >::operator[]
; Function compile flags: /Ogtp
;	COMDAT ??A?$vector@V?$basic_string@DU?$char_traits@D@std@@V?$allocator@D@2@@std@@V?$allocator@V?$basic_string@DU?$char_traits@D@std@@V?$allocator@D@2@@std@@@2@@std@@QAEAAV?$basic_string@DU?$char_traits@D@std@@V?$allocator@D@2@@1@I@Z
_TEXT	SEGMENT
__Pos$ = 8						; size = 4
??A?$vector@V?$basic_string@DU?$char_traits@D@std@@V?$allocator@D@2@@std@@V?$allocator@V?$basic_string@DU?$char_traits@D@std@@V?$allocator@D@2@@std@@@2@@std@@QAEAAV?$basic_string@DU?$char_traits@D@std@@V?$allocator@D@2@@1@I@Z PROC ; std::vector<std::basic_string<char,std::char_traits<char>,std::allocator<char> >,std::allocator<std::basic_string<char,std::char_traits<char>,std::allocator<char> > > >::operator[], COMDAT
; _this$ = ecx
; File c:\program files (x86)\microsoft visual studio 10.0\vc\include\vector
; Line 928
	push	ebp
	mov	ebp, esp
; Line 940
	mov	eax, DWORD PTR __Pos$[ebp]
	lea	edx, DWORD PTR [eax*8]
	sub	edx, eax
	mov	eax, DWORD PTR [ecx]
	lea	eax, DWORD PTR [eax+edx*4]
; Line 941
	pop	ebp
	ret	4
??A?$vector@V?$basic_string@DU?$char_traits@D@std@@V?$allocator@D@2@@std@@V?$allocator@V?$basic_string@DU?$char_traits@D@std@@V?$allocator@D@2@@std@@@2@@std@@QAEAAV?$basic_string@DU?$char_traits@D@std@@V?$allocator@D@2@@1@I@Z ENDP ; std::vector<std::basic_string<char,std::char_traits<char>,std::allocator<char> >,std::allocator<std::basic_string<char,std::char_traits<char>,std::allocator<char> > > >::operator[]
_TEXT	ENDS
PUBLIC	??A?$vector@VModelInstance@@V?$allocator@VModelInstance@@@std@@@std@@QAEAAVModelInstance@@I@Z ; std::vector<ModelInstance,std::allocator<ModelInstance> >::operator[]
; Function compile flags: /Ogtp
;	COMDAT ??A?$vector@VModelInstance@@V?$allocator@VModelInstance@@@std@@@std@@QAEAAVModelInstance@@I@Z
_TEXT	SEGMENT
__Pos$ = 8						; size = 4
??A?$vector@VModelInstance@@V?$allocator@VModelInstance@@@std@@@std@@QAEAAVModelInstance@@I@Z PROC ; std::vector<ModelInstance,std::allocator<ModelInstance> >::operator[], COMDAT
; _this$ = ecx
; Line 928
	push	ebp
	mov	ebp, esp
; Line 940
	mov	eax, DWORD PTR __Pos$[ebp]
	imul	eax, 88					; 00000058H
	add	eax, DWORD PTR [ecx]
; Line 941
	pop	ebp
	ret	4
??A?$vector@VModelInstance@@V?$allocator@VModelInstance@@@std@@@std@@QAEAAVModelInstance@@I@Z ENDP ; std::vector<ModelInstance,std::allocator<ModelInstance> >::operator[]
_TEXT	ENDS
PUBLIC	??A?$vector@VWMOInstance@@V?$allocator@VWMOInstance@@@std@@@std@@QAEAAVWMOInstance@@I@Z ; std::vector<WMOInstance,std::allocator<WMOInstance> >::operator[]
; Function compile flags: /Ogtp
;	COMDAT ??A?$vector@VWMOInstance@@V?$allocator@VWMOInstance@@@std@@@std@@QAEAAVWMOInstance@@I@Z
_TEXT	SEGMENT
__Pos$ = 8						; size = 4
??A?$vector@VWMOInstance@@V?$allocator@VWMOInstance@@@std@@@std@@QAEAAVWMOInstance@@I@Z PROC ; std::vector<WMOInstance,std::allocator<WMOInstance> >::operator[], COMDAT
; _this$ = ecx
; Line 928
	push	ebp
	mov	ebp, esp
; Line 940
	mov	eax, DWORD PTR __Pos$[ebp]
	mov	ecx, DWORD PTR [ecx]
	lea	eax, DWORD PTR [eax+eax*8]
	lea	eax, DWORD PTR [ecx+eax*8]
; Line 941
	pop	ebp
	ret	4
??A?$vector@VWMOInstance@@V?$allocator@VWMOInstance@@@std@@@std@@QAEAAVWMOInstance@@I@Z ENDP ; std::vector<WMOInstance,std::allocator<WMOInstance> >::operator[]
_TEXT	ENDS
PUBLIC	??8?$_Tree_const_iterator@V?$_Tree_val@V?$_Tmap_traits@IV?$basic_string@DU?$char_traits@D@std@@V?$allocator@D@2@@std@@U?$less@I@2@V?$allocator@U?$pair@$$CBIV?$basic_string@DU?$char_traits@D@std@@V?$allocator@D@2@@std@@@std@@@2@$0A@@std@@@std@@@std@@QBE_NABV01@@Z ; std::_Tree_const_iterator<std::_Tree_val<std::_Tmap_traits<unsigned int,std::basic_string<char,std::char_traits<char>,std::allocator<char> >,std::less<unsigned int>,std::allocator<std::pair<unsigned int const ,std::basic_string<char,std::char_traits<char>,std::allocator<char> > > >,0> > >::operator==
; Function compile flags: /Ogtp
;	COMDAT ??8?$_Tree_const_iterator@V?$_Tree_val@V?$_Tmap_traits@IV?$basic_string@DU?$char_traits@D@std@@V?$allocator@D@2@@std@@U?$less@I@2@V?$allocator@U?$pair@$$CBIV?$basic_string@DU?$char_traits@D@std@@V?$allocator@D@2@@std@@@std@@@2@$0A@@std@@@std@@@std@@QBE_NABV01@@Z
_TEXT	SEGMENT
__Right$ = 8						; size = 4
??8?$_Tree_const_iterator@V?$_Tree_val@V?$_Tmap_traits@IV?$basic_string@DU?$char_traits@D@std@@V?$allocator@D@2@@std@@U?$less@I@2@V?$allocator@U?$pair@$$CBIV?$basic_string@DU?$char_traits@D@std@@V?$allocator@D@2@@std@@@std@@@2@$0A@@std@@@std@@@std@@QBE_NABV01@@Z PROC ; std::_Tree_const_iterator<std::_Tree_val<std::_Tmap_traits<unsigned int,std::basic_string<char,std::char_traits<char>,std::allocator<char> >,std::less<unsigned int>,std::allocator<std::pair<unsigned int const ,std::basic_string<char,std::char_traits<char>,std::allocator<char> > > >,0> > >::operator==, COMDAT
; _this$ = ecx
; File c:\program files (x86)\microsoft visual studio 10.0\vc\include\xtree
; Line 316
	push	ebp
	mov	ebp, esp
; Line 330
	mov	eax, DWORD PTR [ecx]
	mov	edx, DWORD PTR __Right$[ebp]
	xor	ecx, ecx
	cmp	eax, DWORD PTR [edx]
	sete	al
; Line 331
	pop	ebp
	ret	4
??8?$_Tree_const_iterator@V?$_Tree_val@V?$_Tmap_traits@IV?$basic_string@DU?$char_traits@D@std@@V?$allocator@D@2@@std@@U?$less@I@2@V?$allocator@U?$pair@$$CBIV?$basic_string@DU?$char_traits@D@std@@V?$allocator@D@2@@std@@@std@@@2@$0A@@std@@@std@@@std@@QBE_NABV01@@Z ENDP ; std::_Tree_const_iterator<std::_Tree_val<std::_Tmap_traits<unsigned int,std::basic_string<char,std::char_traits<char>,std::allocator<char> >,std::less<unsigned int>,std::allocator<std::pair<unsigned int const ,std::basic_string<char,std::char_traits<char>,std::allocator<char> > > >,0> > >::operator==
_TEXT	ENDS
PUBLIC	??9?$_Tree_const_iterator@V?$_Tree_val@V?$_Tmap_traits@IV?$basic_string@DU?$char_traits@D@std@@V?$allocator@D@2@@std@@U?$less@I@2@V?$allocator@U?$pair@$$CBIV?$basic_string@DU?$char_traits@D@std@@V?$allocator@D@2@@std@@@std@@@2@$0A@@std@@@std@@@std@@QBE_NABV01@@Z ; std::_Tree_const_iterator<std::_Tree_val<std::_Tmap_traits<unsigned int,std::basic_string<char,std::char_traits<char>,std::allocator<char> >,std::less<unsigned int>,std::allocator<std::pair<unsigned int const ,std::basic_string<char,std::char_traits<char>,std::allocator<char> > > >,0> > >::operator!=
; Function compile flags: /Ogtp
;	COMDAT ??9?$_Tree_const_iterator@V?$_Tree_val@V?$_Tmap_traits@IV?$basic_string@DU?$char_traits@D@std@@V?$allocator@D@2@@std@@U?$less@I@2@V?$allocator@U?$pair@$$CBIV?$basic_string@DU?$char_traits@D@std@@V?$allocator@D@2@@std@@@std@@@2@$0A@@std@@@std@@@std@@QBE_NABV01@@Z
_TEXT	SEGMENT
__Right$ = 8						; size = 4
??9?$_Tree_const_iterator@V?$_Tree_val@V?$_Tmap_traits@IV?$basic_string@DU?$char_traits@D@std@@V?$allocator@D@2@@std@@U?$less@I@2@V?$allocator@U?$pair@$$CBIV?$basic_string@DU?$char_traits@D@std@@V?$allocator@D@2@@std@@@std@@@2@$0A@@std@@@std@@@std@@QBE_NABV01@@Z PROC ; std::_Tree_const_iterator<std::_Tree_val<std::_Tmap_traits<unsigned int,std::basic_string<char,std::char_traits<char>,std::allocator<char> >,std::less<unsigned int>,std::allocator<std::pair<unsigned int const ,std::basic_string<char,std::char_traits<char>,std::allocator<char> > > >,0> > >::operator!=, COMDAT
; _this$ = ecx
; Line 334
	push	ebp
	mov	ebp, esp
; Line 335
	mov	eax, DWORD PTR [ecx]
	mov	edx, DWORD PTR __Right$[ebp]
	xor	ecx, ecx
	cmp	eax, DWORD PTR [edx]
	setne	al
; Line 336
	pop	ebp
	ret	4
??9?$_Tree_const_iterator@V?$_Tree_val@V?$_Tmap_traits@IV?$basic_string@DU?$char_traits@D@std@@V?$allocator@D@2@@std@@U?$less@I@2@V?$allocator@U?$pair@$$CBIV?$basic_string@DU?$char_traits@D@std@@V?$allocator@D@2@@std@@@std@@@2@$0A@@std@@@std@@@std@@QBE_NABV01@@Z ENDP ; std::_Tree_const_iterator<std::_Tree_val<std::_Tmap_traits<unsigned int,std::basic_string<char,std::char_traits<char>,std::allocator<char> >,std::less<unsigned int>,std::allocator<std::pair<unsigned int const ,std::basic_string<char,std::char_traits<char>,std::allocator<char> > > >,0> > >::operator!=
_TEXT	ENDS
PUBLIC	?_Myptr@?$basic_string@DU?$char_traits@D@std@@V?$allocator@D@2@@std@@QBEPBDXZ ; std::basic_string<char,std::char_traits<char>,std::allocator<char> >::_Myptr
; Function compile flags: /Ogtp
;	COMDAT ?_Myptr@?$basic_string@DU?$char_traits@D@std@@V?$allocator@D@2@@std@@QBEPBDXZ
_TEXT	SEGMENT
?_Myptr@?$basic_string@DU?$char_traits@D@std@@V?$allocator@D@2@@std@@QBEPBDXZ PROC ; std::basic_string<char,std::char_traits<char>,std::allocator<char> >::_Myptr, COMDAT
; _this$ = ecx
; File c:\program files (x86)\microsoft visual studio 10.0\vc\include\xstring
; Line 2008
	mov	eax, ecx
; Line 2010
	cmp	DWORD PTR [eax+20], 16			; 00000010H
	jb	SHORT $LN4@Myptr
	mov	eax, DWORD PTR [eax]
$LN4@Myptr:
; Line 2011
	ret	0
?_Myptr@?$basic_string@DU?$char_traits@D@std@@V?$allocator@D@2@@std@@QBEPBDXZ ENDP ; std::basic_string<char,std::char_traits<char>,std::allocator<char> >::_Myptr
_TEXT	ENDS
PUBLIC	??1?$_String_val@DV?$allocator@D@std@@@std@@QAE@XZ ; std::_String_val<char,std::allocator<char> >::~_String_val<char,std::allocator<char> >
; Function compile flags: /Ogtp
;	COMDAT ??1?$_String_val@DV?$allocator@D@std@@@std@@QAE@XZ
_TEXT	SEGMENT
??1?$_String_val@DV?$allocator@D@std@@@std@@QAE@XZ PROC	; std::_String_val<char,std::allocator<char> >::~_String_val<char,std::allocator<char> >, COMDAT
; _this$ = ecx
; Line 459
	ret	0
??1?$_String_val@DV?$allocator@D@std@@@std@@QAE@XZ ENDP	; std::_String_val<char,std::allocator<char> >::~_String_val<char,std::allocator<char> >
_TEXT	ENDS
PUBLIC	??0?$allocator@D@std@@QAE@XZ			; std::allocator<char>::allocator<char>
; Function compile flags: /Ogtp
;	COMDAT ??0?$allocator@D@std@@QAE@XZ
_TEXT	SEGMENT
??0?$allocator@D@std@@QAE@XZ PROC			; std::allocator<char>::allocator<char>, COMDAT
; _this$ = ecx
; File c:\program files (x86)\microsoft visual studio 10.0\vc\include\xmemory
; Line 161
	mov	eax, ecx
; Line 163
	ret	0
??0?$allocator@D@std@@QAE@XZ ENDP			; std::allocator<char>::allocator<char>
_TEXT	ENDS
PUBLIC	??0?$allocator@D@std@@QAE@ABV01@@Z		; std::allocator<char>::allocator<char>
; Function compile flags: /Ogtp
;	COMDAT ??0?$allocator@D@std@@QAE@ABV01@@Z
_TEXT	SEGMENT
___formal$ = 8						; size = 4
??0?$allocator@D@std@@QAE@ABV01@@Z PROC			; std::allocator<char>::allocator<char>, COMDAT
; _this$ = ecx
; Line 165
	mov	eax, ecx
; Line 167
	ret	4
??0?$allocator@D@std@@QAE@ABV01@@Z ENDP			; std::allocator<char>::allocator<char>
_TEXT	ENDS
PUBLIC	??R?$less@H@std@@QBE_NABH0@Z			; std::less<int>::operator()
; Function compile flags: /Ogtp
;	COMDAT ??R?$less@H@std@@QBE_NABH0@Z
_TEXT	SEGMENT
__Left$ = 8						; size = 4
__Right$ = 12						; size = 4
??R?$less@H@std@@QBE_NABH0@Z PROC			; std::less<int>::operator(), COMDAT
; _this$ = ecx
; File c:\program files (x86)\microsoft visual studio 10.0\vc\include\xfunctional
; Line 124
	push	ebp
	mov	ebp, esp
; Line 125
	mov	eax, DWORD PTR __Left$[ebp]
	mov	ecx, DWORD PTR [eax]
	mov	edx, DWORD PTR __Right$[ebp]
	xor	eax, eax
	cmp	ecx, DWORD PTR [edx]
	setl	al
; Line 126
	pop	ebp
	ret	8
??R?$less@H@std@@QBE_NABH0@Z ENDP			; std::less<int>::operator()
_TEXT	ENDS
PUBLIC	??R?$less@I@std@@QBE_NABI0@Z			; std::less<unsigned int>::operator()
; Function compile flags: /Ogtp
;	COMDAT ??R?$less@I@std@@QBE_NABI0@Z
_TEXT	SEGMENT
__Left$ = 8						; size = 4
__Right$ = 12						; size = 4
??R?$less@I@std@@QBE_NABI0@Z PROC			; std::less<unsigned int>::operator(), COMDAT
; _this$ = ecx
; Line 124
	push	ebp
	mov	ebp, esp
; Line 125
	mov	eax, DWORD PTR __Left$[ebp]
	mov	ecx, DWORD PTR [eax]
	mov	edx, DWORD PTR __Right$[ebp]
	cmp	ecx, DWORD PTR [edx]
	sbb	eax, eax
	neg	eax
; Line 126
	pop	ebp
	ret	8
??R?$less@I@std@@QBE_NABI0@Z ENDP			; std::less<unsigned int>::operator()
_TEXT	ENDS
PUBLIC	?_Inside@?$vector@V?$basic_string@DU?$char_traits@D@std@@V?$allocator@D@2@@std@@V?$allocator@V?$basic_string@DU?$char_traits@D@std@@V?$allocator@D@2@@std@@@2@@std@@IBE_NPBV?$basic_string@DU?$char_traits@D@std@@V?$allocator@D@2@@2@@Z ; std::vector<std::basic_string<char,std::char_traits<char>,std::allocator<char> >,std::allocator<std::basic_string<char,std::char_traits<char>,std::allocator<char> > > >::_Inside
; Function compile flags: /Ogtp
;	COMDAT ?_Inside@?$vector@V?$basic_string@DU?$char_traits@D@std@@V?$allocator@D@2@@std@@V?$allocator@V?$basic_string@DU?$char_traits@D@std@@V?$allocator@D@2@@std@@@2@@std@@IBE_NPBV?$basic_string@DU?$char_traits@D@std@@V?$allocator@D@2@@2@@Z
_TEXT	SEGMENT
__Ptr$ = 8						; size = 4
?_Inside@?$vector@V?$basic_string@DU?$char_traits@D@std@@V?$allocator@D@2@@std@@V?$allocator@V?$basic_string@DU?$char_traits@D@std@@V?$allocator@D@2@@std@@@2@@std@@IBE_NPBV?$basic_string@DU?$char_traits@D@std@@V?$allocator@D@2@@2@@Z PROC ; std::vector<std::basic_string<char,std::char_traits<char>,std::allocator<char> >,std::allocator<std::basic_string<char,std::char_traits<char>,std::allocator<char> > > >::_Inside, COMDAT
; _this$ = ecx
; File c:\program files (x86)\microsoft visual studio 10.0\vc\include\vector
; Line 1285
	push	ebp
	mov	ebp, esp
; Line 1286
	mov	eax, DWORD PTR __Ptr$[ebp]
	cmp	eax, DWORD PTR [ecx+4]
	jae	SHORT $LN3@Inside
	cmp	DWORD PTR [ecx], eax
	ja	SHORT $LN3@Inside
	mov	eax, 1
; Line 1287
	pop	ebp
	ret	4
$LN3@Inside:
; Line 1286
	xor	eax, eax
; Line 1287
	pop	ebp
	ret	4
?_Inside@?$vector@V?$basic_string@DU?$char_traits@D@std@@V?$allocator@D@2@@std@@V?$allocator@V?$basic_string@DU?$char_traits@D@std@@V?$allocator@D@2@@std@@@2@@std@@IBE_NPBV?$basic_string@DU?$char_traits@D@std@@V?$allocator@D@2@@2@@Z ENDP ; std::vector<std::basic_string<char,std::char_traits<char>,std::allocator<char> >,std::allocator<std::basic_string<char,std::char_traits<char>,std::allocator<char> > > >::_Inside
_TEXT	ENDS
PUBLIC	?_Orphan_range@?$vector@V?$basic_string@DU?$char_traits@D@std@@V?$allocator@D@2@@std@@V?$allocator@V?$basic_string@DU?$char_traits@D@std@@V?$allocator@D@2@@std@@@2@@std@@IBEXPAV?$basic_string@DU?$char_traits@D@std@@V?$allocator@D@2@@2@0@Z ; std::vector<std::basic_string<char,std::char_traits<char>,std::allocator<char> >,std::allocator<std::basic_string<char,std::char_traits<char>,std::allocator<char> > > >::_Orphan_range
; Function compile flags: /Ogtp
;	COMDAT ?_Orphan_range@?$vector@V?$basic_string@DU?$char_traits@D@std@@V?$allocator@D@2@@std@@V?$allocator@V?$basic_string@DU?$char_traits@D@std@@V?$allocator@D@2@@std@@@2@@std@@IBEXPAV?$basic_string@DU?$char_traits@D@std@@V?$allocator@D@2@@2@0@Z
_TEXT	SEGMENT
___formal$ = 8						; size = 4
___formal$ = 12						; size = 4
?_Orphan_range@?$vector@V?$basic_string@DU?$char_traits@D@std@@V?$allocator@D@2@@std@@V?$allocator@V?$basic_string@DU?$char_traits@D@std@@V?$allocator@D@2@@std@@@2@@std@@IBEXPAV?$basic_string@DU?$char_traits@D@std@@V?$allocator@D@2@@2@0@Z PROC ; std::vector<std::basic_string<char,std::char_traits<char>,std::allocator<char> >,std::allocator<std::basic_string<char,std::char_traits<char>,std::allocator<char> > > >::_Orphan_range, COMDAT
; _this$ = ecx
; Line 1454
	ret	8
?_Orphan_range@?$vector@V?$basic_string@DU?$char_traits@D@std@@V?$allocator@D@2@@std@@V?$allocator@V?$basic_string@DU?$char_traits@D@std@@V?$allocator@D@2@@std@@@2@@std@@IBEXPAV?$basic_string@DU?$char_traits@D@std@@V?$allocator@D@2@@2@0@Z ENDP ; std::vector<std::basic_string<char,std::char_traits<char>,std::allocator<char> >,std::allocator<std::basic_string<char,std::char_traits<char>,std::allocator<char> > > >::_Orphan_range
_TEXT	ENDS
PUBLIC	??1?$_Vector_val@V?$basic_string@DU?$char_traits@D@std@@V?$allocator@D@2@@std@@V?$allocator@V?$basic_string@DU?$char_traits@D@std@@V?$allocator@D@2@@std@@@2@@std@@QAE@XZ ; std::_Vector_val<std::basic_string<char,std::char_traits<char>,std::allocator<char> >,std::allocator<std::basic_string<char,std::char_traits<char>,std::allocator<char> > > >::~_Vector_val<std::basic_string<char,std::char_traits<char>,std::allocator<char> >,std::allocator<std::basic_string<char,std::char_traits<char>,std::allocator<char> > > >
; Function compile flags: /Ogtp
;	COMDAT ??1?$_Vector_val@V?$basic_string@DU?$char_traits@D@std@@V?$allocator@D@2@@std@@V?$allocator@V?$basic_string@DU?$char_traits@D@std@@V?$allocator@D@2@@std@@@2@@std@@QAE@XZ
_TEXT	SEGMENT
??1?$_Vector_val@V?$basic_string@DU?$char_traits@D@std@@V?$allocator@D@2@@std@@V?$allocator@V?$basic_string@DU?$char_traits@D@std@@V?$allocator@D@2@@std@@@2@@std@@QAE@XZ PROC ; std::_Vector_val<std::basic_string<char,std::char_traits<char>,std::allocator<char> >,std::allocator<std::basic_string<char,std::char_traits<char>,std::allocator<char> > > >::~_Vector_val<std::basic_string<char,std::char_traits<char>,std::allocator<char> >,std::allocator<std::basic_string<char,std::char_traits<char>,std::allocator<char> > > >, COMDAT
; _this$ = ecx
; Line 434
	ret	0
??1?$_Vector_val@V?$basic_string@DU?$char_traits@D@std@@V?$allocator@D@2@@std@@V?$allocator@V?$basic_string@DU?$char_traits@D@std@@V?$allocator@D@2@@std@@@2@@std@@QAE@XZ ENDP ; std::_Vector_val<std::basic_string<char,std::char_traits<char>,std::allocator<char> >,std::allocator<std::basic_string<char,std::char_traits<char>,std::allocator<char> > > >::~_Vector_val<std::basic_string<char,std::char_traits<char>,std::allocator<char> >,std::allocator<std::basic_string<char,std::char_traits<char>,std::allocator<char> > > >
_TEXT	ENDS
PUBLIC	??0?$allocator@V?$basic_string@DU?$char_traits@D@std@@V?$allocator@D@2@@std@@@std@@QAE@XZ ; std::allocator<std::basic_string<char,std::char_traits<char>,std::allocator<char> > >::allocator<std::basic_string<char,std::char_traits<char>,std::allocator<char> > >
; Function compile flags: /Ogtp
;	COMDAT ??0?$allocator@V?$basic_string@DU?$char_traits@D@std@@V?$allocator@D@2@@std@@@std@@QAE@XZ
_TEXT	SEGMENT
??0?$allocator@V?$basic_string@DU?$char_traits@D@std@@V?$allocator@D@2@@std@@@std@@QAE@XZ PROC ; std::allocator<std::basic_string<char,std::char_traits<char>,std::allocator<char> > >::allocator<std::basic_string<char,std::char_traits<char>,std::allocator<char> > >, COMDAT
; _this$ = ecx
; File c:\program files (x86)\microsoft visual studio 10.0\vc\include\xmemory
; Line 161
	mov	eax, ecx
; Line 163
	ret	0
??0?$allocator@V?$basic_string@DU?$char_traits@D@std@@V?$allocator@D@2@@std@@@std@@QAE@XZ ENDP ; std::allocator<std::basic_string<char,std::char_traits<char>,std::allocator<char> > >::allocator<std::basic_string<char,std::char_traits<char>,std::allocator<char> > >
_TEXT	ENDS
PUBLIC	?_Inside@?$vector@VModelInstance@@V?$allocator@VModelInstance@@@std@@@std@@IBE_NPBVModelInstance@@@Z ; std::vector<ModelInstance,std::allocator<ModelInstance> >::_Inside
; Function compile flags: /Ogtp
;	COMDAT ?_Inside@?$vector@VModelInstance@@V?$allocator@VModelInstance@@@std@@@std@@IBE_NPBVModelInstance@@@Z
_TEXT	SEGMENT
__Ptr$ = 8						; size = 4
?_Inside@?$vector@VModelInstance@@V?$allocator@VModelInstance@@@std@@@std@@IBE_NPBVModelInstance@@@Z PROC ; std::vector<ModelInstance,std::allocator<ModelInstance> >::_Inside, COMDAT
; _this$ = ecx
; File c:\program files (x86)\microsoft visual studio 10.0\vc\include\vector
; Line 1285
	push	ebp
	mov	ebp, esp
; Line 1286
	mov	eax, DWORD PTR __Ptr$[ebp]
	cmp	eax, DWORD PTR [ecx+4]
	jae	SHORT $LN3@Inside@2
	cmp	DWORD PTR [ecx], eax
	ja	SHORT $LN3@Inside@2
	mov	eax, 1
; Line 1287
	pop	ebp
	ret	4
$LN3@Inside@2:
; Line 1286
	xor	eax, eax
; Line 1287
	pop	ebp
	ret	4
?_Inside@?$vector@VModelInstance@@V?$allocator@VModelInstance@@@std@@@std@@IBE_NPBVModelInstance@@@Z ENDP ; std::vector<ModelInstance,std::allocator<ModelInstance> >::_Inside
_TEXT	ENDS
PUBLIC	?_Orphan_range@?$vector@VModelInstance@@V?$allocator@VModelInstance@@@std@@@std@@IBEXPAVModelInstance@@0@Z ; std::vector<ModelInstance,std::allocator<ModelInstance> >::_Orphan_range
; Function compile flags: /Ogtp
;	COMDAT ?_Orphan_range@?$vector@VModelInstance@@V?$allocator@VModelInstance@@@std@@@std@@IBEXPAVModelInstance@@0@Z
_TEXT	SEGMENT
___formal$ = 8						; size = 4
___formal$ = 12						; size = 4
?_Orphan_range@?$vector@VModelInstance@@V?$allocator@VModelInstance@@@std@@@std@@IBEXPAVModelInstance@@0@Z PROC ; std::vector<ModelInstance,std::allocator<ModelInstance> >::_Orphan_range, COMDAT
; _this$ = ecx
; Line 1454
	ret	8
?_Orphan_range@?$vector@VModelInstance@@V?$allocator@VModelInstance@@@std@@@std@@IBEXPAVModelInstance@@0@Z ENDP ; std::vector<ModelInstance,std::allocator<ModelInstance> >::_Orphan_range
_TEXT	ENDS
PUBLIC	??1?$_Vector_val@VModelInstance@@V?$allocator@VModelInstance@@@std@@@std@@QAE@XZ ; std::_Vector_val<ModelInstance,std::allocator<ModelInstance> >::~_Vector_val<ModelInstance,std::allocator<ModelInstance> >
; Function compile flags: /Ogtp
;	COMDAT ??1?$_Vector_val@VModelInstance@@V?$allocator@VModelInstance@@@std@@@std@@QAE@XZ
_TEXT	SEGMENT
??1?$_Vector_val@VModelInstance@@V?$allocator@VModelInstance@@@std@@@std@@QAE@XZ PROC ; std::_Vector_val<ModelInstance,std::allocator<ModelInstance> >::~_Vector_val<ModelInstance,std::allocator<ModelInstance> >, COMDAT
; _this$ = ecx
; Line 434
	ret	0
??1?$_Vector_val@VModelInstance@@V?$allocator@VModelInstance@@@std@@@std@@QAE@XZ ENDP ; std::_Vector_val<ModelInstance,std::allocator<ModelInstance> >::~_Vector_val<ModelInstance,std::allocator<ModelInstance> >
_TEXT	ENDS
PUBLIC	??0?$allocator@VModelInstance@@@std@@QAE@XZ	; std::allocator<ModelInstance>::allocator<ModelInstance>
; Function compile flags: /Ogtp
;	COMDAT ??0?$allocator@VModelInstance@@@std@@QAE@XZ
_TEXT	SEGMENT
??0?$allocator@VModelInstance@@@std@@QAE@XZ PROC	; std::allocator<ModelInstance>::allocator<ModelInstance>, COMDAT
; _this$ = ecx
; File c:\program files (x86)\microsoft visual studio 10.0\vc\include\xmemory
; Line 161
	mov	eax, ecx
; Line 163
	ret	0
??0?$allocator@VModelInstance@@@std@@QAE@XZ ENDP	; std::allocator<ModelInstance>::allocator<ModelInstance>
_TEXT	ENDS
PUBLIC	??1?$_Vector_val@IV?$allocator@I@std@@@std@@QAE@XZ ; std::_Vector_val<unsigned int,std::allocator<unsigned int> >::~_Vector_val<unsigned int,std::allocator<unsigned int> >
; Function compile flags: /Ogtp
;	COMDAT ??1?$_Vector_val@IV?$allocator@I@std@@@std@@QAE@XZ
_TEXT	SEGMENT
??1?$_Vector_val@IV?$allocator@I@std@@@std@@QAE@XZ PROC	; std::_Vector_val<unsigned int,std::allocator<unsigned int> >::~_Vector_val<unsigned int,std::allocator<unsigned int> >, COMDAT
; _this$ = ecx
; File c:\program files (x86)\microsoft visual studio 10.0\vc\include\vector
; Line 434
	ret	0
??1?$_Vector_val@IV?$allocator@I@std@@@std@@QAE@XZ ENDP	; std::_Vector_val<unsigned int,std::allocator<unsigned int> >::~_Vector_val<unsigned int,std::allocator<unsigned int> >
_TEXT	ENDS
PUBLIC	??0?$allocator@I@std@@QAE@XZ			; std::allocator<unsigned int>::allocator<unsigned int>
; Function compile flags: /Ogtp
;	COMDAT ??0?$allocator@I@std@@QAE@XZ
_TEXT	SEGMENT
??0?$allocator@I@std@@QAE@XZ PROC			; std::allocator<unsigned int>::allocator<unsigned int>, COMDAT
; _this$ = ecx
; File c:\program files (x86)\microsoft visual studio 10.0\vc\include\xmemory
; Line 161
	mov	eax, ecx
; Line 163
	ret	0
??0?$allocator@I@std@@QAE@XZ ENDP			; std::allocator<unsigned int>::allocator<unsigned int>
_TEXT	ENDS
PUBLIC	?_Inside@?$vector@VWMOInstance@@V?$allocator@VWMOInstance@@@std@@@std@@IBE_NPBVWMOInstance@@@Z ; std::vector<WMOInstance,std::allocator<WMOInstance> >::_Inside
; Function compile flags: /Ogtp
;	COMDAT ?_Inside@?$vector@VWMOInstance@@V?$allocator@VWMOInstance@@@std@@@std@@IBE_NPBVWMOInstance@@@Z
_TEXT	SEGMENT
__Ptr$ = 8						; size = 4
?_Inside@?$vector@VWMOInstance@@V?$allocator@VWMOInstance@@@std@@@std@@IBE_NPBVWMOInstance@@@Z PROC ; std::vector<WMOInstance,std::allocator<WMOInstance> >::_Inside, COMDAT
; _this$ = ecx
; File c:\program files (x86)\microsoft visual studio 10.0\vc\include\vector
; Line 1285
	push	ebp
	mov	ebp, esp
; Line 1286
	mov	eax, DWORD PTR __Ptr$[ebp]
	cmp	eax, DWORD PTR [ecx+4]
	jae	SHORT $LN3@Inside@3
	cmp	DWORD PTR [ecx], eax
	ja	SHORT $LN3@Inside@3
	mov	eax, 1
; Line 1287
	pop	ebp
	ret	4
$LN3@Inside@3:
; Line 1286
	xor	eax, eax
; Line 1287
	pop	ebp
	ret	4
?_Inside@?$vector@VWMOInstance@@V?$allocator@VWMOInstance@@@std@@@std@@IBE_NPBVWMOInstance@@@Z ENDP ; std::vector<WMOInstance,std::allocator<WMOInstance> >::_Inside
_TEXT	ENDS
PUBLIC	?_Orphan_range@?$vector@VWMOInstance@@V?$allocator@VWMOInstance@@@std@@@std@@IBEXPAVWMOInstance@@0@Z ; std::vector<WMOInstance,std::allocator<WMOInstance> >::_Orphan_range
; Function compile flags: /Ogtp
;	COMDAT ?_Orphan_range@?$vector@VWMOInstance@@V?$allocator@VWMOInstance@@@std@@@std@@IBEXPAVWMOInstance@@0@Z
_TEXT	SEGMENT
___formal$ = 8						; size = 4
___formal$ = 12						; size = 4
?_Orphan_range@?$vector@VWMOInstance@@V?$allocator@VWMOInstance@@@std@@@std@@IBEXPAVWMOInstance@@0@Z PROC ; std::vector<WMOInstance,std::allocator<WMOInstance> >::_Orphan_range, COMDAT
; _this$ = ecx
; Line 1454
	ret	8
?_Orphan_range@?$vector@VWMOInstance@@V?$allocator@VWMOInstance@@@std@@@std@@IBEXPAVWMOInstance@@0@Z ENDP ; std::vector<WMOInstance,std::allocator<WMOInstance> >::_Orphan_range
_TEXT	ENDS
PUBLIC	??1?$_Vector_val@VWMOInstance@@V?$allocator@VWMOInstance@@@std@@@std@@QAE@XZ ; std::_Vector_val<WMOInstance,std::allocator<WMOInstance> >::~_Vector_val<WMOInstance,std::allocator<WMOInstance> >
; Function compile flags: /Ogtp
;	COMDAT ??1?$_Vector_val@VWMOInstance@@V?$allocator@VWMOInstance@@@std@@@std@@QAE@XZ
_TEXT	SEGMENT
??1?$_Vector_val@VWMOInstance@@V?$allocator@VWMOInstance@@@std@@@std@@QAE@XZ PROC ; std::_Vector_val<WMOInstance,std::allocator<WMOInstance> >::~_Vector_val<WMOInstance,std::allocator<WMOInstance> >, COMDAT
; _this$ = ecx
; Line 434
	ret	0
??1?$_Vector_val@VWMOInstance@@V?$allocator@VWMOInstance@@@std@@@std@@QAE@XZ ENDP ; std::_Vector_val<WMOInstance,std::allocator<WMOInstance> >::~_Vector_val<WMOInstance,std::allocator<WMOInstance> >
_TEXT	ENDS
PUBLIC	??0?$allocator@VWMOInstance@@@std@@QAE@XZ	; std::allocator<WMOInstance>::allocator<WMOInstance>
; Function compile flags: /Ogtp
;	COMDAT ??0?$allocator@VWMOInstance@@@std@@QAE@XZ
_TEXT	SEGMENT
??0?$allocator@VWMOInstance@@@std@@QAE@XZ PROC		; std::allocator<WMOInstance>::allocator<WMOInstance>, COMDAT
; _this$ = ecx
; File c:\program files (x86)\microsoft visual studio 10.0\vc\include\xmemory
; Line 161
	mov	eax, ecx
; Line 163
	ret	0
??0?$allocator@VWMOInstance@@@std@@QAE@XZ ENDP		; std::allocator<WMOInstance>::allocator<WMOInstance>
_TEXT	ENDS
PUBLIC	??D?$_Vector_const_iterator@V?$_Vector_val@V?$basic_string@DU?$char_traits@D@std@@V?$allocator@D@2@@std@@V?$allocator@V?$basic_string@DU?$char_traits@D@std@@V?$allocator@D@2@@std@@@2@@std@@@std@@QBEABV?$basic_string@DU?$char_traits@D@std@@V?$allocator@D@2@@1@XZ ; std::_Vector_const_iterator<std::_Vector_val<std::basic_string<char,std::char_traits<char>,std::allocator<char> >,std::allocator<std::basic_string<char,std::char_traits<char>,std::allocator<char> > > > >::operator*
; Function compile flags: /Ogtp
;	COMDAT ??D?$_Vector_const_iterator@V?$_Vector_val@V?$basic_string@DU?$char_traits@D@std@@V?$allocator@D@2@@std@@V?$allocator@V?$basic_string@DU?$char_traits@D@std@@V?$allocator@D@2@@std@@@2@@std@@@std@@QBEABV?$basic_string@DU?$char_traits@D@std@@V?$allocator@D@2@@1@XZ
_TEXT	SEGMENT
??D?$_Vector_const_iterator@V?$_Vector_val@V?$basic_string@DU?$char_traits@D@std@@V?$allocator@D@2@@std@@V?$allocator@V?$basic_string@DU?$char_traits@D@std@@V?$allocator@D@2@@std@@@2@@std@@@std@@QBEABV?$basic_string@DU?$char_traits@D@std@@V?$allocator@D@2@@1@XZ PROC ; std::_Vector_const_iterator<std::_Vector_val<std::basic_string<char,std::char_traits<char>,std::allocator<char> >,std::allocator<std::basic_string<char,std::char_traits<char>,std::allocator<char> > > > >::operator*, COMDAT
; _this$ = ecx
; File c:\program files (x86)\microsoft visual studio 10.0\vc\include\vector
; Line 84
	mov	eax, DWORD PTR [ecx]
; Line 85
	ret	0
??D?$_Vector_const_iterator@V?$_Vector_val@V?$basic_string@DU?$char_traits@D@std@@V?$allocator@D@2@@std@@V?$allocator@V?$basic_string@DU?$char_traits@D@std@@V?$allocator@D@2@@std@@@2@@std@@@std@@QBEABV?$basic_string@DU?$char_traits@D@std@@V?$allocator@D@2@@1@XZ ENDP ; std::_Vector_const_iterator<std::_Vector_val<std::basic_string<char,std::char_traits<char>,std::allocator<char> >,std::allocator<std::basic_string<char,std::char_traits<char>,std::allocator<char> > > > >::operator*
_TEXT	ENDS
PUBLIC	??E?$_Vector_const_iterator@V?$_Vector_val@V?$basic_string@DU?$char_traits@D@std@@V?$allocator@D@2@@std@@V?$allocator@V?$basic_string@DU?$char_traits@D@std@@V?$allocator@D@2@@std@@@2@@std@@@std@@QAEAAV01@XZ ; std::_Vector_const_iterator<std::_Vector_val<std::basic_string<char,std::char_traits<char>,std::allocator<char> >,std::allocator<std::basic_string<char,std::char_traits<char>,std::allocator<char> > > > >::operator++
; Function compile flags: /Ogtp
;	COMDAT ??E?$_Vector_const_iterator@V?$_Vector_val@V?$basic_string@DU?$char_traits@D@std@@V?$allocator@D@2@@std@@V?$allocator@V?$basic_string@DU?$char_traits@D@std@@V?$allocator@D@2@@std@@@2@@std@@@std@@QAEAAV01@XZ
_TEXT	SEGMENT
??E?$_Vector_const_iterator@V?$_Vector_val@V?$basic_string@DU?$char_traits@D@std@@V?$allocator@D@2@@std@@V?$allocator@V?$basic_string@DU?$char_traits@D@std@@V?$allocator@D@2@@std@@@2@@std@@@std@@QAEAAV01@XZ PROC ; std::_Vector_const_iterator<std::_Vector_val<std::basic_string<char,std::char_traits<char>,std::allocator<char> >,std::allocator<std::basic_string<char,std::char_traits<char>,std::allocator<char> > > > >::operator++, COMDAT
; _this$ = ecx
; Line 93
	mov	eax, ecx
; Line 110
	add	DWORD PTR [eax], 28			; 0000001cH
; Line 112
	ret	0
??E?$_Vector_const_iterator@V?$_Vector_val@V?$basic_string@DU?$char_traits@D@std@@V?$allocator@D@2@@std@@V?$allocator@V?$basic_string@DU?$char_traits@D@std@@V?$allocator@D@2@@std@@@2@@std@@@std@@QAEAAV01@XZ ENDP ; std::_Vector_const_iterator<std::_Vector_val<std::basic_string<char,std::char_traits<char>,std::allocator<char> >,std::allocator<std::basic_string<char,std::char_traits<char>,std::allocator<char> > > > >::operator++
_TEXT	ENDS
PUBLIC	??0?$allocator@U?$pair@$$CBIV?$basic_string@DU?$char_traits@D@std@@V?$allocator@D@2@@std@@@std@@@std@@QAE@XZ ; std::allocator<std::pair<unsigned int const ,std::basic_string<char,std::char_traits<char>,std::allocator<char> > > >::allocator<std::pair<unsigned int const ,std::basic_string<char,std::char_traits<char>,std::allocator<char> > > >
; Function compile flags: /Ogtp
;	COMDAT ??0?$allocator@U?$pair@$$CBIV?$basic_string@DU?$char_traits@D@std@@V?$allocator@D@2@@std@@@std@@@std@@QAE@XZ
_TEXT	SEGMENT
??0?$allocator@U?$pair@$$CBIV?$basic_string@DU?$char_traits@D@std@@V?$allocator@D@2@@std@@@std@@@std@@QAE@XZ PROC ; std::allocator<std::pair<unsigned int const ,std::basic_string<char,std::char_traits<char>,std::allocator<char> > > >::allocator<std::pair<unsigned int const ,std::basic_string<char,std::char_traits<char>,std::allocator<char> > > >, COMDAT
; _this$ = ecx
; File c:\program files (x86)\microsoft visual studio 10.0\vc\include\xmemory
; Line 161
	mov	eax, ecx
; Line 163
	ret	0
??0?$allocator@U?$pair@$$CBIV?$basic_string@DU?$char_traits@D@std@@V?$allocator@D@2@@std@@@std@@@std@@QAE@XZ ENDP ; std::allocator<std::pair<unsigned int const ,std::basic_string<char,std::char_traits<char>,std::allocator<char> > > >::allocator<std::pair<unsigned int const ,std::basic_string<char,std::char_traits<char>,std::allocator<char> > > >
_TEXT	ENDS
PUBLIC	??0?$allocator@U?$pair@$$CBIH@std@@@std@@QAE@XZ	; std::allocator<std::pair<unsigned int const ,int> >::allocator<std::pair<unsigned int const ,int> >
; Function compile flags: /Ogtp
;	COMDAT ??0?$allocator@U?$pair@$$CBIH@std@@@std@@QAE@XZ
_TEXT	SEGMENT
??0?$allocator@U?$pair@$$CBIH@std@@@std@@QAE@XZ PROC	; std::allocator<std::pair<unsigned int const ,int> >::allocator<std::pair<unsigned int const ,int> >, COMDAT
; _this$ = ecx
; Line 161
	mov	eax, ecx
; Line 163
	ret	0
??0?$allocator@U?$pair@$$CBIH@std@@@std@@QAE@XZ ENDP	; std::allocator<std::pair<unsigned int const ,int> >::allocator<std::pair<unsigned int const ,int> >
_TEXT	ENDS
PUBLIC	?_Mynode@?$_Tree_unchecked_const_iterator@V?$_Tree_val@V?$_Tmap_traits@IV?$basic_string@DU?$char_traits@D@std@@V?$allocator@D@2@@std@@U?$less@I@2@V?$allocator@U?$pair@$$CBIV?$basic_string@DU?$char_traits@D@std@@V?$allocator@D@2@@std@@@std@@@2@$0A@@std@@@std@@U_Iterator_base0@2@@std@@QBEPAU_Node@?$_Tree_nod@V?$_Tmap_traits@IV?$basic_string@DU?$char_traits@D@std@@V?$allocator@D@2@@std@@U?$less@I@2@V?$allocator@U?$pair@$$CBIV?$basic_string@DU?$char_traits@D@std@@V?$allocator@D@2@@std@@@std@@@2@$0A@@std@@@2@XZ ; std::_Tree_unchecked_const_iterator<std::_Tree_val<std::_Tmap_traits<unsigned int,std::basic_string<char,std::char_traits<char>,std::allocator<char> >,std::less<unsigned int>,std::allocator<std::pair<unsigned int const ,std::basic_string<char,std::char_traits<char>,std::allocator<char> > > >,0> >,std::_Iterator_base0>::_Mynode
; Function compile flags: /Ogtp
;	COMDAT ?_Mynode@?$_Tree_unchecked_const_iterator@V?$_Tree_val@V?$_Tmap_traits@IV?$basic_string@DU?$char_traits@D@std@@V?$allocator@D@2@@std@@U?$less@I@2@V?$allocator@U?$pair@$$CBIV?$basic_string@DU?$char_traits@D@std@@V?$allocator@D@2@@std@@@std@@@2@$0A@@std@@@std@@U_Iterator_base0@2@@std@@QBEPAU_Node@?$_Tree_nod@V?$_Tmap_traits@IV?$basic_string@DU?$char_traits@D@std@@V?$allocator@D@2@@std@@U?$less@I@2@V?$allocator@U?$pair@$$CBIV?$basic_string@DU?$char_traits@D@std@@V?$allocator@D@2@@std@@@std@@@2@$0A@@std@@@2@XZ
_TEXT	SEGMENT
?_Mynode@?$_Tree_unchecked_const_iterator@V?$_Tree_val@V?$_Tmap_traits@IV?$basic_string@DU?$char_traits@D@std@@V?$allocator@D@2@@std@@U?$less@I@2@V?$allocator@U?$pair@$$CBIV?$basic_string@DU?$char_traits@D@std@@V?$allocator@D@2@@std@@@std@@@2@$0A@@std@@@std@@U_Iterator_base0@2@@std@@QBEPAU_Node@?$_Tree_nod@V?$_Tmap_traits@IV?$basic_string@DU?$char_traits@D@std@@V?$allocator@D@2@@std@@U?$less@I@2@V?$allocator@U?$pair@$$CBIV?$basic_string@DU?$char_traits@D@std@@V?$allocator@D@2@@std@@@std@@@2@$0A@@std@@@2@XZ PROC ; std::_Tree_unchecked_const_iterator<std::_Tree_val<std::_Tmap_traits<unsigned int,std::basic_string<char,std::char_traits<char>,std::allocator<char> >,std::less<unsigned int>,std::allocator<std::pair<unsigned int const ,std::basic_string<char,std::char_traits<char>,std::allocator<char> > > >,0> >,std::_Iterator_base0>::_Mynode, COMDAT
; _this$ = ecx
; File c:\program files (x86)\microsoft visual studio 10.0\vc\include\xtree
; Line 122
	mov	eax, DWORD PTR [ecx]
; Line 123
	ret	0
?_Mynode@?$_Tree_unchecked_const_iterator@V?$_Tree_val@V?$_Tmap_traits@IV?$basic_string@DU?$char_traits@D@std@@V?$allocator@D@2@@std@@U?$less@I@2@V?$allocator@U?$pair@$$CBIV?$basic_string@DU?$char_traits@D@std@@V?$allocator@D@2@@std@@@std@@@2@$0A@@std@@@std@@U_Iterator_base0@2@@std@@QBEPAU_Node@?$_Tree_nod@V?$_Tmap_traits@IV?$basic_string@DU?$char_traits@D@std@@V?$allocator@D@2@@std@@U?$less@I@2@V?$allocator@U?$pair@$$CBIV?$basic_string@DU?$char_traits@D@std@@V?$allocator@D@2@@std@@@std@@@2@$0A@@std@@@2@XZ ENDP ; std::_Tree_unchecked_const_iterator<std::_Tree_val<std::_Tmap_traits<unsigned int,std::basic_string<char,std::char_traits<char>,std::allocator<char> >,std::less<unsigned int>,std::allocator<std::pair<unsigned int const ,std::basic_string<char,std::char_traits<char>,std::allocator<char> > > >,0> >,std::_Iterator_base0>::_Mynode
_TEXT	ENDS
PUBLIC	??8?$_Tree_const_iterator@V?$_Tree_val@V?$_Tmap_traits@HPAVManagedItem@@U?$less@H@std@@V?$allocator@U?$pair@$$CBHPAVManagedItem@@@std@@@3@$0A@@std@@@std@@@std@@QBE_NABV01@@Z ; std::_Tree_const_iterator<std::_Tree_val<std::_Tmap_traits<int,ManagedItem *,std::less<int>,std::allocator<std::pair<int const ,ManagedItem *> >,0> > >::operator==
; Function compile flags: /Ogtp
;	COMDAT ??8?$_Tree_const_iterator@V?$_Tree_val@V?$_Tmap_traits@HPAVManagedItem@@U?$less@H@std@@V?$allocator@U?$pair@$$CBHPAVManagedItem@@@std@@@3@$0A@@std@@@std@@@std@@QBE_NABV01@@Z
_TEXT	SEGMENT
__Right$ = 8						; size = 4
??8?$_Tree_const_iterator@V?$_Tree_val@V?$_Tmap_traits@HPAVManagedItem@@U?$less@H@std@@V?$allocator@U?$pair@$$CBHPAVManagedItem@@@std@@@3@$0A@@std@@@std@@@std@@QBE_NABV01@@Z PROC ; std::_Tree_const_iterator<std::_Tree_val<std::_Tmap_traits<int,ManagedItem *,std::less<int>,std::allocator<std::pair<int const ,ManagedItem *> >,0> > >::operator==, COMDAT
; _this$ = ecx
; Line 316
	push	ebp
	mov	ebp, esp
; Line 330
	mov	eax, DWORD PTR [ecx]
	mov	edx, DWORD PTR __Right$[ebp]
	xor	ecx, ecx
	cmp	eax, DWORD PTR [edx]
	sete	al
; Line 331
	pop	ebp
	ret	4
??8?$_Tree_const_iterator@V?$_Tree_val@V?$_Tmap_traits@HPAVManagedItem@@U?$less@H@std@@V?$allocator@U?$pair@$$CBHPAVManagedItem@@@std@@@3@$0A@@std@@@std@@@std@@QBE_NABV01@@Z ENDP ; std::_Tree_const_iterator<std::_Tree_val<std::_Tmap_traits<int,ManagedItem *,std::less<int>,std::allocator<std::pair<int const ,ManagedItem *> >,0> > >::operator==
_TEXT	ENDS
PUBLIC	?_Mynode@?$_Tree_unchecked_const_iterator@V?$_Tree_val@V?$_Tmap_traits@HPAVManagedItem@@U?$less@H@std@@V?$allocator@U?$pair@$$CBHPAVManagedItem@@@std@@@3@$0A@@std@@@std@@U_Iterator_base0@2@@std@@QBEPAU_Node@?$_Tree_nod@V?$_Tmap_traits@HPAVManagedItem@@U?$less@H@std@@V?$allocator@U?$pair@$$CBHPAVManagedItem@@@std@@@3@$0A@@std@@@2@XZ ; std::_Tree_unchecked_const_iterator<std::_Tree_val<std::_Tmap_traits<int,ManagedItem *,std::less<int>,std::allocator<std::pair<int const ,ManagedItem *> >,0> >,std::_Iterator_base0>::_Mynode
; Function compile flags: /Ogtp
;	COMDAT ?_Mynode@?$_Tree_unchecked_const_iterator@V?$_Tree_val@V?$_Tmap_traits@HPAVManagedItem@@U?$less@H@std@@V?$allocator@U?$pair@$$CBHPAVManagedItem@@@std@@@3@$0A@@std@@@std@@U_Iterator_base0@2@@std@@QBEPAU_Node@?$_Tree_nod@V?$_Tmap_traits@HPAVManagedItem@@U?$less@H@std@@V?$allocator@U?$pair@$$CBHPAVManagedItem@@@std@@@3@$0A@@std@@@2@XZ
_TEXT	SEGMENT
?_Mynode@?$_Tree_unchecked_const_iterator@V?$_Tree_val@V?$_Tmap_traits@HPAVManagedItem@@U?$less@H@std@@V?$allocator@U?$pair@$$CBHPAVManagedItem@@@std@@@3@$0A@@std@@@std@@U_Iterator_base0@2@@std@@QBEPAU_Node@?$_Tree_nod@V?$_Tmap_traits@HPAVManagedItem@@U?$less@H@std@@V?$allocator@U?$pair@$$CBHPAVManagedItem@@@std@@@3@$0A@@std@@@2@XZ PROC ; std::_Tree_unchecked_const_iterator<std::_Tree_val<std::_Tmap_traits<int,ManagedItem *,std::less<int>,std::allocator<std::pair<int const ,ManagedItem *> >,0> >,std::_Iterator_base0>::_Mynode, COMDAT
; _this$ = ecx
; Line 122
	mov	eax, DWORD PTR [ecx]
; Line 123
	ret	0
?_Mynode@?$_Tree_unchecked_const_iterator@V?$_Tree_val@V?$_Tmap_traits@HPAVManagedItem@@U?$less@H@std@@V?$allocator@U?$pair@$$CBHPAVManagedItem@@@std@@@3@$0A@@std@@@std@@U_Iterator_base0@2@@std@@QBEPAU_Node@?$_Tree_nod@V?$_Tmap_traits@HPAVManagedItem@@U?$less@H@std@@V?$allocator@U?$pair@$$CBHPAVManagedItem@@@std@@@3@$0A@@std@@@2@XZ ENDP ; std::_Tree_unchecked_const_iterator<std::_Tree_val<std::_Tmap_traits<int,ManagedItem *,std::less<int>,std::allocator<std::pair<int const ,ManagedItem *> >,0> >,std::_Iterator_base0>::_Mynode
_TEXT	ENDS
PUBLIC	??8?$_Tree_const_iterator@V?$_Tree_val@V?$_Tmap_traits@IPAVManagedItem@@U?$less@I@std@@V?$allocator@U?$pair@$$CBIPAVManagedItem@@@std@@@3@$0A@@std@@@std@@@std@@QBE_NABV01@@Z ; std::_Tree_const_iterator<std::_Tree_val<std::_Tmap_traits<unsigned int,ManagedItem *,std::less<unsigned int>,std::allocator<std::pair<unsigned int const ,ManagedItem *> >,0> > >::operator==
; Function compile flags: /Ogtp
;	COMDAT ??8?$_Tree_const_iterator@V?$_Tree_val@V?$_Tmap_traits@IPAVManagedItem@@U?$less@I@std@@V?$allocator@U?$pair@$$CBIPAVManagedItem@@@std@@@3@$0A@@std@@@std@@@std@@QBE_NABV01@@Z
_TEXT	SEGMENT
__Right$ = 8						; size = 4
??8?$_Tree_const_iterator@V?$_Tree_val@V?$_Tmap_traits@IPAVManagedItem@@U?$less@I@std@@V?$allocator@U?$pair@$$CBIPAVManagedItem@@@std@@@3@$0A@@std@@@std@@@std@@QBE_NABV01@@Z PROC ; std::_Tree_const_iterator<std::_Tree_val<std::_Tmap_traits<unsigned int,ManagedItem *,std::less<unsigned int>,std::allocator<std::pair<unsigned int const ,ManagedItem *> >,0> > >::operator==, COMDAT
; _this$ = ecx
; Line 316
	push	ebp
	mov	ebp, esp
; Line 330
	mov	eax, DWORD PTR [ecx]
	mov	edx, DWORD PTR __Right$[ebp]
	xor	ecx, ecx
	cmp	eax, DWORD PTR [edx]
	sete	al
; Line 331
	pop	ebp
	ret	4
??8?$_Tree_const_iterator@V?$_Tree_val@V?$_Tmap_traits@IPAVManagedItem@@U?$less@I@std@@V?$allocator@U?$pair@$$CBIPAVManagedItem@@@std@@@3@$0A@@std@@@std@@@std@@QBE_NABV01@@Z ENDP ; std::_Tree_const_iterator<std::_Tree_val<std::_Tmap_traits<unsigned int,ManagedItem *,std::less<unsigned int>,std::allocator<std::pair<unsigned int const ,ManagedItem *> >,0> > >::operator==
_TEXT	ENDS
PUBLIC	?_Mynode@?$_Tree_unchecked_const_iterator@V?$_Tree_val@V?$_Tmap_traits@IPAVManagedItem@@U?$less@I@std@@V?$allocator@U?$pair@$$CBIPAVManagedItem@@@std@@@3@$0A@@std@@@std@@U_Iterator_base0@2@@std@@QBEPAU_Node@?$_Tree_nod@V?$_Tmap_traits@IPAVManagedItem@@U?$less@I@std@@V?$allocator@U?$pair@$$CBIPAVManagedItem@@@std@@@3@$0A@@std@@@2@XZ ; std::_Tree_unchecked_const_iterator<std::_Tree_val<std::_Tmap_traits<unsigned int,ManagedItem *,std::less<unsigned int>,std::allocator<std::pair<unsigned int const ,ManagedItem *> >,0> >,std::_Iterator_base0>::_Mynode
; Function compile flags: /Ogtp
;	COMDAT ?_Mynode@?$_Tree_unchecked_const_iterator@V?$_Tree_val@V?$_Tmap_traits@IPAVManagedItem@@U?$less@I@std@@V?$allocator@U?$pair@$$CBIPAVManagedItem@@@std@@@3@$0A@@std@@@std@@U_Iterator_base0@2@@std@@QBEPAU_Node@?$_Tree_nod@V?$_Tmap_traits@IPAVManagedItem@@U?$less@I@std@@V?$allocator@U?$pair@$$CBIPAVManagedItem@@@std@@@3@$0A@@std@@@2@XZ
_TEXT	SEGMENT
?_Mynode@?$_Tree_unchecked_const_iterator@V?$_Tree_val@V?$_Tmap_traits@IPAVManagedItem@@U?$less@I@std@@V?$allocator@U?$pair@$$CBIPAVManagedItem@@@std@@@3@$0A@@std@@@std@@U_Iterator_base0@2@@std@@QBEPAU_Node@?$_Tree_nod@V?$_Tmap_traits@IPAVManagedItem@@U?$less@I@std@@V?$allocator@U?$pair@$$CBIPAVManagedItem@@@std@@@3@$0A@@std@@@2@XZ PROC ; std::_Tree_unchecked_const_iterator<std::_Tree_val<std::_Tmap_traits<unsigned int,ManagedItem *,std::less<unsigned int>,std::allocator<std::pair<unsigned int const ,ManagedItem *> >,0> >,std::_Iterator_base0>::_Mynode, COMDAT
; _this$ = ecx
; Line 122
	mov	eax, DWORD PTR [ecx]
; Line 123
	ret	0
?_Mynode@?$_Tree_unchecked_const_iterator@V?$_Tree_val@V?$_Tmap_traits@IPAVManagedItem@@U?$less@I@std@@V?$allocator@U?$pair@$$CBIPAVManagedItem@@@std@@@3@$0A@@std@@@std@@U_Iterator_base0@2@@std@@QBEPAU_Node@?$_Tree_nod@V?$_Tmap_traits@IPAVManagedItem@@U?$less@I@std@@V?$allocator@U?$pair@$$CBIPAVManagedItem@@@std@@@3@$0A@@std@@@2@XZ ENDP ; std::_Tree_unchecked_const_iterator<std::_Tree_val<std::_Tmap_traits<unsigned int,ManagedItem *,std::less<unsigned int>,std::allocator<std::pair<unsigned int const ,ManagedItem *> >,0> >,std::_Iterator_base0>::_Mynode
_TEXT	ENDS
PUBLIC	??8?$_Tree_const_iterator@V?$_Tree_val@V?$_Tmap_traits@IHU?$less@I@std@@V?$allocator@U?$pair@$$CBIH@std@@@2@$0A@@std@@@std@@@std@@QBE_NABV01@@Z ; std::_Tree_const_iterator<std::_Tree_val<std::_Tmap_traits<unsigned int,int,std::less<unsigned int>,std::allocator<std::pair<unsigned int const ,int> >,0> > >::operator==
; Function compile flags: /Ogtp
;	COMDAT ??8?$_Tree_const_iterator@V?$_Tree_val@V?$_Tmap_traits@IHU?$less@I@std@@V?$allocator@U?$pair@$$CBIH@std@@@2@$0A@@std@@@std@@@std@@QBE_NABV01@@Z
_TEXT	SEGMENT
__Right$ = 8						; size = 4
??8?$_Tree_const_iterator@V?$_Tree_val@V?$_Tmap_traits@IHU?$less@I@std@@V?$allocator@U?$pair@$$CBIH@std@@@2@$0A@@std@@@std@@@std@@QBE_NABV01@@Z PROC ; std::_Tree_const_iterator<std::_Tree_val<std::_Tmap_traits<unsigned int,int,std::less<unsigned int>,std::allocator<std::pair<unsigned int const ,int> >,0> > >::operator==, COMDAT
; _this$ = ecx
; Line 316
	push	ebp
	mov	ebp, esp
; Line 330
	mov	eax, DWORD PTR [ecx]
	mov	edx, DWORD PTR __Right$[ebp]
	xor	ecx, ecx
	cmp	eax, DWORD PTR [edx]
	sete	al
; Line 331
	pop	ebp
	ret	4
??8?$_Tree_const_iterator@V?$_Tree_val@V?$_Tmap_traits@IHU?$less@I@std@@V?$allocator@U?$pair@$$CBIH@std@@@2@$0A@@std@@@std@@@std@@QBE_NABV01@@Z ENDP ; std::_Tree_const_iterator<std::_Tree_val<std::_Tmap_traits<unsigned int,int,std::less<unsigned int>,std::allocator<std::pair<unsigned int const ,int> >,0> > >::operator==
_TEXT	ENDS
PUBLIC	?_Mynode@?$_Tree_unchecked_const_iterator@V?$_Tree_val@V?$_Tmap_traits@IHU?$less@I@std@@V?$allocator@U?$pair@$$CBIH@std@@@2@$0A@@std@@@std@@U_Iterator_base0@2@@std@@QBEPAU_Node@?$_Tree_nod@V?$_Tmap_traits@IHU?$less@I@std@@V?$allocator@U?$pair@$$CBIH@std@@@2@$0A@@std@@@2@XZ ; std::_Tree_unchecked_const_iterator<std::_Tree_val<std::_Tmap_traits<unsigned int,int,std::less<unsigned int>,std::allocator<std::pair<unsigned int const ,int> >,0> >,std::_Iterator_base0>::_Mynode
; Function compile flags: /Ogtp
;	COMDAT ?_Mynode@?$_Tree_unchecked_const_iterator@V?$_Tree_val@V?$_Tmap_traits@IHU?$less@I@std@@V?$allocator@U?$pair@$$CBIH@std@@@2@$0A@@std@@@std@@U_Iterator_base0@2@@std@@QBEPAU_Node@?$_Tree_nod@V?$_Tmap_traits@IHU?$less@I@std@@V?$allocator@U?$pair@$$CBIH@std@@@2@$0A@@std@@@2@XZ
_TEXT	SEGMENT
?_Mynode@?$_Tree_unchecked_const_iterator@V?$_Tree_val@V?$_Tmap_traits@IHU?$less@I@std@@V?$allocator@U?$pair@$$CBIH@std@@@2@$0A@@std@@@std@@U_Iterator_base0@2@@std@@QBEPAU_Node@?$_Tree_nod@V?$_Tmap_traits@IHU?$less@I@std@@V?$allocator@U?$pair@$$CBIH@std@@@2@$0A@@std@@@2@XZ PROC ; std::_Tree_unchecked_const_iterator<std::_Tree_val<std::_Tmap_traits<unsigned int,int,std::less<unsigned int>,std::allocator<std::pair<unsigned int const ,int> >,0> >,std::_Iterator_base0>::_Mynode, COMDAT
; _this$ = ecx
; Line 122
	mov	eax, DWORD PTR [ecx]
; Line 123
	ret	0
?_Mynode@?$_Tree_unchecked_const_iterator@V?$_Tree_val@V?$_Tmap_traits@IHU?$less@I@std@@V?$allocator@U?$pair@$$CBIH@std@@@2@$0A@@std@@@std@@U_Iterator_base0@2@@std@@QBEPAU_Node@?$_Tree_nod@V?$_Tmap_traits@IHU?$less@I@std@@V?$allocator@U?$pair@$$CBIH@std@@@2@$0A@@std@@@2@XZ ENDP ; std::_Tree_unchecked_const_iterator<std::_Tree_val<std::_Tmap_traits<unsigned int,int,std::less<unsigned int>,std::allocator<std::pair<unsigned int const ,int> >,0> >,std::_Iterator_base0>::_Mynode
_TEXT	ENDS
PUBLIC	?get_allocator@?$basic_string@DU?$char_traits@D@std@@V?$allocator@D@2@@std@@QBE?AV?$allocator@D@2@XZ ; std::basic_string<char,std::char_traits<char>,std::allocator<char> >::get_allocator
; Function compile flags: /Ogtp
;	COMDAT ?get_allocator@?$basic_string@DU?$char_traits@D@std@@V?$allocator@D@2@@std@@QBE?AV?$allocator@D@2@XZ
_TEXT	SEGMENT
___$ReturnUdt$ = 8					; size = 4
?get_allocator@?$basic_string@DU?$char_traits@D@std@@V?$allocator@D@2@@std@@QBE?AV?$allocator@D@2@XZ PROC ; std::basic_string<char,std::char_traits<char>,std::allocator<char> >::get_allocator, COMDAT
; _this$ = ecx
; File c:\program files (x86)\microsoft visual studio 10.0\vc\include\xstring
; Line 1905
	push	ebp
	mov	ebp, esp
; Line 1906
	mov	eax, DWORD PTR ___$ReturnUdt$[ebp]
; Line 1907
	pop	ebp
	ret	4
?get_allocator@?$basic_string@DU?$char_traits@D@std@@V?$allocator@D@2@@std@@QBE?AV?$allocator@D@2@XZ ENDP ; std::basic_string<char,std::char_traits<char>,std::allocator<char> >::get_allocator
_TEXT	ENDS
PUBLIC	?_Myptr@?$basic_string@DU?$char_traits@D@std@@V?$allocator@D@2@@std@@QAEPADXZ ; std::basic_string<char,std::char_traits<char>,std::allocator<char> >::_Myptr
; Function compile flags: /Ogtp
;	COMDAT ?_Myptr@?$basic_string@DU?$char_traits@D@std@@V?$allocator@D@2@@std@@QAEPADXZ
_TEXT	SEGMENT
?_Myptr@?$basic_string@DU?$char_traits@D@std@@V?$allocator@D@2@@std@@QAEPADXZ PROC ; std::basic_string<char,std::char_traits<char>,std::allocator<char> >::_Myptr, COMDAT
; _this$ = ecx
; Line 2002
	mov	eax, ecx
; Line 2004
	cmp	DWORD PTR [eax+20], 16			; 00000010H
	jb	SHORT $LN4@Myptr@2
	mov	eax, DWORD PTR [eax]
$LN4@Myptr@2:
; Line 2005
	ret	0
?_Myptr@?$basic_string@DU?$char_traits@D@std@@V?$allocator@D@2@@std@@QAEPADXZ ENDP ; std::basic_string<char,std::char_traits<char>,std::allocator<char> >::_Myptr
_TEXT	ENDS
PUBLIC	??_C@_0BI@CFPLBAOH@invalid?5string?5position?$AA@ ; `string'
PUBLIC	?_Xran@?$basic_string@DU?$char_traits@D@std@@V?$allocator@D@2@@std@@QBEXXZ ; std::basic_string<char,std::char_traits<char>,std::allocator<char> >::_Xran
EXTRN	__imp_?_Xout_of_range@std@@YAXPBD@Z:PROC
;	COMDAT ??_C@_0BI@CFPLBAOH@invalid?5string?5position?$AA@
CONST	SEGMENT
??_C@_0BI@CFPLBAOH@invalid?5string?5position?$AA@ DB 'invalid string posi'
	DB	'tion', 00H					; `string'
; Function compile flags: /Ogtp
CONST	ENDS
;	COMDAT ?_Xran@?$basic_string@DU?$char_traits@D@std@@V?$allocator@D@2@@std@@QBEXXZ
_TEXT	SEGMENT
?_Xran@?$basic_string@DU?$char_traits@D@std@@V?$allocator@D@2@@std@@QBEXXZ PROC ; std::basic_string<char,std::char_traits<char>,std::allocator<char> >::_Xran, COMDAT
; _this$ = ecx
; Line 2020
	push	OFFSET ??_C@_0BI@CFPLBAOH@invalid?5string?5position?$AA@
	call	DWORD PTR __imp_?_Xout_of_range@std@@YAXPBD@Z
$LN4@Xran:
$LN3@Xran:
	int	3
?_Xran@?$basic_string@DU?$char_traits@D@std@@V?$allocator@D@2@@std@@QBEXXZ ENDP ; std::basic_string<char,std::char_traits<char>,std::allocator<char> >::_Xran
_TEXT	ENDS
PUBLIC	?deallocate@?$allocator@D@std@@QAEXPADI@Z	; std::allocator<char>::deallocate
; Function compile flags: /Ogtp
;	COMDAT ?deallocate@?$allocator@D@std@@QAEXPADI@Z
_TEXT	SEGMENT
__Ptr$ = 8						; size = 4
___formal$ = 12						; size = 4
?deallocate@?$allocator@D@std@@QAEXPADI@Z PROC		; std::allocator<char>::deallocate, COMDAT
; _this$ = ecx
; File c:\program files (x86)\microsoft visual studio 10.0\vc\include\xmemory
; Line 181
	push	ebp
	mov	ebp, esp
; Line 182
	mov	eax, DWORD PTR __Ptr$[ebp]
	push	eax
	call	??3@YAXPAX@Z				; operator delete
	add	esp, 4
; Line 183
	pop	ebp
	ret	8
?deallocate@?$allocator@D@std@@QAEXPADI@Z ENDP		; std::allocator<char>::deallocate
_TEXT	ENDS
PUBLIC	?_Color@?$_Tree_val@V?$_Tmap_traits@V?$basic_string@DU?$char_traits@D@std@@V?$allocator@D@2@@std@@HU?$less@V?$basic_string@DU?$char_traits@D@std@@V?$allocator@D@2@@std@@@2@V?$allocator@U?$pair@$$CBV?$basic_string@DU?$char_traits@D@std@@V?$allocator@D@2@@std@@H@std@@@2@$0A@@std@@@std@@SAAADPAU_Node@?$_Tree_nod@V?$_Tmap_traits@V?$basic_string@DU?$char_traits@D@std@@V?$allocator@D@2@@std@@HU?$less@V?$basic_string@DU?$char_traits@D@std@@V?$allocator@D@2@@std@@@2@V?$allocator@U?$pair@$$CBV?$basic_string@DU?$char_traits@D@std@@V?$allocator@D@2@@std@@H@std@@@2@$0A@@std@@@2@@Z ; std::_Tree_val<std::_Tmap_traits<std::basic_string<char,std::char_traits<char>,std::allocator<char> >,int,std::less<std::basic_string<char,std::char_traits<char>,std::allocator<char> > >,std::allocator<std::pair<std::basic_string<char,std::char_traits<char>,std::allocator<char> > const ,int> >,0> >::_Color
; Function compile flags: /Ogtp
;	COMDAT ?_Color@?$_Tree_val@V?$_Tmap_traits@V?$basic_string@DU?$char_traits@D@std@@V?$allocator@D@2@@std@@HU?$less@V?$basic_string@DU?$char_traits@D@std@@V?$allocator@D@2@@std@@@2@V?$allocator@U?$pair@$$CBV?$basic_string@DU?$char_traits@D@std@@V?$allocator@D@2@@std@@H@std@@@2@$0A@@std@@@std@@SAAADPAU_Node@?$_Tree_nod@V?$_Tmap_traits@V?$basic_string@DU?$char_traits@D@std@@V?$allocator@D@2@@std@@HU?$less@V?$basic_string@DU?$char_traits@D@std@@V?$allocator@D@2@@std@@@2@V?$allocator@U?$pair@$$CBV?$basic_string@DU?$char_traits@D@std@@V?$allocator@D@2@@std@@H@std@@@2@$0A@@std@@@2@@Z
_TEXT	SEGMENT
__Pnode$ = 8						; size = 4
?_Color@?$_Tree_val@V?$_Tmap_traits@V?$basic_string@DU?$char_traits@D@std@@V?$allocator@D@2@@std@@HU?$less@V?$basic_string@DU?$char_traits@D@std@@V?$allocator@D@2@@std@@@2@V?$allocator@U?$pair@$$CBV?$basic_string@DU?$char_traits@D@std@@V?$allocator@D@2@@std@@H@std@@@2@$0A@@std@@@std@@SAAADPAU_Node@?$_Tree_nod@V?$_Tmap_traits@V?$basic_string@DU?$char_traits@D@std@@V?$allocator@D@2@@std@@HU?$less@V?$basic_string@DU?$char_traits@D@std@@V?$allocator@D@2@@std@@@2@V?$allocator@U?$pair@$$CBV?$basic_string@DU?$char_traits@D@std@@V?$allocator@D@2@@std@@H@std@@@2@$0A@@std@@@2@@Z PROC ; std::_Tree_val<std::_Tmap_traits<std::basic_string<char,std::char_traits<char>,std::allocator<char> >,int,std::less<std::basic_string<char,std::char_traits<char>,std::allocator<char> > >,std::allocator<std::pair<std::basic_string<char,std::char_traits<char>,std::allocator<char> > const ,int> >,0> >::_Color, COMDAT
; File c:\program files (x86)\microsoft visual studio 10.0\vc\include\xtree
; Line 606
	push	ebp
	mov	ebp, esp
; Line 607
	mov	eax, DWORD PTR __Pnode$[ebp]
	add	eax, 44					; 0000002cH
; Line 608
	pop	ebp
	ret	0
?_Color@?$_Tree_val@V?$_Tmap_traits@V?$basic_string@DU?$char_traits@D@std@@V?$allocator@D@2@@std@@HU?$less@V?$basic_string@DU?$char_traits@D@std@@V?$allocator@D@2@@std@@@2@V?$allocator@U?$pair@$$CBV?$basic_string@DU?$char_traits@D@std@@V?$allocator@D@2@@std@@H@std@@@2@$0A@@std@@@std@@SAAADPAU_Node@?$_Tree_nod@V?$_Tmap_traits@V?$basic_string@DU?$char_traits@D@std@@V?$allocator@D@2@@std@@HU?$less@V?$basic_string@DU?$char_traits@D@std@@V?$allocator@D@2@@std@@@2@V?$allocator@U?$pair@$$CBV?$basic_string@DU?$char_traits@D@std@@V?$allocator@D@2@@std@@H@std@@@2@$0A@@std@@@2@@Z ENDP ; std::_Tree_val<std::_Tmap_traits<std::basic_string<char,std::char_traits<char>,std::allocator<char> >,int,std::less<std::basic_string<char,std::char_traits<char>,std::allocator<char> > >,std::allocator<std::pair<std::basic_string<char,std::char_traits<char>,std::allocator<char> > const ,int> >,0> >::_Color
_TEXT	ENDS
PUBLIC	?_Isnil@?$_Tree_val@V?$_Tmap_traits@V?$basic_string@DU?$char_traits@D@std@@V?$allocator@D@2@@std@@HU?$less@V?$basic_string@DU?$char_traits@D@std@@V?$allocator@D@2@@std@@@2@V?$allocator@U?$pair@$$CBV?$basic_string@DU?$char_traits@D@std@@V?$allocator@D@2@@std@@H@std@@@2@$0A@@std@@@std@@SAAADPAU_Node@?$_Tree_nod@V?$_Tmap_traits@V?$basic_string@DU?$char_traits@D@std@@V?$allocator@D@2@@std@@HU?$less@V?$basic_string@DU?$char_traits@D@std@@V?$allocator@D@2@@std@@@2@V?$allocator@U?$pair@$$CBV?$basic_string@DU?$char_traits@D@std@@V?$allocator@D@2@@std@@H@std@@@2@$0A@@std@@@2@@Z ; std::_Tree_val<std::_Tmap_traits<std::basic_string<char,std::char_traits<char>,std::allocator<char> >,int,std::less<std::basic_string<char,std::char_traits<char>,std::allocator<char> > >,std::allocator<std::pair<std::basic_string<char,std::char_traits<char>,std::allocator<char> > const ,int> >,0> >::_Isnil
; Function compile flags: /Ogtp
;	COMDAT ?_Isnil@?$_Tree_val@V?$_Tmap_traits@V?$basic_string@DU?$char_traits@D@std@@V?$allocator@D@2@@std@@HU?$less@V?$basic_string@DU?$char_traits@D@std@@V?$allocator@D@2@@std@@@2@V?$allocator@U?$pair@$$CBV?$basic_string@DU?$char_traits@D@std@@V?$allocator@D@2@@std@@H@std@@@2@$0A@@std@@@std@@SAAADPAU_Node@?$_Tree_nod@V?$_Tmap_traits@V?$basic_string@DU?$char_traits@D@std@@V?$allocator@D@2@@std@@HU?$less@V?$basic_string@DU?$char_traits@D@std@@V?$allocator@D@2@@std@@@2@V?$allocator@U?$pair@$$CBV?$basic_string@DU?$char_traits@D@std@@V?$allocator@D@2@@std@@H@std@@@2@$0A@@std@@@2@@Z
_TEXT	SEGMENT
__Pnode$ = 8						; size = 4
?_Isnil@?$_Tree_val@V?$_Tmap_traits@V?$basic_string@DU?$char_traits@D@std@@V?$allocator@D@2@@std@@HU?$less@V?$basic_string@DU?$char_traits@D@std@@V?$allocator@D@2@@std@@@2@V?$allocator@U?$pair@$$CBV?$basic_string@DU?$char_traits@D@std@@V?$allocator@D@2@@std@@H@std@@@2@$0A@@std@@@std@@SAAADPAU_Node@?$_Tree_nod@V?$_Tmap_traits@V?$basic_string@DU?$char_traits@D@std@@V?$allocator@D@2@@std@@HU?$less@V?$basic_string@DU?$char_traits@D@std@@V?$allocator@D@2@@std@@@2@V?$allocator@U?$pair@$$CBV?$basic_string@DU?$char_traits@D@std@@V?$allocator@D@2@@std@@H@std@@@2@$0A@@std@@@2@@Z PROC ; std::_Tree_val<std::_Tmap_traits<std::basic_string<char,std::char_traits<char>,std::allocator<char> >,int,std::less<std::basic_string<char,std::char_traits<char>,std::allocator<char> > >,std::allocator<std::pair<std::basic_string<char,std::char_traits<char>,std::allocator<char> > const ,int> >,0> >::_Isnil, COMDAT
; Line 611
	push	ebp
	mov	ebp, esp
; Line 612
	mov	eax, DWORD PTR __Pnode$[ebp]
	add	eax, 45					; 0000002dH
; Line 613
	pop	ebp
	ret	0
?_Isnil@?$_Tree_val@V?$_Tmap_traits@V?$basic_string@DU?$char_traits@D@std@@V?$allocator@D@2@@std@@HU?$less@V?$basic_string@DU?$char_traits@D@std@@V?$allocator@D@2@@std@@@2@V?$allocator@U?$pair@$$CBV?$basic_string@DU?$char_traits@D@std@@V?$allocator@D@2@@std@@H@std@@@2@$0A@@std@@@std@@SAAADPAU_Node@?$_Tree_nod@V?$_Tmap_traits@V?$basic_string@DU?$char_traits@D@std@@V?$allocator@D@2@@std@@HU?$less@V?$basic_string@DU?$char_traits@D@std@@V?$allocator@D@2@@std@@@2@V?$allocator@U?$pair@$$CBV?$basic_string@DU?$char_traits@D@std@@V?$allocator@D@2@@std@@H@std@@@2@$0A@@std@@@2@@Z ENDP ; std::_Tree_val<std::_Tmap_traits<std::basic_string<char,std::char_traits<char>,std::allocator<char> >,int,std::less<std::basic_string<char,std::char_traits<char>,std::allocator<char> > >,std::allocator<std::pair<std::basic_string<char,std::char_traits<char>,std::allocator<char> > const ,int> >,0> >::_Isnil
_TEXT	ENDS
PUBLIC	?_Left@?$_Tree_val@V?$_Tmap_traits@V?$basic_string@DU?$char_traits@D@std@@V?$allocator@D@2@@std@@HU?$less@V?$basic_string@DU?$char_traits@D@std@@V?$allocator@D@2@@std@@@2@V?$allocator@U?$pair@$$CBV?$basic_string@DU?$char_traits@D@std@@V?$allocator@D@2@@std@@H@std@@@2@$0A@@std@@@std@@SAAAPAU_Node@?$_Tree_nod@V?$_Tmap_traits@V?$basic_string@DU?$char_traits@D@std@@V?$allocator@D@2@@std@@HU?$less@V?$basic_string@DU?$char_traits@D@std@@V?$allocator@D@2@@std@@@2@V?$allocator@U?$pair@$$CBV?$basic_string@DU?$char_traits@D@std@@V?$allocator@D@2@@std@@H@std@@@2@$0A@@std@@@2@PAU342@@Z ; std::_Tree_val<std::_Tmap_traits<std::basic_string<char,std::char_traits<char>,std::allocator<char> >,int,std::less<std::basic_string<char,std::char_traits<char>,std::allocator<char> > >,std::allocator<std::pair<std::basic_string<char,std::char_traits<char>,std::allocator<char> > const ,int> >,0> >::_Left
; Function compile flags: /Ogtp
;	COMDAT ?_Left@?$_Tree_val@V?$_Tmap_traits@V?$basic_string@DU?$char_traits@D@std@@V?$allocator@D@2@@std@@HU?$less@V?$basic_string@DU?$char_traits@D@std@@V?$allocator@D@2@@std@@@2@V?$allocator@U?$pair@$$CBV?$basic_string@DU?$char_traits@D@std@@V?$allocator@D@2@@std@@H@std@@@2@$0A@@std@@@std@@SAAAPAU_Node@?$_Tree_nod@V?$_Tmap_traits@V?$basic_string@DU?$char_traits@D@std@@V?$allocator@D@2@@std@@HU?$less@V?$basic_string@DU?$char_traits@D@std@@V?$allocator@D@2@@std@@@2@V?$allocator@U?$pair@$$CBV?$basic_string@DU?$char_traits@D@std@@V?$allocator@D@2@@std@@H@std@@@2@$0A@@std@@@2@PAU342@@Z
_TEXT	SEGMENT
__Pnode$ = 8						; size = 4
?_Left@?$_Tree_val@V?$_Tmap_traits@V?$basic_string@DU?$char_traits@D@std@@V?$allocator@D@2@@std@@HU?$less@V?$basic_string@DU?$char_traits@D@std@@V?$allocator@D@2@@std@@@2@V?$allocator@U?$pair@$$CBV?$basic_string@DU?$char_traits@D@std@@V?$allocator@D@2@@std@@H@std@@@2@$0A@@std@@@std@@SAAAPAU_Node@?$_Tree_nod@V?$_Tmap_traits@V?$basic_string@DU?$char_traits@D@std@@V?$allocator@D@2@@std@@HU?$less@V?$basic_string@DU?$char_traits@D@std@@V?$allocator@D@2@@std@@@2@V?$allocator@U?$pair@$$CBV?$basic_string@DU?$char_traits@D@std@@V?$allocator@D@2@@std@@H@std@@@2@$0A@@std@@@2@PAU342@@Z PROC ; std::_Tree_val<std::_Tmap_traits<std::basic_string<char,std::char_traits<char>,std::allocator<char> >,int,std::less<std::basic_string<char,std::char_traits<char>,std::allocator<char> > >,std::allocator<std::pair<std::basic_string<char,std::char_traits<char>,std::allocator<char> > const ,int> >,0> >::_Left, COMDAT
; Line 621
	push	ebp
	mov	ebp, esp
; Line 622
	mov	eax, DWORD PTR __Pnode$[ebp]
; Line 623
	pop	ebp
	ret	0
?_Left@?$_Tree_val@V?$_Tmap_traits@V?$basic_string@DU?$char_traits@D@std@@V?$allocator@D@2@@std@@HU?$less@V?$basic_string@DU?$char_traits@D@std@@V?$allocator@D@2@@std@@@2@V?$allocator@U?$pair@$$CBV?$basic_string@DU?$char_traits@D@std@@V?$allocator@D@2@@std@@H@std@@@2@$0A@@std@@@std@@SAAAPAU_Node@?$_Tree_nod@V?$_Tmap_traits@V?$basic_string@DU?$char_traits@D@std@@V?$allocator@D@2@@std@@HU?$less@V?$basic_string@DU?$char_traits@D@std@@V?$allocator@D@2@@std@@@2@V?$allocator@U?$pair@$$CBV?$basic_string@DU?$char_traits@D@std@@V?$allocator@D@2@@std@@H@std@@@2@$0A@@std@@@2@PAU342@@Z ENDP ; std::_Tree_val<std::_Tmap_traits<std::basic_string<char,std::char_traits<char>,std::allocator<char> >,int,std::less<std::basic_string<char,std::char_traits<char>,std::allocator<char> > >,std::allocator<std::pair<std::basic_string<char,std::char_traits<char>,std::allocator<char> > const ,int> >,0> >::_Left
_TEXT	ENDS
PUBLIC	?_Parent@?$_Tree_val@V?$_Tmap_traits@V?$basic_string@DU?$char_traits@D@std@@V?$allocator@D@2@@std@@HU?$less@V?$basic_string@DU?$char_traits@D@std@@V?$allocator@D@2@@std@@@2@V?$allocator@U?$pair@$$CBV?$basic_string@DU?$char_traits@D@std@@V?$allocator@D@2@@std@@H@std@@@2@$0A@@std@@@std@@SAAAPAU_Node@?$_Tree_nod@V?$_Tmap_traits@V?$basic_string@DU?$char_traits@D@std@@V?$allocator@D@2@@std@@HU?$less@V?$basic_string@DU?$char_traits@D@std@@V?$allocator@D@2@@std@@@2@V?$allocator@U?$pair@$$CBV?$basic_string@DU?$char_traits@D@std@@V?$allocator@D@2@@std@@H@std@@@2@$0A@@std@@@2@PAU342@@Z ; std::_Tree_val<std::_Tmap_traits<std::basic_string<char,std::char_traits<char>,std::allocator<char> >,int,std::less<std::basic_string<char,std::char_traits<char>,std::allocator<char> > >,std::allocator<std::pair<std::basic_string<char,std::char_traits<char>,std::allocator<char> > const ,int> >,0> >::_Parent
; Function compile flags: /Ogtp
;	COMDAT ?_Parent@?$_Tree_val@V?$_Tmap_traits@V?$basic_string@DU?$char_traits@D@std@@V?$allocator@D@2@@std@@HU?$less@V?$basic_string@DU?$char_traits@D@std@@V?$allocator@D@2@@std@@@2@V?$allocator@U?$pair@$$CBV?$basic_string@DU?$char_traits@D@std@@V?$allocator@D@2@@std@@H@std@@@2@$0A@@std@@@std@@SAAAPAU_Node@?$_Tree_nod@V?$_Tmap_traits@V?$basic_string@DU?$char_traits@D@std@@V?$allocator@D@2@@std@@HU?$less@V?$basic_string@DU?$char_traits@D@std@@V?$allocator@D@2@@std@@@2@V?$allocator@U?$pair@$$CBV?$basic_string@DU?$char_traits@D@std@@V?$allocator@D@2@@std@@H@std@@@2@$0A@@std@@@2@PAU342@@Z
_TEXT	SEGMENT
__Pnode$ = 8						; size = 4
?_Parent@?$_Tree_val@V?$_Tmap_traits@V?$basic_string@DU?$char_traits@D@std@@V?$allocator@D@2@@std@@HU?$less@V?$basic_string@DU?$char_traits@D@std@@V?$allocator@D@2@@std@@@2@V?$allocator@U?$pair@$$CBV?$basic_string@DU?$char_traits@D@std@@V?$allocator@D@2@@std@@H@std@@@2@$0A@@std@@@std@@SAAAPAU_Node@?$_Tree_nod@V?$_Tmap_traits@V?$basic_string@DU?$char_traits@D@std@@V?$allocator@D@2@@std@@HU?$less@V?$basic_string@DU?$char_traits@D@std@@V?$allocator@D@2@@std@@@2@V?$allocator@U?$pair@$$CBV?$basic_string@DU?$char_traits@D@std@@V?$allocator@D@2@@std@@H@std@@@2@$0A@@std@@@2@PAU342@@Z PROC ; std::_Tree_val<std::_Tmap_traits<std::basic_string<char,std::char_traits<char>,std::allocator<char> >,int,std::less<std::basic_string<char,std::char_traits<char>,std::allocator<char> > >,std::allocator<std::pair<std::basic_string<char,std::char_traits<char>,std::allocator<char> > const ,int> >,0> >::_Parent, COMDAT
; Line 626
	push	ebp
	mov	ebp, esp
; Line 627
	mov	eax, DWORD PTR __Pnode$[ebp]
	add	eax, 4
; Line 628
	pop	ebp
	ret	0
?_Parent@?$_Tree_val@V?$_Tmap_traits@V?$basic_string@DU?$char_traits@D@std@@V?$allocator@D@2@@std@@HU?$less@V?$basic_string@DU?$char_traits@D@std@@V?$allocator@D@2@@std@@@2@V?$allocator@U?$pair@$$CBV?$basic_string@DU?$char_traits@D@std@@V?$allocator@D@2@@std@@H@std@@@2@$0A@@std@@@std@@SAAAPAU_Node@?$_Tree_nod@V?$_Tmap_traits@V?$basic_string@DU?$char_traits@D@std@@V?$allocator@D@2@@std@@HU?$less@V?$basic_string@DU?$char_traits@D@std@@V?$allocator@D@2@@std@@@2@V?$allocator@U?$pair@$$CBV?$basic_string@DU?$char_traits@D@std@@V?$allocator@D@2@@std@@H@std@@@2@$0A@@std@@@2@PAU342@@Z ENDP ; std::_Tree_val<std::_Tmap_traits<std::basic_string<char,std::char_traits<char>,std::allocator<char> >,int,std::less<std::basic_string<char,std::char_traits<char>,std::allocator<char> > >,std::allocator<std::pair<std::basic_string<char,std::char_traits<char>,std::allocator<char> > const ,int> >,0> >::_Parent
_TEXT	ENDS
PUBLIC	?_Right@?$_Tree_val@V?$_Tmap_traits@V?$basic_string@DU?$char_traits@D@std@@V?$allocator@D@2@@std@@HU?$less@V?$basic_string@DU?$char_traits@D@std@@V?$allocator@D@2@@std@@@2@V?$allocator@U?$pair@$$CBV?$basic_string@DU?$char_traits@D@std@@V?$allocator@D@2@@std@@H@std@@@2@$0A@@std@@@std@@SAAAPAU_Node@?$_Tree_nod@V?$_Tmap_traits@V?$basic_string@DU?$char_traits@D@std@@V?$allocator@D@2@@std@@HU?$less@V?$basic_string@DU?$char_traits@D@std@@V?$allocator@D@2@@std@@@2@V?$allocator@U?$pair@$$CBV?$basic_string@DU?$char_traits@D@std@@V?$allocator@D@2@@std@@H@std@@@2@$0A@@std@@@2@PAU342@@Z ; std::_Tree_val<std::_Tmap_traits<std::basic_string<char,std::char_traits<char>,std::allocator<char> >,int,std::less<std::basic_string<char,std::char_traits<char>,std::allocator<char> > >,std::allocator<std::pair<std::basic_string<char,std::char_traits<char>,std::allocator<char> > const ,int> >,0> >::_Right
; Function compile flags: /Ogtp
;	COMDAT ?_Right@?$_Tree_val@V?$_Tmap_traits@V?$basic_string@DU?$char_traits@D@std@@V?$allocator@D@2@@std@@HU?$less@V?$basic_string@DU?$char_traits@D@std@@V?$allocator@D@2@@std@@@2@V?$allocator@U?$pair@$$CBV?$basic_string@DU?$char_traits@D@std@@V?$allocator@D@2@@std@@H@std@@@2@$0A@@std@@@std@@SAAAPAU_Node@?$_Tree_nod@V?$_Tmap_traits@V?$basic_string@DU?$char_traits@D@std@@V?$allocator@D@2@@std@@HU?$less@V?$basic_string@DU?$char_traits@D@std@@V?$allocator@D@2@@std@@@2@V?$allocator@U?$pair@$$CBV?$basic_string@DU?$char_traits@D@std@@V?$allocator@D@2@@std@@H@std@@@2@$0A@@std@@@2@PAU342@@Z
_TEXT	SEGMENT
__Pnode$ = 8						; size = 4
?_Right@?$_Tree_val@V?$_Tmap_traits@V?$basic_string@DU?$char_traits@D@std@@V?$allocator@D@2@@std@@HU?$less@V?$basic_string@DU?$char_traits@D@std@@V?$allocator@D@2@@std@@@2@V?$allocator@U?$pair@$$CBV?$basic_string@DU?$char_traits@D@std@@V?$allocator@D@2@@std@@H@std@@@2@$0A@@std@@@std@@SAAAPAU_Node@?$_Tree_nod@V?$_Tmap_traits@V?$basic_string@DU?$char_traits@D@std@@V?$allocator@D@2@@std@@HU?$less@V?$basic_string@DU?$char_traits@D@std@@V?$allocator@D@2@@std@@@2@V?$allocator@U?$pair@$$CBV?$basic_string@DU?$char_traits@D@std@@V?$allocator@D@2@@std@@H@std@@@2@$0A@@std@@@2@PAU342@@Z PROC ; std::_Tree_val<std::_Tmap_traits<std::basic_string<char,std::char_traits<char>,std::allocator<char> >,int,std::less<std::basic_string<char,std::char_traits<char>,std::allocator<char> > >,std::allocator<std::pair<std::basic_string<char,std::char_traits<char>,std::allocator<char> > const ,int> >,0> >::_Right, COMDAT
; Line 631
	push	ebp
	mov	ebp, esp
; Line 632
	mov	eax, DWORD PTR __Pnode$[ebp]
	add	eax, 8
; Line 633
	pop	ebp
	ret	0
?_Right@?$_Tree_val@V?$_Tmap_traits@V?$basic_string@DU?$char_traits@D@std@@V?$allocator@D@2@@std@@HU?$less@V?$basic_string@DU?$char_traits@D@std@@V?$allocator@D@2@@std@@@2@V?$allocator@U?$pair@$$CBV?$basic_string@DU?$char_traits@D@std@@V?$allocator@D@2@@std@@H@std@@@2@$0A@@std@@@std@@SAAAPAU_Node@?$_Tree_nod@V?$_Tmap_traits@V?$basic_string@DU?$char_traits@D@std@@V?$allocator@D@2@@std@@HU?$less@V?$basic_string@DU?$char_traits@D@std@@V?$allocator@D@2@@std@@@2@V?$allocator@U?$pair@$$CBV?$basic_string@DU?$char_traits@D@std@@V?$allocator@D@2@@std@@H@std@@@2@$0A@@std@@@2@PAU342@@Z ENDP ; std::_Tree_val<std::_Tmap_traits<std::basic_string<char,std::char_traits<char>,std::allocator<char> >,int,std::less<std::basic_string<char,std::char_traits<char>,std::allocator<char> > >,std::allocator<std::pair<std::basic_string<char,std::char_traits<char>,std::allocator<char> > const ,int> >,0> >::_Right
_TEXT	ENDS
PUBLIC	?_Myval@?$_Tree_val@V?$_Tmap_traits@V?$basic_string@DU?$char_traits@D@std@@V?$allocator@D@2@@std@@HU?$less@V?$basic_string@DU?$char_traits@D@std@@V?$allocator@D@2@@std@@@2@V?$allocator@U?$pair@$$CBV?$basic_string@DU?$char_traits@D@std@@V?$allocator@D@2@@std@@H@std@@@2@$0A@@std@@@std@@SAAAU?$pair@$$CBV?$basic_string@DU?$char_traits@D@std@@V?$allocator@D@2@@std@@H@2@PAU_Node@?$_Tree_nod@V?$_Tmap_traits@V?$basic_string@DU?$char_traits@D@std@@V?$allocator@D@2@@std@@HU?$less@V?$basic_string@DU?$char_traits@D@std@@V?$allocator@D@2@@std@@@2@V?$allocator@U?$pair@$$CBV?$basic_string@DU?$char_traits@D@std@@V?$allocator@D@2@@std@@H@std@@@2@$0A@@std@@@2@@Z ; std::_Tree_val<std::_Tmap_traits<std::basic_string<char,std::char_traits<char>,std::allocator<char> >,int,std::less<std::basic_string<char,std::char_traits<char>,std::allocator<char> > >,std::allocator<std::pair<std::basic_string<char,std::char_traits<char>,std::allocator<char> > const ,int> >,0> >::_Myval
; Function compile flags: /Ogtp
;	COMDAT ?_Myval@?$_Tree_val@V?$_Tmap_traits@V?$basic_string@DU?$char_traits@D@std@@V?$allocator@D@2@@std@@HU?$less@V?$basic_string@DU?$char_traits@D@std@@V?$allocator@D@2@@std@@@2@V?$allocator@U?$pair@$$CBV?$basic_string@DU?$char_traits@D@std@@V?$allocator@D@2@@std@@H@std@@@2@$0A@@std@@@std@@SAAAU?$pair@$$CBV?$basic_string@DU?$char_traits@D@std@@V?$allocator@D@2@@std@@H@2@PAU_Node@?$_Tree_nod@V?$_Tmap_traits@V?$basic_string@DU?$char_traits@D@std@@V?$allocator@D@2@@std@@HU?$less@V?$basic_string@DU?$char_traits@D@std@@V?$allocator@D@2@@std@@@2@V?$allocator@U?$pair@$$CBV?$basic_string@DU?$char_traits@D@std@@V?$allocator@D@2@@std@@H@std@@@2@$0A@@std@@@2@@Z
_TEXT	SEGMENT
__Pnode$ = 8						; size = 4
?_Myval@?$_Tree_val@V?$_Tmap_traits@V?$basic_string@DU?$char_traits@D@std@@V?$allocator@D@2@@std@@HU?$less@V?$basic_string@DU?$char_traits@D@std@@V?$allocator@D@2@@std@@@2@V?$allocator@U?$pair@$$CBV?$basic_string@DU?$char_traits@D@std@@V?$allocator@D@2@@std@@H@std@@@2@$0A@@std@@@std@@SAAAU?$pair@$$CBV?$basic_string@DU?$char_traits@D@std@@V?$allocator@D@2@@std@@H@2@PAU_Node@?$_Tree_nod@V?$_Tmap_traits@V?$basic_string@DU?$char_traits@D@std@@V?$allocator@D@2@@std@@HU?$less@V?$basic_string@DU?$char_traits@D@std@@V?$allocator@D@2@@std@@@2@V?$allocator@U?$pair@$$CBV?$basic_string@DU?$char_traits@D@std@@V?$allocator@D@2@@std@@H@std@@@2@$0A@@std@@@2@@Z PROC ; std::_Tree_val<std::_Tmap_traits<std::basic_string<char,std::char_traits<char>,std::allocator<char> >,int,std::less<std::basic_string<char,std::char_traits<char>,std::allocator<char> > >,std::allocator<std::pair<std::basic_string<char,std::char_traits<char>,std::allocator<char> > const ,int> >,0> >::_Myval, COMDAT
; Line 636
	push	ebp
	mov	ebp, esp
; Line 637
	mov	eax, DWORD PTR __Pnode$[ebp]
	add	eax, 12					; 0000000cH
; Line 638
	pop	ebp
	ret	0
?_Myval@?$_Tree_val@V?$_Tmap_traits@V?$basic_string@DU?$char_traits@D@std@@V?$allocator@D@2@@std@@HU?$less@V?$basic_string@DU?$char_traits@D@std@@V?$allocator@D@2@@std@@@2@V?$allocator@U?$pair@$$CBV?$basic_string@DU?$char_traits@D@std@@V?$allocator@D@2@@std@@H@std@@@2@$0A@@std@@@std@@SAAAU?$pair@$$CBV?$basic_string@DU?$char_traits@D@std@@V?$allocator@D@2@@std@@H@2@PAU_Node@?$_Tree_nod@V?$_Tmap_traits@V?$basic_string@DU?$char_traits@D@std@@V?$allocator@D@2@@std@@HU?$less@V?$basic_string@DU?$char_traits@D@std@@V?$allocator@D@2@@std@@@2@V?$allocator@U?$pair@$$CBV?$basic_string@DU?$char_traits@D@std@@V?$allocator@D@2@@std@@H@std@@@2@$0A@@std@@@2@@Z ENDP ; std::_Tree_val<std::_Tmap_traits<std::basic_string<char,std::char_traits<char>,std::allocator<char> >,int,std::less<std::basic_string<char,std::char_traits<char>,std::allocator<char> > >,std::allocator<std::pair<std::basic_string<char,std::char_traits<char>,std::allocator<char> > const ,int> >,0> >::_Myval
_TEXT	ENDS
PUBLIC	?_Max@?$_Tree_val@V?$_Tmap_traits@V?$basic_string@DU?$char_traits@D@std@@V?$allocator@D@2@@std@@HU?$less@V?$basic_string@DU?$char_traits@D@std@@V?$allocator@D@2@@std@@@2@V?$allocator@U?$pair@$$CBV?$basic_string@DU?$char_traits@D@std@@V?$allocator@D@2@@std@@H@std@@@2@$0A@@std@@@std@@SAPAU_Node@?$_Tree_nod@V?$_Tmap_traits@V?$basic_string@DU?$char_traits@D@std@@V?$allocator@D@2@@std@@HU?$less@V?$basic_string@DU?$char_traits@D@std@@V?$allocator@D@2@@std@@@2@V?$allocator@U?$pair@$$CBV?$basic_string@DU?$char_traits@D@std@@V?$allocator@D@2@@std@@H@std@@@2@$0A@@std@@@2@PAU342@@Z ; std::_Tree_val<std::_Tmap_traits<std::basic_string<char,std::char_traits<char>,std::allocator<char> >,int,std::less<std::basic_string<char,std::char_traits<char>,std::allocator<char> > >,std::allocator<std::pair<std::basic_string<char,std::char_traits<char>,std::allocator<char> > const ,int> >,0> >::_Max
; Function compile flags: /Ogtp
;	COMDAT ?_Max@?$_Tree_val@V?$_Tmap_traits@V?$basic_string@DU?$char_traits@D@std@@V?$allocator@D@2@@std@@HU?$less@V?$basic_string@DU?$char_traits@D@std@@V?$allocator@D@2@@std@@@2@V?$allocator@U?$pair@$$CBV?$basic_string@DU?$char_traits@D@std@@V?$allocator@D@2@@std@@H@std@@@2@$0A@@std@@@std@@SAPAU_Node@?$_Tree_nod@V?$_Tmap_traits@V?$basic_string@DU?$char_traits@D@std@@V?$allocator@D@2@@std@@HU?$less@V?$basic_string@DU?$char_traits@D@std@@V?$allocator@D@2@@std@@@2@V?$allocator@U?$pair@$$CBV?$basic_string@DU?$char_traits@D@std@@V?$allocator@D@2@@std@@H@std@@@2@$0A@@std@@@2@PAU342@@Z
_TEXT	SEGMENT
__Pnode$ = 8						; size = 4
?_Max@?$_Tree_val@V?$_Tmap_traits@V?$basic_string@DU?$char_traits@D@std@@V?$allocator@D@2@@std@@HU?$less@V?$basic_string@DU?$char_traits@D@std@@V?$allocator@D@2@@std@@@2@V?$allocator@U?$pair@$$CBV?$basic_string@DU?$char_traits@D@std@@V?$allocator@D@2@@std@@H@std@@@2@$0A@@std@@@std@@SAPAU_Node@?$_Tree_nod@V?$_Tmap_traits@V?$basic_string@DU?$char_traits@D@std@@V?$allocator@D@2@@std@@HU?$less@V?$basic_string@DU?$char_traits@D@std@@V?$allocator@D@2@@std@@@2@V?$allocator@U?$pair@$$CBV?$basic_string@DU?$char_traits@D@std@@V?$allocator@D@2@@std@@H@std@@@2@$0A@@std@@@2@PAU342@@Z PROC ; std::_Tree_val<std::_Tmap_traits<std::basic_string<char,std::char_traits<char>,std::allocator<char> >,int,std::less<std::basic_string<char,std::char_traits<char>,std::allocator<char> > >,std::allocator<std::pair<std::basic_string<char,std::char_traits<char>,std::allocator<char> > const ,int> >,0> >::_Max, COMDAT
; Line 641
	push	ebp
	mov	ebp, esp
; Line 642
	mov	eax, DWORD PTR __Pnode$[ebp]
	mov	ecx, DWORD PTR [eax+8]
	cmp	BYTE PTR [ecx+45], 0
	jne	SHORT $LN1@Max
	npad	1
$LL2@Max:
; Line 643
	mov	eax, ecx
	mov	ecx, DWORD PTR [eax+8]
	cmp	BYTE PTR [ecx+45], 0
	je	SHORT $LL2@Max
$LN1@Max:
; Line 645
	pop	ebp
	ret	0
?_Max@?$_Tree_val@V?$_Tmap_traits@V?$basic_string@DU?$char_traits@D@std@@V?$allocator@D@2@@std@@HU?$less@V?$basic_string@DU?$char_traits@D@std@@V?$allocator@D@2@@std@@@2@V?$allocator@U?$pair@$$CBV?$basic_string@DU?$char_traits@D@std@@V?$allocator@D@2@@std@@H@std@@@2@$0A@@std@@@std@@SAPAU_Node@?$_Tree_nod@V?$_Tmap_traits@V?$basic_string@DU?$char_traits@D@std@@V?$allocator@D@2@@std@@HU?$less@V?$basic_string@DU?$char_traits@D@std@@V?$allocator@D@2@@std@@@2@V?$allocator@U?$pair@$$CBV?$basic_string@DU?$char_traits@D@std@@V?$allocator@D@2@@std@@H@std@@@2@$0A@@std@@@2@PAU342@@Z ENDP ; std::_Tree_val<std::_Tmap_traits<std::basic_string<char,std::char_traits<char>,std::allocator<char> >,int,std::less<std::basic_string<char,std::char_traits<char>,std::allocator<char> > >,std::allocator<std::pair<std::basic_string<char,std::char_traits<char>,std::allocator<char> > const ,int> >,0> >::_Max
_TEXT	ENDS
PUBLIC	?_Min@?$_Tree_val@V?$_Tmap_traits@V?$basic_string@DU?$char_traits@D@std@@V?$allocator@D@2@@std@@HU?$less@V?$basic_string@DU?$char_traits@D@std@@V?$allocator@D@2@@std@@@2@V?$allocator@U?$pair@$$CBV?$basic_string@DU?$char_traits@D@std@@V?$allocator@D@2@@std@@H@std@@@2@$0A@@std@@@std@@SAPAU_Node@?$_Tree_nod@V?$_Tmap_traits@V?$basic_string@DU?$char_traits@D@std@@V?$allocator@D@2@@std@@HU?$less@V?$basic_string@DU?$char_traits@D@std@@V?$allocator@D@2@@std@@@2@V?$allocator@U?$pair@$$CBV?$basic_string@DU?$char_traits@D@std@@V?$allocator@D@2@@std@@H@std@@@2@$0A@@std@@@2@PAU342@@Z ; std::_Tree_val<std::_Tmap_traits<std::basic_string<char,std::char_traits<char>,std::allocator<char> >,int,std::less<std::basic_string<char,std::char_traits<char>,std::allocator<char> > >,std::allocator<std::pair<std::basic_string<char,std::char_traits<char>,std::allocator<char> > const ,int> >,0> >::_Min
; Function compile flags: /Ogtp
