; Listing generated by Microsoft (R) Optimizing Compiler Version 16.00.40219.01 

	TITLE	C:\programovani\WoW Editor\Test\src\Editor\MapViewer.cpp
	.686P
	.XMM
	include listing.inc
	.model	flat

INCLUDELIB MSVCRT
INCLUDELIB OLDNAMES

PUBLIC	?MouseX@@3HA					; MouseX
PUBLIC	?rh@@3MA					; rh
PUBLIC	?MoveObj@@3_NA					; MoveObj
PUBLIC	?rv@@3MA					; rv
PUBLIC	?mh@@3MA					; mh
PUBLIC	?CurSelection@@3PAVnameEntry@@A			; CurSelection
PUBLIC	?MouseY@@3HA					; MouseY
PUBLIC	?textureBrush@@3Vbrush@@A			; textureBrush
PUBLIC	?LastClicked@@3PAVframe@@A			; LastClicked
PUBLIC	?Selection@@3PAVnameEntry@@A			; Selection
PUBLIC	?Sel@@3IA					; Sel
PUBLIC	?mv@@3MA					; mv
PUBLIC	?value@?$integral_constant@_N$0A@@tr1@std@@2_NB	; std::tr1::integral_constant<bool,0>::value
PUBLIC	?value@?$integral_constant@_N$00@tr1@std@@2_NB	; std::tr1::integral_constant<bool,1>::value
PUBLIC	?value@?$integral_constant@I$0A@@tr1@std@@2IB	; std::tr1::integral_constant<unsigned int,0>::value
PUBLIC	?_Rank@?$_Arithmetic_traits@_N@std@@2HB		; std::_Arithmetic_traits<bool>::_Rank
PUBLIC	?_Rank@?$_Arithmetic_traits@D@std@@2HB		; std::_Arithmetic_traits<char>::_Rank
PUBLIC	?_Rank@?$_Arithmetic_traits@C@std@@2HB		; std::_Arithmetic_traits<signed char>::_Rank
PUBLIC	?_Rank@?$_Arithmetic_traits@E@std@@2HB		; std::_Arithmetic_traits<unsigned char>::_Rank
PUBLIC	?_Rank@?$_Arithmetic_traits@F@std@@2HB		; std::_Arithmetic_traits<short>::_Rank
PUBLIC	?_Rank@?$_Arithmetic_traits@G@std@@2HB		; std::_Arithmetic_traits<unsigned short>::_Rank
PUBLIC	?_Rank@?$_Arithmetic_traits@H@std@@2HB		; std::_Arithmetic_traits<int>::_Rank
PUBLIC	?_Rank@?$_Arithmetic_traits@I@std@@2HB		; std::_Arithmetic_traits<unsigned int>::_Rank
PUBLIC	?_Rank@?$_Arithmetic_traits@J@std@@2HB		; std::_Arithmetic_traits<long>::_Rank
PUBLIC	?_Rank@?$_Arithmetic_traits@K@std@@2HB		; std::_Arithmetic_traits<unsigned long>::_Rank
PUBLIC	?_Rank@?$_Arithmetic_traits@_J@std@@2HB		; std::_Arithmetic_traits<__int64>::_Rank
PUBLIC	?_Rank@?$_Arithmetic_traits@_K@std@@2HB		; std::_Arithmetic_traits<unsigned __int64>::_Rank
PUBLIC	?_Rank@?$_Arithmetic_traits@M@std@@2HB		; std::_Arithmetic_traits<float>::_Rank
PUBLIC	?_Rank@?$_Arithmetic_traits@N@std@@2HB		; std::_Arithmetic_traits<double>::_Rank
PUBLIC	?_Rank@?$_Arithmetic_traits@O@std@@2HB		; std::_Arithmetic_traits<long double>::_Rank
PUBLIC	?collate@?$_Locbase@H@std@@2HB			; std::_Locbase<int>::collate
PUBLIC	?ctype@?$_Locbase@H@std@@2HB			; std::_Locbase<int>::ctype
PUBLIC	?monetary@?$_Locbase@H@std@@2HB			; std::_Locbase<int>::monetary
PUBLIC	?numeric@?$_Locbase@H@std@@2HB			; std::_Locbase<int>::numeric
PUBLIC	?time@?$_Locbase@H@std@@2HB			; std::_Locbase<int>::time
PUBLIC	?messages@?$_Locbase@H@std@@2HB			; std::_Locbase<int>::messages
PUBLIC	?all@?$_Locbase@H@std@@2HB			; std::_Locbase<int>::all
PUBLIC	?none@?$_Locbase@H@std@@2HB			; std::_Locbase<int>::none
PUBLIC	?skipws@?$_Iosb@H@std@@2W4_Fmtflags@12@B	; std::_Iosb<int>::skipws
PUBLIC	?unitbuf@?$_Iosb@H@std@@2W4_Fmtflags@12@B	; std::_Iosb<int>::unitbuf
PUBLIC	?uppercase@?$_Iosb@H@std@@2W4_Fmtflags@12@B	; std::_Iosb<int>::uppercase
PUBLIC	?showbase@?$_Iosb@H@std@@2W4_Fmtflags@12@B	; std::_Iosb<int>::showbase
PUBLIC	?showpoint@?$_Iosb@H@std@@2W4_Fmtflags@12@B	; std::_Iosb<int>::showpoint
PUBLIC	?showpos@?$_Iosb@H@std@@2W4_Fmtflags@12@B	; std::_Iosb<int>::showpos
PUBLIC	?left@?$_Iosb@H@std@@2W4_Fmtflags@12@B		; std::_Iosb<int>::left
PUBLIC	?right@?$_Iosb@H@std@@2W4_Fmtflags@12@B		; std::_Iosb<int>::right
PUBLIC	?internal@?$_Iosb@H@std@@2W4_Fmtflags@12@B	; std::_Iosb<int>::internal
PUBLIC	?dec@?$_Iosb@H@std@@2W4_Fmtflags@12@B		; std::_Iosb<int>::dec
PUBLIC	?oct@?$_Iosb@H@std@@2W4_Fmtflags@12@B		; std::_Iosb<int>::oct
PUBLIC	?hex@?$_Iosb@H@std@@2W4_Fmtflags@12@B		; std::_Iosb<int>::hex
PUBLIC	?scientific@?$_Iosb@H@std@@2W4_Fmtflags@12@B	; std::_Iosb<int>::scientific
PUBLIC	?fixed@?$_Iosb@H@std@@2W4_Fmtflags@12@B		; std::_Iosb<int>::fixed
PUBLIC	?hexfloat@?$_Iosb@H@std@@2W4_Fmtflags@12@B	; std::_Iosb<int>::hexfloat
PUBLIC	?boolalpha@?$_Iosb@H@std@@2W4_Fmtflags@12@B	; std::_Iosb<int>::boolalpha
PUBLIC	?_Stdio@?$_Iosb@H@std@@2W4_Fmtflags@12@B	; std::_Iosb<int>::_Stdio
PUBLIC	?adjustfield@?$_Iosb@H@std@@2W4_Fmtflags@12@B	; std::_Iosb<int>::adjustfield
PUBLIC	?basefield@?$_Iosb@H@std@@2W4_Fmtflags@12@B	; std::_Iosb<int>::basefield
PUBLIC	?floatfield@?$_Iosb@H@std@@2W4_Fmtflags@12@B	; std::_Iosb<int>::floatfield
PUBLIC	?goodbit@?$_Iosb@H@std@@2W4_Iostate@12@B	; std::_Iosb<int>::goodbit
PUBLIC	?eofbit@?$_Iosb@H@std@@2W4_Iostate@12@B		; std::_Iosb<int>::eofbit
PUBLIC	?failbit@?$_Iosb@H@std@@2W4_Iostate@12@B	; std::_Iosb<int>::failbit
PUBLIC	?badbit@?$_Iosb@H@std@@2W4_Iostate@12@B		; std::_Iosb<int>::badbit
PUBLIC	?_Hardfail@?$_Iosb@H@std@@2W4_Iostate@12@B	; std::_Iosb<int>::_Hardfail
PUBLIC	?in@?$_Iosb@H@std@@2W4_Openmode@12@B		; std::_Iosb<int>::in
PUBLIC	?out@?$_Iosb@H@std@@2W4_Openmode@12@B		; std::_Iosb<int>::out
PUBLIC	?ate@?$_Iosb@H@std@@2W4_Openmode@12@B		; std::_Iosb<int>::ate
PUBLIC	?app@?$_Iosb@H@std@@2W4_Openmode@12@B		; std::_Iosb<int>::app
PUBLIC	?trunc@?$_Iosb@H@std@@2W4_Openmode@12@B		; std::_Iosb<int>::trunc
PUBLIC	?_Nocreate@?$_Iosb@H@std@@2W4_Openmode@12@B	; std::_Iosb<int>::_Nocreate
PUBLIC	?_Noreplace@?$_Iosb@H@std@@2W4_Openmode@12@B	; std::_Iosb<int>::_Noreplace
PUBLIC	?binary@?$_Iosb@H@std@@2W4_Openmode@12@B	; std::_Iosb<int>::binary
PUBLIC	?beg@?$_Iosb@H@std@@2W4_Seekdir@12@B		; std::_Iosb<int>::beg
PUBLIC	?cur@?$_Iosb@H@std@@2W4_Seekdir@12@B		; std::_Iosb<int>::cur
PUBLIC	?end@?$_Iosb@H@std@@2W4_Seekdir@12@B		; std::_Iosb<int>::end
PUBLIC	?AreaID@AreaDB@@2IB				; AreaDB::AreaID
PUBLIC	?Continent@AreaDB@@2IB				; AreaDB::Continent
PUBLIC	?Region@AreaDB@@2IB				; AreaDB::Region
PUBLIC	?Flags@AreaDB@@2IB				; AreaDB::Flags
PUBLIC	?Name@AreaDB@@2IB				; AreaDB::Name
PUBLIC	?Selecting@@3_NA				; Selecting
PUBLIC	?TestSelection@@3_NA				; TestSelection
PUBLIC	?DetailSelection@@3_NA				; DetailSelection
PUBLIC	?LShiftDown@@3_NA				; LShiftDown
PUBLIC	?RShiftDown@@3_NA				; RShiftDown
PUBLIC	?LAltDown@@3_NA					; LAltDown
PUBLIC	?RAltDown@@3_NA					; RAltDown
PUBLIC	?LCtrlDown@@3_NA				; LCtrlDown
PUBLIC	?RCtrlDown@@3_NA				; RCtrlDown
PUBLIC	?leftMouse@@3_NA				; leftMouse
PUBLIC	?leftClicked@@3_NA				; leftClicked
PUBLIC	?TileMode@@3_NA					; TileMode
PUBLIC	?painting@@3_NA					; painting
PUBLIC	?BrushRadius@@3MA				; BrushRadius
PUBLIC	?BrushType@@3HA					; BrushType
PUBLIC	?brushPressure@@3MA				; brushPressure
PUBLIC	?brushLevel@@3MA				; brushLevel
PUBLIC	?terrainMode@@3HA				; terrainMode
PUBLIC	?Saving@@3_NA					; Saving
_BSS	SEGMENT
?MouseX@@3HA DD	01H DUP (?)				; MouseX
?rh@@3MA DD	01H DUP (?)				; rh
?MoveObj@@3_NA DB 01H DUP (?)				; MoveObj
	ALIGN	4

?rv@@3MA DD	01H DUP (?)				; rv
?mh@@3MA DD	01H DUP (?)				; mh
?CurSelection@@3PAVnameEntry@@A DD 01H DUP (?)		; CurSelection
?MouseY@@3HA DD	01H DUP (?)				; MouseY
?textureBrush@@3Vbrush@@A DB 010018H DUP (?)		; textureBrush
?LastClicked@@3PAVframe@@A DD 01H DUP (?)		; LastClicked
?Selection@@3PAVnameEntry@@A DD 01H DUP (?)		; Selection
?Sel@@3IA DD	01H DUP (?)				; Sel
?mv@@3MA DD	01H DUP (?)				; mv
?Selecting@@3_NA DB 01H DUP (?)				; Selecting
	ALIGN	4

?TestSelection@@3_NA DB 01H DUP (?)			; TestSelection
	ALIGN	4

?LShiftDown@@3_NA DB 01H DUP (?)			; LShiftDown
	ALIGN	4

?RShiftDown@@3_NA DB 01H DUP (?)			; RShiftDown
	ALIGN	4

?LAltDown@@3_NA DB 01H DUP (?)				; LAltDown
	ALIGN	4

?RAltDown@@3_NA DB 01H DUP (?)				; RAltDown
	ALIGN	4

?LCtrlDown@@3_NA DB 01H DUP (?)				; LCtrlDown
	ALIGN	4

?RCtrlDown@@3_NA DB 01H DUP (?)				; RCtrlDown
	ALIGN	4

?leftMouse@@3_NA DB 01H DUP (?)				; leftMouse
	ALIGN	4

?leftClicked@@3_NA DB 01H DUP (?)			; leftClicked
	ALIGN	4

?TileMode@@3_NA DB 01H DUP (?)				; TileMode
	ALIGN	4

?painting@@3_NA DB 01H DUP (?)				; painting
	ALIGN	4

?terrainMode@@3HA DD 01H DUP (?)			; terrainMode
?Saving@@3_NA DB 01H DUP (?)				; Saving
_BSS	ENDS
CONST	SEGMENT
$SG82267 DB	'Brush Settings', 00H
$SG82915 DB	00H
$SG82278 DB	'Hardness: %.2f', 00H
	ORG $+1
$SG82283 DB	'Radius: %.1f', 00H
	ORG $+3
$SG82288 DB	'Pressure: %.2f', 00H
	ORG $+1
$SG82422 DB	'[World of Warcraft Studio - Editor] - OpenGL Error %d', 0aH
	DB	00H
	ORG $+1
$SG82450 DB	'%.2f fps', 00H
	ORG $+3
$SG82457 DB	'%s', 00H
	ORG $+1
$SG82465 DB	'%s', 00H
	ORG $+1
$SG82469 DB	'Loading...', 00H
	ORG $+1
$SG82471 DB	'Out of bounds', 00H
	ORG $+2
$SG82475 DB	'[World of Warcraft Studio - Editor] - OpenGL Error %d', 0aH
	DB	00H
	ORG $+1
$SG82480 DB	'[World of Warcraft Studio - Editor] - OpenGL Error %d', 0aH
	DB	00H
	ORG $+1
$SG82482 DB	'%.2f fps', 00H
	ORG $+3
$SG82489 DB	'%s', 00H
	ORG $+1
$SG82496 DB	'%s', 00H
	ORG $+1
$SG82502 DB	'%02d:%02d', 00H
	ORG $+2
$SG82504 DB	'Brush Type: Flat', 00H
	ORG $+3
$SG82507 DB	'Brush Type: Linear', 00H
	ORG $+1
$SG82510 DB	'Brush Type: Smooth', 00H
	ORG $+1
$SG82512 DB	'Terrain Mode: Raise/Lower', 00H
	ORG $+2
$SG82513 DB	'Brush Radius: %.2f', 00H
	ORG $+1
$SG82515 DB	'Terrain Mode: Flatten/Blur', 00H
	ORG $+1
$SG82517 DB	'Brush Radius: %.2f (Blur 30)', 00H
	ORG $+3
$SG82519 DB	'Brush Radius: %.2f', 00H
	ORG $+1
$SG82523 DB	'%s', 00H
	ORG $+1
$SG82524 DB	'%UniqueID: %d', 00H
	ORG $+2
$SG82525 DB	'Pos: (%.2f, %.2f, %.2f)', 00H
$SG82526 DB	'Rot: (%.2f, %.2f, %.2f)', 00H
$SG82528 DB	'Scale: %d', 00H
	ORG $+2
$SG82529 DB	'Textures Used: %d', 00H
	ORG $+2
$SG82534 DB	'%d - %s', 00H
$SG82537 DB	'%s', 00H
	ORG $+1
$SG82538 DB	'%UniqueID: %d', 00H
	ORG $+2
$SG82539 DB	'Pos: (%.2f, %.2f, %.2f)', 00H
$SG82540 DB	'Rot: (%.2f, %.2f, %.2f)', 00H
$SG82541 DB	'Lower Extents: (%.2f, %.2f, %.2f)', 00H
	ORG $+2
$SG82542 DB	'Upper Extents: (%.2f, %.2f, %.2f)', 00H
	ORG $+2
$SG82543 DB	'Textures Used: %d', 00H
	ORG $+2
$SG82549 DB	'%d - %s', 00H
$SG82551 DB	'%d - %s', 00H
$SG82555 DB	'Map Chunk %d, %d from Tile %d, %d', 00H
	ORG $+2
$SG82556 DB	'Flags %x', 00H
	ORG $+3
$SG82558 DB	'Shadows Enabled', 00H
$SG82560 DB	'Impassible Chunk Enabled', 00H
	ORG $+3
$SG82562 DB	'River Enabled', 00H
	ORG $+2
$SG82564 DB	'Ocean Enabled', 00H
	ORG $+2
$SG82566 DB	'Lava Enabled', 00H
	ORG $+3
$SG82567 DB	'Textures %d', 00H
$SG82573 DB	'%d - %s  Flags - %x Effect ID - %d', 00H
	ORG $+1
$SG82580 DB	'%d - World\NoDXT\%s', 00H
$SG82739 DB	'%s', 00H
	ORG $+1
$SG82740 DB	'%s', 00H
	ORG $+1
$SG82741 DB	'(%.0f, %.0f, %.0f) Tile %.0f %.0f (%.0f, %.0f)', 00H
	ORG $+1
$SG82745 DB	'%s', 00H
	ORG $+1
$SG82746 DB	'%UniqueID: %d', 00H
	ORG $+2
$SG82747 DB	'Pos: (%.2f, %.2f, %.2f)', 00H
$SG82748 DB	'Rot: (%.2f, %.2f, %.2f)', 00H
$SG82750 DB	'Scale: %d', 00H
	ORG $+2
$SG82751 DB	'Textures Used: %d', 00H
	ORG $+2
$SG82756 DB	'%d - %s', 00H
$SG82759 DB	'%s', 00H
	ORG $+1
$SG82760 DB	'%UniqueID: %d', 00H
	ORG $+2
$SG82761 DB	'Pos: (%.2f, %.2f, %.2f)', 00H
$SG82762 DB	'Rot: (%.2f, %.2f, %.2f)', 00H
$SG82763 DB	'Lower Extents: (%.2f, %.2f, %.2f)', 00H
	ORG $+2
$SG82764 DB	'Upper Extents: (%.2f, %.2f, %.2f)', 00H
	ORG $+2
$SG82765 DB	'Textures Used: %d', 00H
	ORG $+2
$SG82771 DB	'%d - %s', 00H
$SG82773 DB	'%d - %s', 00H
$SG82777 DB	'Map Chunk %d, %d from Tile %d, %d', 00H
	ORG $+2
$SG82778 DB	'Flags %x', 00H
	ORG $+3
$SG82780 DB	'Shadows Enabled', 00H
$SG82782 DB	'Impassible Chunk Enabled', 00H
	ORG $+3
$SG82784 DB	'River Enabled', 00H
	ORG $+2
$SG82786 DB	'Ocean Enabled', 00H
	ORG $+2
$SG82788 DB	'Lava Enabled', 00H
	ORG $+3
$SG82789 DB	'Textures %d', 00H
$SG82795 DB	'%d - %s  Flags - %x Effect ID - %d', 00H
	ORG $+1
$SG82802 DB	'%d - World\NoDXT\%s', 00H
$SG82806 DB	'(%.0f, %.0f, %.0f) Tile %.0f %.0f (%.0f, %.0f)', 00H
	ORG $+1
$SG82809 DB	'Loading...', 00H
	ORG $+1
$SG82811 DB	'Out of bounds', 00H
	ORG $+2
$SG82813 DB	'[World of Warcraft Studio - Editor] - OpenGL Error %d', 0aH
	DB	00H
	ORG $+1
$SG82910 DB	'a', 00H
	ORG $+2
$SG82911 DB	'bookmarks.txt', 00H
	ORG $+2
$SG82921 DB	'Unknown location', 00H
	ORG $+3
$SG82927 DB	'%s %f %f %f  %f %f  %s', 0aH, 00H
CONST	ENDS
_DATA	SEGMENT
?DetailSelection@@3_NA DB 01H				; DetailSelection
	ORG $+3
?BrushRadius@@3MA DD 041200000r			; 10	; BrushRadius
?BrushType@@3HA DD 02H					; BrushType
?brushPressure@@3MA DD 03f666666r		; 0.9	; brushPressure
?brushLevel@@3MA DD 0437f0000r			; 255	; brushLevel
_DATA	ENDS
;	COMDAT ?Name@AreaDB@@2IB
CONST	SEGMENT
?Name@AreaDB@@2IB DD 0bH				; AreaDB::Name
CONST	ENDS
;	COMDAT ?Flags@AreaDB@@2IB
CONST	SEGMENT
?Flags@AreaDB@@2IB DD 03H				; AreaDB::Flags
CONST	ENDS
;	COMDAT ?Region@AreaDB@@2IB
CONST	SEGMENT
?Region@AreaDB@@2IB DD 02H				; AreaDB::Region
CONST	ENDS
;	COMDAT ?Continent@AreaDB@@2IB
CONST	SEGMENT
?Continent@AreaDB@@2IB DD 01H				; AreaDB::Continent
CONST	ENDS
;	COMDAT ?AreaID@AreaDB@@2IB
CONST	SEGMENT
?AreaID@AreaDB@@2IB DD 00H				; AreaDB::AreaID
CONST	ENDS
;	COMDAT ?end@?$_Iosb@H@std@@2W4_Seekdir@12@B
CONST	SEGMENT
?end@?$_Iosb@H@std@@2W4_Seekdir@12@B DD 02H		; std::_Iosb<int>::end
CONST	ENDS
;	COMDAT ?cur@?$_Iosb@H@std@@2W4_Seekdir@12@B
CONST	SEGMENT
?cur@?$_Iosb@H@std@@2W4_Seekdir@12@B DD 01H		; std::_Iosb<int>::cur
CONST	ENDS
;	COMDAT ?beg@?$_Iosb@H@std@@2W4_Seekdir@12@B
CONST	SEGMENT
?beg@?$_Iosb@H@std@@2W4_Seekdir@12@B DD 00H		; std::_Iosb<int>::beg
CONST	ENDS
;	COMDAT ?binary@?$_Iosb@H@std@@2W4_Openmode@12@B
CONST	SEGMENT
?binary@?$_Iosb@H@std@@2W4_Openmode@12@B DD 020H	; std::_Iosb<int>::binary
CONST	ENDS
;	COMDAT ?_Noreplace@?$_Iosb@H@std@@2W4_Openmode@12@B
CONST	SEGMENT
?_Noreplace@?$_Iosb@H@std@@2W4_Openmode@12@B DD 080H	; std::_Iosb<int>::_Noreplace
CONST	ENDS
;	COMDAT ?_Nocreate@?$_Iosb@H@std@@2W4_Openmode@12@B
CONST	SEGMENT
?_Nocreate@?$_Iosb@H@std@@2W4_Openmode@12@B DD 040H	; std::_Iosb<int>::_Nocreate
CONST	ENDS
;	COMDAT ?trunc@?$_Iosb@H@std@@2W4_Openmode@12@B
CONST	SEGMENT
?trunc@?$_Iosb@H@std@@2W4_Openmode@12@B DD 010H		; std::_Iosb<int>::trunc
CONST	ENDS
;	COMDAT ?app@?$_Iosb@H@std@@2W4_Openmode@12@B
CONST	SEGMENT
?app@?$_Iosb@H@std@@2W4_Openmode@12@B DD 08H		; std::_Iosb<int>::app
CONST	ENDS
;	COMDAT ?ate@?$_Iosb@H@std@@2W4_Openmode@12@B
CONST	SEGMENT
?ate@?$_Iosb@H@std@@2W4_Openmode@12@B DD 04H		; std::_Iosb<int>::ate
CONST	ENDS
;	COMDAT ?out@?$_Iosb@H@std@@2W4_Openmode@12@B
CONST	SEGMENT
?out@?$_Iosb@H@std@@2W4_Openmode@12@B DD 02H		; std::_Iosb<int>::out
CONST	ENDS
;	COMDAT ?in@?$_Iosb@H@std@@2W4_Openmode@12@B
CONST	SEGMENT
?in@?$_Iosb@H@std@@2W4_Openmode@12@B DD 01H		; std::_Iosb<int>::in
CONST	ENDS
;	COMDAT ?_Hardfail@?$_Iosb@H@std@@2W4_Iostate@12@B
CONST	SEGMENT
?_Hardfail@?$_Iosb@H@std@@2W4_Iostate@12@B DD 010H	; std::_Iosb<int>::_Hardfail
CONST	ENDS
;	COMDAT ?badbit@?$_Iosb@H@std@@2W4_Iostate@12@B
CONST	SEGMENT
?badbit@?$_Iosb@H@std@@2W4_Iostate@12@B DD 04H		; std::_Iosb<int>::badbit
CONST	ENDS
;	COMDAT ?failbit@?$_Iosb@H@std@@2W4_Iostate@12@B
CONST	SEGMENT
?failbit@?$_Iosb@H@std@@2W4_Iostate@12@B DD 02H		; std::_Iosb<int>::failbit
CONST	ENDS
;	COMDAT ?eofbit@?$_Iosb@H@std@@2W4_Iostate@12@B
CONST	SEGMENT
?eofbit@?$_Iosb@H@std@@2W4_Iostate@12@B DD 01H		; std::_Iosb<int>::eofbit
CONST	ENDS
;	COMDAT ?goodbit@?$_Iosb@H@std@@2W4_Iostate@12@B
CONST	SEGMENT
?goodbit@?$_Iosb@H@std@@2W4_Iostate@12@B DD 00H		; std::_Iosb<int>::goodbit
CONST	ENDS
;	COMDAT ?floatfield@?$_Iosb@H@std@@2W4_Fmtflags@12@B
CONST	SEGMENT
?floatfield@?$_Iosb@H@std@@2W4_Fmtflags@12@B DD 03000H	; std::_Iosb<int>::floatfield
CONST	ENDS
;	COMDAT ?basefield@?$_Iosb@H@std@@2W4_Fmtflags@12@B
CONST	SEGMENT
?basefield@?$_Iosb@H@std@@2W4_Fmtflags@12@B DD 0e00H	; std::_Iosb<int>::basefield
CONST	ENDS
;	COMDAT ?adjustfield@?$_Iosb@H@std@@2W4_Fmtflags@12@B
CONST	SEGMENT
?adjustfield@?$_Iosb@H@std@@2W4_Fmtflags@12@B DD 01c0H	; std::_Iosb<int>::adjustfield
CONST	ENDS
;	COMDAT ?_Stdio@?$_Iosb@H@std@@2W4_Fmtflags@12@B
CONST	SEGMENT
?_Stdio@?$_Iosb@H@std@@2W4_Fmtflags@12@B DD 08000H	; std::_Iosb<int>::_Stdio
CONST	ENDS
;	COMDAT ?boolalpha@?$_Iosb@H@std@@2W4_Fmtflags@12@B
CONST	SEGMENT
?boolalpha@?$_Iosb@H@std@@2W4_Fmtflags@12@B DD 04000H	; std::_Iosb<int>::boolalpha
CONST	ENDS
;	COMDAT ?hexfloat@?$_Iosb@H@std@@2W4_Fmtflags@12@B
CONST	SEGMENT
?hexfloat@?$_Iosb@H@std@@2W4_Fmtflags@12@B DD 03000H	; std::_Iosb<int>::hexfloat
CONST	ENDS
;	COMDAT ?fixed@?$_Iosb@H@std@@2W4_Fmtflags@12@B
CONST	SEGMENT
?fixed@?$_Iosb@H@std@@2W4_Fmtflags@12@B DD 02000H	; std::_Iosb<int>::fixed
CONST	ENDS
;	COMDAT ?scientific@?$_Iosb@H@std@@2W4_Fmtflags@12@B
CONST	SEGMENT
?scientific@?$_Iosb@H@std@@2W4_Fmtflags@12@B DD 01000H	; std::_Iosb<int>::scientific
CONST	ENDS
;	COMDAT ?hex@?$_Iosb@H@std@@2W4_Fmtflags@12@B
CONST	SEGMENT
?hex@?$_Iosb@H@std@@2W4_Fmtflags@12@B DD 0800H		; std::_Iosb<int>::hex
CONST	ENDS
;	COMDAT ?oct@?$_Iosb@H@std@@2W4_Fmtflags@12@B
CONST	SEGMENT
?oct@?$_Iosb@H@std@@2W4_Fmtflags@12@B DD 0400H		; std::_Iosb<int>::oct
CONST	ENDS
;	COMDAT ?dec@?$_Iosb@H@std@@2W4_Fmtflags@12@B
CONST	SEGMENT
?dec@?$_Iosb@H@std@@2W4_Fmtflags@12@B DD 0200H		; std::_Iosb<int>::dec
CONST	ENDS
;	COMDAT ?internal@?$_Iosb@H@std@@2W4_Fmtflags@12@B
CONST	SEGMENT
?internal@?$_Iosb@H@std@@2W4_Fmtflags@12@B DD 0100H	; std::_Iosb<int>::internal
CONST	ENDS
;	COMDAT ?right@?$_Iosb@H@std@@2W4_Fmtflags@12@B
CONST	SEGMENT
?right@?$_Iosb@H@std@@2W4_Fmtflags@12@B DD 080H		; std::_Iosb<int>::right
CONST	ENDS
;	COMDAT ?left@?$_Iosb@H@std@@2W4_Fmtflags@12@B
CONST	SEGMENT
?left@?$_Iosb@H@std@@2W4_Fmtflags@12@B DD 040H		; std::_Iosb<int>::left
CONST	ENDS
;	COMDAT ?showpos@?$_Iosb@H@std@@2W4_Fmtflags@12@B
CONST	SEGMENT
?showpos@?$_Iosb@H@std@@2W4_Fmtflags@12@B DD 020H	; std::_Iosb<int>::showpos
CONST	ENDS
;	COMDAT ?showpoint@?$_Iosb@H@std@@2W4_Fmtflags@12@B
CONST	SEGMENT
?showpoint@?$_Iosb@H@std@@2W4_Fmtflags@12@B DD 010H	; std::_Iosb<int>::showpoint
CONST	ENDS
;	COMDAT ?showbase@?$_Iosb@H@std@@2W4_Fmtflags@12@B
CONST	SEGMENT
?showbase@?$_Iosb@H@std@@2W4_Fmtflags@12@B DD 08H	; std::_Iosb<int>::showbase
CONST	ENDS
;	COMDAT ?uppercase@?$_Iosb@H@std@@2W4_Fmtflags@12@B
CONST	SEGMENT
?uppercase@?$_Iosb@H@std@@2W4_Fmtflags@12@B DD 04H	; std::_Iosb<int>::uppercase
CONST	ENDS
;	COMDAT ?unitbuf@?$_Iosb@H@std@@2W4_Fmtflags@12@B
CONST	SEGMENT
?unitbuf@?$_Iosb@H@std@@2W4_Fmtflags@12@B DD 02H	; std::_Iosb<int>::unitbuf
CONST	ENDS
;	COMDAT ?skipws@?$_Iosb@H@std@@2W4_Fmtflags@12@B
CONST	SEGMENT
?skipws@?$_Iosb@H@std@@2W4_Fmtflags@12@B DD 01H		; std::_Iosb<int>::skipws
CONST	ENDS
;	COMDAT ?none@?$_Locbase@H@std@@2HB
CONST	SEGMENT
?none@?$_Locbase@H@std@@2HB DD 00H			; std::_Locbase<int>::none
CONST	ENDS
;	COMDAT ?all@?$_Locbase@H@std@@2HB
CONST	SEGMENT
?all@?$_Locbase@H@std@@2HB DD 03fH			; std::_Locbase<int>::all
CONST	ENDS
;	COMDAT ?messages@?$_Locbase@H@std@@2HB
CONST	SEGMENT
?messages@?$_Locbase@H@std@@2HB DD 020H			; std::_Locbase<int>::messages
CONST	ENDS
;	COMDAT ?time@?$_Locbase@H@std@@2HB
CONST	SEGMENT
?time@?$_Locbase@H@std@@2HB DD 010H			; std::_Locbase<int>::time
CONST	ENDS
;	COMDAT ?numeric@?$_Locbase@H@std@@2HB
CONST	SEGMENT
?numeric@?$_Locbase@H@std@@2HB DD 08H			; std::_Locbase<int>::numeric
CONST	ENDS
;	COMDAT ?monetary@?$_Locbase@H@std@@2HB
CONST	SEGMENT
?monetary@?$_Locbase@H@std@@2HB DD 04H			; std::_Locbase<int>::monetary
CONST	ENDS
;	COMDAT ?ctype@?$_Locbase@H@std@@2HB
CONST	SEGMENT
?ctype@?$_Locbase@H@std@@2HB DD 02H			; std::_Locbase<int>::ctype
CONST	ENDS
;	COMDAT ?collate@?$_Locbase@H@std@@2HB
CONST	SEGMENT
?collate@?$_Locbase@H@std@@2HB DD 01H			; std::_Locbase<int>::collate
CONST	ENDS
;	COMDAT ?_Rank@?$_Arithmetic_traits@O@std@@2HB
CONST	SEGMENT
?_Rank@?$_Arithmetic_traits@O@std@@2HB DD 09H		; std::_Arithmetic_traits<long double>::_Rank
CONST	ENDS
;	COMDAT ?_Rank@?$_Arithmetic_traits@N@std@@2HB
CONST	SEGMENT
?_Rank@?$_Arithmetic_traits@N@std@@2HB DD 08H		; std::_Arithmetic_traits<double>::_Rank
CONST	ENDS
;	COMDAT ?_Rank@?$_Arithmetic_traits@M@std@@2HB
CONST	SEGMENT
?_Rank@?$_Arithmetic_traits@M@std@@2HB DD 07H		; std::_Arithmetic_traits<float>::_Rank
CONST	ENDS
;	COMDAT ?_Rank@?$_Arithmetic_traits@_K@std@@2HB
CONST	SEGMENT
?_Rank@?$_Arithmetic_traits@_K@std@@2HB DD 06H		; std::_Arithmetic_traits<unsigned __int64>::_Rank
CONST	ENDS
;	COMDAT ?_Rank@?$_Arithmetic_traits@_J@std@@2HB
CONST	SEGMENT
?_Rank@?$_Arithmetic_traits@_J@std@@2HB DD 06H		; std::_Arithmetic_traits<__int64>::_Rank
CONST	ENDS
;	COMDAT ?_Rank@?$_Arithmetic_traits@K@std@@2HB
CONST	SEGMENT
?_Rank@?$_Arithmetic_traits@K@std@@2HB DD 05H		; std::_Arithmetic_traits<unsigned long>::_Rank
CONST	ENDS
;	COMDAT ?_Rank@?$_Arithmetic_traits@J@std@@2HB
CONST	SEGMENT
?_Rank@?$_Arithmetic_traits@J@std@@2HB DD 05H		; std::_Arithmetic_traits<long>::_Rank
CONST	ENDS
;	COMDAT ?_Rank@?$_Arithmetic_traits@I@std@@2HB
CONST	SEGMENT
?_Rank@?$_Arithmetic_traits@I@std@@2HB DD 04H		; std::_Arithmetic_traits<unsigned int>::_Rank
CONST	ENDS
;	COMDAT ?_Rank@?$_Arithmetic_traits@H@std@@2HB
CONST	SEGMENT
?_Rank@?$_Arithmetic_traits@H@std@@2HB DD 04H		; std::_Arithmetic_traits<int>::_Rank
CONST	ENDS
;	COMDAT ?_Rank@?$_Arithmetic_traits@G@std@@2HB
CONST	SEGMENT
?_Rank@?$_Arithmetic_traits@G@std@@2HB DD 03H		; std::_Arithmetic_traits<unsigned short>::_Rank
CONST	ENDS
;	COMDAT ?_Rank@?$_Arithmetic_traits@F@std@@2HB
CONST	SEGMENT
?_Rank@?$_Arithmetic_traits@F@std@@2HB DD 03H		; std::_Arithmetic_traits<short>::_Rank
CONST	ENDS
;	COMDAT ?_Rank@?$_Arithmetic_traits@E@std@@2HB
CONST	SEGMENT
?_Rank@?$_Arithmetic_traits@E@std@@2HB DD 02H		; std::_Arithmetic_traits<unsigned char>::_Rank
CONST	ENDS
;	COMDAT ?_Rank@?$_Arithmetic_traits@C@std@@2HB
CONST	SEGMENT
?_Rank@?$_Arithmetic_traits@C@std@@2HB DD 02H		; std::_Arithmetic_traits<signed char>::_Rank
CONST	ENDS
;	COMDAT ?_Rank@?$_Arithmetic_traits@D@std@@2HB
CONST	SEGMENT
?_Rank@?$_Arithmetic_traits@D@std@@2HB DD 02H		; std::_Arithmetic_traits<char>::_Rank
CONST	ENDS
;	COMDAT ?_Rank@?$_Arithmetic_traits@_N@std@@2HB
CONST	SEGMENT
?_Rank@?$_Arithmetic_traits@_N@std@@2HB DD 01H		; std::_Arithmetic_traits<bool>::_Rank
CONST	ENDS
;	COMDAT ?value@?$integral_constant@I$0A@@tr1@std@@2IB
CONST	SEGMENT
?value@?$integral_constant@I$0A@@tr1@std@@2IB DD 00H	; std::tr1::integral_constant<unsigned int,0>::value
CONST	ENDS
;	COMDAT ?value@?$integral_constant@_N$00@tr1@std@@2_NB
CONST	SEGMENT
?value@?$integral_constant@_N$00@tr1@std@@2_NB DB 01H	; std::tr1::integral_constant<bool,1>::value
CONST	ENDS
;	COMDAT ?value@?$integral_constant@_N$0A@@tr1@std@@2_NB
CONST	SEGMENT
?value@?$integral_constant@_N$0A@@tr1@std@@2_NB DB 00H	; std::tr1::integral_constant<bool,0>::value
CONST	ENDS
PUBLIC	??_7bad_alloc@std@@6B@				; std::bad_alloc::`vftable'
PUBLIC	??0bad_alloc@std@@QAE@PBD@Z			; std::bad_alloc::bad_alloc
PUBLIC	??_R4bad_alloc@std@@6B@				; std::bad_alloc::`RTTI Complete Object Locator'
PUBLIC	??_R0?AVbad_alloc@std@@@8			; std::bad_alloc `RTTI Type Descriptor'
PUBLIC	??_R3bad_alloc@std@@8				; std::bad_alloc::`RTTI Class Hierarchy Descriptor'
PUBLIC	??_R2bad_alloc@std@@8				; std::bad_alloc::`RTTI Base Class Array'
PUBLIC	??_R1A@?0A@EA@bad_alloc@std@@8			; std::bad_alloc::`RTTI Base Class Descriptor at (0,-1,0,64)'
PUBLIC	??_R1A@?0A@EA@exception@std@@8			; std::exception::`RTTI Base Class Descriptor at (0,-1,0,64)'
PUBLIC	??_R0?AVexception@std@@@8			; std::exception `RTTI Type Descriptor'
PUBLIC	??_R3exception@std@@8				; std::exception::`RTTI Class Hierarchy Descriptor'
PUBLIC	??_R2exception@std@@8				; std::exception::`RTTI Base Class Array'
EXTRN	__imp_??0exception@std@@QAE@ABQBD@Z:PROC
EXTRN	??_7type_info@@6B@:QWORD			; type_info::`vftable'
EXTRN	??_Ebad_alloc@std@@UAEPAXI@Z:PROC		; std::bad_alloc::`vector deleting destructor'
EXTRN	?what@exception@std@@UBEPBDXZ:PROC		; std::exception::what
;	COMDAT ??_R2exception@std@@8
; File c:\program files (x86)\microsoft visual studio 10.0\vc\include\exception
rdata$r	SEGMENT
??_R2exception@std@@8 DD FLAT:??_R1A@?0A@EA@exception@std@@8 ; std::exception::`RTTI Base Class Array'
rdata$r	ENDS
;	COMDAT ??_R3exception@std@@8
rdata$r	SEGMENT
??_R3exception@std@@8 DD 00H				; std::exception::`RTTI Class Hierarchy Descriptor'
	DD	00H
	DD	01H
	DD	FLAT:??_R2exception@std@@8
rdata$r	ENDS
;	COMDAT ??_R0?AVexception@std@@@8
_DATA	SEGMENT
??_R0?AVexception@std@@@8 DD FLAT:??_7type_info@@6B@	; std::exception `RTTI Type Descriptor'
	DD	00H
	DB	'.?AVexception@std@@', 00H
_DATA	ENDS
;	COMDAT ??_R1A@?0A@EA@exception@std@@8
rdata$r	SEGMENT
??_R1A@?0A@EA@exception@std@@8 DD FLAT:??_R0?AVexception@std@@@8 ; std::exception::`RTTI Base Class Descriptor at (0,-1,0,64)'
	DD	00H
	DD	00H
	DD	0ffffffffH
	DD	00H
	DD	040H
	DD	FLAT:??_R3exception@std@@8
rdata$r	ENDS
;	COMDAT ??_R1A@?0A@EA@bad_alloc@std@@8
rdata$r	SEGMENT
??_R1A@?0A@EA@bad_alloc@std@@8 DD FLAT:??_R0?AVbad_alloc@std@@@8 ; std::bad_alloc::`RTTI Base Class Descriptor at (0,-1,0,64)'
	DD	01H
	DD	00H
	DD	0ffffffffH
	DD	00H
	DD	040H
	DD	FLAT:??_R3bad_alloc@std@@8
rdata$r	ENDS
;	COMDAT ??_R2bad_alloc@std@@8
rdata$r	SEGMENT
??_R2bad_alloc@std@@8 DD FLAT:??_R1A@?0A@EA@bad_alloc@std@@8 ; std::bad_alloc::`RTTI Base Class Array'
	DD	FLAT:??_R1A@?0A@EA@exception@std@@8
rdata$r	ENDS
;	COMDAT ??_R3bad_alloc@std@@8
rdata$r	SEGMENT
??_R3bad_alloc@std@@8 DD 00H				; std::bad_alloc::`RTTI Class Hierarchy Descriptor'
	DD	00H
	DD	02H
	DD	FLAT:??_R2bad_alloc@std@@8
rdata$r	ENDS
;	COMDAT ??_R0?AVbad_alloc@std@@@8
_DATA	SEGMENT
??_R0?AVbad_alloc@std@@@8 DD FLAT:??_7type_info@@6B@	; std::bad_alloc `RTTI Type Descriptor'
	DD	00H
	DB	'.?AVbad_alloc@std@@', 00H
_DATA	ENDS
;	COMDAT ??_R4bad_alloc@std@@6B@
rdata$r	SEGMENT
??_R4bad_alloc@std@@6B@ DD 00H				; std::bad_alloc::`RTTI Complete Object Locator'
	DD	00H
	DD	00H
	DD	FLAT:??_R0?AVbad_alloc@std@@@8
	DD	FLAT:??_R3bad_alloc@std@@8
rdata$r	ENDS
;	COMDAT ??_7bad_alloc@std@@6B@
CONST	SEGMENT
??_7bad_alloc@std@@6B@ DD FLAT:??_R4bad_alloc@std@@6B@	; std::bad_alloc::`vftable'
	DD	FLAT:??_Ebad_alloc@std@@UAEPAXI@Z
	DD	FLAT:?what@exception@std@@UBEPBDXZ
; Function compile flags: /Ogtp
CONST	ENDS
;	COMDAT ??0bad_alloc@std@@QAE@PBD@Z
_TEXT	SEGMENT
__Message$ = 8						; size = 4
??0bad_alloc@std@@QAE@PBD@Z PROC			; std::bad_alloc::bad_alloc, COMDAT
; _this$ = ecx
; Line 345
	push	ebp
	mov	ebp, esp
	push	esi
	lea	eax, DWORD PTR __Message$[ebp]
	push	eax
	mov	esi, ecx
	call	DWORD PTR __imp_??0exception@std@@QAE@ABQBD@Z
	mov	DWORD PTR [esi], OFFSET ??_7bad_alloc@std@@6B@
; Line 346
	mov	eax, esi
	pop	esi
	pop	ebp
	ret	4
??0bad_alloc@std@@QAE@PBD@Z ENDP			; std::bad_alloc::bad_alloc
_TEXT	ENDS
PUBLIC	??1bad_alloc@std@@UAE@XZ			; std::bad_alloc::~bad_alloc
EXTRN	__imp_??1exception@std@@UAE@XZ:PROC
; Function compile flags: /Ogtp
;	COMDAT ??1bad_alloc@std@@UAE@XZ
_TEXT	SEGMENT
??1bad_alloc@std@@UAE@XZ PROC				; std::bad_alloc::~bad_alloc, COMDAT
; _this$ = ecx
; Line 354
	mov	DWORD PTR [ecx], OFFSET ??_7bad_alloc@std@@6B@
; Line 355
	jmp	DWORD PTR __imp_??1exception@std@@UAE@XZ
??1bad_alloc@std@@UAE@XZ ENDP				; std::bad_alloc::~bad_alloc
_TEXT	ENDS
EXTRN	??3@YAXPAX@Z:PROC				; operator delete
; Function compile flags: /Ogtp
;	COMDAT ??_Gbad_alloc@std@@UAEPAXI@Z
_TEXT	SEGMENT
___flags$ = 8						; size = 4
??_Gbad_alloc@std@@UAEPAXI@Z PROC			; std::bad_alloc::`scalar deleting destructor', COMDAT
; _this$ = ecx
	push	ebp
	mov	ebp, esp
	push	esi
	mov	esi, ecx
	mov	DWORD PTR [esi], OFFSET ??_7bad_alloc@std@@6B@
	call	DWORD PTR __imp_??1exception@std@@UAE@XZ
	test	BYTE PTR ___flags$[ebp], 1
	je	SHORT $LN6@scalar
	push	esi
	call	??3@YAXPAX@Z				; operator delete
	add	esp, 4
$LN6@scalar:
	mov	eax, esi
	pop	esi
	pop	ebp
	ret	4
??_Gbad_alloc@std@@UAEPAXI@Z ENDP			; std::bad_alloc::`scalar deleting destructor'
_TEXT	ENDS
PUBLIC	??2@YAPAXIPAX@Z					; operator new
; Function compile flags: /Ogtp
;	COMDAT ??2@YAPAXIPAX@Z
_TEXT	SEGMENT
___formal$ = 8						; size = 4
__Where$ = 12						; size = 4
??2@YAPAXIPAX@Z PROC					; operator new, COMDAT
; File c:\program files (x86)\microsoft visual studio 10.0\vc\include\new
; Line 56
	push	ebp
	mov	ebp, esp
; Line 57
	mov	eax, DWORD PTR __Where$[ebp]
; Line 58
	pop	ebp
	ret	0
??2@YAPAXIPAX@Z ENDP					; operator new
_TEXT	ENDS
PUBLIC	??3@YAXPAX0@Z					; operator delete
; Function compile flags: /Ogtp
;	COMDAT ??3@YAXPAX0@Z
_TEXT	SEGMENT
___formal$ = 8						; size = 4
___formal$ = 12						; size = 4
??3@YAXPAX0@Z PROC					; operator delete, COMDAT
; Line 62
	ret	0
??3@YAXPAX0@Z ENDP					; operator delete
_TEXT	ENDS
PUBLIC	?length@?$char_traits@D@std@@SAIPBD@Z		; std::char_traits<char>::length
; Function compile flags: /Ogtp
;	COMDAT ?length@?$char_traits@D@std@@SAIPBD@Z
_TEXT	SEGMENT
__First$ = 8						; size = 4
?length@?$char_traits@D@std@@SAIPBD@Z PROC		; std::char_traits<char>::length, COMDAT
; File c:\program files (x86)\microsoft visual studio 10.0\vc\include\iosfwd
; Line 490
	push	ebp
	mov	ebp, esp
; Line 491
	mov	eax, DWORD PTR __First$[ebp]
	lea	edx, DWORD PTR [eax+1]
	npad	7
$LL3@length:
	mov	cl, BYTE PTR [eax]
	inc	eax
	test	cl, cl
	jne	SHORT $LL3@length
	sub	eax, edx
; Line 492
	pop	ebp
	ret	0
?length@?$char_traits@D@std@@SAIPBD@Z ENDP		; std::char_traits<char>::length
_TEXT	ENDS
PUBLIC	?copy@?$char_traits@D@std@@SAPADPADPBDI@Z	; std::char_traits<char>::copy
EXTRN	_memcpy:PROC
; Function compile flags: /Ogtp
;	COMDAT ?copy@?$char_traits@D@std@@SAPADPADPBDI@Z
_TEXT	SEGMENT
__First1$ = 8						; size = 4
__First2$ = 12						; size = 4
__Count$ = 16						; size = 4
?copy@?$char_traits@D@std@@SAPADPADPBDI@Z PROC		; std::char_traits<char>::copy, COMDAT
; Line 496
	push	ebp
	mov	ebp, esp
; Line 498
	pop	ebp
; Line 497
	jmp	_memcpy
?copy@?$char_traits@D@std@@SAPADPADPBDI@Z ENDP		; std::char_traits<char>::copy
_TEXT	ENDS
PUBLIC	?move@?$char_traits@D@std@@SAPADPADPBDI@Z	; std::char_traits<char>::move
EXTRN	__imp__memmove:PROC
; Function compile flags: /Ogtp
;	COMDAT ?move@?$char_traits@D@std@@SAPADPADPBDI@Z
_TEXT	SEGMENT
__First1$ = 8						; size = 4
__First2$ = 12						; size = 4
__Count$ = 16						; size = 4
?move@?$char_traits@D@std@@SAPADPADPBDI@Z PROC		; std::char_traits<char>::move, COMDAT
; Line 516
	push	ebp
	mov	ebp, esp
; Line 518
	pop	ebp
; Line 517
	jmp	DWORD PTR __imp__memmove
?move@?$char_traits@D@std@@SAPADPADPBDI@Z ENDP		; std::char_traits<char>::move
_TEXT	ENDS
PUBLIC	?assign@?$char_traits@D@std@@SAXAADABD@Z	; std::char_traits<char>::assign
; Function compile flags: /Ogtp
;	COMDAT ?assign@?$char_traits@D@std@@SAXAADABD@Z
_TEXT	SEGMENT
__Left$ = 8						; size = 4
__Right$ = 12						; size = 4
?assign@?$char_traits@D@std@@SAXAADABD@Z PROC		; std::char_traits<char>::assign, COMDAT
; Line 526
	push	ebp
	mov	ebp, esp
; Line 527
	mov	eax, DWORD PTR __Right$[ebp]
	mov	cl, BYTE PTR [eax]
	mov	edx, DWORD PTR __Left$[ebp]
	mov	BYTE PTR [edx], cl
; Line 528
	pop	ebp
	ret	0
?assign@?$char_traits@D@std@@SAXAADABD@Z ENDP		; std::char_traits<char>::assign
_TEXT	ENDS
PUBLIC	_fabsf
EXTRN	__fltused:DWORD
; Function compile flags: /Ogtp
;	COMDAT _fabsf
_TEXT	SEGMENT
tv129 = 8						; size = 4
__X$ = 8						; size = 4
_fabsf	PROC						; COMDAT
; File c:\program files (x86)\microsoft visual studio 10.0\vc\include\math.h
; Line 395
	push	ebp
	mov	ebp, esp
	fld	DWORD PTR __X$[ebp]
	fabs
	fstp	DWORD PTR tv129[ebp]
	fld	DWORD PTR tv129[ebp]
	pop	ebp
	ret	0
_fabsf	ENDP
_TEXT	ENDS
PUBLIC	_cosf
EXTRN	__CIcos:PROC
; Function compile flags: /Ogtp
;	COMDAT _cosf
_TEXT	SEGMENT
tv69 = 8						; size = 4
__X$ = 8						; size = 4
_cosf	PROC						; COMDAT
; Line 410
	push	ebp
	mov	ebp, esp
	fld	DWORD PTR __X$[ebp]
	call	__CIcos
	fstp	DWORD PTR tv69[ebp]
	fld	DWORD PTR tv69[ebp]
	pop	ebp
	ret	0
_cosf	ENDP
_TEXT	ENDS
PUBLIC	_powf
EXTRN	__CIpow:PROC
; Function compile flags: /Ogtp
;	COMDAT _powf
_TEXT	SEGMENT
tv72 = 8						; size = 4
__X$ = 8						; size = 4
__Y$ = 12						; size = 4
_powf	PROC						; COMDAT
; Line 428
	push	ebp
	mov	ebp, esp
	fld	DWORD PTR __X$[ebp]
	fld	DWORD PTR __Y$[ebp]
	call	__CIpow
	fstp	DWORD PTR tv72[ebp]
	fld	DWORD PTR tv72[ebp]
	pop	ebp
	ret	0
_powf	ENDP
_TEXT	ENDS
PUBLIC	_sinf
EXTRN	__CIsin:PROC
; Function compile flags: /Ogtp
;	COMDAT _sinf
_TEXT	SEGMENT
tv69 = 8						; size = 4
__X$ = 8						; size = 4
_sinf	PROC						; COMDAT
; Line 430
	push	ebp
	mov	ebp, esp
	fld	DWORD PTR __X$[ebp]
	call	__CIsin
	fstp	DWORD PTR tv69[ebp]
	fld	DWORD PTR tv69[ebp]
	pop	ebp
	ret	0
_sinf	ENDP
_TEXT	ENDS
PUBLIC	_sqrtf
EXTRN	__CIsqrt:PROC
; Function compile flags: /Ogtp
;	COMDAT _sqrtf
_TEXT	SEGMENT
tv69 = 8						; size = 4
__X$ = 8						; size = 4
_sqrtf	PROC						; COMDAT
; Line 434
	push	ebp
	mov	ebp, esp
	fld	DWORD PTR __X$[ebp]
	call	__CIsqrt
	fstp	DWORD PTR tv69[ebp]
	fld	DWORD PTR tv69[ebp]
	pop	ebp
	ret	0
_sqrtf	ENDP
_TEXT	ENDS
PUBLIC	?abs@@YAMM@Z					; abs
; Function compile flags: /Ogtp
;	COMDAT ?abs@@YAMM@Z
_TEXT	SEGMENT
tv131 = 8						; size = 4
__X$ = 8						; size = 4
?abs@@YAMM@Z PROC					; abs, COMDAT
; Line 500
	push	ebp
	mov	ebp, esp
	fld	DWORD PTR __X$[ebp]
	fabs
	fstp	DWORD PTR tv131[ebp]
	fld	DWORD PTR tv131[ebp]
	pop	ebp
	ret	0
?abs@@YAMM@Z ENDP					; abs
_TEXT	ENDS
PUBLIC	?pow@@YAMMM@Z					; pow
; Function compile flags: /Ogtp
;	COMDAT ?pow@@YAMMM@Z
_TEXT	SEGMENT
tv77 = 8						; size = 4
__X$ = 8						; size = 4
__Y$ = 12						; size = 4
?pow@@YAMMM@Z PROC					; pow, COMDAT
; Line 534
	push	ebp
	mov	ebp, esp
	fld	DWORD PTR __X$[ebp]
	fld	DWORD PTR __Y$[ebp]
	call	__CIpow
	fstp	DWORD PTR tv77[ebp]
	fld	DWORD PTR tv77[ebp]
	pop	ebp
	ret	0
?pow@@YAMMM@Z ENDP					; pow
_TEXT	ENDS
PUBLIC	?sqrt@@YAMM@Z					; sqrt
; Function compile flags: /Ogtp
;	COMDAT ?sqrt@@YAMM@Z
_TEXT	SEGMENT
tv73 = 8						; size = 4
__X$ = 8						; size = 4
?sqrt@@YAMM@Z PROC					; sqrt, COMDAT
; Line 542
	push	ebp
	mov	ebp, esp
	fld	DWORD PTR __X$[ebp]
	call	__CIsqrt
	fstp	DWORD PTR tv73[ebp]
	fld	DWORD PTR tv73[ebp]
	pop	ebp
	ret	0
?sqrt@@YAMM@Z ENDP					; sqrt
_TEXT	ENDS
PUBLIC	?_Adopt@_Iterator_base0@std@@QAEXPBX@Z		; std::_Iterator_base0::_Adopt
; Function compile flags: /Ogtp
;	COMDAT ?_Adopt@_Iterator_base0@std@@QAEXPBX@Z
_TEXT	SEGMENT
___formal$ = 8						; size = 4
?_Adopt@_Iterator_base0@std@@QAEXPBX@Z PROC		; std::_Iterator_base0::_Adopt, COMDAT
; _this$ = ecx
; File c:\program files (x86)\microsoft visual studio 10.0\vc\include\xutility
; Line 49
	ret	4
?_Adopt@_Iterator_base0@std@@QAEXPBX@Z ENDP		; std::_Iterator_base0::_Adopt
_TEXT	ENDS
PUBLIC	??_7AppState@@6B@				; AppState::`vftable'
PUBLIC	??0AppState@@QAE@XZ				; AppState::AppState
PUBLIC	??_R4AppState@@6B@				; AppState::`RTTI Complete Object Locator'
PUBLIC	??_R0?AVAppState@@@8				; AppState `RTTI Type Descriptor'
PUBLIC	??_R3AppState@@8				; AppState::`RTTI Class Hierarchy Descriptor'
PUBLIC	??_R2AppState@@8				; AppState::`RTTI Base Class Array'
PUBLIC	??_R1A@?0A@EA@AppState@@8			; AppState::`RTTI Base Class Descriptor at (0,-1,0,64)'
PUBLIC	?tick@AppState@@UAEXMM@Z			; AppState::tick
PUBLIC	?display@AppState@@UAEXMM@Z			; AppState::display
PUBLIC	?mousemove@AppState@@UAEXPAUSDL_MouseMotionEvent@@@Z ; AppState::mousemove
PUBLIC	?mouseclick@AppState@@UAEXPAUSDL_MouseButtonEvent@@@Z ; AppState::mouseclick
PUBLIC	?keypressed@AppState@@UAEXPAUSDL_KeyboardEvent@@@Z ; AppState::keypressed
EXTRN	??_EAppState@@UAEPAXI@Z:PROC			; AppState::`vector deleting destructor'
;	COMDAT ??_R1A@?0A@EA@AppState@@8
; File c:\programovani\wow editor\test\src\editor\appstate.h
rdata$r	SEGMENT
??_R1A@?0A@EA@AppState@@8 DD FLAT:??_R0?AVAppState@@@8	; AppState::`RTTI Base Class Descriptor at (0,-1,0,64)'
	DD	00H
	DD	00H
	DD	0ffffffffH
	DD	00H
	DD	040H
	DD	FLAT:??_R3AppState@@8
rdata$r	ENDS
;	COMDAT ??_R2AppState@@8
rdata$r	SEGMENT
??_R2AppState@@8 DD FLAT:??_R1A@?0A@EA@AppState@@8	; AppState::`RTTI Base Class Array'
rdata$r	ENDS
;	COMDAT ??_R3AppState@@8
rdata$r	SEGMENT
??_R3AppState@@8 DD 00H					; AppState::`RTTI Class Hierarchy Descriptor'
	DD	00H
	DD	01H
	DD	FLAT:??_R2AppState@@8
rdata$r	ENDS
;	COMDAT ??_R0?AVAppState@@@8
_DATA	SEGMENT
??_R0?AVAppState@@@8 DD FLAT:??_7type_info@@6B@		; AppState `RTTI Type Descriptor'
	DD	00H
	DB	'.?AVAppState@@', 00H
_DATA	ENDS
;	COMDAT ??_R4AppState@@6B@
rdata$r	SEGMENT
??_R4AppState@@6B@ DD 00H				; AppState::`RTTI Complete Object Locator'
	DD	00H
	DD	00H
	DD	FLAT:??_R0?AVAppState@@@8
	DD	FLAT:??_R3AppState@@8
rdata$r	ENDS
;	COMDAT ??_7AppState@@6B@
CONST	SEGMENT
??_7AppState@@6B@ DD FLAT:??_R4AppState@@6B@		; AppState::`vftable'
	DD	FLAT:??_EAppState@@UAEPAXI@Z
	DD	FLAT:?tick@AppState@@UAEXMM@Z
	DD	FLAT:?display@AppState@@UAEXMM@Z
	DD	FLAT:?mousemove@AppState@@UAEXPAUSDL_MouseMotionEvent@@@Z
	DD	FLAT:?mouseclick@AppState@@UAEXPAUSDL_MouseButtonEvent@@@Z
	DD	FLAT:?keypressed@AppState@@UAEXPAUSDL_KeyboardEvent@@@Z
; Function compile flags: /Ogtp
CONST	ENDS
;	COMDAT ??0AppState@@QAE@XZ
_TEXT	SEGMENT
??0AppState@@QAE@XZ PROC				; AppState::AppState, COMDAT
; _this$ = ecx
; Line 10
	mov	eax, ecx
	mov	DWORD PTR [eax], OFFSET ??_7AppState@@6B@
	ret	0
??0AppState@@QAE@XZ ENDP				; AppState::AppState
_TEXT	ENDS
PUBLIC	??1AppState@@UAE@XZ				; AppState::~AppState
; Function compile flags: /Ogtp
;	COMDAT ??1AppState@@UAE@XZ
_TEXT	SEGMENT
??1AppState@@UAE@XZ PROC				; AppState::~AppState, COMDAT
; _this$ = ecx
; Line 11
	mov	DWORD PTR [ecx], OFFSET ??_7AppState@@6B@
	ret	0
??1AppState@@UAE@XZ ENDP				; AppState::~AppState
; Function compile flags: /Ogtp
_TEXT	ENDS
;	COMDAT ?tick@AppState@@UAEXMM@Z
_TEXT	SEGMENT
_t$ = 8							; size = 4
_dt$ = 12						; size = 4
?tick@AppState@@UAEXMM@Z PROC				; AppState::tick, COMDAT
; _this$ = ecx
; Line 13
	ret	8
?tick@AppState@@UAEXMM@Z ENDP				; AppState::tick
; Function compile flags: /Ogtp
_TEXT	ENDS
;	COMDAT ?display@AppState@@UAEXMM@Z
_TEXT	SEGMENT
_t$ = 8							; size = 4
_dt$ = 12						; size = 4
?display@AppState@@UAEXMM@Z PROC			; AppState::display, COMDAT
; _this$ = ecx
; Line 14
	ret	8
?display@AppState@@UAEXMM@Z ENDP			; AppState::display
; Function compile flags: /Ogtp
_TEXT	ENDS
;	COMDAT ?mousemove@AppState@@UAEXPAUSDL_MouseMotionEvent@@@Z
_TEXT	SEGMENT
_e$ = 8							; size = 4
?mousemove@AppState@@UAEXPAUSDL_MouseMotionEvent@@@Z PROC ; AppState::mousemove, COMDAT
; _this$ = ecx
; Line 16
	ret	4
?mousemove@AppState@@UAEXPAUSDL_MouseMotionEvent@@@Z ENDP ; AppState::mousemove
; Function compile flags: /Ogtp
_TEXT	ENDS
;	COMDAT ?mouseclick@AppState@@UAEXPAUSDL_MouseButtonEvent@@@Z
_TEXT	SEGMENT
_e$ = 8							; size = 4
?mouseclick@AppState@@UAEXPAUSDL_MouseButtonEvent@@@Z PROC ; AppState::mouseclick, COMDAT
; _this$ = ecx
; Line 17
	ret	4
?mouseclick@AppState@@UAEXPAUSDL_MouseButtonEvent@@@Z ENDP ; AppState::mouseclick
; Function compile flags: /Ogtp
_TEXT	ENDS
;	COMDAT ?keypressed@AppState@@UAEXPAUSDL_KeyboardEvent@@@Z
_TEXT	SEGMENT
_e$ = 8							; size = 4
?keypressed@AppState@@UAEXPAUSDL_KeyboardEvent@@@Z PROC	; AppState::keypressed, COMDAT
; _this$ = ecx
; Line 18
	ret	4
?keypressed@AppState@@UAEXPAUSDL_KeyboardEvent@@@Z ENDP	; AppState::keypressed
; Function compile flags: /Ogtp
_TEXT	ENDS
;	COMDAT ??_GAppState@@UAEPAXI@Z
_TEXT	SEGMENT
___flags$ = 8						; size = 4
??_GAppState@@UAEPAXI@Z PROC				; AppState::`scalar deleting destructor', COMDAT
; _this$ = ecx
	push	ebp
	mov	ebp, esp
	test	BYTE PTR ___flags$[ebp], 1
	push	esi
	mov	esi, ecx
	mov	DWORD PTR [esi], OFFSET ??_7AppState@@6B@
	je	SHORT $LN6@scalar@2
	push	esi
	call	??3@YAXPAX@Z				; operator delete
	add	esp, 4
$LN6@scalar@2:
	mov	eax, esi
	pop	esi
	pop	ebp
	ret	4
??_GAppState@@UAEPAXI@Z ENDP				; AppState::`scalar deleting destructor'
_TEXT	ENDS
PUBLIC	??0Vec3D@@QAE@MMM@Z				; Vec3D::Vec3D
; Function compile flags: /Ogtp
;	COMDAT ??0Vec3D@@QAE@MMM@Z
_TEXT	SEGMENT
_x0$ = 8						; size = 4
_y0$ = 12						; size = 4
_z0$ = 16						; size = 4
??0Vec3D@@QAE@MMM@Z PROC				; Vec3D::Vec3D, COMDAT
; _this$ = ecx
; File c:\programovani\wow editor\test\src\editor\vec3d.h
; Line 12
	push	ebp
	mov	ebp, esp
	mov	edx, DWORD PTR _y0$[ebp]
	mov	eax, ecx
	mov	ecx, DWORD PTR _x0$[ebp]
	mov	DWORD PTR [eax], ecx
	mov	ecx, DWORD PTR _z0$[ebp]
	mov	DWORD PTR [eax+4], edx
	mov	DWORD PTR [eax+8], ecx
	pop	ebp
	ret	12					; 0000000cH
??0Vec3D@@QAE@MMM@Z ENDP				; Vec3D::Vec3D
_TEXT	ENDS
PUBLIC	??0Vec3D@@QAE@ABV0@@Z				; Vec3D::Vec3D
; Function compile flags: /Ogtp
;	COMDAT ??0Vec3D@@QAE@ABV0@@Z
_TEXT	SEGMENT
_v$ = 8							; size = 4
??0Vec3D@@QAE@ABV0@@Z PROC				; Vec3D::Vec3D, COMDAT
; _this$ = ecx
; Line 14
	push	ebp
	mov	ebp, esp
	mov	eax, ecx
	mov	ecx, DWORD PTR _v$[ebp]
	mov	edx, DWORD PTR [ecx]
	mov	DWORD PTR [eax], edx
	mov	edx, DWORD PTR [ecx+4]
	mov	DWORD PTR [eax+4], edx
	mov	ecx, DWORD PTR [ecx+8]
	mov	DWORD PTR [eax+8], ecx
	pop	ebp
	ret	4
??0Vec3D@@QAE@ABV0@@Z ENDP				; Vec3D::Vec3D
_TEXT	ENDS
PUBLIC	??4Vec3D@@QAEAAV0@ABV0@@Z			; Vec3D::operator=
; Function compile flags: /Ogtp
;	COMDAT ??4Vec3D@@QAEAAV0@ABV0@@Z
_TEXT	SEGMENT
_v$ = 8							; size = 4
??4Vec3D@@QAEAAV0@ABV0@@Z PROC				; Vec3D::operator=, COMDAT
; _this$ = ecx
; Line 17
	push	ebp
	mov	ebp, esp
	mov	eax, ecx
; Line 18
	mov	ecx, DWORD PTR _v$[ebp]
	mov	edx, DWORD PTR [ecx]
	mov	DWORD PTR [eax], edx
; Line 19
	mov	edx, DWORD PTR [ecx+4]
	mov	DWORD PTR [eax+4], edx
; Line 20
	mov	ecx, DWORD PTR [ecx+8]
	mov	DWORD PTR [eax+8], ecx
; Line 22
	pop	ebp
	ret	4
??4Vec3D@@QAEAAV0@ABV0@@Z ENDP				; Vec3D::operator=
_TEXT	ENDS
PUBLIC	??HVec3D@@QBE?AV0@ABV0@@Z			; Vec3D::operator+
; Function compile flags: /Ogtp
;	COMDAT ??HVec3D@@QBE?AV0@ABV0@@Z
_TEXT	SEGMENT
___$ReturnUdt$ = 8					; size = 4
_v$ = 12						; size = 4
??HVec3D@@QBE?AV0@ABV0@@Z PROC				; Vec3D::operator+, COMDAT
; _this$ = ecx
; Line 25
	push	ebp
	mov	ebp, esp
; Line 26
	mov	edx, DWORD PTR _v$[ebp]
	fld	DWORD PTR [edx]
	mov	eax, DWORD PTR ___$ReturnUdt$[ebp]
	fadd	DWORD PTR [ecx]
	fstp	DWORD PTR [eax]
	fld	DWORD PTR [edx+4]
	fadd	DWORD PTR [ecx+4]
	fstp	DWORD PTR [eax+4]
	fld	DWORD PTR [edx+8]
	fadd	DWORD PTR [ecx+8]
	fstp	DWORD PTR [eax+8]
; Line 28
	pop	ebp
	ret	8
??HVec3D@@QBE?AV0@ABV0@@Z ENDP				; Vec3D::operator+
_TEXT	ENDS
PUBLIC	??GVec3D@@QBE?AV0@ABV0@@Z			; Vec3D::operator-
; Function compile flags: /Ogtp
;	COMDAT ??GVec3D@@QBE?AV0@ABV0@@Z
_TEXT	SEGMENT
___$ReturnUdt$ = 8					; size = 4
_v$ = 12						; size = 4
??GVec3D@@QBE?AV0@ABV0@@Z PROC				; Vec3D::operator-, COMDAT
; _this$ = ecx
; Line 31
	push	ebp
	mov	ebp, esp
; Line 32
	mov	edx, DWORD PTR _v$[ebp]
	fld	DWORD PTR [ecx]
	fsub	DWORD PTR [edx]
	mov	eax, DWORD PTR ___$ReturnUdt$[ebp]
	fstp	DWORD PTR [eax]
	fld	DWORD PTR [ecx+4]
	fsub	DWORD PTR [edx+4]
	fstp	DWORD PTR [eax+4]
	fld	DWORD PTR [ecx+8]
	fsub	DWORD PTR [edx+8]
	fstp	DWORD PTR [eax+8]
; Line 34
	pop	ebp
	ret	8
??GVec3D@@QBE?AV0@ABV0@@Z ENDP				; Vec3D::operator-
_TEXT	ENDS
PUBLIC	??DVec3D@@QBE?AV0@M@Z				; Vec3D::operator*
; Function compile flags: /Ogtp
;	COMDAT ??DVec3D@@QBE?AV0@M@Z
_TEXT	SEGMENT
___$ReturnUdt$ = 8					; size = 4
_d$ = 12						; size = 4
??DVec3D@@QBE?AV0@M@Z PROC				; Vec3D::operator*, COMDAT
; _this$ = ecx
; Line 42
	push	ebp
	mov	ebp, esp
; Line 43
	fld	DWORD PTR [ecx]
	mov	eax, DWORD PTR ___$ReturnUdt$[ebp]
	fld	DWORD PTR _d$[ebp]
	fld	ST(0)
	fmulp	ST(2), ST(0)
	fxch	ST(1)
	fstp	DWORD PTR [eax]
	fld	DWORD PTR [ecx+4]
	fmul	ST(0), ST(1)
	fstp	DWORD PTR [eax+4]
	fmul	DWORD PTR [ecx+8]
	fstp	DWORD PTR [eax+8]
; Line 45
	pop	ebp
	ret	8
??DVec3D@@QBE?AV0@M@Z ENDP				; Vec3D::operator*
_TEXT	ENDS
PUBLIC	??D@YA?AVVec3D@@MABV0@@Z			; operator*
; Function compile flags: /Ogtp
;	COMDAT ??D@YA?AVVec3D@@MABV0@@Z
_TEXT	SEGMENT
___$ReturnUdt$ = 8					; size = 4
_d$ = 12						; size = 4
_v$ = 16						; size = 4
??D@YA?AVVec3D@@MABV0@@Z PROC				; operator*, COMDAT
; Line 48
	push	ebp
	mov	ebp, esp
; Line 49
	mov	ecx, DWORD PTR _v$[ebp]
	fld	DWORD PTR [ecx]
	mov	eax, DWORD PTR ___$ReturnUdt$[ebp]
	fld	DWORD PTR _d$[ebp]
	fld	ST(0)
	fmulp	ST(2), ST(0)
	fxch	ST(1)
	fstp	DWORD PTR [eax]
	fld	DWORD PTR [ecx+4]
	fmul	ST(0), ST(1)
	fstp	DWORD PTR [eax+4]
	fmul	DWORD PTR [ecx+8]
	fstp	DWORD PTR [eax+8]
; Line 50
	pop	ebp
	ret	0
??D@YA?AVVec3D@@MABV0@@Z ENDP				; operator*
_TEXT	ENDS
PUBLIC	??LVec3D@@QBE?AV0@ABV0@@Z			; Vec3D::operator%
; Function compile flags: /Ogtp
;	COMDAT ??LVec3D@@QBE?AV0@ABV0@@Z
_TEXT	SEGMENT
___$ReturnUdt$ = 8					; size = 4
_v$ = 12						; size = 4
??LVec3D@@QBE?AV0@ABV0@@Z PROC				; Vec3D::operator%, COMDAT
; _this$ = ecx
; Line 53
	push	ebp
	mov	ebp, esp
; Line 54
	mov	edx, DWORD PTR _v$[ebp]
	fld	DWORD PTR [edx+8]
	mov	eax, DWORD PTR ___$ReturnUdt$[ebp]
	fmul	DWORD PTR [ecx+4]
	fld	DWORD PTR [edx+4]
	fmul	DWORD PTR [ecx+8]
	fsubp	ST(1), ST(0)
	fstp	DWORD PTR [eax]
	fld	DWORD PTR [ecx+8]
	fmul	DWORD PTR [edx]
	fld	DWORD PTR [ecx]
	fmul	DWORD PTR [edx+8]
	fsubp	ST(1), ST(0)
	fstp	DWORD PTR [eax+4]
	fld	DWORD PTR [edx+4]
	fmul	DWORD PTR [ecx]
	fld	DWORD PTR [edx]
	fmul	DWORD PTR [ecx+4]
	fsubp	ST(1), ST(0)
	fstp	DWORD PTR [eax+8]
; Line 56
	pop	ebp
	ret	8
??LVec3D@@QBE?AV0@ABV0@@Z ENDP				; Vec3D::operator%
_TEXT	ENDS
PUBLIC	??YVec3D@@QAEAAV0@ABV0@@Z			; Vec3D::operator+=
; Function compile flags: /Ogtp
;	COMDAT ??YVec3D@@QAEAAV0@ABV0@@Z
_TEXT	SEGMENT
_v$ = 8							; size = 4
??YVec3D@@QAEAAV0@ABV0@@Z PROC				; Vec3D::operator+=, COMDAT
; _this$ = ecx
; Line 59
	push	ebp
	mov	ebp, esp
	mov	eax, ecx
; Line 60
	mov	ecx, DWORD PTR _v$[ebp]
	fld	DWORD PTR [ecx]
	fadd	DWORD PTR [eax]
	fstp	DWORD PTR [eax]
; Line 61
	fld	DWORD PTR [ecx+4]
	fadd	DWORD PTR [eax+4]
	fstp	DWORD PTR [eax+4]
; Line 62
	fld	DWORD PTR [ecx+8]
	fadd	DWORD PTR [eax+8]
	fstp	DWORD PTR [eax+8]
; Line 64
	pop	ebp
	ret	4
??YVec3D@@QAEAAV0@ABV0@@Z ENDP				; Vec3D::operator+=
_TEXT	ENDS
PUBLIC	??ZVec3D@@QAEAAV0@ABV0@@Z			; Vec3D::operator-=
; Function compile flags: /Ogtp
;	COMDAT ??ZVec3D@@QAEAAV0@ABV0@@Z
_TEXT	SEGMENT
_v$ = 8							; size = 4
??ZVec3D@@QAEAAV0@ABV0@@Z PROC				; Vec3D::operator-=, COMDAT
; _this$ = ecx
; Line 67
	push	ebp
	mov	ebp, esp
	mov	eax, ecx
; Line 68
	mov	ecx, DWORD PTR _v$[ebp]
	fld	DWORD PTR [eax]
	fsub	DWORD PTR [ecx]
	fstp	DWORD PTR [eax]
; Line 69
	fld	DWORD PTR [eax+4]
	fsub	DWORD PTR [ecx+4]
	fstp	DWORD PTR [eax+4]
; Line 70
	fld	DWORD PTR [eax+8]
	fsub	DWORD PTR [ecx+8]
	fstp	DWORD PTR [eax+8]
; Line 72
	pop	ebp
	ret	4
??ZVec3D@@QAEAAV0@ABV0@@Z ENDP				; Vec3D::operator-=
_TEXT	ENDS
PUBLIC	??XVec3D@@QAEAAV0@M@Z				; Vec3D::operator*=
; Function compile flags: /Ogtp
;	COMDAT ??XVec3D@@QAEAAV0@M@Z
_TEXT	SEGMENT
_d$ = 8							; size = 4
??XVec3D@@QAEAAV0@M@Z PROC				; Vec3D::operator*=, COMDAT
; _this$ = ecx
; Line 75
	push	ebp
	mov	ebp, esp
	mov	eax, ecx
; Line 76
	fld	DWORD PTR [eax]
	fld	DWORD PTR _d$[ebp]
	fld	ST(0)
	fmulp	ST(2), ST(0)
	fxch	ST(1)
	fstp	DWORD PTR [eax]
; Line 77
	fld	DWORD PTR [eax+4]
	fmul	ST(0), ST(1)
	fstp	DWORD PTR [eax+4]
; Line 78
	fmul	DWORD PTR [eax+8]
	fstp	DWORD PTR [eax+8]
; Line 80
	pop	ebp
	ret	4
??XVec3D@@QAEAAV0@M@Z ENDP				; Vec3D::operator*=
_TEXT	ENDS
PUBLIC	?length@Vec3D@@QBEMXZ				; Vec3D::length
; Function compile flags: /Ogtp
;	COMDAT ?length@Vec3D@@QBEMXZ
_TEXT	SEGMENT
tv170 = -4						; size = 4
tv161 = -4						; size = 4
?length@Vec3D@@QBEMXZ PROC				; Vec3D::length, COMDAT
; _this$ = ecx
; Line 88
	push	ebp
	mov	ebp, esp
	push	ecx
; Line 89
	fld	DWORD PTR [ecx+4]
	fld	DWORD PTR [ecx]
	fld	DWORD PTR [ecx+8]
	fld	ST(1)
	fmulp	ST(2), ST(0)
	fld	ST(2)
	fmulp	ST(3), ST(0)
	fxch	ST(1)
	faddp	ST(2), ST(0)
	fmul	ST(0), ST(0)
	faddp	ST(1), ST(0)
	fstp	DWORD PTR tv170[ebp]
	fld	DWORD PTR tv170[ebp]
	call	__CIsqrt
	fstp	DWORD PTR tv161[ebp]
	fld	DWORD PTR tv161[ebp]
; Line 90
	mov	esp, ebp
	pop	ebp
	ret	0
?length@Vec3D@@QBEMXZ ENDP				; Vec3D::length
_TEXT	ENDS
PUBLIC	__real@3ff0000000000000
PUBLIC	?normalize@Vec3D@@QAEAAV1@XZ			; Vec3D::normalize
;	COMDAT __real@3ff0000000000000
CONST	SEGMENT
__real@3ff0000000000000 DQ 03ff0000000000000r	; 1
; Function compile flags: /Ogtp
CONST	ENDS
;	COMDAT ?normalize@Vec3D@@QAEAAV1@XZ
_TEXT	SEGMENT
tv206 = -4						; size = 4
tv196 = -4						; size = 4
$T95185 = -4						; size = 4
?normalize@Vec3D@@QAEAAV1@XZ PROC			; Vec3D::normalize, COMDAT
; _this$ = ecx
; Line 93
	push	ebp
	mov	ebp, esp
	push	ecx
	push	esi
	mov	esi, ecx
; Line 94
	fld	DWORD PTR [esi+4]
	fld	DWORD PTR [esi]
	fld	DWORD PTR [esi+8]
	fld	ST(1)
	fmulp	ST(2), ST(0)
	fld	ST(2)
	fmulp	ST(3), ST(0)
	fxch	ST(1)
	faddp	ST(2), ST(0)
	fmul	ST(0), ST(0)
	faddp	ST(1), ST(0)
	fstp	DWORD PTR tv206[ebp]
	fld	DWORD PTR tv206[ebp]
	call	__CIsqrt
	fstp	DWORD PTR tv196[ebp]
	fld	DWORD PTR tv196[ebp]
; Line 95
	mov	eax, esi
	fld1
	fdivrp	ST(1), ST(0)
	fstp	DWORD PTR $T95185[ebp]
	fld	DWORD PTR [esi]
	fld	DWORD PTR $T95185[ebp]
	fld	ST(0)
	fmulp	ST(2), ST(0)
	fxch	ST(1)
	fstp	DWORD PTR [esi]
	fld	ST(0)
	fmul	DWORD PTR [esi+4]
	fstp	DWORD PTR [esi+4]
	fmul	DWORD PTR [esi+8]
	fstp	DWORD PTR [esi+8]
	pop	esi
; Line 96
	mov	esp, ebp
	pop	ebp
	ret	0
?normalize@Vec3D@@QAEAAV1@XZ ENDP			; Vec3D::normalize
_TEXT	ENDS
PUBLIC	?rotate@@YAXMMPAM0M@Z				; rotate
; Function compile flags: /Ogtp
;	COMDAT ?rotate@@YAXMMPAM0M@Z
_TEXT	SEGMENT
_xa$ = -4						; size = 4
_x0$ = 8						; size = 4
_y0$ = 12						; size = 4
tv206 = 16						; size = 4
_x$ = 16						; size = 4
_ya$ = 20						; size = 4
_y$ = 20						; size = 4
tv213 = 24						; size = 4
_angle$ = 24						; size = 4
?rotate@@YAXMMPAM0M@Z PROC				; rotate, COMDAT
; Line 218
	push	ebp
	mov	ebp, esp
	push	ecx
	push	esi
; Line 219
	mov	esi, DWORD PTR _x$[ebp]
	fld	DWORD PTR [esi]
	push	edi
	fsub	DWORD PTR _x0$[ebp]
	mov	edi, DWORD PTR _y$[ebp]
	fstp	DWORD PTR _xa$[ebp]
	fld	DWORD PTR [edi]
	fsub	DWORD PTR _y0$[ebp]
	fstp	DWORD PTR _ya$[ebp]
; Line 220
	fld	DWORD PTR _angle$[ebp]
	call	__CIcos
	fstp	DWORD PTR tv206[ebp]
	fld	DWORD PTR _angle$[ebp]
	call	__CIsin
	fstp	DWORD PTR tv213[ebp]
	fld	DWORD PTR tv206[ebp]
	fld	ST(0)
	fld	DWORD PTR _xa$[ebp]
	fld	ST(0)
	fmulp	ST(2), ST(0)
	fld	DWORD PTR tv213[ebp]
	fld	ST(0)
	fld	DWORD PTR _ya$[ebp]
	fld	ST(0)
	fmulp	ST(2), ST(0)
	fxch	ST(4)
	fsubrp	ST(1), ST(0)
	fadd	DWORD PTR _x0$[ebp]
	fstp	DWORD PTR [esi]
; Line 221
	fmulp	ST(1), ST(0)
	fxch	ST(2)
	fmulp	ST(1), ST(0)
	faddp	ST(1), ST(0)
	fadd	DWORD PTR _y0$[ebp]
	fstp	DWORD PTR [edi]
	pop	edi
	pop	esi
; Line 222
	mov	esp, ebp
	pop	ebp
	ret	0
?rotate@@YAXMMPAM0M@Z ENDP				; rotate
_TEXT	ENDS
PUBLIC	??0Vec4D@@QAE@MMMM@Z				; Vec4D::Vec4D
; Function compile flags: /Ogtp
;	COMDAT ??0Vec4D@@QAE@MMMM@Z
_TEXT	SEGMENT
_x0$ = 8						; size = 4
_y0$ = 12						; size = 4
_z0$ = 16						; size = 4
_w0$ = 20						; size = 4
??0Vec4D@@QAE@MMMM@Z PROC				; Vec4D::Vec4D, COMDAT
; _this$ = ecx
; File c:\programovani\wow editor\test\src\editor\quaternion.h
; Line 12
	push	ebp
	mov	ebp, esp
	mov	edx, DWORD PTR _y0$[ebp]
	mov	eax, ecx
	mov	ecx, DWORD PTR _x0$[ebp]
	mov	DWORD PTR [eax], ecx
	mov	ecx, DWORD PTR _z0$[ebp]
	mov	DWORD PTR [eax+4], edx
	mov	edx, DWORD PTR _w0$[ebp]
	mov	DWORD PTR [eax+8], ecx
	mov	DWORD PTR [eax+12], edx
	pop	ebp
	ret	16					; 00000010H
??0Vec4D@@QAE@MMMM@Z ENDP				; Vec4D::Vec4D
_TEXT	ENDS
PUBLIC	??_H@YGXPAXIHP6EPAX0@Z@Z			; `vector constructor iterator'
; Function compile flags: /Ogtp
;	COMDAT ??_H@YGXPAXIHP6EPAX0@Z@Z
_TEXT	SEGMENT
___t$ = 8						; size = 4
___s$ = 12						; size = 4
___n$ = 16						; size = 4
___f$ = 20						; size = 4
??_H@YGXPAXIHP6EPAX0@Z@Z PROC				; `vector constructor iterator', COMDAT
	push	ebp
	mov	ebp, esp
	push	edi
	mov	edi, DWORD PTR ___n$[ebp]
	dec	edi
	js	SHORT $LN1@vector
	push	ebx
	mov	ebx, DWORD PTR ___f$[ebp]
	push	esi
	mov	esi, DWORD PTR ___t$[ebp]
$LL2@vector:
	mov	ecx, esi
	call	ebx
	add	esi, DWORD PTR ___s$[ebp]
	dec	edi
	jns	SHORT $LL2@vector
	pop	esi
	pop	ebx
$LN1@vector:
	pop	edi
	pop	ebp
	ret	16					; 00000010H
??_H@YGXPAXIHP6EPAX0@Z@Z ENDP				; `vector constructor iterator'
_TEXT	ENDS
PUBLIC	?setHardness@brush@@QAEXM@Z			; brush::setHardness
; Function compile flags: /Ogtp
;	COMDAT ?setHardness@brush@@QAEXM@Z
_TEXT	SEGMENT
tv157 = 8						; size = 4
_H$ = 8							; size = 4
?setHardness@brush@@QAEXM@Z PROC			; brush::setHardness, COMDAT
; _this$ = ecx
; File c:\programovani\wow editor\test\src\editor\brush.h
; Line 14
	push	ebp
	mov	ebp, esp
	fld	DWORD PTR [ecx+12]
	mov	eax, DWORD PTR _H$[ebp]
	fmul	DWORD PTR _H$[ebp]
	mov	DWORD PTR [ecx], eax
	mov	BYTE PTR [ecx+65556], 1
	fstp	DWORD PTR tv157[ebp]
	fld	DWORD PTR [ecx+12]
	mov	edx, DWORD PTR tv157[ebp]
	fsub	DWORD PTR tv157[ebp]
	mov	DWORD PTR [ecx+4], edx
	fstp	DWORD PTR [ecx+8]
	pop	ebp
	ret	4
?setHardness@brush@@QAEXM@Z ENDP			; brush::setHardness
_TEXT	ENDS
PUBLIC	?setRadius@brush@@QAEXM@Z			; brush::setRadius
; Function compile flags: /Ogtp
;	COMDAT ?setRadius@brush@@QAEXM@Z
_TEXT	SEGMENT
tv154 = 8						; size = 4
_R$ = 8							; size = 4
?setRadius@brush@@QAEXM@Z PROC				; brush::setRadius, COMDAT
; _this$ = ecx
; Line 15
	push	ebp
	mov	ebp, esp
	fld	DWORD PTR [ecx]
	mov	eax, DWORD PTR _R$[ebp]
	fld	DWORD PTR _R$[ebp]
	mov	DWORD PTR [ecx+12], eax
	fld	ST(0)
	fmulp	ST(2), ST(0)
	fxch	ST(1)
	fstp	DWORD PTR tv154[ebp]
	fsub	DWORD PTR tv154[ebp]
	mov	edx, DWORD PTR tv154[ebp]
	mov	DWORD PTR [ecx+4], edx
	fstp	DWORD PTR [ecx+8]
	pop	ebp
	ret	4
?setRadius@brush@@QAEXM@Z ENDP				; brush::setRadius
_TEXT	ENDS
PUBLIC	?getRadius@brush@@QAEMXZ			; brush::getRadius
; Function compile flags: /Ogtp
;	COMDAT ?getRadius@brush@@QAEMXZ
_TEXT	SEGMENT
?getRadius@brush@@QAEMXZ PROC				; brush::getRadius, COMDAT
; _this$ = ecx
; Line 17
	fld	DWORD PTR [ecx+12]
	ret	0
?getRadius@brush@@QAEMXZ ENDP				; brush::getRadius
_TEXT	ENDS
PUBLIC	?getTexture@brush@@QAEIXZ			; brush::getTexture
; Function compile flags: /Ogtp
;	COMDAT ?getTexture@brush@@QAEIXZ
_TEXT	SEGMENT
?getTexture@brush@@QAEIXZ PROC				; brush::getTexture, COMDAT
; _this$ = ecx
; Line 26
	mov	eax, DWORD PTR [ecx+16]
	ret	0
?getTexture@brush@@QAEIXZ ENDP				; brush::getTexture
_TEXT	ENDS
PUBLIC	?needUpdate@brush@@QAE_NXZ			; brush::needUpdate
; Function compile flags: /Ogtp
;	COMDAT ?needUpdate@brush@@QAE_NXZ
_TEXT	SEGMENT
?needUpdate@brush@@QAE_NXZ PROC				; brush::needUpdate, COMDAT
; _this$ = ecx
; Line 27
	mov	al, BYTE PTR [ecx+65556]
	ret	0
?needUpdate@brush@@QAE_NXZ ENDP				; brush::needUpdate
_TEXT	ENDS
PUBLIC	?getSelectTex@World@@QAEIXZ			; World::getSelectTex
; Function compile flags: /Ogtp
;	COMDAT ?getSelectTex@World@@QAEIXZ
_TEXT	SEGMENT
?getSelectTex@World@@QAEIXZ PROC			; World::getSelectTex, COMDAT
; _this$ = ecx
; File c:\programovani\wow editor\test\src\editor\world.h
; Line 109
	mov	eax, DWORD PTR [ecx+21248]
	ret	0
?getSelectTex@World@@QAEIXZ ENDP			; World::getSelectTex
_TEXT	ENDS
PUBLIC	?getUInt@Record@DBCFile@@QBEII@Z		; DBCFile::Record::getUInt
; Function compile flags: /Ogtp
;	COMDAT ?getUInt@Record@DBCFile@@QBEII@Z
_TEXT	SEGMENT
_field$ = 8						; size = 4
?getUInt@Record@DBCFile@@QBEII@Z PROC			; DBCFile::Record::getUInt, COMDAT
; _this$ = ecx
; File c:\programovani\wow editor\test\src\editor\dbcfile.h
; Line 44
	push	ebp
	mov	ebp, esp
; Line 46
	mov	eax, DWORD PTR [ecx]
	mov	ecx, DWORD PTR _field$[ebp]
	mov	eax, DWORD PTR [eax+ecx*4]
; Line 47
	pop	ebp
	ret	4
?getUInt@Record@DBCFile@@QBEII@Z ENDP			; DBCFile::Record::getUInt
_TEXT	ENDS
PUBLIC	?getString@Record@DBCFile@@QBEPBDI@Z		; DBCFile::Record::getString
; Function compile flags: /Ogtp
;	COMDAT ?getString@Record@DBCFile@@QBEPBDI@Z
_TEXT	SEGMENT
_field$ = 8						; size = 4
?getString@Record@DBCFile@@QBEPBDI@Z PROC		; DBCFile::Record::getString, COMDAT
; _this$ = ecx
; Line 54
	push	ebp
	mov	ebp, esp
; Line 58
	mov	eax, DWORD PTR [ecx]
	mov	edx, DWORD PTR _field$[ebp]
	mov	ecx, DWORD PTR [ecx+4]
	mov	eax, DWORD PTR [eax+edx*4]
	add	eax, DWORD PTR [ecx+48]
; Line 59
	pop	ebp
	ret	4
?getString@Record@DBCFile@@QBEPBDI@Z ENDP		; DBCFile::Record::getString
_TEXT	ENDS
PUBLIC	?setTextureBrushHardness@@YAXM@Z		; setTextureBrushHardness
; Function compile flags: /Ogtp
_TEXT	SEGMENT
_f$ = 8							; size = 4
?setTextureBrushHardness@@YAXM@Z PROC			; setTextureBrushHardness
; File c:\programovani\wow editor\test\src\editor\mapviewer.cpp
; Line 57
	push	ebp
	mov	ebp, esp
; Line 58
	fld	DWORD PTR ?textureBrush@@3Vbrush@@A+12
	mov	eax, DWORD PTR _f$[ebp]
	fld	ST(0)
	mov	DWORD PTR ?textureBrush@@3Vbrush@@A, eax
	fmul	DWORD PTR _f$[ebp]
	mov	BYTE PTR ?textureBrush@@3Vbrush@@A+65556, 1
	fstp	DWORD PTR ?textureBrush@@3Vbrush@@A+4
	fsub	DWORD PTR ?textureBrush@@3Vbrush@@A+4
	fstp	DWORD PTR ?textureBrush@@3Vbrush@@A+8
; Line 59
	pop	ebp
	ret	0
?setTextureBrushHardness@@YAXM@Z ENDP			; setTextureBrushHardness
_TEXT	ENDS
PUBLIC	?setTextureBrushRadius@@YAXM@Z			; setTextureBrushRadius
; Function compile flags: /Ogtp
_TEXT	SEGMENT
_f$ = 8							; size = 4
?setTextureBrushRadius@@YAXM@Z PROC			; setTextureBrushRadius
; Line 62
	push	ebp
	mov	ebp, esp
; Line 63
	fld	DWORD PTR ?textureBrush@@3Vbrush@@A
	mov	eax, DWORD PTR _f$[ebp]
	fld	DWORD PTR _f$[ebp]
	mov	DWORD PTR ?textureBrush@@3Vbrush@@A+12, eax
	fld	ST(0)
	fmulp	ST(2), ST(0)
	fxch	ST(1)
	fstp	DWORD PTR ?textureBrush@@3Vbrush@@A+4
	fsub	DWORD PTR ?textureBrush@@3Vbrush@@A+4
	fstp	DWORD PTR ?textureBrush@@3Vbrush@@A+8
; Line 64
	pop	ebp
	ret	0
?setTextureBrushRadius@@YAXM@Z ENDP			; setTextureBrushRadius
_TEXT	ENDS
PUBLIC	?setTextureBrushPressure@@YAXM@Z		; setTextureBrushPressure
; Function compile flags: /Ogtp
_TEXT	SEGMENT
_f$ = 8							; size = 4
?setTextureBrushPressure@@YAXM@Z PROC			; setTextureBrushPressure
; Line 67
	push	ebp
	mov	ebp, esp
; Line 68
	mov	eax, DWORD PTR _f$[ebp]
	mov	DWORD PTR ?brushPressure@@3MA, eax
; Line 69
	pop	ebp
	ret	0
?setTextureBrushPressure@@YAXM@Z ENDP			; setTextureBrushPressure
_TEXT	ENDS
PUBLIC	__real@406fe00000000000
PUBLIC	?setTextureBrushLevel@@YAXM@Z			; setTextureBrushLevel
;	COMDAT __real@406fe00000000000
CONST	SEGMENT
__real@406fe00000000000 DQ 0406fe00000000000r	; 255
; Function compile flags: /Ogtp
CONST	ENDS
_TEXT	SEGMENT
_f$ = 8							; size = 4
?setTextureBrushLevel@@YAXM@Z PROC			; setTextureBrushLevel
; Line 72
	push	ebp
	mov	ebp, esp
; Line 73
	fld	DWORD PTR _f$[ebp]
	fld1
	fsubrp	ST(1), ST(0)
	fmul	QWORD PTR __real@406fe00000000000
	fstp	DWORD PTR ?brushLevel@@3MA		; brushLevel
; Line 74
	pop	ebp
	ret	0
?setTextureBrushLevel@@YAXM@Z ENDP			; setTextureBrushLevel
_TEXT	ENDS
PUBLIC	??_GWorld@@QAEPAXI@Z				; World::`scalar deleting destructor'
EXTRN	??1World@@QAE@XZ:PROC				; World::~World
; Function compile flags: /Ogtp
;	COMDAT ??_GWorld@@QAEPAXI@Z
_TEXT	SEGMENT
___flags$ = 8						; size = 4
??_GWorld@@QAEPAXI@Z PROC				; World::`scalar deleting destructor', COMDAT
; _this$ = ecx
	push	ebp
	mov	ebp, esp
	push	esi
	mov	esi, ecx
	call	??1World@@QAE@XZ			; World::~World
	test	BYTE PTR ___flags$[ebp], 1
	je	SHORT $LN4@scalar@3
	push	esi
	call	??3@YAXPAX@Z				; operator delete
	add	esp, 4
$LN4@scalar@3:
	mov	eax, esi
	pop	esi
	pop	ebp
	ret	4
??_GWorld@@QAEPAXI@Z ENDP				; World::`scalar deleting destructor'
_TEXT	ENDS
PUBLIC	?doSelection@MapViewer@@AAEXXZ			; MapViewer::doSelection
EXTRN	?drawSelectionChunk@World@@QAEXHH@Z:PROC	; World::drawSelectionChunk
EXTRN	?gLog@@YAXPADZZ:PROC				; gLog
EXTRN	__imp__glGetError@0:PROC
EXTRN	?getSelect@@YAPAVnameEntry@@I@Z:PROC		; getSelect
EXTRN	?getSelection@World@@QAEHXZ:PROC		; World::getSelection
EXTRN	?drawSelection@World@@QAEXHH@Z:PROC		; World::drawSelection
; Function compile flags: /Ogtp
_TEXT	SEGMENT
?doSelection@MapViewer@@AAEXXZ PROC			; MapViewer::doSelection
; _this$ = ecx
; Line 375
	mov	eax, DWORD PTR ?MouseY@@3HA		; MouseY
	push	esi
	mov	esi, ecx
	mov	ecx, DWORD PTR ?MouseX@@3HA		; MouseX
	push	eax
	push	ecx
	mov	ecx, DWORD PTR [esi+40]
	call	?drawSelection@World@@QAEXHH@Z		; World::drawSelection
; Line 376
	mov	ecx, DWORD PTR [esi+40]
	call	?getSelection@World@@QAEHXZ		; World::getSelection
; Line 377
	push	eax
	mov	DWORD PTR ?Sel@@3IA, eax		; Sel
	call	?getSelect@@YAPAVnameEntry@@I@Z		; getSelect
	add	esp, 4
	mov	DWORD PTR ?Selection@@3PAVnameEntry@@A, eax ; Selection
; Line 379
	test	eax, eax
	je	SHORT $LN1@doSelectio
; Line 381
	call	DWORD PTR __imp__glGetError@0
; Line 382
	test	eax, eax
	je	SHORT $LN2@doSelectio
; Line 383
	push	eax
	push	OFFSET $SG82422
	call	?gLog@@YAXPADZZ				; gLog
	add	esp, 8
$LN2@doSelectio:
; Line 385
	mov	edx, DWORD PTR ?Selection@@3PAVnameEntry@@A ; Selection
	cmp	DWORD PTR [edx+28], 3
	jne	SHORT $LN1@doSelectio
; Line 387
	mov	eax, DWORD PTR ?MouseY@@3HA		; MouseY
	mov	ecx, DWORD PTR ?MouseX@@3HA		; MouseX
	push	eax
	push	ecx
	mov	ecx, DWORD PTR [esi+40]
	call	?drawSelectionChunk@World@@QAEXHH@Z	; World::drawSelectionChunk
; Line 388
	mov	ecx, DWORD PTR [esi+40]
	call	?getSelection@World@@QAEHXZ		; World::getSelection
; Line 389
	push	eax
	mov	DWORD PTR ?Sel@@3IA, eax		; Sel
	call	?getSelect@@YAPAVnameEntry@@I@Z		; getSelect
	add	esp, 4
	mov	DWORD PTR ?Selection@@3PAVnameEntry@@A, eax ; Selection
$LN1@doSelectio:
	pop	esi
; Line 391
	ret	0
?doSelection@MapViewer@@AAEXXZ ENDP			; MapViewer::doSelection
_TEXT	ENDS
PUBLIC	__real@3f800000
PUBLIC	__real@4059000000000000
PUBLIC	__real@4014000000000000
PUBLIC	__real@42a00000
PUBLIC	__real@c2a00000
PUBLIC	__real@402e000000000000
PUBLIC	?mousemove@MapViewer@@UAEXPAUSDL_MouseMotionEvent@@@Z ; MapViewer::mousemove
EXTRN	?video@@3VVideo@@A:BYTE				; video
EXTRN	?fullscreen@@3HA:DWORD				; fullscreen
;	COMDAT __real@3f800000
CONST	SEGMENT
__real@3f800000 DD 03f800000r			; 1
CONST	ENDS
;	COMDAT __real@4059000000000000
CONST	SEGMENT
__real@4059000000000000 DQ 04059000000000000r	; 100
CONST	ENDS
;	COMDAT __real@4014000000000000
CONST	SEGMENT
__real@4014000000000000 DQ 04014000000000000r	; 5
CONST	ENDS
;	COMDAT __real@42a00000
CONST	SEGMENT
__real@42a00000 DD 042a00000r			; 80
CONST	ENDS
;	COMDAT __real@c2a00000
CONST	SEGMENT
__real@c2a00000 DD 0c2a00000r			; -80
CONST	ENDS
;	COMDAT __real@402e000000000000
CONST	SEGMENT
__real@402e000000000000 DQ 0402e000000000000r	; 15
; Function compile flags: /Ogtp
CONST	ENDS
_TEXT	SEGMENT
tv385 = 8						; size = 4
tv383 = 8						; size = 4
tv372 = 8						; size = 4
tv367 = 8						; size = 4
tv363 = 8						; size = 4
tv361 = 8						; size = 4
tv359 = 8						; size = 4
tv350 = 8						; size = 4
tv349 = 8						; size = 4
tv348 = 8						; size = 4
tv347 = 8						; size = 4
tv327 = 8						; size = 4
_e$ = 8							; size = 4
?mousemove@MapViewer@@UAEXPAUSDL_MouseMotionEvent@@@Z PROC ; MapViewer::mousemove
; _this$ = ecx
; Line 1268
	push	ebp
	mov	ebp, esp
; Line 1269
	xor	edx, edx
	push	esi
	mov	esi, DWORD PTR _e$[ebp]
	cmp	BYTE PTR [ecx+36], dl
	je	SHORT $LN15@mousemove
	cmp	BYTE PTR ?LShiftDown@@3_NA, dl		; LShiftDown
	jne	SHORT $LN15@mousemove
	cmp	BYTE PTR ?RShiftDown@@3_NA, dl		; RShiftDown
	jne	SHORT $LN15@mousemove
	cmp	BYTE PTR ?LCtrlDown@@3_NA, dl		; LCtrlDown
	jne	SHORT $LN15@mousemove
	cmp	BYTE PTR ?RCtrlDown@@3_NA, dl		; RCtrlDown
	jne	SHORT $LN15@mousemove
	cmp	BYTE PTR ?LAltDown@@3_NA, dl		; LAltDown
	jne	SHORT $LN15@mousemove
	cmp	BYTE PTR ?RAltDown@@3_NA, dl		; RAltDown
	je	SHORT $LN17@mousemove
$LN15@mousemove:
	cmp	DWORD PTR ?fullscreen@@3HA, edx		; fullscreen
	je	SHORT $LN21@mousemove
$LN17@mousemove:
; Line 1271
	movsx	eax, WORD PTR [esi+8]
	mov	DWORD PTR tv385[ebp], eax
	fild	DWORD PTR tv385[ebp]
	fld	QWORD PTR __real@402e000000000000
	fdiv	ST(1), ST(0)
	fld	DWORD PTR [ecx+8]
	faddp	ST(2), ST(0)
	fxch	ST(1)
	fstp	DWORD PTR [ecx+8]
; Line 1272
	movsx	eax, WORD PTR [esi+10]
	fld	DWORD PTR [ecx+28]
	mov	DWORD PTR tv383[ebp], eax
	fild	DWORD PTR tv383[ebp]
	fmulp	ST(1), ST(0)
	fdivrp	ST(1), ST(0)
	fadd	DWORD PTR [ecx+12]
	fstp	DWORD PTR tv327[ebp]
; Line 1273
	fld	DWORD PTR __real@c2a00000
	mov	eax, DWORD PTR tv327[ebp]
	fld	DWORD PTR tv327[ebp]
	mov	DWORD PTR [ecx+12], eax
	fcom	ST(1)
	fnstsw	ax
	fstp	ST(1)
	test	ah, 5
	jp	SHORT $LN14@mousemove
	fstp	ST(0)
	mov	DWORD PTR [ecx+12], -1029701632		; c2a00000H
	jmp	SHORT $LN21@mousemove
$LN14@mousemove:
; Line 1274
	fcomp	DWORD PTR __real@42a00000
	fnstsw	ax
	test	ah, 65					; 00000041H
	jne	SHORT $LN21@mousemove
	mov	DWORD PTR [ecx+12], 1117782016		; 42a00000H
$LN21@mousemove:
; Line 1277
	cmp	BYTE PTR ?MoveObj@@3_NA, dl		; MoveObj
	je	SHORT $LN11@mousemove
; Line 1279
	movsx	ecx, WORD PTR [esi+8]
	mov	DWORD PTR tv372[ebp], ecx
	fild	DWORD PTR tv372[ebp]
	fld	DWORD PTR ?video@@3VVideo@@A+68
	fchs
	fmulp	ST(1), ST(0)
	fidiv	DWORD PTR ?video@@3VVideo@@A+52
	fstp	DWORD PTR ?mh@@3MA			; mh
; Line 1280
	movsx	eax, WORD PTR [esi+10]
	neg	eax
	mov	DWORD PTR tv367[ebp], eax
	fild	DWORD PTR tv367[ebp]
	fidiv	DWORD PTR ?video@@3VVideo@@A+56
	fstp	DWORD PTR ?mv@@3MA			; mv
; Line 1282
	jmp	SHORT $LN10@mousemove
$LN11@mousemove:
; Line 1284
	mov	DWORD PTR ?mh@@3MA, edx
; Line 1285
	mov	DWORD PTR ?mv@@3MA, edx
$LN10@mousemove:
; Line 1288
	cmp	BYTE PTR ?LShiftDown@@3_NA, dl		; LShiftDown
	jne	SHORT $LN22@mousemove
	cmp	BYTE PTR ?RShiftDown@@3_NA, dl		; RShiftDown
	jne	SHORT $LN22@mousemove
	cmp	BYTE PTR ?LCtrlDown@@3_NA, dl		; LCtrlDown
	jne	SHORT $LN22@mousemove
	cmp	BYTE PTR ?RCtrlDown@@3_NA, dl		; RCtrlDown
	jne	SHORT $LN22@mousemove
	cmp	BYTE PTR ?LAltDown@@3_NA, dl		; LAltDown
	jne	SHORT $LN22@mousemove
	cmp	BYTE PTR ?RAltDown@@3_NA, dl		; RAltDown
	je	SHORT $LN9@mousemove
$LN22@mousemove:
; Line 1290
	movsx	ecx, WORD PTR [esi+8]
	mov	DWORD PTR tv363[ebp], ecx
	fild	DWORD PTR tv363[ebp]
	fld	QWORD PTR __real@402e000000000000
	fdiv	ST(1), ST(0)
	fld	QWORD PTR __real@4014000000000000
	fmul	ST(2), ST(0)
	fxch	ST(2)
	fstp	DWORD PTR ?rh@@3MA			; rh
; Line 1291
	movsx	eax, WORD PTR [esi+10]
	mov	DWORD PTR tv361[ebp], eax
	fild	DWORD PTR tv361[ebp]
	fdivrp	ST(1), ST(0)
	fmulp	ST(1), ST(0)
	fstp	DWORD PTR ?rv@@3MA			; rv
$LN9@mousemove:
; Line 1294
	mov	cl, BYTE PTR ?leftMouse@@3_NA		; leftMouse
	cmp	cl, dl
	je	SHORT $LN3@mousemove
	cmp	BYTE PTR ?LAltDown@@3_NA, dl		; LAltDown
	jne	SHORT $LN6@mousemove
	cmp	BYTE PTR ?RAltDown@@3_NA, dl		; RAltDown
	je	SHORT $LN3@mousemove
$LN6@mousemove:
; Line 1296
	movsx	eax, WORD PTR [esi+8]
	mov	DWORD PTR tv359[ebp], eax
	fild	DWORD PTR tv359[ebp]
	fdiv	QWORD PTR __real@402e000000000000
	fadd	DWORD PTR ?BrushRadius@@3MA		; BrushRadius
	fstp	DWORD PTR ?BrushRadius@@3MA		; BrushRadius
; Line 1297
	fld	DWORD PTR ?BrushRadius@@3MA		; BrushRadius
	fcom	QWORD PTR __real@4059000000000000
	fnstsw	ax
	test	ah, 65					; 00000041H
	jne	SHORT $LN5@mousemove
	fstp	ST(0)
; Line 1298
	mov	DWORD PTR ?BrushRadius@@3MA, 1120403456	; 42c80000H
	jmp	SHORT $LN3@mousemove
$LN5@mousemove:
; Line 1299
	fld1
	fcompp
	fnstsw	ax
	test	ah, 65					; 00000041H
	jne	SHORT $LN3@mousemove
; Line 1300
	mov	DWORD PTR ?BrushRadius@@3MA, 1065353216	; 3f800000H
$LN3@mousemove:
; Line 1303
	cmp	BYTE PTR ?TileMode@@3_NA, dl		; TileMode
	je	SHORT $LN1@mousemove
; Line 1305
	cmp	cl, dl
	je	SHORT $LN1@mousemove
	mov	ecx, DWORD PTR ?LastClicked@@3PAVframe@@A ; LastClicked
	cmp	ecx, edx
	je	SHORT $LN1@mousemove
; Line 1306
	movsx	eax, WORD PTR [esi+10]
	mov	edx, DWORD PTR [ecx]
	mov	edx, DWORD PTR [edx+8]
	mov	DWORD PTR tv350[ebp], eax
	movsx	eax, WORD PTR [esi+8]
	fild	DWORD PTR tv350[ebp]
	mov	DWORD PTR tv349[ebp], eax
	movzx	eax, WORD PTR [esi+6]
	sub	esp, 16					; 00000010H
	sub	eax, 4
	fstp	DWORD PTR [esp+12]
	fild	DWORD PTR tv349[ebp]
	mov	DWORD PTR tv348[ebp], eax
	movzx	eax, WORD PTR [esi+4]
	sub	eax, 4
	fstp	DWORD PTR [esp+8]
	fild	DWORD PTR tv348[ebp]
	mov	DWORD PTR tv347[ebp], eax
	fstp	DWORD PTR [esp+4]
	fild	DWORD PTR tv347[ebp]
	fstp	DWORD PTR [esp]
	call	edx
$LN1@mousemove:
; Line 1309
	movzx	eax, WORD PTR [esi+4]
	mov	DWORD PTR ?MouseX@@3HA, eax		; MouseX
; Line 1310
	movzx	ecx, WORD PTR [esi+6]
	mov	DWORD PTR ?MouseY@@3HA, ecx		; MouseY
	pop	esi
; Line 1312
	pop	ebp
	ret	4
?mousemove@MapViewer@@UAEXPAUSDL_MouseMotionEvent@@@Z ENDP ; MapViewer::mousemove
_TEXT	ENDS
PUBLIC	?mouseclick@MapViewer@@UAEXPAUSDL_MouseButtonEvent@@@Z ; MapViewer::mouseclick
; Function compile flags: /Ogtp
_TEXT	SEGMENT
_e$ = 8							; size = 4
?mouseclick@MapViewer@@UAEXPAUSDL_MouseButtonEvent@@@Z PROC ; MapViewer::mouseclick
; _this$ = ecx
; Line 1315
	push	ebp
	mov	ebp, esp
	push	esi
	push	edi
; Line 1316
	mov	edi, DWORD PTR _e$[ebp]
	mov	al, BYTE PTR [edi]
	mov	esi, ecx
	cmp	al, 5
	jne	$LN15@mouseclick
; Line 1318
	cmp	BYTE PTR [edi+2], 3
	jne	SHORT $LN14@mouseclick
; Line 1319
	mov	BYTE PTR [esi+36], 1
$LN14@mouseclick:
; Line 1320
	cmp	BYTE PTR [edi+2], 1
	jne	SHORT $LN13@mouseclick
; Line 1322
	cmp	BYTE PTR ?TileMode@@3_NA, 0		; TileMode
	je	SHORT $LN12@mouseclick
; Line 1323
	fild	DWORD PTR ?MouseY@@3HA			; MouseY
	mov	eax, DWORD PTR [esi+44]
	mov	edx, DWORD PTR [eax+4]
	sub	esp, 8
	fstp	DWORD PTR [esp+4]
	lea	ecx, DWORD PTR [esi+44]
	fild	DWORD PTR ?MouseX@@3HA			; MouseX
	fstp	DWORD PTR [esp]
	call	edx
	mov	DWORD PTR ?LastClicked@@3PAVframe@@A, eax ; LastClicked
; Line 1324
	jmp	SHORT $LN8@mouseclick
$LN12@mouseclick:
; Line 1326
	cmp	BYTE PTR ?Selecting@@3_NA, 0		; Selecting
	jne	SHORT $LN10@mouseclick
; Line 1327
	call	?doSelection@MapViewer@@AAEXXZ		; MapViewer::doSelection
$LN10@mouseclick:
; Line 1328
	mov	eax, DWORD PTR ?Selection@@3PAVnameEntry@@A ; Selection
	test	eax, eax
	je	SHORT $LN9@mouseclick
	cmp	DWORD PTR [eax+28], 1
; Line 1329
	mov	DWORD PTR ?CurSelection@@3PAVnameEntry@@A, eax ; CurSelection
	je	SHORT $LN8@mouseclick
$LN9@mouseclick:
; Line 1331
	mov	DWORD PTR ?CurSelection@@3PAVnameEntry@@A, 0 ; CurSelection
$LN8@mouseclick:
; Line 1333
	mov	BYTE PTR ?leftMouse@@3_NA, 1		; leftMouse
$LN13@mouseclick:
; Line 1335
	cmp	BYTE PTR [edi+2], 2
	jne	SHORT $LN1@mouseclick
; Line 1336
	pop	edi
	mov	BYTE PTR ?MoveObj@@3_NA, 1		; MoveObj
	pop	esi
; Line 1351
	pop	ebp
	ret	4
$LN15@mouseclick:
; Line 1338
	cmp	al, 6
	jne	SHORT $LN1@mouseclick
; Line 1340
	cmp	BYTE PTR [edi+2], 1
	jne	SHORT $LN3@mouseclick
; Line 1343
	mov	ecx, DWORD PTR ?LastClicked@@3PAVframe@@A ; LastClicked
	mov	BYTE PTR ?leftMouse@@3_NA, 0		; leftMouse
	test	ecx, ecx
	je	SHORT $LN3@mouseclick
; Line 1344
	mov	eax, DWORD PTR [ecx]
	mov	edx, DWORD PTR [eax+12]
	call	edx
$LN3@mouseclick:
; Line 1346
	cmp	BYTE PTR [edi+2], 3
	jne	SHORT $LN2@mouseclick
; Line 1347
	mov	BYTE PTR [esi+36], 0
$LN2@mouseclick:
; Line 1348
	cmp	BYTE PTR [edi+2], 2
	jne	SHORT $LN1@mouseclick
; Line 1349
	mov	BYTE PTR ?MoveObj@@3_NA, 0		; MoveObj
$LN1@mouseclick:
	pop	edi
	pop	esi
; Line 1351
	pop	ebp
	ret	4
?mouseclick@MapViewer@@UAEXPAUSDL_MouseButtonEvent@@@Z ENDP ; MapViewer::mouseclick
_TEXT	ENDS
PUBLIC	?size@?$basic_string@DU?$char_traits@D@std@@V?$allocator@D@2@@std@@QBEIXZ ; std::basic_string<char,std::char_traits<char>,std::allocator<char> >::size
; Function compile flags: /Ogtp
;	COMDAT ?size@?$basic_string@DU?$char_traits@D@std@@V?$allocator@D@2@@std@@QBEIXZ
_TEXT	SEGMENT
?size@?$basic_string@DU?$char_traits@D@std@@V?$allocator@D@2@@std@@QBEIXZ PROC ; std::basic_string<char,std::char_traits<char>,std::allocator<char> >::size, COMDAT
; _this$ = ecx
; File c:\program files (x86)\microsoft visual studio 10.0\vc\include\xstring
; Line 1511
	mov	eax, DWORD PTR [ecx+16]
; Line 1512
	ret	0
?size@?$basic_string@DU?$char_traits@D@std@@V?$allocator@D@2@@std@@QBEIXZ ENDP ; std::basic_string<char,std::char_traits<char>,std::allocator<char> >::size
_TEXT	ENDS
PUBLIC	??A?$vector@V?$basic_string@DU?$char_traits@D@std@@V?$allocator@D@2@@std@@V?$allocator@V?$basic_string@DU?$char_traits@D@std@@V?$allocator@D@2@@std@@@2@@std@@QAEAAV?$basic_string@DU?$char_traits@D@std@@V?$allocator@D@2@@1@I@Z ; std::vector<std::basic_string<char,std::char_traits<char>,std::allocator<char> >,std::allocator<std::basic_string<char,std::char_traits<char>,std::allocator<char> > > >::operator[]
; Function compile flags: /Ogtp
;	COMDAT ??A?$vector@V?$basic_string@DU?$char_traits@D@std@@V?$allocator@D@2@@std@@V?$allocator@V?$basic_string@DU?$char_traits@D@std@@V?$allocator@D@2@@std@@@2@@std@@QAEAAV?$basic_string@DU?$char_traits@D@std@@V?$allocator@D@2@@1@I@Z
_TEXT	SEGMENT
__Pos$ = 8						; size = 4
??A?$vector@V?$basic_string@DU?$char_traits@D@std@@V?$allocator@D@2@@std@@V?$allocator@V?$basic_string@DU?$char_traits@D@std@@V?$allocator@D@2@@std@@@2@@std@@QAEAAV?$basic_string@DU?$char_traits@D@std@@V?$allocator@D@2@@1@I@Z PROC ; std::vector<std::basic_string<char,std::char_traits<char>,std::allocator<char> >,std::allocator<std::basic_string<char,std::char_traits<char>,std::allocator<char> > > >::operator[], COMDAT
; _this$ = ecx
; File c:\program files (x86)\microsoft visual studio 10.0\vc\include\vector
; Line 928
	push	ebp
	mov	ebp, esp
; Line 940
	mov	eax, DWORD PTR __Pos$[ebp]
	lea	edx, DWORD PTR [eax*8]
	sub	edx, eax
	mov	eax, DWORD PTR [ecx]
	lea	eax, DWORD PTR [eax+edx*4]
; Line 941
	pop	ebp
	ret	4
??A?$vector@V?$basic_string@DU?$char_traits@D@std@@V?$allocator@D@2@@std@@V?$allocator@V?$basic_string@DU?$char_traits@D@std@@V?$allocator@D@2@@std@@@2@@std@@QAEAAV?$basic_string@DU?$char_traits@D@std@@V?$allocator@D@2@@1@I@Z ENDP ; std::vector<std::basic_string<char,std::char_traits<char>,std::allocator<char> >,std::allocator<std::basic_string<char,std::char_traits<char>,std::allocator<char> > > >::operator[]
_TEXT	ENDS
PUBLIC	?_Myptr@?$basic_string@DU?$char_traits@D@std@@V?$allocator@D@2@@std@@QBEPBDXZ ; std::basic_string<char,std::char_traits<char>,std::allocator<char> >::_Myptr
; Function compile flags: /Ogtp
;	COMDAT ?_Myptr@?$basic_string@DU?$char_traits@D@std@@V?$allocator@D@2@@std@@QBEPBDXZ
_TEXT	SEGMENT
?_Myptr@?$basic_string@DU?$char_traits@D@std@@V?$allocator@D@2@@std@@QBEPBDXZ PROC ; std::basic_string<char,std::char_traits<char>,std::allocator<char> >::_Myptr, COMDAT
; _this$ = ecx
; File c:\program files (x86)\microsoft visual studio 10.0\vc\include\xstring
; Line 2008
	mov	eax, ecx
; Line 2010
	cmp	DWORD PTR [eax+20], 16			; 00000010H
	jb	SHORT $LN4@Myptr
	mov	eax, DWORD PTR [eax]
$LN4@Myptr:
; Line 2011
	ret	0
?_Myptr@?$basic_string@DU?$char_traits@D@std@@V?$allocator@D@2@@std@@QBEPBDXZ ENDP ; std::basic_string<char,std::char_traits<char>,std::allocator<char> >::_Myptr
_TEXT	ENDS
PUBLIC	??1?$_String_val@DV?$allocator@D@std@@@std@@QAE@XZ ; std::_String_val<char,std::allocator<char> >::~_String_val<char,std::allocator<char> >
; Function compile flags: /Ogtp
;	COMDAT ??1?$_String_val@DV?$allocator@D@std@@@std@@QAE@XZ
_TEXT	SEGMENT
??1?$_String_val@DV?$allocator@D@std@@@std@@QAE@XZ PROC	; std::_String_val<char,std::allocator<char> >::~_String_val<char,std::allocator<char> >, COMDAT
; _this$ = ecx
; Line 459
	ret	0
??1?$_String_val@DV?$allocator@D@std@@@std@@QAE@XZ ENDP	; std::_String_val<char,std::allocator<char> >::~_String_val<char,std::allocator<char> >
_TEXT	ENDS
PUBLIC	??0?$allocator@D@std@@QAE@XZ			; std::allocator<char>::allocator<char>
; Function compile flags: /Ogtp
;	COMDAT ??0?$allocator@D@std@@QAE@XZ
_TEXT	SEGMENT
??0?$allocator@D@std@@QAE@XZ PROC			; std::allocator<char>::allocator<char>, COMDAT
; _this$ = ecx
; File c:\program files (x86)\microsoft visual studio 10.0\vc\include\xmemory
; Line 161
	mov	eax, ecx
; Line 163
	ret	0
??0?$allocator@D@std@@QAE@XZ ENDP			; std::allocator<char>::allocator<char>
_TEXT	ENDS
PUBLIC	??0?$allocator@D@std@@QAE@ABV01@@Z		; std::allocator<char>::allocator<char>
; Function compile flags: /Ogtp
;	COMDAT ??0?$allocator@D@std@@QAE@ABV01@@Z
_TEXT	SEGMENT
___formal$ = 8						; size = 4
??0?$allocator@D@std@@QAE@ABV01@@Z PROC			; std::allocator<char>::allocator<char>, COMDAT
; _this$ = ecx
; Line 165
	mov	eax, ecx
; Line 167
	ret	4
??0?$allocator@D@std@@QAE@ABV01@@Z ENDP			; std::allocator<char>::allocator<char>
_TEXT	ENDS
PUBLIC	??R?$less@I@std@@QBE_NABI0@Z			; std::less<unsigned int>::operator()
; Function compile flags: /Ogtp
;	COMDAT ??R?$less@I@std@@QBE_NABI0@Z
_TEXT	SEGMENT
__Left$ = 8						; size = 4
__Right$ = 12						; size = 4
??R?$less@I@std@@QBE_NABI0@Z PROC			; std::less<unsigned int>::operator(), COMDAT
; _this$ = ecx
; File c:\program files (x86)\microsoft visual studio 10.0\vc\include\xfunctional
; Line 124
	push	ebp
	mov	ebp, esp
; Line 125
	mov	eax, DWORD PTR __Left$[ebp]
	mov	ecx, DWORD PTR [eax]
	mov	edx, DWORD PTR __Right$[ebp]
	cmp	ecx, DWORD PTR [edx]
	sbb	eax, eax
	neg	eax
; Line 126
	pop	ebp
	ret	8
??R?$less@I@std@@QBE_NABI0@Z ENDP			; std::less<unsigned int>::operator()
_TEXT	ENDS
PUBLIC	??1?$_Vector_val@PAVframe@@V?$allocator@PAVframe@@@std@@@std@@QAE@XZ ; std::_Vector_val<frame *,std::allocator<frame *> >::~_Vector_val<frame *,std::allocator<frame *> >
; Function compile flags: /Ogtp
;	COMDAT ??1?$_Vector_val@PAVframe@@V?$allocator@PAVframe@@@std@@@std@@QAE@XZ
_TEXT	SEGMENT
??1?$_Vector_val@PAVframe@@V?$allocator@PAVframe@@@std@@@std@@QAE@XZ PROC ; std::_Vector_val<frame *,std::allocator<frame *> >::~_Vector_val<frame *,std::allocator<frame *> >, COMDAT
; _this$ = ecx
; File c:\program files (x86)\microsoft visual studio 10.0\vc\include\vector
; Line 434
	ret	0
??1?$_Vector_val@PAVframe@@V?$allocator@PAVframe@@@std@@@std@@QAE@XZ ENDP ; std::_Vector_val<frame *,std::allocator<frame *> >::~_Vector_val<frame *,std::allocator<frame *> >
_TEXT	ENDS
PUBLIC	??0?$allocator@PAVframe@@@std@@QAE@XZ		; std::allocator<frame *>::allocator<frame *>
; Function compile flags: /Ogtp
;	COMDAT ??0?$allocator@PAVframe@@@std@@QAE@XZ
_TEXT	SEGMENT
??0?$allocator@PAVframe@@@std@@QAE@XZ PROC		; std::allocator<frame *>::allocator<frame *>, COMDAT
; _this$ = ecx
; File c:\program files (x86)\microsoft visual studio 10.0\vc\include\xmemory
; Line 161
	mov	eax, ecx
; Line 163
	ret	0
??0?$allocator@PAVframe@@@std@@QAE@XZ ENDP		; std::allocator<frame *>::allocator<frame *>
_TEXT	ENDS
PUBLIC	??8?$_Tree_const_iterator@V?$_Tree_val@V?$_Tmap_traits@IPAVManagedItem@@U?$less@I@std@@V?$allocator@U?$pair@$$CBIPAVManagedItem@@@std@@@3@$0A@@std@@@std@@@std@@QBE_NABV01@@Z ; std::_Tree_const_iterator<std::_Tree_val<std::_Tmap_traits<unsigned int,ManagedItem *,std::less<unsigned int>,std::allocator<std::pair<unsigned int const ,ManagedItem *> >,0> > >::operator==
; Function compile flags: /Ogtp
;	COMDAT ??8?$_Tree_const_iterator@V?$_Tree_val@V?$_Tmap_traits@IPAVManagedItem@@U?$less@I@std@@V?$allocator@U?$pair@$$CBIPAVManagedItem@@@std@@@3@$0A@@std@@@std@@@std@@QBE_NABV01@@Z
_TEXT	SEGMENT
__Right$ = 8						; size = 4
??8?$_Tree_const_iterator@V?$_Tree_val@V?$_Tmap_traits@IPAVManagedItem@@U?$less@I@std@@V?$allocator@U?$pair@$$CBIPAVManagedItem@@@std@@@3@$0A@@std@@@std@@@std@@QBE_NABV01@@Z PROC ; std::_Tree_const_iterator<std::_Tree_val<std::_Tmap_traits<unsigned int,ManagedItem *,std::less<unsigned int>,std::allocator<std::pair<unsigned int const ,ManagedItem *> >,0> > >::operator==, COMDAT
; _this$ = ecx
; File c:\program files (x86)\microsoft visual studio 10.0\vc\include\xtree
; Line 316
	push	ebp
	mov	ebp, esp
; Line 330
	mov	eax, DWORD PTR [ecx]
	mov	edx, DWORD PTR __Right$[ebp]
	xor	ecx, ecx
	cmp	eax, DWORD PTR [edx]
	sete	al
; Line 331
	pop	ebp
	ret	4
??8?$_Tree_const_iterator@V?$_Tree_val@V?$_Tmap_traits@IPAVManagedItem@@U?$less@I@std@@V?$allocator@U?$pair@$$CBIPAVManagedItem@@@std@@@3@$0A@@std@@@std@@@std@@QBE_NABV01@@Z ENDP ; std::_Tree_const_iterator<std::_Tree_val<std::_Tmap_traits<unsigned int,ManagedItem *,std::less<unsigned int>,std::allocator<std::pair<unsigned int const ,ManagedItem *> >,0> > >::operator==
_TEXT	ENDS
PUBLIC	?_Mynode@?$_Tree_unchecked_const_iterator@V?$_Tree_val@V?$_Tmap_traits@IPAVManagedItem@@U?$less@I@std@@V?$allocator@U?$pair@$$CBIPAVManagedItem@@@std@@@3@$0A@@std@@@std@@U_Iterator_base0@2@@std@@QBEPAU_Node@?$_Tree_nod@V?$_Tmap_traits@IPAVManagedItem@@U?$less@I@std@@V?$allocator@U?$pair@$$CBIPAVManagedItem@@@std@@@3@$0A@@std@@@2@XZ ; std::_Tree_unchecked_const_iterator<std::_Tree_val<std::_Tmap_traits<unsigned int,ManagedItem *,std::less<unsigned int>,std::allocator<std::pair<unsigned int const ,ManagedItem *> >,0> >,std::_Iterator_base0>::_Mynode
; Function compile flags: /Ogtp
;	COMDAT ?_Mynode@?$_Tree_unchecked_const_iterator@V?$_Tree_val@V?$_Tmap_traits@IPAVManagedItem@@U?$less@I@std@@V?$allocator@U?$pair@$$CBIPAVManagedItem@@@std@@@3@$0A@@std@@@std@@U_Iterator_base0@2@@std@@QBEPAU_Node@?$_Tree_nod@V?$_Tmap_traits@IPAVManagedItem@@U?$less@I@std@@V?$allocator@U?$pair@$$CBIPAVManagedItem@@@std@@@3@$0A@@std@@@2@XZ
_TEXT	SEGMENT
?_Mynode@?$_Tree_unchecked_const_iterator@V?$_Tree_val@V?$_Tmap_traits@IPAVManagedItem@@U?$less@I@std@@V?$allocator@U?$pair@$$CBIPAVManagedItem@@@std@@@3@$0A@@std@@@std@@U_Iterator_base0@2@@std@@QBEPAU_Node@?$_Tree_nod@V?$_Tmap_traits@IPAVManagedItem@@U?$less@I@std@@V?$allocator@U?$pair@$$CBIPAVManagedItem@@@std@@@3@$0A@@std@@@2@XZ PROC ; std::_Tree_unchecked_const_iterator<std::_Tree_val<std::_Tmap_traits<unsigned int,ManagedItem *,std::less<unsigned int>,std::allocator<std::pair<unsigned int const ,ManagedItem *> >,0> >,std::_Iterator_base0>::_Mynode, COMDAT
; _this$ = ecx
; Line 122
	mov	eax, DWORD PTR [ecx]
; Line 123
	ret	0
?_Mynode@?$_Tree_unchecked_const_iterator@V?$_Tree_val@V?$_Tmap_traits@IPAVManagedItem@@U?$less@I@std@@V?$allocator@U?$pair@$$CBIPAVManagedItem@@@std@@@3@$0A@@std@@@std@@U_Iterator_base0@2@@std@@QBEPAU_Node@?$_Tree_nod@V?$_Tmap_traits@IPAVManagedItem@@U?$less@I@std@@V?$allocator@U?$pair@$$CBIPAVManagedItem@@@std@@@3@$0A@@std@@@2@XZ ENDP ; std::_Tree_unchecked_const_iterator<std::_Tree_val<std::_Tmap_traits<unsigned int,ManagedItem *,std::less<unsigned int>,std::allocator<std::pair<unsigned int const ,ManagedItem *> >,0> >,std::_Iterator_base0>::_Mynode
_TEXT	ENDS
PUBLIC	?_Myptr@?$basic_string@DU?$char_traits@D@std@@V?$allocator@D@2@@std@@QAEPADXZ ; std::basic_string<char,std::char_traits<char>,std::allocator<char> >::_Myptr
; Function compile flags: /Ogtp
;	COMDAT ?_Myptr@?$basic_string@DU?$char_traits@D@std@@V?$allocator@D@2@@std@@QAEPADXZ
_TEXT	SEGMENT
?_Myptr@?$basic_string@DU?$char_traits@D@std@@V?$allocator@D@2@@std@@QAEPADXZ PROC ; std::basic_string<char,std::char_traits<char>,std::allocator<char> >::_Myptr, COMDAT
; _this$ = ecx
; File c:\program files (x86)\microsoft visual studio 10.0\vc\include\xstring
; Line 2002
	mov	eax, ecx
; Line 2004
	cmp	DWORD PTR [eax+20], 16			; 00000010H
	jb	SHORT $LN4@Myptr@2
	mov	eax, DWORD PTR [eax]
$LN4@Myptr@2:
; Line 2005
	ret	0
?_Myptr@?$basic_string@DU?$char_traits@D@std@@V?$allocator@D@2@@std@@QAEPADXZ ENDP ; std::basic_string<char,std::char_traits<char>,std::allocator<char> >::_Myptr
_TEXT	ENDS
PUBLIC	??_C@_0BI@CFPLBAOH@invalid?5string?5position?$AA@ ; `string'
PUBLIC	?_Xran@?$basic_string@DU?$char_traits@D@std@@V?$allocator@D@2@@std@@QBEXXZ ; std::basic_string<char,std::char_traits<char>,std::allocator<char> >::_Xran
EXTRN	__imp_?_Xout_of_range@std@@YAXPBD@Z:PROC
;	COMDAT ??_C@_0BI@CFPLBAOH@invalid?5string?5position?$AA@
CONST	SEGMENT
??_C@_0BI@CFPLBAOH@invalid?5string?5position?$AA@ DB 'invalid string posi'
	DB	'tion', 00H					; `string'
; Function compile flags: /Ogtp
CONST	ENDS
;	COMDAT ?_Xran@?$basic_string@DU?$char_traits@D@std@@V?$allocator@D@2@@std@@QBEXXZ
_TEXT	SEGMENT
?_Xran@?$basic_string@DU?$char_traits@D@std@@V?$allocator@D@2@@std@@QBEXXZ PROC ; std::basic_string<char,std::char_traits<char>,std::allocator<char> >::_Xran, COMDAT
; _this$ = ecx
; Line 2020
	push	OFFSET ??_C@_0BI@CFPLBAOH@invalid?5string?5position?$AA@
	call	DWORD PTR __imp_?_Xout_of_range@std@@YAXPBD@Z
$LN4@Xran:
$LN3@Xran:
	int	3
?_Xran@?$basic_string@DU?$char_traits@D@std@@V?$allocator@D@2@@std@@QBEXXZ ENDP ; std::basic_string<char,std::char_traits<char>,std::allocator<char> >::_Xran
_TEXT	ENDS
PUBLIC	?deallocate@?$allocator@D@std@@QAEXPADI@Z	; std::allocator<char>::deallocate
; Function compile flags: /Ogtp
;	COMDAT ?deallocate@?$allocator@D@std@@QAEXPADI@Z
_TEXT	SEGMENT
__Ptr$ = 8						; size = 4
___formal$ = 12						; size = 4
?deallocate@?$allocator@D@std@@QAEXPADI@Z PROC		; std::allocator<char>::deallocate, COMDAT
; _this$ = ecx
; File c:\program files (x86)\microsoft visual studio 10.0\vc\include\xmemory
; Line 181
	push	ebp
	mov	ebp, esp
; Line 182
	mov	eax, DWORD PTR __Ptr$[ebp]
	push	eax
	call	??3@YAXPAX@Z				; operator delete
	add	esp, 4
; Line 183
	pop	ebp
	ret	8
?deallocate@?$allocator@D@std@@QAEXPADI@Z ENDP		; std::allocator<char>::deallocate
_TEXT	ENDS
PUBLIC	?_Color@?$_Tree_val@V?$_Tmap_traits@IPAVManagedItem@@U?$less@I@std@@V?$allocator@U?$pair@$$CBIPAVManagedItem@@@std@@@3@$0A@@std@@@std@@SAAADPAU_Node@?$_Tree_nod@V?$_Tmap_traits@IPAVManagedItem@@U?$less@I@std@@V?$allocator@U?$pair@$$CBIPAVManagedItem@@@std@@@3@$0A@@std@@@2@@Z ; std::_Tree_val<std::_Tmap_traits<unsigned int,ManagedItem *,std::less<unsigned int>,std::allocator<std::pair<unsigned int const ,ManagedItem *> >,0> >::_Color
; Function compile flags: /Ogtp
;	COMDAT ?_Color@?$_Tree_val@V?$_Tmap_traits@IPAVManagedItem@@U?$less@I@std@@V?$allocator@U?$pair@$$CBIPAVManagedItem@@@std@@@3@$0A@@std@@@std@@SAAADPAU_Node@?$_Tree_nod@V?$_Tmap_traits@IPAVManagedItem@@U?$less@I@std@@V?$allocator@U?$pair@$$CBIPAVManagedItem@@@std@@@3@$0A@@std@@@2@@Z
_TEXT	SEGMENT
__Pnode$ = 8						; size = 4
?_Color@?$_Tree_val@V?$_Tmap_traits@IPAVManagedItem@@U?$less@I@std@@V?$allocator@U?$pair@$$CBIPAVManagedItem@@@std@@@3@$0A@@std@@@std@@SAAADPAU_Node@?$_Tree_nod@V?$_Tmap_traits@IPAVManagedItem@@U?$less@I@std@@V?$allocator@U?$pair@$$CBIPAVManagedItem@@@std@@@3@$0A@@std@@@2@@Z PROC ; std::_Tree_val<std::_Tmap_traits<unsigned int,ManagedItem *,std::less<unsigned int>,std::allocator<std::pair<unsigned int const ,ManagedItem *> >,0> >::_Color, COMDAT
; File c:\program files (x86)\microsoft visual studio 10.0\vc\include\xtree
; Line 606
	push	ebp
	mov	ebp, esp
; Line 607
	mov	eax, DWORD PTR __Pnode$[ebp]
	add	eax, 20					; 00000014H
; Line 608
	pop	ebp
	ret	0
?_Color@?$_Tree_val@V?$_Tmap_traits@IPAVManagedItem@@U?$less@I@std@@V?$allocator@U?$pair@$$CBIPAVManagedItem@@@std@@@3@$0A@@std@@@std@@SAAADPAU_Node@?$_Tree_nod@V?$_Tmap_traits@IPAVManagedItem@@U?$less@I@std@@V?$allocator@U?$pair@$$CBIPAVManagedItem@@@std@@@3@$0A@@std@@@2@@Z ENDP ; std::_Tree_val<std::_Tmap_traits<unsigned int,ManagedItem *,std::less<unsigned int>,std::allocator<std::pair<unsigned int const ,ManagedItem *> >,0> >::_Color
_TEXT	ENDS
PUBLIC	?_Isnil@?$_Tree_val@V?$_Tmap_traits@IPAVManagedItem@@U?$less@I@std@@V?$allocator@U?$pair@$$CBIPAVManagedItem@@@std@@@3@$0A@@std@@@std@@SAAADPAU_Node@?$_Tree_nod@V?$_Tmap_traits@IPAVManagedItem@@U?$less@I@std@@V?$allocator@U?$pair@$$CBIPAVManagedItem@@@std@@@3@$0A@@std@@@2@@Z ; std::_Tree_val<std::_Tmap_traits<unsigned int,ManagedItem *,std::less<unsigned int>,std::allocator<std::pair<unsigned int const ,ManagedItem *> >,0> >::_Isnil
; Function compile flags: /Ogtp
;	COMDAT ?_Isnil@?$_Tree_val@V?$_Tmap_traits@IPAVManagedItem@@U?$less@I@std@@V?$allocator@U?$pair@$$CBIPAVManagedItem@@@std@@@3@$0A@@std@@@std@@SAAADPAU_Node@?$_Tree_nod@V?$_Tmap_traits@IPAVManagedItem@@U?$less@I@std@@V?$allocator@U?$pair@$$CBIPAVManagedItem@@@std@@@3@$0A@@std@@@2@@Z
_TEXT	SEGMENT
__Pnode$ = 8						; size = 4
?_Isnil@?$_Tree_val@V?$_Tmap_traits@IPAVManagedItem@@U?$less@I@std@@V?$allocator@U?$pair@$$CBIPAVManagedItem@@@std@@@3@$0A@@std@@@std@@SAAADPAU_Node@?$_Tree_nod@V?$_Tmap_traits@IPAVManagedItem@@U?$less@I@std@@V?$allocator@U?$pair@$$CBIPAVManagedItem@@@std@@@3@$0A@@std@@@2@@Z PROC ; std::_Tree_val<std::_Tmap_traits<unsigned int,ManagedItem *,std::less<unsigned int>,std::allocator<std::pair<unsigned int const ,ManagedItem *> >,0> >::_Isnil, COMDAT
; Line 611
	push	ebp
	mov	ebp, esp
; Line 612
	mov	eax, DWORD PTR __Pnode$[ebp]
	add	eax, 21					; 00000015H
; Line 613
	pop	ebp
	ret	0
?_Isnil@?$_Tree_val@V?$_Tmap_traits@IPAVManagedItem@@U?$less@I@std@@V?$allocator@U?$pair@$$CBIPAVManagedItem@@@std@@@3@$0A@@std@@@std@@SAAADPAU_Node@?$_Tree_nod@V?$_Tmap_traits@IPAVManagedItem@@U?$less@I@std@@V?$allocator@U?$pair@$$CBIPAVManagedItem@@@std@@@3@$0A@@std@@@2@@Z ENDP ; std::_Tree_val<std::_Tmap_traits<unsigned int,ManagedItem *,std::less<unsigned int>,std::allocator<std::pair<unsigned int const ,ManagedItem *> >,0> >::_Isnil
_TEXT	ENDS
PUBLIC	?_Left@?$_Tree_val@V?$_Tmap_traits@IPAVManagedItem@@U?$less@I@std@@V?$allocator@U?$pair@$$CBIPAVManagedItem@@@std@@@3@$0A@@std@@@std@@SAAAPAU_Node@?$_Tree_nod@V?$_Tmap_traits@IPAVManagedItem@@U?$less@I@std@@V?$allocator@U?$pair@$$CBIPAVManagedItem@@@std@@@3@$0A@@std@@@2@PAU342@@Z ; std::_Tree_val<std::_Tmap_traits<unsigned int,ManagedItem *,std::less<unsigned int>,std::allocator<std::pair<unsigned int const ,ManagedItem *> >,0> >::_Left
; Function compile flags: /Ogtp
;	COMDAT ?_Left@?$_Tree_val@V?$_Tmap_traits@IPAVManagedItem@@U?$less@I@std@@V?$allocator@U?$pair@$$CBIPAVManagedItem@@@std@@@3@$0A@@std@@@std@@SAAAPAU_Node@?$_Tree_nod@V?$_Tmap_traits@IPAVManagedItem@@U?$less@I@std@@V?$allocator@U?$pair@$$CBIPAVManagedItem@@@std@@@3@$0A@@std@@@2@PAU342@@Z
_TEXT	SEGMENT
__Pnode$ = 8						; size = 4
?_Left@?$_Tree_val@V?$_Tmap_traits@IPAVManagedItem@@U?$less@I@std@@V?$allocator@U?$pair@$$CBIPAVManagedItem@@@std@@@3@$0A@@std@@@std@@SAAAPAU_Node@?$_Tree_nod@V?$_Tmap_traits@IPAVManagedItem@@U?$less@I@std@@V?$allocator@U?$pair@$$CBIPAVManagedItem@@@std@@@3@$0A@@std@@@2@PAU342@@Z PROC ; std::_Tree_val<std::_Tmap_traits<unsigned int,ManagedItem *,std::less<unsigned int>,std::allocator<std::pair<unsigned int const ,ManagedItem *> >,0> >::_Left, COMDAT
; Line 621
	push	ebp
	mov	ebp, esp
; Line 622
	mov	eax, DWORD PTR __Pnode$[ebp]
; Line 623
	pop	ebp
	ret	0
?_Left@?$_Tree_val@V?$_Tmap_traits@IPAVManagedItem@@U?$less@I@std@@V?$allocator@U?$pair@$$CBIPAVManagedItem@@@std@@@3@$0A@@std@@@std@@SAAAPAU_Node@?$_Tree_nod@V?$_Tmap_traits@IPAVManagedItem@@U?$less@I@std@@V?$allocator@U?$pair@$$CBIPAVManagedItem@@@std@@@3@$0A@@std@@@2@PAU342@@Z ENDP ; std::_Tree_val<std::_Tmap_traits<unsigned int,ManagedItem *,std::less<unsigned int>,std::allocator<std::pair<unsigned int const ,ManagedItem *> >,0> >::_Left
_TEXT	ENDS
PUBLIC	?_Parent@?$_Tree_val@V?$_Tmap_traits@IPAVManagedItem@@U?$less@I@std@@V?$allocator@U?$pair@$$CBIPAVManagedItem@@@std@@@3@$0A@@std@@@std@@SAAAPAU_Node@?$_Tree_nod@V?$_Tmap_traits@IPAVManagedItem@@U?$less@I@std@@V?$allocator@U?$pair@$$CBIPAVManagedItem@@@std@@@3@$0A@@std@@@2@PAU342@@Z ; std::_Tree_val<std::_Tmap_traits<unsigned int,ManagedItem *,std::less<unsigned int>,std::allocator<std::pair<unsigned int const ,ManagedItem *> >,0> >::_Parent
; Function compile flags: /Ogtp
;	COMDAT ?_Parent@?$_Tree_val@V?$_Tmap_traits@IPAVManagedItem@@U?$less@I@std@@V?$allocator@U?$pair@$$CBIPAVManagedItem@@@std@@@3@$0A@@std@@@std@@SAAAPAU_Node@?$_Tree_nod@V?$_Tmap_traits@IPAVManagedItem@@U?$less@I@std@@V?$allocator@U?$pair@$$CBIPAVManagedItem@@@std@@@3@$0A@@std@@@2@PAU342@@Z
_TEXT	SEGMENT
__Pnode$ = 8						; size = 4
?_Parent@?$_Tree_val@V?$_Tmap_traits@IPAVManagedItem@@U?$less@I@std@@V?$allocator@U?$pair@$$CBIPAVManagedItem@@@std@@@3@$0A@@std@@@std@@SAAAPAU_Node@?$_Tree_nod@V?$_Tmap_traits@IPAVManagedItem@@U?$less@I@std@@V?$allocator@U?$pair@$$CBIPAVManagedItem@@@std@@@3@$0A@@std@@@2@PAU342@@Z PROC ; std::_Tree_val<std::_Tmap_traits<unsigned int,ManagedItem *,std::less<unsigned int>,std::allocator<std::pair<unsigned int const ,ManagedItem *> >,0> >::_Parent, COMDAT
; Line 626
	push	ebp
	mov	ebp, esp
; Line 627
	mov	eax, DWORD PTR __Pnode$[ebp]
	add	eax, 4
; Line 628
	pop	ebp
	ret	0
?_Parent@?$_Tree_val@V?$_Tmap_traits@IPAVManagedItem@@U?$less@I@std@@V?$allocator@U?$pair@$$CBIPAVManagedItem@@@std@@@3@$0A@@std@@@std@@SAAAPAU_Node@?$_Tree_nod@V?$_Tmap_traits@IPAVManagedItem@@U?$less@I@std@@V?$allocator@U?$pair@$$CBIPAVManagedItem@@@std@@@3@$0A@@std@@@2@PAU342@@Z ENDP ; std::_Tree_val<std::_Tmap_traits<unsigned int,ManagedItem *,std::less<unsigned int>,std::allocator<std::pair<unsigned int const ,ManagedItem *> >,0> >::_Parent
_TEXT	ENDS
PUBLIC	?_Right@?$_Tree_val@V?$_Tmap_traits@IPAVManagedItem@@U?$less@I@std@@V?$allocator@U?$pair@$$CBIPAVManagedItem@@@std@@@3@$0A@@std@@@std@@SAAAPAU_Node@?$_Tree_nod@V?$_Tmap_traits@IPAVManagedItem@@U?$less@I@std@@V?$allocator@U?$pair@$$CBIPAVManagedItem@@@std@@@3@$0A@@std@@@2@PAU342@@Z ; std::_Tree_val<std::_Tmap_traits<unsigned int,ManagedItem *,std::less<unsigned int>,std::allocator<std::pair<unsigned int const ,ManagedItem *> >,0> >::_Right
; Function compile flags: /Ogtp
;	COMDAT ?_Right@?$_Tree_val@V?$_Tmap_traits@IPAVManagedItem@@U?$less@I@std@@V?$allocator@U?$pair@$$CBIPAVManagedItem@@@std@@@3@$0A@@std@@@std@@SAAAPAU_Node@?$_Tree_nod@V?$_Tmap_traits@IPAVManagedItem@@U?$less@I@std@@V?$allocator@U?$pair@$$CBIPAVManagedItem@@@std@@@3@$0A@@std@@@2@PAU342@@Z
_TEXT	SEGMENT
__Pnode$ = 8						; size = 4
?_Right@?$_Tree_val@V?$_Tmap_traits@IPAVManagedItem@@U?$less@I@std@@V?$allocator@U?$pair@$$CBIPAVManagedItem@@@std@@@3@$0A@@std@@@std@@SAAAPAU_Node@?$_Tree_nod@V?$_Tmap_traits@IPAVManagedItem@@U?$less@I@std@@V?$allocator@U?$pair@$$CBIPAVManagedItem@@@std@@@3@$0A@@std@@@2@PAU342@@Z PROC ; std::_Tree_val<std::_Tmap_traits<unsigned int,ManagedItem *,std::less<unsigned int>,std::allocator<std::pair<unsigned int const ,ManagedItem *> >,0> >::_Right, COMDAT
; Line 631
	push	ebp
	mov	ebp, esp
; Line 632
	mov	eax, DWORD PTR __Pnode$[ebp]
	add	eax, 8
; Line 633
	pop	ebp
	ret	0
?_Right@?$_Tree_val@V?$_Tmap_traits@IPAVManagedItem@@U?$less@I@std@@V?$allocator@U?$pair@$$CBIPAVManagedItem@@@std@@@3@$0A@@std@@@std@@SAAAPAU_Node@?$_Tree_nod@V?$_Tmap_traits@IPAVManagedItem@@U?$less@I@std@@V?$allocator@U?$pair@$$CBIPAVManagedItem@@@std@@@3@$0A@@std@@@2@PAU342@@Z ENDP ; std::_Tree_val<std::_Tmap_traits<unsigned int,ManagedItem *,std::less<unsigned int>,std::allocator<std::pair<unsigned int const ,ManagedItem *> >,0> >::_Right
_TEXT	ENDS
PUBLIC	?_Myval@?$_Tree_val@V?$_Tmap_traits@IPAVManagedItem@@U?$less@I@std@@V?$allocator@U?$pair@$$CBIPAVManagedItem@@@std@@@3@$0A@@std@@@std@@SAAAU?$pair@$$CBIPAVManagedItem@@@2@PAU_Node@?$_Tree_nod@V?$_Tmap_traits@IPAVManagedItem@@U?$less@I@std@@V?$allocator@U?$pair@$$CBIPAVManagedItem@@@std@@@3@$0A@@std@@@2@@Z ; std::_Tree_val<std::_Tmap_traits<unsigned int,ManagedItem *,std::less<unsigned int>,std::allocator<std::pair<unsigned int const ,ManagedItem *> >,0> >::_Myval
; Function compile flags: /Ogtp
;	COMDAT ?_Myval@?$_Tree_val@V?$_Tmap_traits@IPAVManagedItem@@U?$less@I@std@@V?$allocator@U?$pair@$$CBIPAVManagedItem@@@std@@@3@$0A@@std@@@std@@SAAAU?$pair@$$CBIPAVManagedItem@@@2@PAU_Node@?$_Tree_nod@V?$_Tmap_traits@IPAVManagedItem@@U?$less@I@std@@V?$allocator@U?$pair@$$CBIPAVManagedItem@@@std@@@3@$0A@@std@@@2@@Z
_TEXT	SEGMENT
__Pnode$ = 8						; size = 4
?_Myval@?$_Tree_val@V?$_Tmap_traits@IPAVManagedItem@@U?$less@I@std@@V?$allocator@U?$pair@$$CBIPAVManagedItem@@@std@@@3@$0A@@std@@@std@@SAAAU?$pair@$$CBIPAVManagedItem@@@2@PAU_Node@?$_Tree_nod@V?$_Tmap_traits@IPAVManagedItem@@U?$less@I@std@@V?$allocator@U?$pair@$$CBIPAVManagedItem@@@std@@@3@$0A@@std@@@2@@Z PROC ; std::_Tree_val<std::_Tmap_traits<unsigned int,ManagedItem *,std::less<unsigned int>,std::allocator<std::pair<unsigned int const ,ManagedItem *> >,0> >::_Myval, COMDAT
; Line 636
	push	ebp
	mov	ebp, esp
; Line 637
	mov	eax, DWORD PTR __Pnode$[ebp]
	add	eax, 12					; 0000000cH
; Line 638
	pop	ebp
	ret	0
?_Myval@?$_Tree_val@V?$_Tmap_traits@IPAVManagedItem@@U?$less@I@std@@V?$allocator@U?$pair@$$CBIPAVManagedItem@@@std@@@3@$0A@@std@@@std@@SAAAU?$pair@$$CBIPAVManagedItem@@@2@PAU_Node@?$_Tree_nod@V?$_Tmap_traits@IPAVManagedItem@@U?$less@I@std@@V?$allocator@U?$pair@$$CBIPAVManagedItem@@@std@@@3@$0A@@std@@@2@@Z ENDP ; std::_Tree_val<std::_Tmap_traits<unsigned int,ManagedItem *,std::less<unsigned int>,std::allocator<std::pair<unsigned int const ,ManagedItem *> >,0> >::_Myval
_TEXT	ENDS
PUBLIC	?_Max@?$_Tree_val@V?$_Tmap_traits@IPAVManagedItem@@U?$less@I@std@@V?$allocator@U?$pair@$$CBIPAVManagedItem@@@std@@@3@$0A@@std@@@std@@SAPAU_Node@?$_Tree_nod@V?$_Tmap_traits@IPAVManagedItem@@U?$less@I@std@@V?$allocator@U?$pair@$$CBIPAVManagedItem@@@std@@@3@$0A@@std@@@2@PAU342@@Z ; std::_Tree_val<std::_Tmap_traits<unsigned int,ManagedItem *,std::less<unsigned int>,std::allocator<std::pair<unsigned int const ,ManagedItem *> >,0> >::_Max
; Function compile flags: /Ogtp
;	COMDAT ?_Max@?$_Tree_val@V?$_Tmap_traits@IPAVManagedItem@@U?$less@I@std@@V?$allocator@U?$pair@$$CBIPAVManagedItem@@@std@@@3@$0A@@std@@@std@@SAPAU_Node@?$_Tree_nod@V?$_Tmap_traits@IPAVManagedItem@@U?$less@I@std@@V?$allocator@U?$pair@$$CBIPAVManagedItem@@@std@@@3@$0A@@std@@@2@PAU342@@Z
_TEXT	SEGMENT
__Pnode$ = 8						; size = 4
?_Max@?$_Tree_val@V?$_Tmap_traits@IPAVManagedItem@@U?$less@I@std@@V?$allocator@U?$pair@$$CBIPAVManagedItem@@@std@@@3@$0A@@std@@@std@@SAPAU_Node@?$_Tree_nod@V?$_Tmap_traits@IPAVManagedItem@@U?$less@I@std@@V?$allocator@U?$pair@$$CBIPAVManagedItem@@@std@@@3@$0A@@std@@@2@PAU342@@Z PROC ; std::_Tree_val<std::_Tmap_traits<unsigned int,ManagedItem *,std::less<unsigned int>,std::allocator<std::pair<unsigned int const ,ManagedItem *> >,0> >::_Max, COMDAT
; Line 641
	push	ebp
	mov	ebp, esp
; Line 642
	mov	eax, DWORD PTR __Pnode$[ebp]
	mov	ecx, DWORD PTR [eax+8]
	cmp	BYTE PTR [ecx+21], 0
	jne	SHORT $LN1@Max
	npad	1
$LL2@Max:
; Line 643
	mov	eax, ecx
	mov	ecx, DWORD PTR [eax+8]
	cmp	BYTE PTR [ecx+21], 0
	je	SHORT $LL2@Max
$LN1@Max:
; Line 645
	pop	ebp
	ret	0
?_Max@?$_Tree_val@V?$_Tmap_traits@IPAVManagedItem@@U?$less@I@std@@V?$allocator@U?$pair@$$CBIPAVManagedItem@@@std@@@3@$0A@@std@@@std@@SAPAU_Node@?$_Tree_nod@V?$_Tmap_traits@IPAVManagedItem@@U?$less@I@std@@V?$allocator@U?$pair@$$CBIPAVManagedItem@@@std@@@3@$0A@@std@@@2@PAU342@@Z ENDP ; std::_Tree_val<std::_Tmap_traits<unsigned int,ManagedItem *,std::less<unsigned int>,std::allocator<std::pair<unsigned int const ,ManagedItem *> >,0> >::_Max
_TEXT	ENDS
PUBLIC	?_Min@?$_Tree_val@V?$_Tmap_traits@IPAVManagedItem@@U?$less@I@std@@V?$allocator@U?$pair@$$CBIPAVManagedItem@@@std@@@3@$0A@@std@@@std@@SAPAU_Node@?$_Tree_nod@V?$_Tmap_traits@IPAVManagedItem@@U?$less@I@std@@V?$allocator@U?$pair@$$CBIPAVManagedItem@@@std@@@3@$0A@@std@@@2@PAU342@@Z ; std::_Tree_val<std::_Tmap_traits<unsigned int,ManagedItem *,std::less<unsigned int>,std::allocator<std::pair<unsigned int const ,ManagedItem *> >,0> >::_Min
; Function compile flags: /Ogtp
;	COMDAT ?_Min@?$_Tree_val@V?$_Tmap_traits@IPAVManagedItem@@U?$less@I@std@@V?$allocator@U?$pair@$$CBIPAVManagedItem@@@std@@@3@$0A@@std@@@std@@SAPAU_Node@?$_Tree_nod@V?$_Tmap_traits@IPAVManagedItem@@U?$less@I@std@@V?$allocator@U?$pair@$$CBIPAVManagedItem@@@std@@@3@$0A@@std@@@2@PAU342@@Z
_TEXT	SEGMENT
__Pnode$ = 8						; size = 4
?_Min@?$_Tree_val@V?$_Tmap_traits@IPAVManagedItem@@U?$less@I@std@@V?$allocator@U?$pair@$$CBIPAVManagedItem@@@std@@@3@$0A@@std@@@std@@SAPAU_Node@?$_Tree_nod@V?$_Tmap_traits@IPAVManagedItem@@U?$less@I@std@@V?$allocator@U?$pair@$$CBIPAVManagedItem@@@std@@@3@$0A@@std@@@2@PAU342@@Z PROC ; std::_Tree_val<std::_Tmap_traits<unsigned int,ManagedItem *,std::less<unsigned int>,std::allocator<std::pair<unsigned int const ,ManagedItem *> >,0> >::_Min, COMDAT
; Line 648
	push	ebp
	mov	ebp, esp
; Line 649
	mov	eax, DWORD PTR __Pnode$[ebp]
	mov	ecx, DWORD PTR [eax]
	cmp	BYTE PTR [ecx+21], 0
	jne	SHORT $LN1@Min
	npad	2
$LL2@Min:
; Line 650
	mov	eax, ecx
	mov	ecx, DWORD PTR [eax]
	cmp	BYTE PTR [ecx+21], 0
	je	SHORT $LL2@Min
$LN1@Min:
; Line 652
	pop	ebp
	ret	0
?_Min@?$_Tree_val@V?$_Tmap_traits@IPAVManagedItem@@U?$less@I@std@@V?$allocator@U?$pair@$$CBIPAVManagedItem@@@std@@@3@$0A@@std@@@std@@SAPAU_Node@?$_Tree_nod@V?$_Tmap_traits@IPAVManagedItem@@U?$less@I@std@@V?$allocator@U?$pair@$$CBIPAVManagedItem@@@std@@@3@$0A@@std@@@2@PAU342@@Z ENDP ; std::_Tree_val<std::_Tmap_traits<unsigned int,ManagedItem *,std::less<unsigned int>,std::allocator<std::pair<unsigned int const ,ManagedItem *> >,0> >::_Min
_TEXT	ENDS
PUBLIC	?deallocate@?$allocator@U_Node@?$_Tree_nod@V?$_Tmap_traits@IPAVManagedItem@@U?$less@I@std@@V?$allocator@U?$pair@$$CBIPAVManagedItem@@@std@@@3@$0A@@std@@@std@@@std@@QAEXPAU_Node@?$_Tree_nod@V?$_Tmap_traits@IPAVManagedItem@@U?$less@I@std@@V?$allocator@U?$pair@$$CBIPAVManagedItem@@@std@@@3@$0A@@std@@@2@I@Z ; std::allocator<std::_Tree_nod<std::_Tmap_traits<unsigned int,ManagedItem *,std::less<unsigned int>,std::allocator<std::pair<unsigned int const ,ManagedItem *> >,0> >::_Node>::deallocate
; Function compile flags: /Ogtp
;	COMDAT ?deallocate@?$allocator@U_Node@?$_Tree_nod@V?$_Tmap_traits@IPAVManagedItem@@U?$less@I@std@@V?$allocator@U?$pair@$$CBIPAVManagedItem@@@std@@@3@$0A@@std@@@std@@@std@@QAEXPAU_Node@?$_Tree_nod@V?$_Tmap_traits@IPAVManagedItem@@U?$less@I@std@@V?$allocator@U?$pair@$$CBIPAVManagedItem@@@std@@@3@$0A@@std@@@2@I@Z
_TEXT	SEGMENT
__Ptr$ = 8						; size = 4
___formal$ = 12						; size = 4
?deallocate@?$allocator@U_Node@?$_Tree_nod@V?$_Tmap_traits@IPAVManagedItem@@U?$less@I@std@@V?$allocator@U?$pair@$$CBIPAVManagedItem@@@std@@@3@$0A@@std@@@std@@@std@@QAEXPAU_Node@?$_Tree_nod@V?$_Tmap_traits@IPAVManagedItem@@U?$less@I@std@@V?$allocator@U?$pair@$$CBIPAVManagedItem@@@std@@@3@$0A@@std@@@2@I@Z PROC ; std::allocator<std::_Tree_nod<std::_Tmap_traits<unsigned int,ManagedItem *,std::less<unsigned int>,std::allocator<std::pair<unsigned int const ,ManagedItem *> >,0> >::_Node>::deallocate, COMDAT
; _this$ = ecx
; File c:\program files (x86)\microsoft visual studio 10.0\vc\include\xmemory
; Line 181
	push	ebp
	mov	ebp, esp
; Line 182
	mov	eax, DWORD PTR __Ptr$[ebp]
	push	eax
	call	??3@YAXPAX@Z				; operator delete
	add	esp, 4
; Line 183
	pop	ebp
	ret	8
?deallocate@?$allocator@U_Node@?$_Tree_nod@V?$_Tmap_traits@IPAVManagedItem@@U?$less@I@std@@V?$allocator@U?$pair@$$CBIPAVManagedItem@@@std@@@3@$0A@@std@@@std@@@std@@QAEXPAU_Node@?$_Tree_nod@V?$_Tmap_traits@IPAVManagedItem@@U?$less@I@std@@V?$allocator@U?$pair@$$CBIPAVManagedItem@@@std@@@3@$0A@@std@@@2@I@Z ENDP ; std::allocator<std::_Tree_nod<std::_Tmap_traits<unsigned int,ManagedItem *,std::less<unsigned int>,std::allocator<std::pair<unsigned int const ,ManagedItem *> >,0> >::_Node>::deallocate
_TEXT	ENDS
PUBLIC	??0?$allocator@PAVframe@@@std@@QAE@ABV01@@Z	; std::allocator<frame *>::allocator<frame *>
; Function compile flags: /Ogtp
;	COMDAT ??0?$allocator@PAVframe@@@std@@QAE@ABV01@@Z
_TEXT	SEGMENT
___formal$ = 8						; size = 4
??0?$allocator@PAVframe@@@std@@QAE@ABV01@@Z PROC	; std::allocator<frame *>::allocator<frame *>, COMDAT
; _this$ = ecx
; Line 165
	mov	eax, ecx
; Line 167
	ret	4
??0?$allocator@PAVframe@@@std@@QAE@ABV01@@Z ENDP	; std::allocator<frame *>::allocator<frame *>
_TEXT	ENDS
PUBLIC	?deallocate@?$allocator@PAVframe@@@std@@QAEXPAPAVframe@@I@Z ; std::allocator<frame *>::deallocate
; Function compile flags: /Ogtp
;	COMDAT ?deallocate@?$allocator@PAVframe@@@std@@QAEXPAPAVframe@@I@Z
_TEXT	SEGMENT
__Ptr$ = 8						; size = 4
___formal$ = 12						; size = 4
?deallocate@?$allocator@PAVframe@@@std@@QAEXPAPAVframe@@I@Z PROC ; std::allocator<frame *>::deallocate, COMDAT
; _this$ = ecx
; Line 181
	push	ebp
	mov	ebp, esp
; Line 182
	mov	eax, DWORD PTR __Ptr$[ebp]
	push	eax
	call	??3@YAXPAX@Z				; operator delete
	add	esp, 4
; Line 183
	pop	ebp
	ret	8
?deallocate@?$allocator@PAVframe@@@std@@QAEXPAPAVframe@@I@Z ENDP ; std::allocator<frame *>::deallocate
_TEXT	ENDS
PUBLIC	??D?$_Tree_const_iterator@V?$_Tree_val@V?$_Tmap_traits@IPAVManagedItem@@U?$less@I@std@@V?$allocator@U?$pair@$$CBIPAVManagedItem@@@std@@@3@$0A@@std@@@std@@@std@@QBEABU?$pair@$$CBIPAVManagedItem@@@1@XZ ; std::_Tree_const_iterator<std::_Tree_val<std::_Tmap_traits<unsigned int,ManagedItem *,std::less<unsigned int>,std::allocator<std::pair<unsigned int const ,ManagedItem *> >,0> > >::operator*
; Function compile flags: /Ogtp
;	COMDAT ??D?$_Tree_const_iterator@V?$_Tree_val@V?$_Tmap_traits@IPAVManagedItem@@U?$less@I@std@@V?$allocator@U?$pair@$$CBIPAVManagedItem@@@std@@@3@$0A@@std@@@std@@@std@@QBEABU?$pair@$$CBIPAVManagedItem@@@1@XZ
_TEXT	SEGMENT
??D?$_Tree_const_iterator@V?$_Tree_val@V?$_Tmap_traits@IPAVManagedItem@@U?$less@I@std@@V?$allocator@U?$pair@$$CBIPAVManagedItem@@@std@@@3@$0A@@std@@@std@@@std@@QBEABU?$pair@$$CBIPAVManagedItem@@@1@XZ PROC ; std::_Tree_const_iterator<std::_Tree_val<std::_Tmap_traits<unsigned int,ManagedItem *,std::less<unsigned int>,std::allocator<std::pair<unsigned int const ,ManagedItem *> >,0> > >::operator*, COMDAT
; _this$ = ecx
; File c:\program files (x86)\microsoft visual studio 10.0\vc\include\xtree
; Line 246
	mov	eax, DWORD PTR [ecx]
	add	eax, 12					; 0000000cH
; Line 247
	ret	0
??D?$_Tree_const_iterator@V?$_Tree_val@V?$_Tmap_traits@IPAVManagedItem@@U?$less@I@std@@V?$allocator@U?$pair@$$CBIPAVManagedItem@@@std@@@3@$0A@@std@@@std@@@std@@QBEABU?$pair@$$CBIPAVManagedItem@@@1@XZ ENDP ; std::_Tree_const_iterator<std::_Tree_val<std::_Tmap_traits<unsigned int,ManagedItem *,std::less<unsigned int>,std::allocator<std::pair<unsigned int const ,ManagedItem *> >,0> > >::operator*
_TEXT	ENDS
PUBLIC	?_Inside@?$basic_string@DU?$char_traits@D@std@@V?$allocator@D@2@@std@@QAE_NPBD@Z ; std::basic_string<char,std::char_traits<char>,std::allocator<char> >::_Inside
; Function compile flags: /Ogtp
;	COMDAT ?_Inside@?$basic_string@DU?$char_traits@D@std@@V?$allocator@D@2@@std@@QAE_NPBD@Z
_TEXT	SEGMENT
__Ptr$ = 8						; size = 4
?_Inside@?$basic_string@DU?$char_traits@D@std@@V?$allocator@D@2@@std@@QAE_NPBD@Z PROC ; std::basic_string<char,std::char_traits<char>,std::allocator<char> >::_Inside, COMDAT
; _this$ = ecx
; File c:\program files (x86)\microsoft visual studio 10.0\vc\include\xstring
; Line 1972
	push	ebp
	mov	ebp, esp
	push	esi
; Line 1973
	mov	esi, DWORD PTR __Ptr$[ebp]
	test	esi, esi
	je	SHORT $LN2@Inside
	mov	edx, DWORD PTR [ecx+20]
	cmp	edx, 16					; 00000010H
	jb	SHORT $LN8@Inside
	mov	eax, DWORD PTR [ecx]
	jmp	SHORT $LN9@Inside
$LN8@Inside:
	mov	eax, ecx
$LN9@Inside:
	cmp	esi, eax
	jb	SHORT $LN2@Inside
	cmp	edx, 16					; 00000010H
	jb	SHORT $LN12@Inside
	mov	eax, DWORD PTR [ecx]
	jmp	SHORT $LN13@Inside
$LN12@Inside:
	mov	eax, ecx
$LN13@Inside:
	mov	ecx, DWORD PTR [ecx+16]
	add	ecx, eax
	cmp	ecx, esi
	jbe	SHORT $LN2@Inside
; Line 1976
	mov	al, 1
	pop	esi
; Line 1977
	pop	ebp
	ret	4
$LN2@Inside:
; Line 1974
	xor	al, al
	pop	esi
; Line 1977
	pop	ebp
	ret	4
?_Inside@?$basic_string@DU?$char_traits@D@std@@V?$allocator@D@2@@std@@QAE_NPBD@Z ENDP ; std::basic_string<char,std::char_traits<char>,std::allocator<char> >::_Inside
_TEXT	ENDS
PUBLIC	??_C@_0BA@JFNIOLAK@string?5too?5long?$AA@	; `string'
PUBLIC	?_Xlen@?$basic_string@DU?$char_traits@D@std@@V?$allocator@D@2@@std@@QBEXXZ ; std::basic_string<char,std::char_traits<char>,std::allocator<char> >::_Xlen
EXTRN	__imp_?_Xlength_error@std@@YAXPBD@Z:PROC
;	COMDAT ??_C@_0BA@JFNIOLAK@string?5too?5long?$AA@
CONST	SEGMENT
??_C@_0BA@JFNIOLAK@string?5too?5long?$AA@ DB 'string too long', 00H ; `string'
; Function compile flags: /Ogtp
CONST	ENDS
;	COMDAT ?_Xlen@?$basic_string@DU?$char_traits@D@std@@V?$allocator@D@2@@std@@QBEXXZ
_TEXT	SEGMENT
?_Xlen@?$basic_string@DU?$char_traits@D@std@@V?$allocator@D@2@@std@@QBEXXZ PROC ; std::basic_string<char,std::char_traits<char>,std::allocator<char> >::_Xlen, COMDAT
; _this$ = ecx
; Line 2015
	push	OFFSET ??_C@_0BA@JFNIOLAK@string?5too?5long?$AA@
	call	DWORD PTR __imp_?_Xlength_error@std@@YAXPBD@Z
$LN4@Xlen:
$LN3@Xlen:
	int	3
?_Xlen@?$basic_string@DU?$char_traits@D@std@@V?$allocator@D@2@@std@@QBEXXZ ENDP ; std::basic_string<char,std::char_traits<char>,std::allocator<char> >::_Xlen
_TEXT	ENDS
PUBLIC	??0?$_Tree_unchecked_const_iterator@V?$_Tree_val@V?$_Tmap_traits@IPAVManagedItem@@U?$less@I@std@@V?$allocator@U?$pair@$$CBIPAVManagedItem@@@std@@@3@$0A@@std@@@std@@U_Iterator_base0@2@@std@@QAE@PAU_Node@?$_Tree_nod@V?$_Tmap_traits@IPAVManagedItem@@U?$less@I@std@@V?$allocator@U?$pair@$$CBIPAVManagedItem@@@std@@@3@$0A@@std@@@1@PBV?$_Tree_val@V?$_Tmap_traits@IPAVManagedItem@@U?$less@I@std@@V?$allocator@U?$pair@$$CBIPAVManagedItem@@@std@@@3@$0A@@std@@@1@@Z ; std::_Tree_unchecked_const_iterator<std::_Tree_val<std::_Tmap_traits<unsigned int,ManagedItem *,std::less<unsigned int>,std::allocator<std::pair<unsigned int const ,ManagedItem *> >,0> >,std::_Iterator_base0>::_Tree_unchecked_const_iterator<std::_Tree_val<std::_Tmap_traits<unsigned int,ManagedItem *,std::less<unsigned int>,std::allocator<std::pair<unsigned int const ,ManagedItem *> >,0> >,std::_Iterator_base0>
; Function compile flags: /Ogtp
;	COMDAT ??0?$_Tree_unchecked_const_iterator@V?$_Tree_val@V?$_Tmap_traits@IPAVManagedItem@@U?$less@I@std@@V?$allocator@U?$pair@$$CBIPAVManagedItem@@@std@@@3@$0A@@std@@@std@@U_Iterator_base0@2@@std@@QAE@PAU_Node@?$_Tree_nod@V?$_Tmap_traits@IPAVManagedItem@@U?$less@I@std@@V?$allocator@U?$pair@$$CBIPAVManagedItem@@@std@@@3@$0A@@std@@@1@PBV?$_Tree_val@V?$_Tmap_traits@IPAVManagedItem@@U?$less@I@std@@V?$allocator@U?$pair@$$CBIPAVManagedItem@@@std@@@3@$0A@@std@@@1@@Z
_TEXT	SEGMENT
__Pnode$ = 8						; size = 4
__Plist$ = 12						; size = 4
??0?$_Tree_unchecked_const_iterator@V?$_Tree_val@V?$_Tmap_traits@IPAVManagedItem@@U?$less@I@std@@V?$allocator@U?$pair@$$CBIPAVManagedItem@@@std@@@3@$0A@@std@@@std@@U_Iterator_base0@2@@std@@QAE@PAU_Node@?$_Tree_nod@V?$_Tmap_traits@IPAVManagedItem@@U?$less@I@std@@V?$allocator@U?$pair@$$CBIPAVManagedItem@@@std@@@3@$0A@@std@@@1@PBV?$_Tree_val@V?$_Tmap_traits@IPAVManagedItem@@U?$less@I@std@@V?$allocator@U?$pair@$$CBIPAVManagedItem@@@std@@@3@$0A@@std@@@1@@Z PROC ; std::_Tree_unchecked_const_iterator<std::_Tree_val<std::_Tmap_traits<unsigned int,ManagedItem *,std::less<unsigned int>,std::allocator<std::pair<unsigned int const ,ManagedItem *> >,0> >,std::_Iterator_base0>::_Tree_unchecked_const_iterator<std::_Tree_val<std::_Tmap_traits<unsigned int,ManagedItem *,std::less<unsigned int>,std::allocator<std::pair<unsigned int const ,ManagedItem *> >,0> >,std::_Iterator_base0>, COMDAT
; _this$ = ecx
; File c:\program files (x86)\microsoft visual studio 10.0\vc\include\xtree
; Line 43
	push	ebp
	mov	ebp, esp
	mov	eax, ecx
	mov	ecx, DWORD PTR __Pnode$[ebp]
	mov	DWORD PTR [eax], ecx
; Line 45
	pop	ebp
	ret	8
??0?$_Tree_unchecked_const_iterator@V?$_Tree_val@V?$_Tmap_traits@IPAVManagedItem@@U?$less@I@std@@V?$allocator@U?$pair@$$CBIPAVManagedItem@@@std@@@3@$0A@@std@@@std@@U_Iterator_base0@2@@std@@QAE@PAU_Node@?$_Tree_nod@V?$_Tmap_traits@IPAVManagedItem@@U?$less@I@std@@V?$allocator@U?$pair@$$CBIPAVManagedItem@@@std@@@3@$0A@@std@@@1@PBV?$_Tree_val@V?$_Tmap_traits@IPAVManagedItem@@U?$less@I@std@@V?$allocator@U?$pair@$$CBIPAVManagedItem@@@std@@@3@$0A@@std@@@1@@Z ENDP ; std::_Tree_unchecked_const_iterator<std::_Tree_val<std::_Tmap_traits<unsigned int,ManagedItem *,std::less<unsigned int>,std::allocator<std::pair<unsigned int const ,ManagedItem *> >,0> >,std::_Iterator_base0>::_Tree_unchecked_const_iterator<std::_Tree_val<std::_Tmap_traits<unsigned int,ManagedItem *,std::less<unsigned int>,std::allocator<std::pair<unsigned int const ,ManagedItem *> >,0> >,std::_Iterator_base0>
_TEXT	ENDS
PUBLIC	??E?$_Tree_unchecked_const_iterator@V?$_Tree_val@V?$_Tmap_traits@IPAVManagedItem@@U?$less@I@std@@V?$allocator@U?$pair@$$CBIPAVManagedItem@@@std@@@3@$0A@@std@@@std@@U_Iterator_base0@2@@std@@QAEAAV01@XZ ; std::_Tree_unchecked_const_iterator<std::_Tree_val<std::_Tmap_traits<unsigned int,ManagedItem *,std::less<unsigned int>,std::allocator<std::pair<unsigned int const ,ManagedItem *> >,0> >,std::_Iterator_base0>::operator++
; Function compile flags: /Ogtp
;	COMDAT ??E?$_Tree_unchecked_const_iterator@V?$_Tree_val@V?$_Tmap_traits@IPAVManagedItem@@U?$less@I@std@@V?$allocator@U?$pair@$$CBIPAVManagedItem@@@std@@@3@$0A@@std@@@std@@U_Iterator_base0@2@@std@@QAEAAV01@XZ
_TEXT	SEGMENT
??E?$_Tree_unchecked_const_iterator@V?$_Tree_val@V?$_Tmap_traits@IPAVManagedItem@@U?$less@I@std@@V?$allocator@U?$pair@$$CBIPAVManagedItem@@@std@@@3@$0A@@std@@@std@@U_Iterator_base0@2@@std@@QAEAAV01@XZ PROC ; std::_Tree_unchecked_const_iterator<std::_Tree_val<std::_Tmap_traits<unsigned int,ManagedItem *,std::less<unsigned int>,std::allocator<std::pair<unsigned int const ,ManagedItem *> >,0> >,std::_Iterator_base0>::operator++, COMDAT
; _this$ = ecx
; Line 58
	mov	eax, ecx
; Line 59
	mov	edx, DWORD PTR [eax]
	cmp	BYTE PTR [edx+21], 0
	jne	SHORT $LN3@operator
; Line 61
	mov	ecx, DWORD PTR [edx+8]
	cmp	BYTE PTR [ecx+21], 0
	jne	SHORT $LN34@operator
; Line 63
	mov	edx, DWORD PTR [ecx]
	cmp	BYTE PTR [edx+21], 0
	jne	SHORT $LN17@operator
	npad	5
$LL18@operator:
	mov	ecx, edx
	mov	edx, DWORD PTR [ecx]
	cmp	BYTE PTR [edx+21], 0
	je	SHORT $LL18@operator
$LN17@operator:
	mov	DWORD PTR [eax], ecx
; Line 73
	ret	0
$LN34@operator:
; Line 68
	mov	edx, DWORD PTR [edx+4]
	cmp	BYTE PTR [edx+21], 0
	jne	SHORT $LN1@operator
$LL2@operator:
	mov	ecx, DWORD PTR [eax]
	cmp	ecx, DWORD PTR [edx+8]
	jne	SHORT $LN1@operator
; Line 69
	mov	DWORD PTR [eax], edx
	mov	edx, DWORD PTR [edx+4]
	cmp	BYTE PTR [edx+21], 0
	je	SHORT $LL2@operator
$LN1@operator:
; Line 70
	mov	DWORD PTR [eax], edx
$LN3@operator:
; Line 73
	ret	0
??E?$_Tree_unchecked_const_iterator@V?$_Tree_val@V?$_Tmap_traits@IPAVManagedItem@@U?$less@I@std@@V?$allocator@U?$pair@$$CBIPAVManagedItem@@@std@@@3@$0A@@std@@@std@@U_Iterator_base0@2@@std@@QAEAAV01@XZ ENDP ; std::_Tree_unchecked_const_iterator<std::_Tree_val<std::_Tmap_traits<unsigned int,ManagedItem *,std::less<unsigned int>,std::allocator<std::pair<unsigned int const ,ManagedItem *> >,0> >,std::_Iterator_base0>::operator++
_TEXT	ENDS
PUBLIC	?max_size@?$allocator@D@std@@QBEIXZ		; std::allocator<char>::max_size
; Function compile flags: /Ogtp
;	COMDAT ?max_size@?$allocator@D@std@@QBEIXZ
_TEXT	SEGMENT
?max_size@?$allocator@D@std@@QBEIXZ PROC		; std::allocator<char>::max_size, COMDAT
; _this$ = ecx
; File c:\program files (x86)\microsoft visual studio 10.0\vc\include\xmemory
; Line 219
	or	eax, -1
; Line 220
	ret	0
?max_size@?$allocator@D@std@@QBEIXZ ENDP		; std::allocator<char>::max_size
_TEXT	ENDS
PUBLIC	??$min@M@std@@YAABMABM0@Z			; std::min<float>
; Function compile flags: /Ogtp
;	COMDAT ??$min@M@std@@YAABMABM0@Z
_TEXT	SEGMENT
__Left$ = 8						; size = 4
__Right$ = 12						; size = 4
??$min@M@std@@YAABMABM0@Z PROC				; std::min<float>, COMDAT
; File c:\program files (x86)\microsoft visual studio 10.0\vc\include\xutility
; Line 2106
	push	ebp
	mov	ebp, esp
; Line 2107
	mov	ecx, DWORD PTR __Right$[ebp]
	fld	DWORD PTR [ecx]
	mov	edx, DWORD PTR __Left$[ebp]
	fld	DWORD PTR [edx]
	fcompp
	fnstsw	ax
	test	ah, 65					; 00000041H
	mov	eax, ecx
	je	SHORT $LN4@min
	mov	eax, edx
$LN4@min:
; Line 2108
	pop	ebp
	ret	0
??$min@M@std@@YAABMABM0@Z ENDP				; std::min<float>
_TEXT	ENDS
PUBLIC	??$addressof@U?$pair@$$CBIPAVManagedItem@@@std@@@std@@YAPAU?$pair@$$CBIPAVManagedItem@@@0@AAU10@@Z ; std::addressof<std::pair<unsigned int const ,ManagedItem *> >
; Function compile flags: /Ogtp
;	COMDAT ??$addressof@U?$pair@$$CBIPAVManagedItem@@@std@@@std@@YAPAU?$pair@$$CBIPAVManagedItem@@@0@AAU10@@Z
_TEXT	SEGMENT
__Val$ = 8						; size = 4
??$addressof@U?$pair@$$CBIPAVManagedItem@@@std@@@std@@YAPAU?$pair@$$CBIPAVManagedItem@@@0@AAU10@@Z PROC ; std::addressof<std::pair<unsigned int const ,ManagedItem *> >, COMDAT
; File c:\program files (x86)\microsoft visual studio 10.0\vc\include\xmemory
; Line 110
	push	ebp
	mov	ebp, esp
; Line 111
	mov	eax, DWORD PTR __Val$[ebp]
; Line 112
	pop	ebp
	ret	0
??$addressof@U?$pair@$$CBIPAVManagedItem@@@std@@@std@@YAPAU?$pair@$$CBIPAVManagedItem@@@0@AAU10@@Z ENDP ; std::addressof<std::pair<unsigned int const ,ManagedItem *> >
_TEXT	ENDS
PUBLIC	??$_Kfn@$$CBIPAVManagedItem@@@?$_Tmap_traits@IPAVManagedItem@@U?$less@I@std@@V?$allocator@U?$pair@$$CBIPAVManagedItem@@@std@@@3@$0A@@std@@SAABIABU?$pair@$$CBIPAVManagedItem@@@1@@Z ; std::_Tmap_traits<unsigned int,ManagedItem *,std::less<unsigned int>,std::allocator<std::pair<unsigned int const ,ManagedItem *> >,0>::_Kfn<unsigned int const ,ManagedItem *>
; Function compile flags: /Ogtp
;	COMDAT ??$_Kfn@$$CBIPAVManagedItem@@@?$_Tmap_traits@IPAVManagedItem@@U?$less@I@std@@V?$allocator@U?$pair@$$CBIPAVManagedItem@@@std@@@3@$0A@@std@@SAABIABU?$pair@$$CBIPAVManagedItem@@@1@@Z
_TEXT	SEGMENT
__Val$ = 8						; size = 4
??$_Kfn@$$CBIPAVManagedItem@@@?$_Tmap_traits@IPAVManagedItem@@U?$less@I@std@@V?$allocator@U?$pair@$$CBIPAVManagedItem@@@std@@@3@$0A@@std@@SAABIABU?$pair@$$CBIPAVManagedItem@@@1@@Z PROC ; std::_Tmap_traits<unsigned int,ManagedItem *,std::less<unsigned int>,std::allocator<std::pair<unsigned int const ,ManagedItem *> >,0>::_Kfn<unsigned int const ,ManagedItem *>, COMDAT
; File c:\program files (x86)\microsoft visual studio 10.0\vc\include\map
; Line 66
	push	ebp
	mov	ebp, esp
; Line 68
	mov	eax, DWORD PTR __Val$[ebp]
; Line 69
	pop	ebp
	ret	0
??$_Kfn@$$CBIPAVManagedItem@@@?$_Tmap_traits@IPAVManagedItem@@U?$less@I@std@@V?$allocator@U?$pair@$$CBIPAVManagedItem@@@std@@@3@$0A@@std@@SAABIABU?$pair@$$CBIPAVManagedItem@@@1@@Z ENDP ; std::_Tmap_traits<unsigned int,ManagedItem *,std::less<unsigned int>,std::allocator<std::pair<unsigned int const ,ManagedItem *> >,0>::_Kfn<unsigned int const ,ManagedItem *>
_TEXT	ENDS
PUBLIC	??$move@AAPAVManagedItem@@@std@@YA$$QAPAVManagedItem@@AAPAV1@@Z ; std::move<ManagedItem * &>
; Function compile flags: /Ogtp
;	COMDAT ??$move@AAPAVManagedItem@@@std@@YA$$QAPAVManagedItem@@AAPAV1@@Z
_TEXT	SEGMENT
__Arg$ = 8						; size = 4
??$move@AAPAVManagedItem@@@std@@YA$$QAPAVManagedItem@@AAPAV1@@Z PROC ; std::move<ManagedItem * &>, COMDAT
; File c:\program files (x86)\microsoft visual studio 10.0\vc\include\utility
; Line 86
	push	ebp
	mov	ebp, esp
; Line 87
	mov	eax, DWORD PTR __Arg$[ebp]
; Line 88
	pop	ebp
	ret	0
??$move@AAPAVManagedItem@@@std@@YA$$QAPAVManagedItem@@AAPAV1@@Z ENDP ; std::move<ManagedItem * &>
_TEXT	ENDS
PUBLIC	__TI2?AVbad_alloc@std@@
PUBLIC	??$_Allocate@D@std@@YAPADIPAD@Z			; std::_Allocate<char>
PUBLIC	__CTA2?AVbad_alloc@std@@
PUBLIC	__CT??_R0?AVbad_alloc@std@@@8??0bad_alloc@std@@QAE@ABV01@@Z12
PUBLIC	??0bad_alloc@std@@QAE@ABV01@@Z			; std::bad_alloc::bad_alloc
PUBLIC	__CT??_R0?AVexception@std@@@8??0exception@std@@QAE@ABV01@@Z12
EXTRN	??2@YAPAXI@Z:PROC				; operator new
EXTRN	__CxxThrowException@8:PROC
EXTRN	??0exception@std@@QAE@ABV01@@Z:PROC		; std::exception::exception
;	COMDAT __CT??_R0?AVexception@std@@@8??0exception@std@@QAE@ABV01@@Z12
; File c:\program files (x86)\microsoft visual studio 10.0\vc\include\exception
xdata$x	SEGMENT
__CT??_R0?AVexception@std@@@8??0exception@std@@QAE@ABV01@@Z12 DD 00H
	DD	FLAT:??_R0?AVexception@std@@@8
	DD	00H
	DD	0ffffffffH
	ORG $+4
	DD	0cH
	DD	FLAT:??0exception@std@@QAE@ABV01@@Z
xdata$x	ENDS
;	COMDAT __CT??_R0?AVbad_alloc@std@@@8??0bad_alloc@std@@QAE@ABV01@@Z12
xdata$x	SEGMENT
__CT??_R0?AVbad_alloc@std@@@8??0bad_alloc@std@@QAE@ABV01@@Z12 DD 00H
	DD	FLAT:??_R0?AVbad_alloc@std@@@8
	DD	00H
	DD	0ffffffffH
	ORG $+4
	DD	0cH
	DD	FLAT:??0bad_alloc@std@@QAE@ABV01@@Z
xdata$x	ENDS
;	COMDAT __CTA2?AVbad_alloc@std@@
xdata$x	SEGMENT
__CTA2?AVbad_alloc@std@@ DD 02H
	DD	FLAT:__CT??_R0?AVbad_alloc@std@@@8??0bad_alloc@std@@QAE@ABV01@@Z12
	DD	FLAT:__CT??_R0?AVexception@std@@@8??0exception@std@@QAE@ABV01@@Z12
xdata$x	ENDS
;	COMDAT __TI2?AVbad_alloc@std@@
xdata$x	SEGMENT
__TI2?AVbad_alloc@std@@ DD 00H
	DD	FLAT:??1bad_alloc@std@@UAE@XZ
	DD	00H
	DD	FLAT:__CTA2?AVbad_alloc@std@@
; Function compile flags: /Ogtp
xdata$x	ENDS
;	COMDAT ??$_Allocate@D@std@@YAPADIPAD@Z
_TEXT	SEGMENT
$T95463 = -12						; size = 12
$T95468 = 8						; size = 4
__Count$ = 8						; size = 4
___formal$ = 12						; size = 4
??$_Allocate@D@std@@YAPADIPAD@Z PROC			; std::_Allocate<char>, COMDAT
; File c:\program files (x86)\microsoft visual studio 10.0\vc\include\xmemory
; Line 30
	push	ebp
	mov	ebp, esp
; Line 33
	mov	ecx, DWORD PTR __Count$[ebp]
	sub	esp, 12					; 0000000cH
	xor	eax, eax
	test	ecx, ecx
; Line 35
	je	SHORT $LN5@Allocate
; Line 36
	cmp	ecx, -1
	ja	SHORT $LN1@Allocate
	push	ecx
	call	??2@YAPAXI@Z				; operator new
	add	esp, 4
	test	eax, eax
; Line 39
	jne	SHORT $LN5@Allocate
$LN1@Allocate:
; Line 37
	lea	eax, DWORD PTR $T95468[ebp]
	push	eax
	lea	ecx, DWORD PTR $T95463[ebp]
	mov	DWORD PTR $T95468[ebp], 0
	call	DWORD PTR __imp_??0exception@std@@QAE@ABQBD@Z
	push	OFFSET __TI2?AVbad_alloc@std@@
	lea	ecx, DWORD PTR $T95463[ebp]
	push	ecx
	mov	DWORD PTR $T95463[ebp], OFFSET ??_7bad_alloc@std@@6B@
	call	__CxxThrowException@8
$LN10@Allocate:
$LN5@Allocate:
; Line 40
	mov	esp, ebp
	pop	ebp
	ret	0
$LN9@Allocate:
??$_Allocate@D@std@@YAPADIPAD@Z ENDP			; std::_Allocate<char>
_TEXT	ENDS
EXTRN	__imp_??0exception@std@@QAE@ABV01@@Z:PROC
; Function compile flags: /Ogtp
;	COMDAT ??0bad_alloc@std@@QAE@ABV01@@Z
_TEXT	SEGMENT
___that$ = 8						; size = 4
??0bad_alloc@std@@QAE@ABV01@@Z PROC			; std::bad_alloc::bad_alloc, COMDAT
; _this$ = ecx
	push	ebp
	mov	ebp, esp
	mov	eax, DWORD PTR ___that$[ebp]
	push	esi
	push	eax
	mov	esi, ecx
	call	DWORD PTR __imp_??0exception@std@@QAE@ABV01@@Z
	mov	DWORD PTR [esi], OFFSET ??_7bad_alloc@std@@6B@
	mov	eax, esi
	pop	esi
	pop	ebp
	ret	4
??0bad_alloc@std@@QAE@ABV01@@Z ENDP			; std::bad_alloc::bad_alloc
_TEXT	ENDS
PUBLIC	?size@?$_Tree@V?$_Tmap_traits@IPAVManagedItem@@U?$less@I@std@@V?$allocator@U?$pair@$$CBIPAVManagedItem@@@std@@@3@$0A@@std@@@std@@QBEIXZ ; std::_Tree<std::_Tmap_traits<unsigned int,ManagedItem *,std::less<unsigned int>,std::allocator<std::pair<unsigned int const ,ManagedItem *> >,0> >::size
; Function compile flags: /Ogtp
;	COMDAT ?size@?$_Tree@V?$_Tmap_traits@IPAVManagedItem@@U?$less@I@std@@V?$allocator@U?$pair@$$CBIPAVManagedItem@@@std@@@3@$0A@@std@@@std@@QBEIXZ
_TEXT	SEGMENT
?size@?$_Tree@V?$_Tmap_traits@IPAVManagedItem@@U?$less@I@std@@V?$allocator@U?$pair@$$CBIPAVManagedItem@@@std@@@3@$0A@@std@@@std@@QBEIXZ PROC ; std::_Tree<std::_Tmap_traits<unsigned int,ManagedItem *,std::less<unsigned int>,std::allocator<std::pair<unsigned int const ,ManagedItem *> >,0> >::size, COMDAT
; _this$ = ecx
; File c:\program files (x86)\microsoft visual studio 10.0\vc\include\xtree
; Line 869
	mov	eax, DWORD PTR [ecx+8]
; Line 870
	ret	0
?size@?$_Tree@V?$_Tmap_traits@IPAVManagedItem@@U?$less@I@std@@V?$allocator@U?$pair@$$CBIPAVManagedItem@@@std@@@3@$0A@@std@@@std@@QBEIXZ ENDP ; std::_Tree<std::_Tmap_traits<unsigned int,ManagedItem *,std::less<unsigned int>,std::allocator<std::pair<unsigned int const ,ManagedItem *> >,0> >::size
_TEXT	ENDS
PUBLIC	??0?$_Tree_unchecked_const_iterator@V?$_Tree_val@V?$_Tmap_traits@IPAVManagedItem@@U?$less@I@std@@V?$allocator@U?$pair@$$CBIPAVManagedItem@@@std@@@3@$0A@@std@@@std@@U_Iterator_base0@2@@std@@QAE@XZ ; std::_Tree_unchecked_const_iterator<std::_Tree_val<std::_Tmap_traits<unsigned int,ManagedItem *,std::less<unsigned int>,std::allocator<std::pair<unsigned int const ,ManagedItem *> >,0> >,std::_Iterator_base0>::_Tree_unchecked_const_iterator<std::_Tree_val<std::_Tmap_traits<unsigned int,ManagedItem *,std::less<unsigned int>,std::allocator<std::pair<unsigned int const ,ManagedItem *> >,0> >,std::_Iterator_base0>
; Function compile flags: /Ogtp
;	COMDAT ??0?$_Tree_unchecked_const_iterator@V?$_Tree_val@V?$_Tmap_traits@IPAVManagedItem@@U?$less@I@std@@V?$allocator@U?$pair@$$CBIPAVManagedItem@@@std@@@3@$0A@@std@@@std@@U_Iterator_base0@2@@std@@QAE@XZ
_TEXT	SEGMENT
??0?$_Tree_unchecked_const_iterator@V?$_Tree_val@V?$_Tmap_traits@IPAVManagedItem@@U?$less@I@std@@V?$allocator@U?$pair@$$CBIPAVManagedItem@@@std@@@3@$0A@@std@@@std@@U_Iterator_base0@2@@std@@QAE@XZ PROC ; std::_Tree_unchecked_const_iterator<std::_Tree_val<std::_Tmap_traits<unsigned int,ManagedItem *,std::less<unsigned int>,std::allocator<std::pair<unsigned int const ,ManagedItem *> >,0> >,std::_Iterator_base0>::_Tree_unchecked_const_iterator<std::_Tree_val<std::_Tmap_traits<unsigned int,ManagedItem *,std::less<unsigned int>,std::allocator<std::pair<unsigned int const ,ManagedItem *> >,0> >,std::_Iterator_base0>, COMDAT
; _this$ = ecx
; Line 38
	mov	eax, ecx
	mov	DWORD PTR [eax], 0
; Line 39
	ret	0
??0?$_Tree_unchecked_const_iterator@V?$_Tree_val@V?$_Tmap_traits@IPAVManagedItem@@U?$less@I@std@@V?$allocator@U?$pair@$$CBIPAVManagedItem@@@std@@@3@$0A@@std@@@std@@U_Iterator_base0@2@@std@@QAE@XZ ENDP ; std::_Tree_unchecked_const_iterator<std::_Tree_val<std::_Tmap_traits<unsigned int,ManagedItem *,std::less<unsigned int>,std::allocator<std::pair<unsigned int const ,ManagedItem *> >,0> >,std::_Iterator_base0>::_Tree_unchecked_const_iterator<std::_Tree_val<std::_Tmap_traits<unsigned int,ManagedItem *,std::less<unsigned int>,std::allocator<std::pair<unsigned int const ,ManagedItem *> >,0> >,std::_Iterator_base0>
_TEXT	ENDS
PUBLIC	??F?$_Tree_unchecked_const_iterator@V?$_Tree_val@V?$_Tmap_traits@IPAVManagedItem@@U?$less@I@std@@V?$allocator@U?$pair@$$CBIPAVManagedItem@@@std@@@3@$0A@@std@@@std@@U_Iterator_base0@2@@std@@QAEAAV01@XZ ; std::_Tree_unchecked_const_iterator<std::_Tree_val<std::_Tmap_traits<unsigned int,ManagedItem *,std::less<unsigned int>,std::allocator<std::pair<unsigned int const ,ManagedItem *> >,0> >,std::_Iterator_base0>::operator--
; Function compile flags: /Ogtp
;	COMDAT ??F?$_Tree_unchecked_const_iterator@V?$_Tree_val@V?$_Tmap_traits@IPAVManagedItem@@U?$less@I@std@@V?$allocator@U?$pair@$$CBIPAVManagedItem@@@std@@@3@$0A@@std@@@std@@U_Iterator_base0@2@@std@@QAEAAV01@XZ
_TEXT	SEGMENT
??F?$_Tree_unchecked_const_iterator@V?$_Tree_val@V?$_Tmap_traits@IPAVManagedItem@@U?$less@I@std@@V?$allocator@U?$pair@$$CBIPAVManagedItem@@@std@@@3@$0A@@std@@@std@@U_Iterator_base0@2@@std@@QAEAAV01@XZ PROC ; std::_Tree_unchecked_const_iterator<std::_Tree_val<std::_Tmap_traits<unsigned int,ManagedItem *,std::less<unsigned int>,std::allocator<std::pair<unsigned int const ,ManagedItem *> >,0> >,std::_Iterator_base0>::operator--, COMDAT
; _this$ = ecx
; Line 83
	mov	eax, ecx
; Line 84
	mov	ecx, DWORD PTR [eax]
	cmp	BYTE PTR [ecx+21], 0
	je	SHORT $LN8@operator@2
; Line 85
	mov	ecx, DWORD PTR [ecx+8]
	mov	DWORD PTR [eax], ecx
; Line 101
	ret	0
$LN8@operator@2:
; Line 86
	mov	edx, DWORD PTR [ecx]
	cmp	BYTE PTR [edx+21], 0
	jne	SHORT $LN40@operator@2
; Line 88
	mov	ecx, DWORD PTR [edx+8]
	cmp	BYTE PTR [ecx+21], 0
	jne	SHORT $LN21@operator@2
$LL22@operator@2:
	mov	edx, ecx
	mov	ecx, DWORD PTR [edx+8]
	cmp	BYTE PTR [ecx+21], 0
	je	SHORT $LL22@operator@2
; Line 98
	mov	DWORD PTR [eax], edx
; Line 101
	ret	0
$LN40@operator@2:
; Line 93
	mov	edx, DWORD PTR [ecx+4]
	cmp	BYTE PTR [edx+21], 0
	jne	SHORT $LN3@operator@2
$LL4@operator@2:
	mov	ecx, DWORD PTR [eax]
	cmp	ecx, DWORD PTR [edx]
	jne	SHORT $LN3@operator@2
; Line 94
	mov	DWORD PTR [eax], edx
	mov	edx, DWORD PTR [edx+4]
	cmp	BYTE PTR [edx+21], 0
	je	SHORT $LL4@operator@2
$LN3@operator@2:
; Line 95
	mov	ecx, DWORD PTR [eax]
	cmp	BYTE PTR [ecx+21], 0
	jne	SHORT $LN1@operator@2
; Line 88
$LN21@operator@2:
; Line 98
	mov	DWORD PTR [eax], edx
$LN1@operator@2:
; Line 101
	ret	0
??F?$_Tree_unchecked_const_iterator@V?$_Tree_val@V?$_Tmap_traits@IPAVManagedItem@@U?$less@I@std@@V?$allocator@U?$pair@$$CBIPAVManagedItem@@@std@@@3@$0A@@std@@@std@@U_Iterator_base0@2@@std@@QAEAAV01@XZ ENDP ; std::_Tree_unchecked_const_iterator<std::_Tree_val<std::_Tmap_traits<unsigned int,ManagedItem *,std::less<unsigned int>,std::allocator<std::pair<unsigned int const ,ManagedItem *> >,0> >,std::_Iterator_base0>::operator--
_TEXT	ENDS
PUBLIC	?max_size@?$allocator@U?$pair@$$CBIPAVManagedItem@@@std@@@std@@QBEIXZ ; std::allocator<std::pair<unsigned int const ,ManagedItem *> >::max_size
; Function compile flags: /Ogtp
;	COMDAT ?max_size@?$allocator@U?$pair@$$CBIPAVManagedItem@@@std@@@std@@QBEIXZ
_TEXT	SEGMENT
?max_size@?$allocator@U?$pair@$$CBIPAVManagedItem@@@std@@@std@@QBEIXZ PROC ; std::allocator<std::pair<unsigned int const ,ManagedItem *> >::max_size, COMDAT
; _this$ = ecx
; File c:\program files (x86)\microsoft visual studio 10.0\vc\include\xmemory
; Line 219
	mov	eax, 536870911				; 1fffffffH
; Line 220
	ret	0
?max_size@?$allocator@U?$pair@$$CBIPAVManagedItem@@@std@@@std@@QBEIXZ ENDP ; std::allocator<std::pair<unsigned int const ,ManagedItem *> >::max_size
_TEXT	ENDS
PUBLIC	??$forward@U?$pair@$$CBIPAVManagedItem@@@std@@@std@@YA$$QAU?$pair@$$CBIPAVManagedItem@@@0@AAU10@@Z ; std::forward<std::pair<unsigned int const ,ManagedItem *> >
; Function compile flags: /Ogtp
;	COMDAT ??$forward@U?$pair@$$CBIPAVManagedItem@@@std@@@std@@YA$$QAU?$pair@$$CBIPAVManagedItem@@@0@AAU10@@Z
_TEXT	SEGMENT
__Arg$ = 8						; size = 4
??$forward@U?$pair@$$CBIPAVManagedItem@@@std@@@std@@YA$$QAU?$pair@$$CBIPAVManagedItem@@@0@AAU10@@Z PROC ; std::forward<std::pair<unsigned int const ,ManagedItem *> >, COMDAT
; File c:\program files (x86)\microsoft visual studio 10.0\vc\include\utility
; Line 78
	push	ebp
	mov	ebp, esp
; Line 79
	mov	eax, DWORD PTR __Arg$[ebp]
; Line 80
	pop	ebp
	ret	0
??$forward@U?$pair@$$CBIPAVManagedItem@@@std@@@std@@YA$$QAU?$pair@$$CBIPAVManagedItem@@@0@AAU10@@Z ENDP ; std::forward<std::pair<unsigned int const ,ManagedItem *> >
_TEXT	ENDS
PUBLIC	??$_Ptr_cat@PAVframe@@PAV1@@std@@YA?AU_Scalar_ptr_iterator_tag@0@PAPAVframe@@0@Z ; std::_Ptr_cat<frame *,frame *>
; Function compile flags: /Ogtp
;	COMDAT ??$_Ptr_cat@PAVframe@@PAV1@@std@@YA?AU_Scalar_ptr_iterator_tag@0@PAPAVframe@@0@Z
_TEXT	SEGMENT
__Cat$ = -1						; size = 1
___formal$ = 8						; size = 4
___formal$ = 12						; size = 4
??$_Ptr_cat@PAVframe@@PAV1@@std@@YA?AU_Scalar_ptr_iterator_tag@0@PAPAVframe@@0@Z PROC ; std::_Ptr_cat<frame *,frame *>, COMDAT
; File c:\program files (x86)\microsoft visual studio 10.0\vc\include\xutility
; Line 528
	push	ebp
	mov	ebp, esp
	push	ecx
; Line 530
	mov	al, BYTE PTR __Cat$[ebp]
; Line 531
	mov	esp, ebp
	pop	ebp
	ret	0
??$_Ptr_cat@PAVframe@@PAV1@@std@@YA?AU_Scalar_ptr_iterator_tag@0@PAPAVframe@@0@Z ENDP ; std::_Ptr_cat<frame *,frame *>
_TEXT	ENDS
PUBLIC	??$_Destroy_range@V?$allocator@PAVframe@@@std@@@std@@YAXPAPAVframe@@0AAV?$allocator@PAVframe@@@0@U_Scalar_ptr_iterator_tag@0@@Z ; std::_Destroy_range<std::allocator<frame *> >
; Function compile flags: /Ogtp
;	COMDAT ??$_Destroy_range@V?$allocator@PAVframe@@@std@@@std@@YAXPAPAVframe@@0AAV?$allocator@PAVframe@@@0@U_Scalar_ptr_iterator_tag@0@@Z
_TEXT	SEGMENT
__First$ = 8						; size = 4
__Last$ = 12						; size = 4
__Al$ = 16						; size = 4
___formal$ = 20						; size = 1
??$_Destroy_range@V?$allocator@PAVframe@@@std@@@std@@YAXPAPAVframe@@0AAV?$allocator@PAVframe@@@0@U_Scalar_ptr_iterator_tag@0@@Z PROC ; std::_Destroy_range<std::allocator<frame *> >, COMDAT
; File c:\program files (x86)\microsoft visual studio 10.0\vc\include\xmemory
; Line 105
	ret	0
??$_Destroy_range@V?$allocator@PAVframe@@@std@@@std@@YAXPAPAVframe@@0AAV?$allocator@PAVframe@@@0@U_Scalar_ptr_iterator_tag@0@@Z ENDP ; std::_Destroy_range<std::allocator<frame *> >
_TEXT	ENDS
PUBLIC	??$_Destroy@U?$pair@$$CBIPAVManagedItem@@@std@@@std@@YAXPAU?$pair@$$CBIPAVManagedItem@@@0@@Z ; std::_Destroy<std::pair<unsigned int const ,ManagedItem *> >
; Function compile flags: /Ogtp
;	COMDAT ??$_Destroy@U?$pair@$$CBIPAVManagedItem@@@std@@@std@@YAXPAU?$pair@$$CBIPAVManagedItem@@@0@@Z
_TEXT	SEGMENT
__Ptr$ = 8						; size = 4
??$_Destroy@U?$pair@$$CBIPAVManagedItem@@@std@@@std@@YAXPAU?$pair@$$CBIPAVManagedItem@@@0@@Z PROC ; std::_Destroy<std::pair<unsigned int const ,ManagedItem *> >, COMDAT
; Line 64
	ret	0
??$_Destroy@U?$pair@$$CBIPAVManagedItem@@@std@@@std@@YAXPAU?$pair@$$CBIPAVManagedItem@@@0@@Z ENDP ; std::_Destroy<std::pair<unsigned int const ,ManagedItem *> >
_TEXT	ENDS
PUBLIC	??$move@AA_N@std@@YA$$QA_NAA_N@Z		; std::move<bool &>
; Function compile flags: /Ogtp
;	COMDAT ??$move@AA_N@std@@YA$$QA_NAA_N@Z
_TEXT	SEGMENT
__Arg$ = 8						; size = 4
??$move@AA_N@std@@YA$$QA_NAA_N@Z PROC			; std::move<bool &>, COMDAT
; File c:\program files (x86)\microsoft visual studio 10.0\vc\include\utility
; Line 86
	push	ebp
	mov	ebp, esp
; Line 87
	mov	eax, DWORD PTR __Arg$[ebp]
; Line 88
	pop	ebp
	ret	0
??$move@AA_N@std@@YA$$QA_NAA_N@Z ENDP			; std::move<bool &>
_TEXT	ENDS
PUBLIC	??$move@AAV?$_Tree_iterator@V?$_Tree_val@V?$_Tmap_traits@IPAVManagedItem@@U?$less@I@std@@V?$allocator@U?$pair@$$CBIPAVManagedItem@@@std@@@3@$0A@@std@@@std@@@std@@@std@@YA$$QAV?$_Tree_iterator@V?$_Tree_val@V?$_Tmap_traits@IPAVManagedItem@@U?$less@I@std@@V?$allocator@U?$pair@$$CBIPAVManagedItem@@@std@@@3@$0A@@std@@@std@@@0@AAV10@@Z ; std::move<std::_Tree_iterator<std::_Tree_val<std::_Tmap_traits<unsigned int,ManagedItem *,std::less<unsigned int>,std::allocator<std::pair<unsigned int const ,ManagedItem *> >,0> > > &>
; Function compile flags: /Ogtp
;	COMDAT ??$move@AAV?$_Tree_iterator@V?$_Tree_val@V?$_Tmap_traits@IPAVManagedItem@@U?$less@I@std@@V?$allocator@U?$pair@$$CBIPAVManagedItem@@@std@@@3@$0A@@std@@@std@@@std@@@std@@YA$$QAV?$_Tree_iterator@V?$_Tree_val@V?$_Tmap_traits@IPAVManagedItem@@U?$less@I@std@@V?$allocator@U?$pair@$$CBIPAVManagedItem@@@std@@@3@$0A@@std@@@std@@@0@AAV10@@Z
_TEXT	SEGMENT
__Arg$ = 8						; size = 4
??$move@AAV?$_Tree_iterator@V?$_Tree_val@V?$_Tmap_traits@IPAVManagedItem@@U?$less@I@std@@V?$allocator@U?$pair@$$CBIPAVManagedItem@@@std@@@3@$0A@@std@@@std@@@std@@@std@@YA$$QAV?$_Tree_iterator@V?$_Tree_val@V?$_Tmap_traits@IPAVManagedItem@@U?$less@I@std@@V?$allocator@U?$pair@$$CBIPAVManagedItem@@@std@@@3@$0A@@std@@@std@@@0@AAV10@@Z PROC ; std::move<std::_Tree_iterator<std::_Tree_val<std::_Tmap_traits<unsigned int,ManagedItem *,std::less<unsigned int>,std::allocator<std::pair<unsigned int const ,ManagedItem *> >,0> > > &>, COMDAT
; Line 86
	push	ebp
	mov	ebp, esp
; Line 87
	mov	eax, DWORD PTR __Arg$[ebp]
; Line 88
	pop	ebp
	ret	0
??$move@AAV?$_Tree_iterator@V?$_Tree_val@V?$_Tmap_traits@IPAVManagedItem@@U?$less@I@std@@V?$allocator@U?$pair@$$CBIPAVManagedItem@@@std@@@3@$0A@@std@@@std@@@std@@@std@@YA$$QAV?$_Tree_iterator@V?$_Tree_val@V?$_Tmap_traits@IPAVManagedItem@@U?$less@I@std@@V?$allocator@U?$pair@$$CBIPAVManagedItem@@@std@@@3@$0A@@std@@@std@@@0@AAV10@@Z ENDP ; std::move<std::_Tree_iterator<std::_Tree_val<std::_Tmap_traits<unsigned int,ManagedItem *,std::less<unsigned int>,std::allocator<std::pair<unsigned int const ,ManagedItem *> >,0> > > &>
_TEXT	ENDS
PUBLIC	??$forward@_N@std@@YA$$QA_NAA_N@Z		; std::forward<bool>
; Function compile flags: /Ogtp
;	COMDAT ??$forward@_N@std@@YA$$QA_NAA_N@Z
_TEXT	SEGMENT
__Arg$ = 8						; size = 4
??$forward@_N@std@@YA$$QA_NAA_N@Z PROC			; std::forward<bool>, COMDAT
; Line 78
	push	ebp
	mov	ebp, esp
; Line 79
	mov	eax, DWORD PTR __Arg$[ebp]
; Line 80
	pop	ebp
	ret	0
??$forward@_N@std@@YA$$QA_NAA_N@Z ENDP			; std::forward<bool>
_TEXT	ENDS
PUBLIC	??$forward@AAV?$_Tree_iterator@V?$_Tree_val@V?$_Tmap_traits@IPAVManagedItem@@U?$less@I@std@@V?$allocator@U?$pair@$$CBIPAVManagedItem@@@std@@@3@$0A@@std@@@std@@@std@@@std@@YAAAV?$_Tree_iterator@V?$_Tree_val@V?$_Tmap_traits@IPAVManagedItem@@U?$less@I@std@@V?$allocator@U?$pair@$$CBIPAVManagedItem@@@std@@@3@$0A@@std@@@std@@@0@AAV10@@Z ; std::forward<std::_Tree_iterator<std::_Tree_val<std::_Tmap_traits<unsigned int,ManagedItem *,std::less<unsigned int>,std::allocator<std::pair<unsigned int const ,ManagedItem *> >,0> > > &>
; Function compile flags: /Ogtp
;	COMDAT ??$forward@AAV?$_Tree_iterator@V?$_Tree_val@V?$_Tmap_traits@IPAVManagedItem@@U?$less@I@std@@V?$allocator@U?$pair@$$CBIPAVManagedItem@@@std@@@3@$0A@@std@@@std@@@std@@@std@@YAAAV?$_Tree_iterator@V?$_Tree_val@V?$_Tmap_traits@IPAVManagedItem@@U?$less@I@std@@V?$allocator@U?$pair@$$CBIPAVManagedItem@@@std@@@3@$0A@@std@@@std@@@0@AAV10@@Z
_TEXT	SEGMENT
__Arg$ = 8						; size = 4
??$forward@AAV?$_Tree_iterator@V?$_Tree_val@V?$_Tmap_traits@IPAVManagedItem@@U?$less@I@std@@V?$allocator@U?$pair@$$CBIPAVManagedItem@@@std@@@3@$0A@@std@@@std@@@std@@@std@@YAAAV?$_Tree_iterator@V?$_Tree_val@V?$_Tmap_traits@IPAVManagedItem@@U?$less@I@std@@V?$allocator@U?$pair@$$CBIPAVManagedItem@@@std@@@3@$0A@@std@@@std@@@0@AAV10@@Z PROC ; std::forward<std::_Tree_iterator<std::_Tree_val<std::_Tmap_traits<unsigned int,ManagedItem *,std::less<unsigned int>,std::allocator<std::pair<unsigned int const ,ManagedItem *> >,0> > > &>, COMDAT
; Line 78
	push	ebp
	mov	ebp, esp
; Line 79
	mov	eax, DWORD PTR __Arg$[ebp]
; Line 80
	pop	ebp
	ret	0
??$forward@AAV?$_Tree_iterator@V?$_Tree_val@V?$_Tmap_traits@IPAVManagedItem@@U?$less@I@std@@V?$allocator@U?$pair@$$CBIPAVManagedItem@@@std@@@3@$0A@@std@@@std@@@std@@@std@@YAAAV?$_Tree_iterator@V?$_Tree_val@V?$_Tmap_traits@IPAVManagedItem@@U?$less@I@std@@V?$allocator@U?$pair@$$CBIPAVManagedItem@@@std@@@3@$0A@@std@@@std@@@0@AAV10@@Z ENDP ; std::forward<std::_Tree_iterator<std::_Tree_val<std::_Tmap_traits<unsigned int,ManagedItem *,std::less<unsigned int>,std::allocator<std::pair<unsigned int const ,ManagedItem *> >,0> > > &>
_TEXT	ENDS
PUBLIC	??$?0AAV?$_Tree_iterator@V?$_Tree_val@V?$_Tmap_traits@IPAVManagedItem@@U?$less@I@std@@V?$allocator@U?$pair@$$CBIPAVManagedItem@@@std@@@3@$0A@@std@@@std@@@std@@_N@?$_Pair_base@V?$_Tree_iterator@V?$_Tree_val@V?$_Tmap_traits@IPAVManagedItem@@U?$less@I@std@@V?$allocator@U?$pair@$$CBIPAVManagedItem@@@std@@@3@$0A@@std@@@std@@@std@@_N@std@@QAE@AAV?$_Tree_iterator@V?$_Tree_val@V?$_Tmap_traits@IPAVManagedItem@@U?$less@I@std@@V?$allocator@U?$pair@$$CBIPAVManagedItem@@@std@@@3@$0A@@std@@@std@@@1@$$QA_N@Z ; std::_Pair_base<std::_Tree_iterator<std::_Tree_val<std::_Tmap_traits<unsigned int,ManagedItem *,std::less<unsigned int>,std::allocator<std::pair<unsigned int const ,ManagedItem *> >,0> > >,bool>::_Pair_base<std::_Tree_iterator<std::_Tree_val<std::_Tmap_traits<unsigned int,ManagedItem *,std::less<unsigned int>,std::allocator<std::pair<unsigned int const ,ManagedItem *> >,0> > >,bool><std::_Tree_iterator<std::_Tree_val<std::_Tmap_traits<unsigned int,ManagedItem *,std::less<unsigned int>,std::allocator<std::pair<unsigned int const ,ManagedItem *> >,0> > > &,bool>
; Function compile flags: /Ogtp
;	COMDAT ??$?0AAV?$_Tree_iterator@V?$_Tree_val@V?$_Tmap_traits@IPAVManagedItem@@U?$less@I@std@@V?$allocator@U?$pair@$$CBIPAVManagedItem@@@std@@@3@$0A@@std@@@std@@@std@@_N@?$_Pair_base@V?$_Tree_iterator@V?$_Tree_val@V?$_Tmap_traits@IPAVManagedItem@@U?$less@I@std@@V?$allocator@U?$pair@$$CBIPAVManagedItem@@@std@@@3@$0A@@std@@@std@@@std@@_N@std@@QAE@AAV?$_Tree_iterator@V?$_Tree_val@V?$_Tmap_traits@IPAVManagedItem@@U?$less@I@std@@V?$allocator@U?$pair@$$CBIPAVManagedItem@@@std@@@3@$0A@@std@@@std@@@1@$$QA_N@Z
_TEXT	SEGMENT
__Val1$ = 8						; size = 4
__Val2$ = 12						; size = 4
??$?0AAV?$_Tree_iterator@V?$_Tree_val@V?$_Tmap_traits@IPAVManagedItem@@U?$less@I@std@@V?$allocator@U?$pair@$$CBIPAVManagedItem@@@std@@@3@$0A@@std@@@std@@@std@@_N@?$_Pair_base@V?$_Tree_iterator@V?$_Tree_val@V?$_Tmap_traits@IPAVManagedItem@@U?$less@I@std@@V?$allocator@U?$pair@$$CBIPAVManagedItem@@@std@@@3@$0A@@std@@@std@@@std@@_N@std@@QAE@AAV?$_Tree_iterator@V?$_Tree_val@V?$_Tmap_traits@IPAVManagedItem@@U?$less@I@std@@V?$allocator@U?$pair@$$CBIPAVManagedItem@@@std@@@3@$0A@@std@@@std@@@1@$$QA_N@Z PROC ; std::_Pair_base<std::_Tree_iterator<std::_Tree_val<std::_Tmap_traits<unsigned int,ManagedItem *,std::less<unsigned int>,std::allocator<std::pair<unsigned int const ,ManagedItem *> >,0> > >,bool>::_Pair_base<std::_Tree_iterator<std::_Tree_val<std::_Tmap_traits<unsigned int,ManagedItem *,std::less<unsigned int>,std::allocator<std::pair<unsigned int const ,ManagedItem *> >,0> > >,bool><std::_Tree_iterator<std::_Tree_val<std::_Tmap_traits<unsigned int,ManagedItem *,std::less<unsigned int>,std::allocator<std::pair<unsigned int const ,ManagedItem *> >,0> > > &,bool>, COMDAT
; _this$ = ecx
; Line 163
	push	ebp
	mov	ebp, esp
	mov	eax, ecx
	mov	ecx, DWORD PTR __Val1$[ebp]
	mov	edx, DWORD PTR [ecx]
	mov	ecx, DWORD PTR __Val2$[ebp]
	mov	DWORD PTR [eax], edx
	mov	dl, BYTE PTR [ecx]
	mov	BYTE PTR [eax+4], dl
; Line 164
	pop	ebp
	ret	8
??$?0AAV?$_Tree_iterator@V?$_Tree_val@V?$_Tmap_traits@IPAVManagedItem@@U?$less@I@std@@V?$allocator@U?$pair@$$CBIPAVManagedItem@@@std@@@3@$0A@@std@@@std@@@std@@_N@?$_Pair_base@V?$_Tree_iterator@V?$_Tree_val@V?$_Tmap_traits@IPAVManagedItem@@U?$less@I@std@@V?$allocator@U?$pair@$$CBIPAVManagedItem@@@std@@@3@$0A@@std@@@std@@@std@@_N@std@@QAE@AAV?$_Tree_iterator@V?$_Tree_val@V?$_Tmap_traits@IPAVManagedItem@@U?$less@I@std@@V?$allocator@U?$pair@$$CBIPAVManagedItem@@@std@@@3@$0A@@std@@@std@@@1@$$QA_N@Z ENDP ; std::_Pair_base<std::_Tree_iterator<std::_Tree_val<std::_Tmap_traits<unsigned int,ManagedItem *,std::less<unsigned int>,std::allocator<std::pair<unsigned int const ,ManagedItem *> >,0> > >,bool>::_Pair_base<std::_Tree_iterator<std::_Tree_val<std::_Tmap_traits<unsigned int,ManagedItem *,std::less<unsigned int>,std::allocator<std::pair<unsigned int const ,ManagedItem *> >,0> > >,bool><std::_Tree_iterator<std::_Tree_val<std::_Tmap_traits<unsigned int,ManagedItem *,std::less<unsigned int>,std::allocator<std::pair<unsigned int const ,ManagedItem *> >,0> > > &,bool>
_TEXT	ENDS
PUBLIC	??$_Allocate@U_Node@?$_Tree_nod@V?$_Tmap_traits@IPAVManagedItem@@U?$less@I@std@@V?$allocator@U?$pair@$$CBIPAVManagedItem@@@std@@@3@$0A@@std@@@std@@@std@@YAPAU_Node@?$_Tree_nod@V?$_Tmap_traits@IPAVManagedItem@@U?$less@I@std@@V?$allocator@U?$pair@$$CBIPAVManagedItem@@@std@@@3@$0A@@std@@@0@IPAU120@@Z ; std::_Allocate<std::_Tree_nod<std::_Tmap_traits<unsigned int,ManagedItem *,std::less<unsigned int>,std::allocator<std::pair<unsigned int const ,ManagedItem *> >,0> >::_Node>
; Function compile flags: /Ogtp
;	COMDAT ??$_Allocate@U_Node@?$_Tree_nod@V?$_Tmap_traits@IPAVManagedItem@@U?$less@I@std@@V?$allocator@U?$pair@$$CBIPAVManagedItem@@@std@@@3@$0A@@std@@@std@@@std@@YAPAU_Node@?$_Tree_nod@V?$_Tmap_traits@IPAVManagedItem@@U?$less@I@std@@V?$allocator@U?$pair@$$CBIPAVManagedItem@@@std@@@3@$0A@@std@@@0@IPAU120@@Z
_TEXT	SEGMENT
$T95571 = -12						; size = 12
$T95575 = 8						; size = 4
__Count$ = 8						; size = 4
___formal$ = 12						; size = 4
??$_Allocate@U_Node@?$_Tree_nod@V?$_Tmap_traits@IPAVManagedItem@@U?$less@I@std@@V?$allocator@U?$pair@$$CBIPAVManagedItem@@@std@@@3@$0A@@std@@@std@@@std@@YAPAU_Node@?$_Tree_nod@V?$_Tmap_traits@IPAVManagedItem@@U?$less@I@std@@V?$allocator@U?$pair@$$CBIPAVManagedItem@@@std@@@3@$0A@@std@@@0@IPAU120@@Z PROC ; std::_Allocate<std::_Tree_nod<std::_Tmap_traits<unsigned int,ManagedItem *,std::less<unsigned int>,std::allocator<std::pair<unsigned int const ,ManagedItem *> >,0> >::_Node>, COMDAT
; File c:\program files (x86)\microsoft visual studio 10.0\vc\include\xmemory
; Line 30
	push	ebp
	mov	ebp, esp
; Line 33
	mov	ecx, DWORD PTR __Count$[ebp]
	sub	esp, 12					; 0000000cH
	xor	eax, eax
	test	ecx, ecx
; Line 35
	je	SHORT $LN5@Allocate@2
; Line 36
	cmp	ecx, 178956970				; 0aaaaaaaH
	ja	SHORT $LN1@Allocate@2
	lea	eax, DWORD PTR [ecx+ecx*2]
	add	eax, eax
	add	eax, eax
	add	eax, eax
	push	eax
	call	??2@YAPAXI@Z				; operator new
	add	esp, 4
	test	eax, eax
; Line 39
	jne	SHORT $LN5@Allocate@2
$LN1@Allocate@2:
; Line 37
	lea	ecx, DWORD PTR $T95575[ebp]
	push	ecx
	lea	ecx, DWORD PTR $T95571[ebp]
	mov	DWORD PTR $T95575[ebp], 0
	call	DWORD PTR __imp_??0exception@std@@QAE@ABQBD@Z
	push	OFFSET __TI2?AVbad_alloc@std@@
	lea	edx, DWORD PTR $T95571[ebp]
	push	edx
	mov	DWORD PTR $T95571[ebp], OFFSET ??_7bad_alloc@std@@6B@
	call	__CxxThrowException@8
$LN10@Allocate@2:
$LN5@Allocate@2:
; Line 40
	mov	esp, ebp
	pop	ebp
	ret	0
$LN9@Allocate@2:
??$_Allocate@U_Node@?$_Tree_nod@V?$_Tmap_traits@IPAVManagedItem@@U?$less@I@std@@V?$allocator@U?$pair@$$CBIPAVManagedItem@@@std@@@3@$0A@@std@@@std@@@std@@YAPAU_Node@?$_Tree_nod@V?$_Tmap_traits@IPAVManagedItem@@U?$less@I@std@@V?$allocator@U?$pair@$$CBIPAVManagedItem@@@std@@@3@$0A@@std@@@0@IPAU120@@Z ENDP ; std::_Allocate<std::_Tree_nod<std::_Tmap_traits<unsigned int,ManagedItem *,std::less<unsigned int>,std::allocator<std::pair<unsigned int const ,ManagedItem *> >,0> >::_Node>
_TEXT	ENDS
PUBLIC	??$forward@PAVManagedItem@@@std@@YA$$QAPAVManagedItem@@AAPAV1@@Z ; std::forward<ManagedItem *>
; Function compile flags: /Ogtp
;	COMDAT ??$forward@PAVManagedItem@@@std@@YA$$QAPAVManagedItem@@AAPAV1@@Z
_TEXT	SEGMENT
__Arg$ = 8						; size = 4
??$forward@PAVManagedItem@@@std@@YA$$QAPAVManagedItem@@AAPAV1@@Z PROC ; std::forward<ManagedItem *>, COMDAT
; File c:\program files (x86)\microsoft visual studio 10.0\vc\include\utility
; Line 78
	push	ebp
	mov	ebp, esp
; Line 79
	mov	eax, DWORD PTR __Arg$[ebp]
; Line 80
	pop	ebp
	ret	0
??$forward@PAVManagedItem@@@std@@YA$$QAPAVManagedItem@@AAPAV1@@Z ENDP ; std::forward<ManagedItem *>
_TEXT	ENDS
PUBLIC	??$forward@$$CBI@std@@YA$$QBIABI@Z		; std::forward<unsigned int const >
; Function compile flags: /Ogtp
;	COMDAT ??$forward@$$CBI@std@@YA$$QBIABI@Z
_TEXT	SEGMENT
__Arg$ = 8						; size = 4
??$forward@$$CBI@std@@YA$$QBIABI@Z PROC			; std::forward<unsigned int const >, COMDAT
; Line 78
	push	ebp
	mov	ebp, esp
; Line 79
	mov	eax, DWORD PTR __Arg$[ebp]
; Line 80
	pop	ebp
	ret	0
??$forward@$$CBI@std@@YA$$QBIABI@Z ENDP			; std::forward<unsigned int const >
_TEXT	ENDS
PUBLIC	??$move@ABI@std@@YA$$QBIABI@Z			; std::move<unsigned int const &>
; Function compile flags: /Ogtp
;	COMDAT ??$move@ABI@std@@YA$$QBIABI@Z
_TEXT	SEGMENT
__Arg$ = 8						; size = 4
??$move@ABI@std@@YA$$QBIABI@Z PROC			; std::move<unsigned int const &>, COMDAT
; Line 86
	push	ebp
	mov	ebp, esp
; Line 87
	mov	eax, DWORD PTR __Arg$[ebp]
; Line 88
	pop	ebp
	ret	0
??$move@ABI@std@@YA$$QBIABI@Z ENDP			; std::move<unsigned int const &>
_TEXT	ENDS
PUBLIC	?c_str@?$basic_string@DU?$char_traits@D@std@@V?$allocator@D@2@@std@@QBEPBDXZ ; std::basic_string<char,std::char_traits<char>,std::allocator<char> >::c_str
; Function compile flags: /Ogtp
;	COMDAT ?c_str@?$basic_string@DU?$char_traits@D@std@@V?$allocator@D@2@@std@@QBEPBDXZ
_TEXT	SEGMENT
?c_str@?$basic_string@DU?$char_traits@D@std@@V?$allocator@D@2@@std@@QBEPBDXZ PROC ; std::basic_string<char,std::char_traits<char>,std::allocator<char> >::c_str, COMDAT
; _this$ = ecx
; File c:\program files (x86)\microsoft visual studio 10.0\vc\include\xstring
; Line 1495
	mov	eax, ecx
; Line 1496
	cmp	DWORD PTR [eax+20], 16			; 00000010H
	jb	SHORT $LN6@c_str
	mov	eax, DWORD PTR [eax]
$LN6@c_str:
; Line 1497
	ret	0
?c_str@?$basic_string@DU?$char_traits@D@std@@V?$allocator@D@2@@std@@QBEPBDXZ ENDP ; std::basic_string<char,std::char_traits<char>,std::allocator<char> >::c_str
_TEXT	ENDS
PUBLIC	??9?$_Tree_const_iterator@V?$_Tree_val@V?$_Tmap_traits@IPAVManagedItem@@U?$less@I@std@@V?$allocator@U?$pair@$$CBIPAVManagedItem@@@std@@@3@$0A@@std@@@std@@@std@@QBE_NABV01@@Z ; std::_Tree_const_iterator<std::_Tree_val<std::_Tmap_traits<unsigned int,ManagedItem *,std::less<unsigned int>,std::allocator<std::pair<unsigned int const ,ManagedItem *> >,0> > >::operator!=
; Function compile flags: /Ogtp
;	COMDAT ??9?$_Tree_const_iterator@V?$_Tree_val@V?$_Tmap_traits@IPAVManagedItem@@U?$less@I@std@@V?$allocator@U?$pair@$$CBIPAVManagedItem@@@std@@@3@$0A@@std@@@std@@@std@@QBE_NABV01@@Z
_TEXT	SEGMENT
__Right$ = 8						; size = 4
??9?$_Tree_const_iterator@V?$_Tree_val@V?$_Tmap_traits@IPAVManagedItem@@U?$less@I@std@@V?$allocator@U?$pair@$$CBIPAVManagedItem@@@std@@@3@$0A@@std@@@std@@@std@@QBE_NABV01@@Z PROC ; std::_Tree_const_iterator<std::_Tree_val<std::_Tmap_traits<unsigned int,ManagedItem *,std::less<unsigned int>,std::allocator<std::pair<unsigned int const ,ManagedItem *> >,0> > >::operator!=, COMDAT
; _this$ = ecx
; File c:\program files (x86)\microsoft visual studio 10.0\vc\include\xtree
; Line 334
	push	ebp
	mov	ebp, esp
; Line 335
	mov	eax, DWORD PTR [ecx]
	mov	edx, DWORD PTR __Right$[ebp]
	xor	ecx, ecx
	cmp	eax, DWORD PTR [edx]
	setne	al
; Line 336
	pop	ebp
	ret	4
??9?$_Tree_const_iterator@V?$_Tree_val@V?$_Tmap_traits@IPAVManagedItem@@U?$less@I@std@@V?$allocator@U?$pair@$$CBIPAVManagedItem@@@std@@@3@$0A@@std@@@std@@@std@@QBE_NABV01@@Z ENDP ; std::_Tree_const_iterator<std::_Tree_val<std::_Tmap_traits<unsigned int,ManagedItem *,std::less<unsigned int>,std::allocator<std::pair<unsigned int const ,ManagedItem *> >,0> > >::operator!=
_TEXT	ENDS
PUBLIC	??0?$_String_val@DV?$allocator@D@std@@@std@@QAE@V?$allocator@D@1@@Z ; std::_String_val<char,std::allocator<char> >::_String_val<char,std::allocator<char> >
; Function compile flags: /Ogtp
;	COMDAT ??0?$_String_val@DV?$allocator@D@std@@@std@@QAE@V?$allocator@D@1@@Z
_TEXT	SEGMENT
__Al$ = 8						; size = 1
??0?$_String_val@DV?$allocator@D@std@@@std@@QAE@V?$allocator@D@1@@Z PROC ; std::_String_val<char,std::allocator<char> >::_String_val<char,std::allocator<char> >, COMDAT
; _this$ = ecx
; File c:\program files (x86)\microsoft visual studio 10.0\vc\include\xstring
; Line 454
	mov	eax, ecx
; Line 455
	ret	4
??0?$_String_val@DV?$allocator@D@std@@@std@@QAE@V?$allocator@D@1@@Z ENDP ; std::_String_val<char,std::allocator<char> >::_String_val<char,std::allocator<char> >
_TEXT	ENDS
PUBLIC	?_Key@?$_Tree_val@V?$_Tmap_traits@IPAVManagedItem@@U?$less@I@std@@V?$allocator@U?$pair@$$CBIPAVManagedItem@@@std@@@3@$0A@@std@@@std@@SAAAIPAU_Node@?$_Tree_nod@V?$_Tmap_traits@IPAVManagedItem@@U?$less@I@std@@V?$allocator@U?$pair@$$CBIPAVManagedItem@@@std@@@3@$0A@@std@@@2@@Z ; std::_Tree_val<std::_Tmap_traits<unsigned int,ManagedItem *,std::less<unsigned int>,std::allocator<std::pair<unsigned int const ,ManagedItem *> >,0> >::_Key
; Function compile flags: /Ogtp
;	COMDAT ?_Key@?$_Tree_val@V?$_Tmap_traits@IPAVManagedItem@@U?$less@I@std@@V?$allocator@U?$pair@$$CBIPAVManagedItem@@@std@@@3@$0A@@std@@@std@@SAAAIPAU_Node@?$_Tree_nod@V?$_Tmap_traits@IPAVManagedItem@@U?$less@I@std@@V?$allocator@U?$pair@$$CBIPAVManagedItem@@@std@@@3@$0A@@std@@@2@@Z
_TEXT	SEGMENT
__Pnode$ = 8						; size = 4
?_Key@?$_Tree_val@V?$_Tmap_traits@IPAVManagedItem@@U?$less@I@std@@V?$allocator@U?$pair@$$CBIPAVManagedItem@@@std@@@3@$0A@@std@@@std@@SAAAIPAU_Node@?$_Tree_nod@V?$_Tmap_traits@IPAVManagedItem@@U?$less@I@std@@V?$allocator@U?$pair@$$CBIPAVManagedItem@@@std@@@3@$0A@@std@@@2@@Z PROC ; std::_Tree_val<std::_Tmap_traits<unsigned int,ManagedItem *,std::less<unsigned int>,std::allocator<std::pair<unsigned int const ,ManagedItem *> >,0> >::_Key, COMDAT
; File c:\program files (x86)\microsoft visual studio 10.0\vc\include\xtree
; Line 616
	push	ebp
	mov	ebp, esp
; Line 617
	mov	eax, DWORD PTR __Pnode$[ebp]
	add	eax, 12					; 0000000cH
; Line 618
	pop	ebp
	ret	0
?_Key@?$_Tree_val@V?$_Tmap_traits@IPAVManagedItem@@U?$less@I@std@@V?$allocator@U?$pair@$$CBIPAVManagedItem@@@std@@@3@$0A@@std@@@std@@SAAAIPAU_Node@?$_Tree_nod@V?$_Tmap_traits@IPAVManagedItem@@U?$less@I@std@@V?$allocator@U?$pair@$$CBIPAVManagedItem@@@std@@@3@$0A@@std@@@2@@Z ENDP ; std::_Tree_val<std::_Tmap_traits<unsigned int,ManagedItem *,std::less<unsigned int>,std::allocator<std::pair<unsigned int const ,ManagedItem *> >,0> >::_Key
_TEXT	ENDS
PUBLIC	??0?$_Vector_val@PAVframe@@V?$allocator@PAVframe@@@std@@@std@@QAE@V?$allocator@PAVframe@@@1@@Z ; std::_Vector_val<frame *,std::allocator<frame *> >::_Vector_val<frame *,std::allocator<frame *> >
; Function compile flags: /Ogtp
;	COMDAT ??0?$_Vector_val@PAVframe@@V?$allocator@PAVframe@@@std@@@std@@QAE@V?$allocator@PAVframe@@@1@@Z
_TEXT	SEGMENT
__Al$ = 8						; size = 1
??0?$_Vector_val@PAVframe@@V?$allocator@PAVframe@@@std@@@std@@QAE@V?$allocator@PAVframe@@@1@@Z PROC ; std::_Vector_val<frame *,std::allocator<frame *> >::_Vector_val<frame *,std::allocator<frame *> >, COMDAT
; _this$ = ecx
; File c:\program files (x86)\microsoft visual studio 10.0\vc\include\vector
; Line 426
	mov	eax, ecx
; Line 427
	xor	ecx, ecx
	mov	DWORD PTR [eax], ecx
; Line 428
	mov	DWORD PTR [eax+4], ecx
; Line 429
	mov	DWORD PTR [eax+8], ecx
; Line 430
	ret	4
??0?$_Vector_val@PAVframe@@V?$allocator@PAVframe@@@std@@@std@@QAE@V?$allocator@PAVframe@@@1@@Z ENDP ; std::_Vector_val<frame *,std::allocator<frame *> >::_Vector_val<frame *,std::allocator<frame *> >
_TEXT	ENDS
PUBLIC	??D?$_Tree_iterator@V?$_Tree_val@V?$_Tmap_traits@IPAVManagedItem@@U?$less@I@std@@V?$allocator@U?$pair@$$CBIPAVManagedItem@@@std@@@3@$0A@@std@@@std@@@std@@QBEAAU?$pair@$$CBIPAVManagedItem@@@1@XZ ; std::_Tree_iterator<std::_Tree_val<std::_Tmap_traits<unsigned int,ManagedItem *,std::less<unsigned int>,std::allocator<std::pair<unsigned int const ,ManagedItem *> >,0> > >::operator*
; Function compile flags: /Ogtp
;	COMDAT ??D?$_Tree_iterator@V?$_Tree_val@V?$_Tmap_traits@IPAVManagedItem@@U?$less@I@std@@V?$allocator@U?$pair@$$CBIPAVManagedItem@@@std@@@3@$0A@@std@@@std@@@std@@QBEAAU?$pair@$$CBIPAVManagedItem@@@1@XZ
_TEXT	SEGMENT
??D?$_Tree_iterator@V?$_Tree_val@V?$_Tmap_traits@IPAVManagedItem@@U?$less@I@std@@V?$allocator@U?$pair@$$CBIPAVManagedItem@@@std@@@3@$0A@@std@@@std@@@std@@QBEAAU?$pair@$$CBIPAVManagedItem@@@1@XZ PROC ; std::_Tree_iterator<std::_Tree_val<std::_Tmap_traits<unsigned int,ManagedItem *,std::less<unsigned int>,std::allocator<std::pair<unsigned int const ,ManagedItem *> >,0> > >::operator*, COMDAT
; _this$ = ecx
; File c:\program files (x86)\microsoft visual studio 10.0\vc\include\xtree
; Line 396
	mov	eax, DWORD PTR [ecx]
	add	eax, 12					; 0000000cH
; Line 397
	ret	0
??D?$_Tree_iterator@V?$_Tree_val@V?$_Tmap_traits@IPAVManagedItem@@U?$less@I@std@@V?$allocator@U?$pair@$$CBIPAVManagedItem@@@std@@@3@$0A@@std@@@std@@@std@@QBEAAU?$pair@$$CBIPAVManagedItem@@@1@XZ ENDP ; std::_Tree_iterator<std::_Tree_val<std::_Tmap_traits<unsigned int,ManagedItem *,std::less<unsigned int>,std::allocator<std::pair<unsigned int const ,ManagedItem *> >,0> > >::operator*
_TEXT	ENDS
PUBLIC	?_Eos@?$basic_string@DU?$char_traits@D@std@@V?$allocator@D@2@@std@@QAEXI@Z ; std::basic_string<char,std::char_traits<char>,std::allocator<char> >::_Eos
; Function compile flags: /Ogtp
;	COMDAT ?_Eos@?$basic_string@DU?$char_traits@D@std@@V?$allocator@D@2@@std@@QAEXI@Z
_TEXT	SEGMENT
__Newsize$ = 8						; size = 4
?_Eos@?$basic_string@DU?$char_traits@D@std@@V?$allocator@D@2@@std@@QAEXI@Z PROC ; std::basic_string<char,std::char_traits<char>,std::allocator<char> >::_Eos, COMDAT
; _this$ = ecx
; File c:\program files (x86)\microsoft visual studio 10.0\vc\include\xstring
; Line 1952
	push	ebp
	mov	ebp, esp
; Line 1953
	cmp	DWORD PTR [ecx+20], 16			; 00000010H
	mov	eax, DWORD PTR __Newsize$[ebp]
	mov	DWORD PTR [ecx+16], eax
	jb	SHORT $LN5@Eos
	mov	ecx, DWORD PTR [ecx]
$LN5@Eos:
	mov	BYTE PTR [ecx+eax], 0
; Line 1954
	pop	ebp
	ret	4
?_Eos@?$basic_string@DU?$char_traits@D@std@@V?$allocator@D@2@@std@@QAEXI@Z ENDP ; std::basic_string<char,std::char_traits<char>,std::allocator<char> >::_Eos
_TEXT	ENDS
PUBLIC	?_Lmost@?$_Tree@V?$_Tmap_traits@IPAVManagedItem@@U?$less@I@std@@V?$allocator@U?$pair@$$CBIPAVManagedItem@@@std@@@3@$0A@@std@@@std@@IBEAAPAU_Node@?$_Tree_nod@V?$_Tmap_traits@IPAVManagedItem@@U?$less@I@std@@V?$allocator@U?$pair@$$CBIPAVManagedItem@@@std@@@3@$0A@@std@@@2@XZ ; std::_Tree<std::_Tmap_traits<unsigned int,ManagedItem *,std::less<unsigned int>,std::allocator<std::pair<unsigned int const ,ManagedItem *> >,0> >::_Lmost
; Function compile flags: /Ogtp
;	COMDAT ?_Lmost@?$_Tree@V?$_Tmap_traits@IPAVManagedItem@@U?$less@I@std@@V?$allocator@U?$pair@$$CBIPAVManagedItem@@@std@@@3@$0A@@std@@@std@@IBEAAPAU_Node@?$_Tree_nod@V?$_Tmap_traits@IPAVManagedItem@@U?$less@I@std@@V?$allocator@U?$pair@$$CBIPAVManagedItem@@@std@@@3@$0A@@std@@@2@XZ
_TEXT	SEGMENT
?_Lmost@?$_Tree@V?$_Tmap_traits@IPAVManagedItem@@U?$less@I@std@@V?$allocator@U?$pair@$$CBIPAVManagedItem@@@std@@@3@$0A@@std@@@std@@IBEAAPAU_Node@?$_Tree_nod@V?$_Tmap_traits@IPAVManagedItem@@U?$less@I@std@@V?$allocator@U?$pair@$$CBIPAVManagedItem@@@std@@@3@$0A@@std@@@2@XZ PROC ; std::_Tree<std::_Tmap_traits<unsigned int,ManagedItem *,std::less<unsigned int>,std::allocator<std::pair<unsigned int const ,ManagedItem *> >,0> >::_Lmost, COMDAT
; _this$ = ecx
; File c:\program files (x86)\microsoft visual studio 10.0\vc\include\xtree
; Line 1759
	mov	eax, DWORD PTR [ecx+4]
; Line 1760
	ret	0
?_Lmost@?$_Tree@V?$_Tmap_traits@IPAVManagedItem@@U?$less@I@std@@V?$allocator@U?$pair@$$CBIPAVManagedItem@@@std@@@3@$0A@@std@@@std@@IBEAAPAU_Node@?$_Tree_nod@V?$_Tmap_traits@IPAVManagedItem@@U?$less@I@std@@V?$allocator@U?$pair@$$CBIPAVManagedItem@@@std@@@3@$0A@@std@@@2@XZ ENDP ; std::_Tree<std::_Tmap_traits<unsigned int,ManagedItem *,std::less<unsigned int>,std::allocator<std::pair<unsigned int const ,ManagedItem *> >,0> >::_Lmost
_TEXT	ENDS
PUBLIC	?_Rmost@?$_Tree@V?$_Tmap_traits@IPAVManagedItem@@U?$less@I@std@@V?$allocator@U?$pair@$$CBIPAVManagedItem@@@std@@@3@$0A@@std@@@std@@IBEAAPAU_Node@?$_Tree_nod@V?$_Tmap_traits@IPAVManagedItem@@U?$less@I@std@@V?$allocator@U?$pair@$$CBIPAVManagedItem@@@std@@@3@$0A@@std@@@2@XZ ; std::_Tree<std::_Tmap_traits<unsigned int,ManagedItem *,std::less<unsigned int>,std::allocator<std::pair<unsigned int const ,ManagedItem *> >,0> >::_Rmost
; Function compile flags: /Ogtp
;	COMDAT ?_Rmost@?$_Tree@V?$_Tmap_traits@IPAVManagedItem@@U?$less@I@std@@V?$allocator@U?$pair@$$CBIPAVManagedItem@@@std@@@3@$0A@@std@@@std@@IBEAAPAU_Node@?$_Tree_nod@V?$_Tmap_traits@IPAVManagedItem@@U?$less@I@std@@V?$allocator@U?$pair@$$CBIPAVManagedItem@@@std@@@3@$0A@@std@@@2@XZ
_TEXT	SEGMENT
?_Rmost@?$_Tree@V?$_Tmap_traits@IPAVManagedItem@@U?$less@I@std@@V?$allocator@U?$pair@$$CBIPAVManagedItem@@@std@@@3@$0A@@std@@@std@@IBEAAPAU_Node@?$_Tree_nod@V?$_Tmap_traits@IPAVManagedItem@@U?$less@I@std@@V?$allocator@U?$pair@$$CBIPAVManagedItem@@@std@@@3@$0A@@std@@@2@XZ PROC ; std::_Tree<std::_Tmap_traits<unsigned int,ManagedItem *,std::less<unsigned int>,std::allocator<std::pair<unsigned int const ,ManagedItem *> >,0> >::_Rmost, COMDAT
; _this$ = ecx
; Line 1784
	mov	eax, DWORD PTR [ecx+4]
	add	eax, 8
; Line 1785
	ret	0
?_Rmost@?$_Tree@V?$_Tmap_traits@IPAVManagedItem@@U?$less@I@std@@V?$allocator@U?$pair@$$CBIPAVManagedItem@@@std@@@3@$0A@@std@@@std@@IBEAAPAU_Node@?$_Tree_nod@V?$_Tmap_traits@IPAVManagedItem@@U?$less@I@std@@V?$allocator@U?$pair@$$CBIPAVManagedItem@@@std@@@3@$0A@@std@@@2@XZ ENDP ; std::_Tree<std::_Tmap_traits<unsigned int,ManagedItem *,std::less<unsigned int>,std::allocator<std::pair<unsigned int const ,ManagedItem *> >,0> >::_Rmost
_TEXT	ENDS
PUBLIC	?_Root@?$_Tree@V?$_Tmap_traits@IPAVManagedItem@@U?$less@I@std@@V?$allocator@U?$pair@$$CBIPAVManagedItem@@@std@@@3@$0A@@std@@@std@@IBEAAPAU_Node@?$_Tree_nod@V?$_Tmap_traits@IPAVManagedItem@@U?$less@I@std@@V?$allocator@U?$pair@$$CBIPAVManagedItem@@@std@@@3@$0A@@std@@@2@XZ ; std::_Tree<std::_Tmap_traits<unsigned int,ManagedItem *,std::less<unsigned int>,std::allocator<std::pair<unsigned int const ,ManagedItem *> >,0> >::_Root
; Function compile flags: /Ogtp
;	COMDAT ?_Root@?$_Tree@V?$_Tmap_traits@IPAVManagedItem@@U?$less@I@std@@V?$allocator@U?$pair@$$CBIPAVManagedItem@@@std@@@3@$0A@@std@@@std@@IBEAAPAU_Node@?$_Tree_nod@V?$_Tmap_traits@IPAVManagedItem@@U?$less@I@std@@V?$allocator@U?$pair@$$CBIPAVManagedItem@@@std@@@3@$0A@@std@@@2@XZ
_TEXT	SEGMENT
?_Root@?$_Tree@V?$_Tmap_traits@IPAVManagedItem@@U?$less@I@std@@V?$allocator@U?$pair@$$CBIPAVManagedItem@@@std@@@3@$0A@@std@@@std@@IBEAAPAU_Node@?$_Tree_nod@V?$_Tmap_traits@IPAVManagedItem@@U?$less@I@std@@V?$allocator@U?$pair@$$CBIPAVManagedItem@@@std@@@3@$0A@@std@@@2@XZ PROC ; std::_Tree<std::_Tmap_traits<unsigned int,ManagedItem *,std::less<unsigned int>,std::allocator<std::pair<unsigned int const ,ManagedItem *> >,0> >::_Root, COMDAT
; _this$ = ecx
; Line 1789
	mov	eax, DWORD PTR [ecx+4]
	add	eax, 4
; Line 1790
	ret	0
?_Root@?$_Tree@V?$_Tmap_traits@IPAVManagedItem@@U?$less@I@std@@V?$allocator@U?$pair@$$CBIPAVManagedItem@@@std@@@3@$0A@@std@@@std@@IBEAAPAU_Node@?$_Tree_nod@V?$_Tmap_traits@IPAVManagedItem@@U?$less@I@std@@V?$allocator@U?$pair@$$CBIPAVManagedItem@@@std@@@3@$0A@@std@@@2@XZ ENDP ; std::_Tree<std::_Tmap_traits<unsigned int,ManagedItem *,std::less<unsigned int>,std::allocator<std::pair<unsigned int const ,ManagedItem *> >,0> >::_Root
_TEXT	ENDS
PUBLIC	?_Rrotate@?$_Tree@V?$_Tmap_traits@IPAVManagedItem@@U?$less@I@std@@V?$allocator@U?$pair@$$CBIPAVManagedItem@@@std@@@3@$0A@@std@@@std@@IAEXPAU_Node@?$_Tree_nod@V?$_Tmap_traits@IPAVManagedItem@@U?$less@I@std@@V?$allocator@U?$pair@$$CBIPAVManagedItem@@@std@@@3@$0A@@std@@@2@@Z ; std::_Tree<std::_Tmap_traits<unsigned int,ManagedItem *,std::less<unsigned int>,std::allocator<std::pair<unsigned int const ,ManagedItem *> >,0> >::_Rrotate
; Function compile flags: /Ogtp
;	COMDAT ?_Rrotate@?$_Tree@V?$_Tmap_traits@IPAVManagedItem@@U?$less@I@std@@V?$allocator@U?$pair@$$CBIPAVManagedItem@@@std@@@3@$0A@@std@@@std@@IAEXPAU_Node@?$_Tree_nod@V?$_Tmap_traits@IPAVManagedItem@@U?$less@I@std@@V?$allocator@U?$pair@$$CBIPAVManagedItem@@@std@@@3@$0A@@std@@@2@@Z
_TEXT	SEGMENT
__Wherenode$ = 8					; size = 4
?_Rrotate@?$_Tree@V?$_Tmap_traits@IPAVManagedItem@@U?$less@I@std@@V?$allocator@U?$pair@$$CBIPAVManagedItem@@@std@@@3@$0A@@std@@@std@@IAEXPAU_Node@?$_Tree_nod@V?$_Tmap_traits@IPAVManagedItem@@U?$less@I@std@@V?$allocator@U?$pair@$$CBIPAVManagedItem@@@std@@@3@$0A@@std@@@2@@Z PROC ; std::_Tree<std::_Tmap_traits<unsigned int,ManagedItem *,std::less<unsigned int>,std::allocator<std::pair<unsigned int const ,ManagedItem *> >,0> >::_Rrotate, COMDAT
; _this$ = ecx
; Line 1793
	push	ebp
	mov	ebp, esp
; Line 1794
	mov	edx, DWORD PTR __Wherenode$[ebp]
	mov	eax, DWORD PTR [edx]
	push	esi
; Line 1795
	mov	esi, DWORD PTR [eax+8]
	mov	DWORD PTR [edx], esi
; Line 1797
	mov	esi, DWORD PTR [eax+8]
	cmp	BYTE PTR [esi+21], 0
	jne	SHORT $LN5@Rrotate
; Line 1798
	mov	DWORD PTR [esi+4], edx
$LN5@Rrotate:
; Line 1799
	mov	esi, DWORD PTR [edx+4]
	mov	DWORD PTR [eax+4], esi
; Line 1801
	mov	ecx, DWORD PTR [ecx+4]
	pop	esi
	cmp	edx, DWORD PTR [ecx+4]
	jne	SHORT $LN4@Rrotate
; Line 1802
	mov	DWORD PTR [ecx+4], eax
; Line 1808
	mov	DWORD PTR [eax+8], edx
; Line 1809
	mov	DWORD PTR [edx+4], eax
; Line 1810
	pop	ebp
	ret	4
$LN4@Rrotate:
; Line 1803
	mov	ecx, DWORD PTR [edx+4]
	cmp	edx, DWORD PTR [ecx+8]
	jne	SHORT $LN2@Rrotate
; Line 1804
	mov	DWORD PTR [ecx+8], eax
; Line 1808
	mov	DWORD PTR [eax+8], edx
; Line 1809
	mov	DWORD PTR [edx+4], eax
; Line 1810
	pop	ebp
	ret	4
$LN2@Rrotate:
; Line 1806
	mov	DWORD PTR [ecx], eax
; Line 1808
	mov	DWORD PTR [eax+8], edx
; Line 1809
	mov	DWORD PTR [edx+4], eax
; Line 1810
	pop	ebp
	ret	4
?_Rrotate@?$_Tree@V?$_Tmap_traits@IPAVManagedItem@@U?$less@I@std@@V?$allocator@U?$pair@$$CBIPAVManagedItem@@@std@@@3@$0A@@std@@@std@@IAEXPAU_Node@?$_Tree_nod@V?$_Tmap_traits@IPAVManagedItem@@U?$less@I@std@@V?$allocator@U?$pair@$$CBIPAVManagedItem@@@std@@@3@$0A@@std@@@2@@Z ENDP ; std::_Tree<std::_Tmap_traits<unsigned int,ManagedItem *,std::less<unsigned int>,std::allocator<std::pair<unsigned int const ,ManagedItem *> >,0> >::_Rrotate
_TEXT	ENDS
PUBLIC	??0?$_Tree_const_iterator@V?$_Tree_val@V?$_Tmap_traits@IPAVManagedItem@@U?$less@I@std@@V?$allocator@U?$pair@$$CBIPAVManagedItem@@@std@@@3@$0A@@std@@@std@@@std@@QAE@PAU_Node@?$_Tree_nod@V?$_Tmap_traits@IPAVManagedItem@@U?$less@I@std@@V?$allocator@U?$pair@$$CBIPAVManagedItem@@@std@@@3@$0A@@std@@@1@PBV?$_Tree_val@V?$_Tmap_traits@IPAVManagedItem@@U?$less@I@std@@V?$allocator@U?$pair@$$CBIPAVManagedItem@@@std@@@3@$0A@@std@@@1@@Z ; std::_Tree_const_iterator<std::_Tree_val<std::_Tmap_traits<unsigned int,ManagedItem *,std::less<unsigned int>,std::allocator<std::pair<unsigned int const ,ManagedItem *> >,0> > >::_Tree_const_iterator<std::_Tree_val<std::_Tmap_traits<unsigned int,ManagedItem *,std::less<unsigned int>,std::allocator<std::pair<unsigned int const ,ManagedItem *> >,0> > >
; Function compile flags: /Ogtp
;	COMDAT ??0?$_Tree_const_iterator@V?$_Tree_val@V?$_Tmap_traits@IPAVManagedItem@@U?$less@I@std@@V?$allocator@U?$pair@$$CBIPAVManagedItem@@@std@@@3@$0A@@std@@@std@@@std@@QAE@PAU_Node@?$_Tree_nod@V?$_Tmap_traits@IPAVManagedItem@@U?$less@I@std@@V?$allocator@U?$pair@$$CBIPAVManagedItem@@@std@@@3@$0A@@std@@@1@PBV?$_Tree_val@V?$_Tmap_traits@IPAVManagedItem@@U?$less@I@std@@V?$allocator@U?$pair@$$CBIPAVManagedItem@@@std@@@3@$0A@@std@@@1@@Z
_TEXT	SEGMENT
__Pnode$ = 8						; size = 4
__Plist$ = 12						; size = 4
??0?$_Tree_const_iterator@V?$_Tree_val@V?$_Tmap_traits@IPAVManagedItem@@U?$less@I@std@@V?$allocator@U?$pair@$$CBIPAVManagedItem@@@std@@@3@$0A@@std@@@std@@@std@@QAE@PAU_Node@?$_Tree_nod@V?$_Tmap_traits@IPAVManagedItem@@U?$less@I@std@@V?$allocator@U?$pair@$$CBIPAVManagedItem@@@std@@@3@$0A@@std@@@1@PBV?$_Tree_val@V?$_Tmap_traits@IPAVManagedItem@@U?$less@I@std@@V?$allocator@U?$pair@$$CBIPAVManagedItem@@@std@@@3@$0A@@std@@@1@@Z PROC ; std::_Tree_const_iterator<std::_Tree_val<std::_Tmap_traits<unsigned int,ManagedItem *,std::less<unsigned int>,std::allocator<std::pair<unsigned int const ,ManagedItem *> >,0> > >::_Tree_const_iterator<std::_Tree_val<std::_Tmap_traits<unsigned int,ManagedItem *,std::less<unsigned int>,std::allocator<std::pair<unsigned int const ,ManagedItem *> >,0> > >, COMDAT
; _this$ = ecx
; Line 213
	push	ebp
	mov	ebp, esp
	mov	eax, ecx
	mov	ecx, DWORD PTR __Pnode$[ebp]
	mov	DWORD PTR [eax], ecx
; Line 214
	pop	ebp
	ret	8
??0?$_Tree_const_iterator@V?$_Tree_val@V?$_Tmap_traits@IPAVManagedItem@@U?$less@I@std@@V?$allocator@U?$pair@$$CBIPAVManagedItem@@@std@@@3@$0A@@std@@@std@@@std@@QAE@PAU_Node@?$_Tree_nod@V?$_Tmap_traits@IPAVManagedItem@@U?$less@I@std@@V?$allocator@U?$pair@$$CBIPAVManagedItem@@@std@@@3@$0A@@std@@@1@PBV?$_Tree_val@V?$_Tmap_traits@IPAVManagedItem@@U?$less@I@std@@V?$allocator@U?$pair@$$CBIPAVManagedItem@@@std@@@3@$0A@@std@@@1@@Z ENDP ; std::_Tree_const_iterator<std::_Tree_val<std::_Tmap_traits<unsigned int,ManagedItem *,std::less<unsigned int>,std::allocator<std::pair<unsigned int const ,ManagedItem *> >,0> > >::_Tree_const_iterator<std::_Tree_val<std::_Tmap_traits<unsigned int,ManagedItem *,std::less<unsigned int>,std::allocator<std::pair<unsigned int const ,ManagedItem *> >,0> > >
_TEXT	ENDS
PUBLIC	??E?$_Tree_const_iterator@V?$_Tree_val@V?$_Tmap_traits@IPAVManagedItem@@U?$less@I@std@@V?$allocator@U?$pair@$$CBIPAVManagedItem@@@std@@@3@$0A@@std@@@std@@@std@@QAEAAV01@XZ ; std::_Tree_const_iterator<std::_Tree_val<std::_Tmap_traits<unsigned int,ManagedItem *,std::less<unsigned int>,std::allocator<std::pair<unsigned int const ,ManagedItem *> >,0> > >::operator++
; Function compile flags: /Ogtp
;	COMDAT ??E?$_Tree_const_iterator@V?$_Tree_val@V?$_Tmap_traits@IPAVManagedItem@@U?$less@I@std@@V?$allocator@U?$pair@$$CBIPAVManagedItem@@@std@@@3@$0A@@std@@@std@@@std@@QAEAAV01@XZ
_TEXT	SEGMENT
??E?$_Tree_const_iterator@V?$_Tree_val@V?$_Tmap_traits@IPAVManagedItem@@U?$less@I@std@@V?$allocator@U?$pair@$$CBIPAVManagedItem@@@std@@@3@$0A@@std@@@std@@@std@@QAEAAV01@XZ PROC ; std::_Tree_const_iterator<std::_Tree_val<std::_Tmap_traits<unsigned int,ManagedItem *,std::less<unsigned int>,std::allocator<std::pair<unsigned int const ,ManagedItem *> >,0> > >::operator++, COMDAT
; _this$ = ecx
; Line 250
	push	esi
	mov	esi, ecx
; Line 265
	call	??E?$_Tree_unchecked_const_iterator@V?$_Tree_val@V?$_Tmap_traits@IPAVManagedItem@@U?$less@I@std@@V?$allocator@U?$pair@$$CBIPAVManagedItem@@@std@@@3@$0A@@std@@@std@@U_Iterator_base0@2@@std@@QAEAAV01@XZ ; std::_Tree_unchecked_const_iterator<std::_Tree_val<std::_Tmap_traits<unsigned int,ManagedItem *,std::less<unsigned int>,std::allocator<std::pair<unsigned int const ,ManagedItem *> >,0> >,std::_Iterator_base0>::operator++
; Line 266
	mov	eax, esi
	pop	esi
; Line 267
	ret	0
??E?$_Tree_const_iterator@V?$_Tree_val@V?$_Tmap_traits@IPAVManagedItem@@U?$less@I@std@@V?$allocator@U?$pair@$$CBIPAVManagedItem@@@std@@@3@$0A@@std@@@std@@@std@@QAEAAV01@XZ ENDP ; std::_Tree_const_iterator<std::_Tree_val<std::_Tmap_traits<unsigned int,ManagedItem *,std::less<unsigned int>,std::allocator<std::pair<unsigned int const ,ManagedItem *> >,0> > >::operator++
_TEXT	ENDS
PUBLIC	??0?$_Pair_base@$$CBIPAVManagedItem@@@std@@QAE@ABI$$QAPAVManagedItem@@@Z ; std::_Pair_base<unsigned int const ,ManagedItem *>::_Pair_base<unsigned int const ,ManagedItem *>
; Function compile flags: /Ogtp
;	COMDAT ??0?$_Pair_base@$$CBIPAVManagedItem@@@std@@QAE@ABI$$QAPAVManagedItem@@@Z
_TEXT	SEGMENT
__Val1$ = 8						; size = 4
__Val2$ = 12						; size = 4
??0?$_Pair_base@$$CBIPAVManagedItem@@@std@@QAE@ABI$$QAPAVManagedItem@@@Z PROC ; std::_Pair_base<unsigned int const ,ManagedItem *>::_Pair_base<unsigned int const ,ManagedItem *>, COMDAT
; _this$ = ecx
; File c:\program files (x86)\microsoft visual studio 10.0\vc\include\utility
; Line 150
	push	ebp
	mov	ebp, esp
	mov	eax, ecx
	mov	ecx, DWORD PTR __Val1$[ebp]
	mov	edx, DWORD PTR [ecx]
	mov	ecx, DWORD PTR __Val2$[ebp]
	mov	DWORD PTR [eax], edx
	mov	edx, DWORD PTR [ecx]
	mov	DWORD PTR [eax+4], edx
; Line 151
	pop	ebp
	ret	8
??0?$_Pair_base@$$CBIPAVManagedItem@@@std@@QAE@ABI$$QAPAVManagedItem@@@Z ENDP ; std::_Pair_base<unsigned int const ,ManagedItem *>::_Pair_base<unsigned int const ,ManagedItem *>
_TEXT	ENDS
PUBLIC	?max_size@?$basic_string@DU?$char_traits@D@std@@V?$allocator@D@2@@std@@QBEIXZ ; std::basic_string<char,std::char_traits<char>,std::allocator<char> >::max_size
; Function compile flags: /Ogtp
;	COMDAT ?max_size@?$basic_string@DU?$char_traits@D@std@@V?$allocator@D@2@@std@@QBEIXZ
_TEXT	SEGMENT
?max_size@?$basic_string@DU?$char_traits@D@std@@V?$allocator@D@2@@std@@QBEIXZ PROC ; std::basic_string<char,std::char_traits<char>,std::allocator<char> >::max_size, COMDAT
; _this$ = ecx
; File c:\program files (x86)\microsoft visual studio 10.0\vc\include\xstring
; Line 1517
	mov	eax, -2					; fffffffeH
; Line 1518
	ret	0
?max_size@?$basic_string@DU?$char_traits@D@std@@V?$allocator@D@2@@std@@QBEIXZ ENDP ; std::basic_string<char,std::char_traits<char>,std::allocator<char> >::max_size
_TEXT	ENDS
PUBLIC	?allocate@?$allocator@D@std@@QAEPADI@Z		; std::allocator<char>::allocate
; Function compile flags: /Ogtp
;	COMDAT ?allocate@?$allocator@D@std@@QAEPADI@Z
_TEXT	SEGMENT
$T95779 = -12						; size = 12
$T95771 = 8						; size = 4
__Count$ = 8						; size = 4
?allocate@?$allocator@D@std@@QAEPADI@Z PROC		; std::allocator<char>::allocate, COMDAT
; _this$ = ecx
; File c:\program files (x86)\microsoft visual studio 10.0\vc\include\xmemory
; Line 186
	push	ebp
	mov	ebp, esp
; Line 187
	mov	ecx, DWORD PTR __Count$[ebp]
	sub	esp, 12					; 0000000cH
	xor	eax, eax
	test	ecx, ecx
	je	SHORT $LN1@allocate
	cmp	ecx, -1
	ja	SHORT $LN3@allocate
	push	ecx
	call	??2@YAPAXI@Z				; operator new
	add	esp, 4
	test	eax, eax
	jne	SHORT $LN1@allocate
$LN3@allocate:
	lea	eax, DWORD PTR $T95771[ebp]
	push	eax
	lea	ecx, DWORD PTR $T95779[ebp]
	mov	DWORD PTR $T95771[ebp], 0
	call	DWORD PTR __imp_??0exception@std@@QAE@ABQBD@Z
	push	OFFSET __TI2?AVbad_alloc@std@@
	lea	ecx, DWORD PTR $T95779[ebp]
	push	ecx
	mov	DWORD PTR $T95779[ebp], OFFSET ??_7bad_alloc@std@@6B@
	call	__CxxThrowException@8
$LN13@allocate:
$LN1@allocate:
; Line 188
	mov	esp, ebp
	pop	ebp
	ret	4
$LN12@allocate:
?allocate@?$allocator@D@std@@QAEPADI@Z ENDP		; std::allocator<char>::allocate
_TEXT	ENDS
PUBLIC	??$_Destroy_range@V?$allocator@PAVframe@@@std@@@std@@YAXPAPAVframe@@0AAV?$allocator@PAVframe@@@0@@Z ; std::_Destroy_range<std::allocator<frame *> >
; Function compile flags: /Ogtp
;	COMDAT ??$_Destroy_range@V?$allocator@PAVframe@@@std@@@std@@YAXPAPAVframe@@0AAV?$allocator@PAVframe@@@0@@Z
_TEXT	SEGMENT
__First$ = 8						; size = 4
__Last$ = 12						; size = 4
__Al$ = 16						; size = 4
??$_Destroy_range@V?$allocator@PAVframe@@@std@@@std@@YAXPAPAVframe@@0AAV?$allocator@PAVframe@@@0@@Z PROC ; std::_Destroy_range<std::allocator<frame *> >, COMDAT
; Line 89
	ret	0
??$_Destroy_range@V?$allocator@PAVframe@@@std@@@std@@YAXPAPAVframe@@0AAV?$allocator@PAVframe@@@0@@Z ENDP ; std::_Destroy_range<std::allocator<frame *> >
_TEXT	ENDS
PUBLIC	?destroy@?$allocator@U?$pair@$$CBIPAVManagedItem@@@std@@@std@@QAEXPAU?$pair@$$CBIPAVManagedItem@@@2@@Z ; std::allocator<std::pair<unsigned int const ,ManagedItem *> >::destroy
; Function compile flags: /Ogtp
;	COMDAT ?destroy@?$allocator@U?$pair@$$CBIPAVManagedItem@@@std@@@std@@QAEXPAU?$pair@$$CBIPAVManagedItem@@@2@@Z
_TEXT	SEGMENT
__Ptr$ = 8						; size = 4
?destroy@?$allocator@U?$pair@$$CBIPAVManagedItem@@@std@@@std@@QAEXPAU?$pair@$$CBIPAVManagedItem@@@2@@Z PROC ; std::allocator<std::pair<unsigned int const ,ManagedItem *> >::destroy, COMDAT
; _this$ = ecx
; Line 214
	ret	4
?destroy@?$allocator@U?$pair@$$CBIPAVManagedItem@@@std@@@std@@QAEXPAU?$pair@$$CBIPAVManagedItem@@@2@@Z ENDP ; std::allocator<std::pair<unsigned int const ,ManagedItem *> >::destroy
_TEXT	ENDS
PUBLIC	??0?$_Tree_const_iterator@V?$_Tree_val@V?$_Tmap_traits@IPAVManagedItem@@U?$less@I@std@@V?$allocator@U?$pair@$$CBIPAVManagedItem@@@std@@@3@$0A@@std@@@std@@@std@@QAE@XZ ; std::_Tree_const_iterator<std::_Tree_val<std::_Tmap_traits<unsigned int,ManagedItem *,std::less<unsigned int>,std::allocator<std::pair<unsigned int const ,ManagedItem *> >,0> > >::_Tree_const_iterator<std::_Tree_val<std::_Tmap_traits<unsigned int,ManagedItem *,std::less<unsigned int>,std::allocator<std::pair<unsigned int const ,ManagedItem *> >,0> > >
; Function compile flags: /Ogtp
;	COMDAT ??0?$_Tree_const_iterator@V?$_Tree_val@V?$_Tmap_traits@IPAVManagedItem@@U?$less@I@std@@V?$allocator@U?$pair@$$CBIPAVManagedItem@@@std@@@3@$0A@@std@@@std@@@std@@QAE@XZ
_TEXT	SEGMENT
??0?$_Tree_const_iterator@V?$_Tree_val@V?$_Tmap_traits@IPAVManagedItem@@U?$less@I@std@@V?$allocator@U?$pair@$$CBIPAVManagedItem@@@std@@@3@$0A@@std@@@std@@@std@@QAE@XZ PROC ; std::_Tree_const_iterator<std::_Tree_val<std::_Tmap_traits<unsigned int,ManagedItem *,std::less<unsigned int>,std::allocator<std::pair<unsigned int const ,ManagedItem *> >,0> > >::_Tree_const_iterator<std::_Tree_val<std::_Tmap_traits<unsigned int,ManagedItem *,std::less<unsigned int>,std::allocator<std::pair<unsigned int const ,ManagedItem *> >,0> > >, COMDAT
; _this$ = ecx
; File c:\program files (x86)\microsoft visual studio 10.0\vc\include\xtree
; Line 208
	mov	eax, ecx
	mov	DWORD PTR [eax], 0
; Line 209
	ret	0
??0?$_Tree_const_iterator@V?$_Tree_val@V?$_Tmap_traits@IPAVManagedItem@@U?$less@I@std@@V?$allocator@U?$pair@$$CBIPAVManagedItem@@@std@@@3@$0A@@std@@@std@@@std@@QAE@XZ ENDP ; std::_Tree_const_iterator<std::_Tree_val<std::_Tmap_traits<unsigned int,ManagedItem *,std::less<unsigned int>,std::allocator<std::pair<unsigned int const ,ManagedItem *> >,0> > >::_Tree_const_iterator<std::_Tree_val<std::_Tmap_traits<unsigned int,ManagedItem *,std::less<unsigned int>,std::allocator<std::pair<unsigned int const ,ManagedItem *> >,0> > >
_TEXT	ENDS
PUBLIC	??F?$_Tree_const_iterator@V?$_Tree_val@V?$_Tmap_traits@IPAVManagedItem@@U?$less@I@std@@V?$allocator@U?$pair@$$CBIPAVManagedItem@@@std@@@3@$0A@@std@@@std@@@std@@QAEAAV01@XZ ; std::_Tree_const_iterator<std::_Tree_val<std::_Tmap_traits<unsigned int,ManagedItem *,std::less<unsigned int>,std::allocator<std::pair<unsigned int const ,ManagedItem *> >,0> > >::operator--
; Function compile flags: /Ogtp
;	COMDAT ??F?$_Tree_const_iterator@V?$_Tree_val@V?$_Tmap_traits@IPAVManagedItem@@U?$less@I@std@@V?$allocator@U?$pair@$$CBIPAVManagedItem@@@std@@@3@$0A@@std@@@std@@@std@@QAEAAV01@XZ
_TEXT	SEGMENT
??F?$_Tree_const_iterator@V?$_Tree_val@V?$_Tmap_traits@IPAVManagedItem@@U?$less@I@std@@V?$allocator@U?$pair@$$CBIPAVManagedItem@@@std@@@3@$0A@@std@@@std@@@std@@QAEAAV01@XZ PROC ; std::_Tree_const_iterator<std::_Tree_val<std::_Tmap_traits<unsigned int,ManagedItem *,std::less<unsigned int>,std::allocator<std::pair<unsigned int const ,ManagedItem *> >,0> > >::operator--, COMDAT
; _this$ = ecx
; Line 277
	push	esi
	mov	esi, ecx
; Line 302
	call	??F?$_Tree_unchecked_const_iterator@V?$_Tree_val@V?$_Tmap_traits@IPAVManagedItem@@U?$less@I@std@@V?$allocator@U?$pair@$$CBIPAVManagedItem@@@std@@@3@$0A@@std@@@std@@U_Iterator_base0@2@@std@@QAEAAV01@XZ ; std::_Tree_unchecked_const_iterator<std::_Tree_val<std::_Tmap_traits<unsigned int,ManagedItem *,std::less<unsigned int>,std::allocator<std::pair<unsigned int const ,ManagedItem *> >,0> >,std::_Iterator_base0>::operator--
; Line 305
	mov	eax, esi
	pop	esi
; Line 306
	ret	0
??F?$_Tree_const_iterator@V?$_Tree_val@V?$_Tmap_traits@IPAVManagedItem@@U?$less@I@std@@V?$allocator@U?$pair@$$CBIPAVManagedItem@@@std@@@3@$0A@@std@@@std@@@std@@QAEAAV01@XZ ENDP ; std::_Tree_const_iterator<std::_Tree_val<std::_Tmap_traits<unsigned int,ManagedItem *,std::less<unsigned int>,std::allocator<std::pair<unsigned int const ,ManagedItem *> >,0> > >::operator--
_TEXT	ENDS
PUBLIC	?max_size@?$_Tree@V?$_Tmap_traits@IPAVManagedItem@@U?$less@I@std@@V?$allocator@U?$pair@$$CBIPAVManagedItem@@@std@@@3@$0A@@std@@@std@@QBEIXZ ; std::_Tree<std::_Tmap_traits<unsigned int,ManagedItem *,std::less<unsigned int>,std::allocator<std::pair<unsigned int const ,ManagedItem *> >,0> >::max_size
; Function compile flags: /Ogtp
;	COMDAT ?max_size@?$_Tree@V?$_Tmap_traits@IPAVManagedItem@@U?$less@I@std@@V?$allocator@U?$pair@$$CBIPAVManagedItem@@@std@@@3@$0A@@std@@@std@@QBEIXZ
_TEXT	SEGMENT
?max_size@?$_Tree@V?$_Tmap_traits@IPAVManagedItem@@U?$less@I@std@@V?$allocator@U?$pair@$$CBIPAVManagedItem@@@std@@@3@$0A@@std@@@std@@QBEIXZ PROC ; std::_Tree<std::_Tmap_traits<unsigned int,ManagedItem *,std::less<unsigned int>,std::allocator<std::pair<unsigned int const ,ManagedItem *> >,0> >::max_size, COMDAT
; _this$ = ecx
; Line 874
	mov	eax, 536870911				; 1fffffffH
; Line 875
	ret	0
?max_size@?$_Tree@V?$_Tmap_traits@IPAVManagedItem@@U?$less@I@std@@V?$allocator@U?$pair@$$CBIPAVManagedItem@@@std@@@3@$0A@@std@@@std@@QBEIXZ ENDP ; std::_Tree<std::_Tmap_traits<unsigned int,ManagedItem *,std::less<unsigned int>,std::allocator<std::pair<unsigned int const ,ManagedItem *> >,0> >::max_size
_TEXT	ENDS
PUBLIC	??F?$_Tree_iterator@V?$_Tree_val@V?$_Tmap_traits@IPAVManagedItem@@U?$less@I@std@@V?$allocator@U?$pair@$$CBIPAVManagedItem@@@std@@@3@$0A@@std@@@std@@@std@@QAEAAV01@XZ ; std::_Tree_iterator<std::_Tree_val<std::_Tmap_traits<unsigned int,ManagedItem *,std::less<unsigned int>,std::allocator<std::pair<unsigned int const ,ManagedItem *> >,0> > >::operator--
; Function compile flags: /Ogtp
;	COMDAT ??F?$_Tree_iterator@V?$_Tree_val@V?$_Tmap_traits@IPAVManagedItem@@U?$less@I@std@@V?$allocator@U?$pair@$$CBIPAVManagedItem@@@std@@@3@$0A@@std@@@std@@@std@@QAEAAV01@XZ
_TEXT	SEGMENT
??F?$_Tree_iterator@V?$_Tree_val@V?$_Tmap_traits@IPAVManagedItem@@U?$less@I@std@@V?$allocator@U?$pair@$$CBIPAVManagedItem@@@std@@@3@$0A@@std@@@std@@@std@@QAEAAV01@XZ PROC ; std::_Tree_iterator<std::_Tree_val<std::_Tmap_traits<unsigned int,ManagedItem *,std::less<unsigned int>,std::allocator<std::pair<unsigned int const ,ManagedItem *> >,0> > >::operator--, COMDAT
; _this$ = ecx
; Line 418
	push	esi
	mov	esi, ecx
; Line 419
	call	??F?$_Tree_unchecked_const_iterator@V?$_Tree_val@V?$_Tmap_traits@IPAVManagedItem@@U?$less@I@std@@V?$allocator@U?$pair@$$CBIPAVManagedItem@@@std@@@3@$0A@@std@@@std@@U_Iterator_base0@2@@std@@QAEAAV01@XZ ; std::_Tree_unchecked_const_iterator<std::_Tree_val<std::_Tmap_traits<unsigned int,ManagedItem *,std::less<unsigned int>,std::allocator<std::pair<unsigned int const ,ManagedItem *> >,0> >,std::_Iterator_base0>::operator--
; Line 420
	mov	eax, esi
	pop	esi
; Line 421
	ret	0
??F?$_Tree_iterator@V?$_Tree_val@V?$_Tmap_traits@IPAVManagedItem@@U?$less@I@std@@V?$allocator@U?$pair@$$CBIPAVManagedItem@@@std@@@3@$0A@@std@@@std@@@std@@QAEAAV01@XZ ENDP ; std::_Tree_iterator<std::_Tree_val<std::_Tmap_traits<unsigned int,ManagedItem *,std::less<unsigned int>,std::allocator<std::pair<unsigned int const ,ManagedItem *> >,0> > >::operator--
_TEXT	ENDS
PUBLIC	??0?$_Pair_base@V?$_Tree_iterator@V?$_Tree_val@V?$_Tmap_traits@IPAVManagedItem@@U?$less@I@std@@V?$allocator@U?$pair@$$CBIPAVManagedItem@@@std@@@3@$0A@@std@@@std@@@std@@_N@std@@QAE@$$QAV?$_Tree_iterator@V?$_Tree_val@V?$_Tmap_traits@IPAVManagedItem@@U?$less@I@std@@V?$allocator@U?$pair@$$CBIPAVManagedItem@@@std@@@3@$0A@@std@@@std@@@1@$$QA_N@Z ; std::_Pair_base<std::_Tree_iterator<std::_Tree_val<std::_Tmap_traits<unsigned int,ManagedItem *,std::less<unsigned int>,std::allocator<std::pair<unsigned int const ,ManagedItem *> >,0> > >,bool>::_Pair_base<std::_Tree_iterator<std::_Tree_val<std::_Tmap_traits<unsigned int,ManagedItem *,std::less<unsigned int>,std::allocator<std::pair<unsigned int const ,ManagedItem *> >,0> > >,bool>
; Function compile flags: /Ogtp
;	COMDAT ??0?$_Pair_base@V?$_Tree_iterator@V?$_Tree_val@V?$_Tmap_traits@IPAVManagedItem@@U?$less@I@std@@V?$allocator@U?$pair@$$CBIPAVManagedItem@@@std@@@3@$0A@@std@@@std@@@std@@_N@std@@QAE@$$QAV?$_Tree_iterator@V?$_Tree_val@V?$_Tmap_traits@IPAVManagedItem@@U?$less@I@std@@V?$allocator@U?$pair@$$CBIPAVManagedItem@@@std@@@3@$0A@@std@@@std@@@1@$$QA_N@Z
_TEXT	SEGMENT
__Val1$ = 8						; size = 4
__Val2$ = 12						; size = 4
??0?$_Pair_base@V?$_Tree_iterator@V?$_Tree_val@V?$_Tmap_traits@IPAVManagedItem@@U?$less@I@std@@V?$allocator@U?$pair@$$CBIPAVManagedItem@@@std@@@3@$0A@@std@@@std@@@std@@_N@std@@QAE@$$QAV?$_Tree_iterator@V?$_Tree_val@V?$_Tmap_traits@IPAVManagedItem@@U?$less@I@std@@V?$allocator@U?$pair@$$CBIPAVManagedItem@@@std@@@3@$0A@@std@@@std@@@1@$$QA_N@Z PROC ; std::_Pair_base<std::_Tree_iterator<std::_Tree_val<std::_Tmap_traits<unsigned int,ManagedItem *,std::less<unsigned int>,std::allocator<std::pair<unsigned int const ,ManagedItem *> >,0> > >,bool>::_Pair_base<std::_Tree_iterator<std::_Tree_val<std::_Tmap_traits<unsigned int,ManagedItem *,std::less<unsigned int>,std::allocator<std::pair<unsigned int const ,ManagedItem *> >,0> > >,bool>, COMDAT
; _this$ = ecx
; File c:\program files (x86)\microsoft visual studio 10.0\vc\include\utility
; Line 145
	push	ebp
	mov	ebp, esp
	mov	eax, ecx
	mov	ecx, DWORD PTR __Val1$[ebp]
	mov	edx, DWORD PTR [ecx]
	mov	ecx, DWORD PTR __Val2$[ebp]
	mov	DWORD PTR [eax], edx
	mov	dl, BYTE PTR [ecx]
	mov	BYTE PTR [eax+4], dl
; Line 146
	pop	ebp
	ret	8
??0?$_Pair_base@V?$_Tree_iterator@V?$_Tree_val@V?$_Tmap_traits@IPAVManagedItem@@U?$less@I@std@@V?$allocator@U?$pair@$$CBIPAVManagedItem@@@std@@@3@$0A@@std@@@std@@@std@@_N@std@@QAE@$$QAV?$_Tree_iterator@V?$_Tree_val@V?$_Tmap_traits@IPAVManagedItem@@U?$less@I@std@@V?$allocator@U?$pair@$$CBIPAVManagedItem@@@std@@@3@$0A@@std@@@std@@@1@$$QA_N@Z ENDP ; std::_Pair_base<std::_Tree_iterator<std::_Tree_val<std::_Tmap_traits<unsigned int,ManagedItem *,std::less<unsigned int>,std::allocator<std::pair<unsigned int const ,ManagedItem *> >,0> > >,bool>::_Pair_base<std::_Tree_iterator<std::_Tree_val<std::_Tmap_traits<unsigned int,ManagedItem *,std::less<unsigned int>,std::allocator<std::pair<unsigned int const ,ManagedItem *> >,0> > >,bool>
_TEXT	ENDS
PUBLIC	??$?0AAV?$_Tree_iterator@V?$_Tree_val@V?$_Tmap_traits@IPAVManagedItem@@U?$less@I@std@@V?$allocator@U?$pair@$$CBIPAVManagedItem@@@std@@@3@$0A@@std@@@std@@@std@@_N@?$pair@V?$_Tree_iterator@V?$_Tree_val@V?$_Tmap_traits@IPAVManagedItem@@U?$less@I@std@@V?$allocator@U?$pair@$$CBIPAVManagedItem@@@std@@@3@$0A@@std@@@std@@@std@@_N@std@@QAE@AAV?$_Tree_iterator@V?$_Tree_val@V?$_Tmap_traits@IPAVManagedItem@@U?$less@I@std@@V?$allocator@U?$pair@$$CBIPAVManagedItem@@@std@@@3@$0A@@std@@@std@@@1@$$QA_N@Z ; std::pair<std::_Tree_iterator<std::_Tree_val<std::_Tmap_traits<unsigned int,ManagedItem *,std::less<unsigned int>,std::allocator<std::pair<unsigned int const ,ManagedItem *> >,0> > >,bool>::pair<std::_Tree_iterator<std::_Tree_val<std::_Tmap_traits<unsigned int,ManagedItem *,std::less<unsigned int>,std::allocator<std::pair<unsigned int const ,ManagedItem *> >,0> > >,bool><std::_Tree_iterator<std::_Tree_val<std::_Tmap_traits<unsigned int,ManagedItem *,std::less<unsigned int>,std::allocator<std::pair<unsigned int const ,ManagedItem *> >,0> > > &,bool>
; Function compile flags: /Ogtp
;	COMDAT ??$?0AAV?$_Tree_iterator@V?$_Tree_val@V?$_Tmap_traits@IPAVManagedItem@@U?$less@I@std@@V?$allocator@U?$pair@$$CBIPAVManagedItem@@@std@@@3@$0A@@std@@@std@@@std@@_N@?$pair@V?$_Tree_iterator@V?$_Tree_val@V?$_Tmap_traits@IPAVManagedItem@@U?$less@I@std@@V?$allocator@U?$pair@$$CBIPAVManagedItem@@@std@@@3@$0A@@std@@@std@@@std@@_N@std@@QAE@AAV?$_Tree_iterator@V?$_Tree_val@V?$_Tmap_traits@IPAVManagedItem@@U?$less@I@std@@V?$allocator@U?$pair@$$CBIPAVManagedItem@@@std@@@3@$0A@@std@@@std@@@1@$$QA_N@Z
_TEXT	SEGMENT
__Val1$ = 8						; size = 4
__Val2$ = 12						; size = 4
??$?0AAV?$_Tree_iterator@V?$_Tree_val@V?$_Tmap_traits@IPAVManagedItem@@U?$less@I@std@@V?$allocator@U?$pair@$$CBIPAVManagedItem@@@std@@@3@$0A@@std@@@std@@@std@@_N@?$pair@V?$_Tree_iterator@V?$_Tree_val@V?$_Tmap_traits@IPAVManagedItem@@U?$less@I@std@@V?$allocator@U?$pair@$$CBIPAVManagedItem@@@std@@@3@$0A@@std@@@std@@@std@@_N@std@@QAE@AAV?$_Tree_iterator@V?$_Tree_val@V?$_Tmap_traits@IPAVManagedItem@@U?$less@I@std@@V?$allocator@U?$pair@$$CBIPAVManagedItem@@@std@@@3@$0A@@std@@@std@@@1@$$QA_N@Z PROC ; std::pair<std::_Tree_iterator<std::_Tree_val<std::_Tmap_traits<unsigned int,ManagedItem *,std::less<unsigned int>,std::allocator<std::pair<unsigned int const ,ManagedItem *> >,0> > >,bool>::pair<std::_Tree_iterator<std::_Tree_val<std::_Tmap_traits<unsigned int,ManagedItem *,std::less<unsigned int>,std::allocator<std::pair<unsigned int const ,ManagedItem *> >,0> > >,bool><std::_Tree_iterator<std::_Tree_val<std::_Tmap_traits<unsigned int,ManagedItem *,std::less<unsigned int>,std::allocator<std::pair<unsigned int const ,ManagedItem *> >,0> > > &,bool>, COMDAT
; _this$ = ecx
; Line 247
	push	ebp
	mov	ebp, esp
	mov	eax, ecx
	mov	ecx, DWORD PTR __Val1$[ebp]
	mov	edx, DWORD PTR [ecx]
	mov	ecx, DWORD PTR __Val2$[ebp]
	mov	DWORD PTR [eax], edx
	mov	dl, BYTE PTR [ecx]
	mov	BYTE PTR [eax+4], dl
; Line 248
	pop	ebp
	ret	8
??$?0AAV?$_Tree_iterator@V?$_Tree_val@V?$_Tmap_traits@IPAVManagedItem@@U?$less@I@std@@V?$allocator@U?$pair@$$CBIPAVManagedItem@@@std@@@3@$0A@@std@@@std@@@std@@_N@?$pair@V?$_Tree_iterator@V?$_Tree_val@V?$_Tmap_traits@IPAVManagedItem@@U?$less@I@std@@V?$allocator@U?$pair@$$CBIPAVManagedItem@@@std@@@3@$0A@@std@@@std@@@std@@_N@std@@QAE@AAV?$_Tree_iterator@V?$_Tree_val@V?$_Tmap_traits@IPAVManagedItem@@U?$less@I@std@@V?$allocator@U?$pair@$$CBIPAVManagedItem@@@std@@@3@$0A@@std@@@std@@@1@$$QA_N@Z ENDP ; std::pair<std::_Tree_iterator<std::_Tree_val<std::_Tmap_traits<unsigned int,ManagedItem *,std::less<unsigned int>,std::allocator<std::pair<unsigned int const ,ManagedItem *> >,0> > >,bool>::pair<std::_Tree_iterator<std::_Tree_val<std::_Tmap_traits<unsigned int,ManagedItem *,std::less<unsigned int>,std::allocator<std::pair<unsigned int const ,ManagedItem *> >,0> > >,bool><std::_Tree_iterator<std::_Tree_val<std::_Tmap_traits<unsigned int,ManagedItem *,std::less<unsigned int>,std::allocator<std::pair<unsigned int const ,ManagedItem *> >,0> > > &,bool>
_TEXT	ENDS
PUBLIC	?allocate@?$allocator@U_Node@?$_Tree_nod@V?$_Tmap_traits@IPAVManagedItem@@U?$less@I@std@@V?$allocator@U?$pair@$$CBIPAVManagedItem@@@std@@@3@$0A@@std@@@std@@@std@@QAEPAU_Node@?$_Tree_nod@V?$_Tmap_traits@IPAVManagedItem@@U?$less@I@std@@V?$allocator@U?$pair@$$CBIPAVManagedItem@@@std@@@3@$0A@@std@@@2@I@Z ; std::allocator<std::_Tree_nod<std::_Tmap_traits<unsigned int,ManagedItem *,std::less<unsigned int>,std::allocator<std::pair<unsigned int const ,ManagedItem *> >,0> >::_Node>::allocate
; Function compile flags: /Ogtp
;	COMDAT ?allocate@?$allocator@U_Node@?$_Tree_nod@V?$_Tmap_traits@IPAVManagedItem@@U?$less@I@std@@V?$allocator@U?$pair@$$CBIPAVManagedItem@@@std@@@3@$0A@@std@@@std@@@std@@QAEPAU_Node@?$_Tree_nod@V?$_Tmap_traits@IPAVManagedItem@@U?$less@I@std@@V?$allocator@U?$pair@$$CBIPAVManagedItem@@@std@@@3@$0A@@std@@@2@I@Z
_TEXT	SEGMENT
$T95874 = -12						; size = 12
$T95866 = 8						; size = 4
__Count$ = 8						; size = 4
?allocate@?$allocator@U_Node@?$_Tree_nod@V?$_Tmap_traits@IPAVManagedItem@@U?$less@I@std@@V?$allocator@U?$pair@$$CBIPAVManagedItem@@@std@@@3@$0A@@std@@@std@@@std@@QAEPAU_Node@?$_Tree_nod@V?$_Tmap_traits@IPAVManagedItem@@U?$less@I@std@@V?$allocator@U?$pair@$$CBIPAVManagedItem@@@std@@@3@$0A@@std@@@2@I@Z PROC ; std::allocator<std::_Tree_nod<std::_Tmap_traits<unsigned int,ManagedItem *,std::less<unsigned int>,std::allocator<std::pair<unsigned int const ,ManagedItem *> >,0> >::_Node>::allocate, COMDAT
; _this$ = ecx
; File c:\program files (x86)\microsoft visual studio 10.0\vc\include\xmemory
; Line 186
	push	ebp
	mov	ebp, esp
; Line 187
	mov	ecx, DWORD PTR __Count$[ebp]
	sub	esp, 12					; 0000000cH
	xor	eax, eax
	test	ecx, ecx
	je	SHORT $LN1@allocate@2
	cmp	ecx, 178956970				; 0aaaaaaaH
	ja	SHORT $LN3@allocate@2
	lea	eax, DWORD PTR [ecx+ecx*2]
	add	eax, eax
	add	eax, eax
	add	eax, eax
	push	eax
	call	??2@YAPAXI@Z				; operator new
	add	esp, 4
	test	eax, eax
	jne	SHORT $LN1@allocate@2
$LN3@allocate@2:
	lea	ecx, DWORD PTR $T95866[ebp]
	push	ecx
	lea	ecx, DWORD PTR $T95874[ebp]
	mov	DWORD PTR $T95866[ebp], 0
	call	DWORD PTR __imp_??0exception@std@@QAE@ABQBD@Z
	push	OFFSET __TI2?AVbad_alloc@std@@
	lea	edx, DWORD PTR $T95874[ebp]
	push	edx
	mov	DWORD PTR $T95874[ebp], OFFSET ??_7bad_alloc@std@@6B@
	call	__CxxThrowException@8
$LN13@allocate@2:
$LN1@allocate@2:
; Line 188
	mov	esp, ebp
	pop	ebp
	ret	4
$LN12@allocate@2:
?allocate@?$allocator@U_Node@?$_Tree_nod@V?$_Tmap_traits@IPAVManagedItem@@U?$less@I@std@@V?$allocator@U?$pair@$$CBIPAVManagedItem@@@std@@@3@$0A@@std@@@std@@@std@@QAEPAU_Node@?$_Tree_nod@V?$_Tmap_traits@IPAVManagedItem@@U?$less@I@std@@V?$allocator@U?$pair@$$CBIPAVManagedItem@@@std@@@3@$0A@@std@@@2@I@Z ENDP ; std::allocator<std::_Tree_nod<std::_Tmap_traits<unsigned int,ManagedItem *,std::less<unsigned int>,std::allocator<std::pair<unsigned int const ,ManagedItem *> >,0> >::_Node>::allocate
_TEXT	ENDS
PUBLIC	??0?$_Pair_base@$$CBIPAVManagedItem@@@std@@QAE@$$QBI$$QAPAVManagedItem@@@Z ; std::_Pair_base<unsigned int const ,ManagedItem *>::_Pair_base<unsigned int const ,ManagedItem *>
; Function compile flags: /Ogtp
;	COMDAT ??0?$_Pair_base@$$CBIPAVManagedItem@@@std@@QAE@$$QBI$$QAPAVManagedItem@@@Z
_TEXT	SEGMENT
__Val1$ = 8						; size = 4
__Val2$ = 12						; size = 4
??0?$_Pair_base@$$CBIPAVManagedItem@@@std@@QAE@$$QBI$$QAPAVManagedItem@@@Z PROC ; std::_Pair_base<unsigned int const ,ManagedItem *>::_Pair_base<unsigned int const ,ManagedItem *>, COMDAT
; _this$ = ecx
; File c:\program files (x86)\microsoft visual studio 10.0\vc\include\utility
; Line 145
	push	ebp
	mov	ebp, esp
	mov	eax, ecx
	mov	ecx, DWORD PTR __Val1$[ebp]
	mov	edx, DWORD PTR [ecx]
	mov	ecx, DWORD PTR __Val2$[ebp]
	mov	DWORD PTR [eax], edx
	mov	edx, DWORD PTR [ecx]
	mov	DWORD PTR [eax+4], edx
; Line 146
	pop	ebp
	ret	8
??0?$_Pair_base@$$CBIPAVManagedItem@@@std@@QAE@$$QBI$$QAPAVManagedItem@@@Z ENDP ; std::_Pair_base<unsigned int const ,ManagedItem *>::_Pair_base<unsigned int const ,ManagedItem *>
_TEXT	ENDS
PUBLIC	?returnName@nameEntry@@QAEPBDXZ			; nameEntry::returnName
; Function compile flags: /Ogtp
;	COMDAT ?returnName@nameEntry@@QAEPBDXZ
_TEXT	SEGMENT
?returnName@nameEntry@@QAEPBDXZ PROC			; nameEntry::returnName, COMDAT
; _this$ = ecx
; File c:\programovani\wow editor\test\src\editor\selection.h
; Line 51
	mov	eax, ecx
; Line 52
	cmp	DWORD PTR [eax+20], 16			; 00000010H
	jb	SHORT $LN8@returnName
	mov	eax, DWORD PTR [eax]
$LN8@returnName:
; Line 53
	ret	0
?returnName@nameEntry@@QAEPBDXZ ENDP			; nameEntry::returnName
_TEXT	ENDS
PUBLIC	??0?$vector@PAVframe@@V?$allocator@PAVframe@@@std@@@std@@QAE@XZ ; std::vector<frame *,std::allocator<frame *> >::vector<frame *,std::allocator<frame *> >
; Function compile flags: /Ogtp
;	COMDAT ??0?$vector@PAVframe@@V?$allocator@PAVframe@@@std@@@std@@QAE@XZ
_TEXT	SEGMENT
??0?$vector@PAVframe@@V?$allocator@PAVframe@@@std@@@std@@QAE@XZ PROC ; std::vector<frame *,std::allocator<frame *> >::vector<frame *,std::allocator<frame *> >, COMDAT
; _this$ = ecx
; File c:\program files (x86)\microsoft visual studio 10.0\vc\include\vector
; Line 507
	mov	eax, ecx
	xor	ecx, ecx
	mov	DWORD PTR [eax], ecx
	mov	DWORD PTR [eax+4], ecx
	mov	DWORD PTR [eax+8], ecx
; Line 508
	ret	0
??0?$vector@PAVframe@@V?$allocator@PAVframe@@@std@@@std@@QAE@XZ ENDP ; std::vector<frame *,std::allocator<frame *> >::vector<frame *,std::allocator<frame *> >
_TEXT	ENDS
PUBLIC	?_Tidy@?$basic_string@DU?$char_traits@D@std@@V?$allocator@D@2@@std@@QAEX_NI@Z ; std::basic_string<char,std::char_traits<char>,std::allocator<char> >::_Tidy
; Function compile flags: /Ogtp
;	COMDAT ?_Tidy@?$basic_string@DU?$char_traits@D@std@@V?$allocator@D@2@@std@@QAEX_NI@Z
_TEXT	SEGMENT
__Built$ = 8						; size = 1
__Newsize$ = 12						; size = 4
?_Tidy@?$basic_string@DU?$char_traits@D@std@@V?$allocator@D@2@@std@@QAEX_NI@Z PROC ; std::basic_string<char,std::char_traits<char>,std::allocator<char> >::_Tidy, COMDAT
; _this$ = ecx
; File c:\program files (x86)\microsoft visual studio 10.0\vc\include\xstring
; Line 1987
	push	ebp
	mov	ebp, esp
; Line 1988
	cmp	BYTE PTR __Built$[ebp], 0
	push	esi
	push	edi
	mov	edi, DWORD PTR __Newsize$[ebp]
	mov	esi, ecx
	je	SHORT $LN9@Tidy
; Line 1990
	cmp	DWORD PTR [esi+20], 16			; 00000010H
	jb	SHORT $LN9@Tidy
; Line 1992
	push	ebx
	mov	ebx, DWORD PTR [esi]
; Line 1993
	test	edi, edi
	je	SHORT $LN7@Tidy
; Line 1994
	push	edi
	push	ebx
	push	esi
	call	_memcpy
	add	esp, 12					; 0000000cH
$LN7@Tidy:
; Line 1995
	push	ebx
	call	??3@YAXPAX@Z				; operator delete
	add	esp, 4
	pop	ebx
$LN9@Tidy:
; Line 1998
	mov	DWORD PTR [esi+16], edi
	mov	DWORD PTR [esi+20], 15			; 0000000fH
	mov	BYTE PTR [edi+esi], 0
	pop	edi
	pop	esi
; Line 1999
	pop	ebp
	ret	8
?_Tidy@?$basic_string@DU?$char_traits@D@std@@V?$allocator@D@2@@std@@QAEX_NI@Z ENDP ; std::basic_string<char,std::char_traits<char>,std::allocator<char> >::_Tidy
_TEXT	ENDS
PUBLIC	??0?$_Tree_iterator@V?$_Tree_val@V?$_Tmap_traits@IPAVManagedItem@@U?$less@I@std@@V?$allocator@U?$pair@$$CBIPAVManagedItem@@@std@@@3@$0A@@std@@@std@@@std@@QAE@PAU_Node@?$_Tree_nod@V?$_Tmap_traits@IPAVManagedItem@@U?$less@I@std@@V?$allocator@U?$pair@$$CBIPAVManagedItem@@@std@@@3@$0A@@std@@@1@PBV?$_Tree_val@V?$_Tmap_traits@IPAVManagedItem@@U?$less@I@std@@V?$allocator@U?$pair@$$CBIPAVManagedItem@@@std@@@3@$0A@@std@@@1@@Z ; std::_Tree_iterator<std::_Tree_val<std::_Tmap_traits<unsigned int,ManagedItem *,std::less<unsigned int>,std::allocator<std::pair<unsigned int const ,ManagedItem *> >,0> > >::_Tree_iterator<std::_Tree_val<std::_Tmap_traits<unsigned int,ManagedItem *,std::less<unsigned int>,std::allocator<std::pair<unsigned int const ,ManagedItem *> >,0> > >
; Function compile flags: /Ogtp
;	COMDAT ??0?$_Tree_iterator@V?$_Tree_val@V?$_Tmap_traits@IPAVManagedItem@@U?$less@I@std@@V?$allocator@U?$pair@$$CBIPAVManagedItem@@@std@@@3@$0A@@std@@@std@@@std@@QAE@PAU_Node@?$_Tree_nod@V?$_Tmap_traits@IPAVManagedItem@@U?$less@I@std@@V?$allocator@U?$pair@$$CBIPAVManagedItem@@@std@@@3@$0A@@std@@@1@PBV?$_Tree_val@V?$_Tmap_traits@IPAVManagedItem@@U?$less@I@std@@V?$allocator@U?$pair@$$CBIPAVManagedItem@@@std@@@3@$0A@@std@@@1@@Z
_TEXT	SEGMENT
__Pnode$ = 8						; size = 4
__Plist$ = 12						; size = 4
??0?$_Tree_iterator@V?$_Tree_val@V?$_Tmap_traits@IPAVManagedItem@@U?$less@I@std@@V?$allocator@U?$pair@$$CBIPAVManagedItem@@@std@@@3@$0A@@std@@@std@@@std@@QAE@PAU_Node@?$_Tree_nod@V?$_Tmap_traits@IPAVManagedItem@@U?$less@I@std@@V?$allocator@U?$pair@$$CBIPAVManagedItem@@@std@@@3@$0A@@std@@@1@PBV?$_Tree_val@V?$_Tmap_traits@IPAVManagedItem@@U?$less@I@std@@V?$allocator@U?$pair@$$CBIPAVManagedItem@@@std@@@3@$0A@@std@@@1@@Z PROC ; std::_Tree_iterator<std::_Tree_val<std::_Tmap_traits<unsigned int,ManagedItem *,std::less<unsigned int>,std::allocator<std::pair<unsigned int const ,ManagedItem *> >,0> > >::_Tree_iterator<std::_Tree_val<std::_Tmap_traits<unsigned int,ManagedItem *,std::less<unsigned int>,std::allocator<std::pair<unsigned int const ,ManagedItem *> >,0> > >, COMDAT
; _this$ = ecx
; File c:\program files (x86)\microsoft visual studio 10.0\vc\include\xtree
; Line 378
	push	ebp
	mov	ebp, esp
	mov	eax, ecx
	mov	ecx, DWORD PTR __Pnode$[ebp]
	mov	DWORD PTR [eax], ecx
; Line 379
	pop	ebp
	ret	8
??0?$_Tree_iterator@V?$_Tree_val@V?$_Tmap_traits@IPAVManagedItem@@U?$less@I@std@@V?$allocator@U?$pair@$$CBIPAVManagedItem@@@std@@@3@$0A@@std@@@std@@@std@@QAE@PAU_Node@?$_Tree_nod@V?$_Tmap_traits@IPAVManagedItem@@U?$less@I@std@@V?$allocator@U?$pair@$$CBIPAVManagedItem@@@std@@@3@$0A@@std@@@1@PBV?$_Tree_val@V?$_Tmap_traits@IPAVManagedItem@@U?$less@I@std@@V?$allocator@U?$pair@$$CBIPAVManagedItem@@@std@@@3@$0A@@std@@@1@@Z ENDP ; std::_Tree_iterator<std::_Tree_val<std::_Tmap_traits<unsigned int,ManagedItem *,std::less<unsigned int>,std::allocator<std::pair<unsigned int const ,ManagedItem *> >,0> > >::_Tree_iterator<std::_Tree_val<std::_Tmap_traits<unsigned int,ManagedItem *,std::less<unsigned int>,std::allocator<std::pair<unsigned int const ,ManagedItem *> >,0> > >
_TEXT	ENDS
PUBLIC	??0?$pair@$$CBIPAVManagedItem@@@std@@QAE@ABI$$QAPAVManagedItem@@@Z ; std::pair<unsigned int const ,ManagedItem *>::pair<unsigned int const ,ManagedItem *>
; Function compile flags: /Ogtp
;	COMDAT ??0?$pair@$$CBIPAVManagedItem@@@std@@QAE@ABI$$QAPAVManagedItem@@@Z
_TEXT	SEGMENT
__Val1$ = 8						; size = 4
__Val2$ = 12						; size = 4
??0?$pair@$$CBIPAVManagedItem@@@std@@QAE@ABI$$QAPAVManagedItem@@@Z PROC ; std::pair<unsigned int const ,ManagedItem *>::pair<unsigned int const ,ManagedItem *>, COMDAT
; _this$ = ecx
; File c:\program files (x86)\microsoft visual studio 10.0\vc\include\utility
; Line 233
	push	ebp
	mov	ebp, esp
	mov	eax, ecx
	mov	ecx, DWORD PTR __Val1$[ebp]
	mov	edx, DWORD PTR [ecx]
	mov	ecx, DWORD PTR __Val2$[ebp]
	mov	DWORD PTR [eax], edx
	mov	edx, DWORD PTR [ecx]
	mov	DWORD PTR [eax+4], edx
; Line 234
	pop	ebp
	ret	8
??0?$pair@$$CBIPAVManagedItem@@@std@@QAE@ABI$$QAPAVManagedItem@@@Z ENDP ; std::pair<unsigned int const ,ManagedItem *>::pair<unsigned int const ,ManagedItem *>
_TEXT	ENDS
PUBLIC	?erase@?$basic_string@DU?$char_traits@D@std@@V?$allocator@D@2@@std@@QAEAAV12@II@Z ; std::basic_string<char,std::char_traits<char>,std::allocator<char> >::erase
; Function compile flags: /Ogtp
;	COMDAT ?erase@?$basic_string@DU?$char_traits@D@std@@V?$allocator@D@2@@std@@QAEAAV12@II@Z
_TEXT	SEGMENT
__Off$ = 8						; size = 4
__Count$ = 12						; size = 4
?erase@?$basic_string@DU?$char_traits@D@std@@V?$allocator@D@2@@std@@QAEAAV12@II@Z PROC ; std::basic_string<char,std::char_traits<char>,std::allocator<char> >::erase, COMDAT
; _this$ = ecx
; File c:\program files (x86)\microsoft visual studio 10.0\vc\include\xstring
; Line 1108
	push	ebp
	mov	ebp, esp
	push	esi
	mov	esi, ecx
; Line 1109
	mov	eax, DWORD PTR [esi+16]
	mov	ecx, DWORD PTR __Off$[ebp]
	push	edi
	cmp	eax, ecx
	jae	SHORT $LN3@erase
; Line 1110
	push	OFFSET ??_C@_0BI@CFPLBAOH@invalid?5string?5position?$AA@
	call	DWORD PTR __imp_?_Xout_of_range@std@@YAXPBD@Z
$LN28@erase:
$LN3@erase:
; Line 1111
	mov	edi, DWORD PTR __Count$[ebp]
	sub	eax, ecx
	cmp	eax, edi
	jae	SHORT $LN2@erase
; Line 1112
	mov	edi, eax
$LN2@erase:
; Line 1113
	test	edi, edi
	je	SHORT $LN25@erase
; Line 1116
	mov	edx, DWORD PTR [esi+20]
	push	ebx
	cmp	edx, 16					; 00000010H
	jb	SHORT $LN11@erase
	mov	ebx, DWORD PTR [esi]
	jmp	SHORT $LN12@erase
$LN11@erase:
	mov	ebx, esi
$LN12@erase:
	cmp	edx, 16					; 00000010H
	jb	SHORT $LN15@erase
	mov	edx, DWORD PTR [esi]
	jmp	SHORT $LN16@erase
$LN15@erase:
	mov	edx, esi
$LN16@erase:
	sub	eax, edi
	add	ebx, ecx
	push	eax
	add	ebx, edi
	add	edx, ecx
	push	ebx
	push	edx
	call	DWORD PTR __imp__memmove
; Line 1117
	mov	eax, DWORD PTR [esi+16]
	add	esp, 12					; 0000000cH
	sub	eax, edi
; Line 1118
	cmp	DWORD PTR [esi+20], 16			; 00000010H
	mov	DWORD PTR [esi+16], eax
	pop	ebx
	jb	SHORT $LN23@erase
	mov	ecx, DWORD PTR [esi]
	mov	BYTE PTR [ecx+eax], 0
	pop	edi
; Line 1120
	mov	eax, esi
	pop	esi
; Line 1121
	pop	ebp
	ret	8
; Line 1118
$LN23@erase:
	mov	ecx, esi
	mov	BYTE PTR [ecx+eax], 0
$LN25@erase:
; Line 1120
	pop	edi
	mov	eax, esi
	pop	esi
; Line 1121
	pop	ebp
	ret	8
$LN27@erase:
?erase@?$basic_string@DU?$char_traits@D@std@@V?$allocator@D@2@@std@@QAEAAV12@II@Z ENDP ; std::basic_string<char,std::char_traits<char>,std::allocator<char> >::erase
_TEXT	ENDS
PUBLIC	?_Lbound@?$_Tree@V?$_Tmap_traits@IPAVManagedItem@@U?$less@I@std@@V?$allocator@U?$pair@$$CBIPAVManagedItem@@@std@@@3@$0A@@std@@@std@@IAEPAU_Node@?$_Tree_nod@V?$_Tmap_traits@IPAVManagedItem@@U?$less@I@std@@V?$allocator@U?$pair@$$CBIPAVManagedItem@@@std@@@3@$0A@@std@@@2@ABI@Z ; std::_Tree<std::_Tmap_traits<unsigned int,ManagedItem *,std::less<unsigned int>,std::allocator<std::pair<unsigned int const ,ManagedItem *> >,0> >::_Lbound
; Function compile flags: /Ogtp
;	COMDAT ?_Lbound@?$_Tree@V?$_Tmap_traits@IPAVManagedItem@@U?$less@I@std@@V?$allocator@U?$pair@$$CBIPAVManagedItem@@@std@@@3@$0A@@std@@@std@@IAEPAU_Node@?$_Tree_nod@V?$_Tmap_traits@IPAVManagedItem@@U?$less@I@std@@V?$allocator@U?$pair@$$CBIPAVManagedItem@@@std@@@3@$0A@@std@@@2@ABI@Z
_TEXT	SEGMENT
__Keyval$ = 8						; size = 4
?_Lbound@?$_Tree@V?$_Tmap_traits@IPAVManagedItem@@U?$less@I@std@@V?$allocator@U?$pair@$$CBIPAVManagedItem@@@std@@@3@$0A@@std@@@std@@IAEPAU_Node@?$_Tree_nod@V?$_Tmap_traits@IPAVManagedItem@@U?$less@I@std@@V?$allocator@U?$pair@$$CBIPAVManagedItem@@@std@@@3@$0A@@std@@@2@ABI@Z PROC ; std::_Tree<std::_Tmap_traits<unsigned int,ManagedItem *,std::less<unsigned int>,std::allocator<std::pair<unsigned int const ,ManagedItem *> >,0> >::_Lbound, COMDAT
; _this$ = ecx
; File c:\program files (x86)\microsoft visual studio 10.0\vc\include\xtree
; Line 1741
	push	ebp
	mov	ebp, esp
; Line 1742
	mov	eax, DWORD PTR [ecx+4]
	mov	ecx, DWORD PTR [eax+4]
; Line 1745
	cmp	BYTE PTR [ecx+21], 0
	jne	SHORT $LN3@Lbound
	mov	edx, DWORD PTR __Keyval$[ebp]
	mov	edx, DWORD PTR [edx]
$LL4@Lbound:
; Line 1746
	cmp	DWORD PTR [ecx+12], edx
	jae	SHORT $LN2@Lbound
; Line 1747
	mov	ecx, DWORD PTR [ecx+8]
; Line 1748
	jmp	SHORT $LN1@Lbound
$LN2@Lbound:
; Line 1750
	mov	eax, ecx
; Line 1751
	mov	ecx, DWORD PTR [ecx]
$LN1@Lbound:
; Line 1745
	cmp	BYTE PTR [ecx+21], 0
	je	SHORT $LL4@Lbound
$LN3@Lbound:
; Line 1755
	pop	ebp
	ret	4
?_Lbound@?$_Tree@V?$_Tmap_traits@IPAVManagedItem@@U?$less@I@std@@V?$allocator@U?$pair@$$CBIPAVManagedItem@@@std@@@3@$0A@@std@@@std@@IAEPAU_Node@?$_Tree_nod@V?$_Tmap_traits@IPAVManagedItem@@U?$less@I@std@@V?$allocator@U?$pair@$$CBIPAVManagedItem@@@std@@@3@$0A@@std@@@2@ABI@Z ENDP ; std::_Tree<std::_Tmap_traits<unsigned int,ManagedItem *,std::less<unsigned int>,std::allocator<std::pair<unsigned int const ,ManagedItem *> >,0> >::_Lbound
_TEXT	ENDS
PUBLIC	?_Lrotate@?$_Tree@V?$_Tmap_traits@IPAVManagedItem@@U?$less@I@std@@V?$allocator@U?$pair@$$CBIPAVManagedItem@@@std@@@3@$0A@@std@@@std@@IAEXPAU_Node@?$_Tree_nod@V?$_Tmap_traits@IPAVManagedItem@@U?$less@I@std@@V?$allocator@U?$pair@$$CBIPAVManagedItem@@@std@@@3@$0A@@std@@@2@@Z ; std::_Tree<std::_Tmap_traits<unsigned int,ManagedItem *,std::less<unsigned int>,std::allocator<std::pair<unsigned int const ,ManagedItem *> >,0> >::_Lrotate
; Function compile flags: /Ogtp
;	COMDAT ?_Lrotate@?$_Tree@V?$_Tmap_traits@IPAVManagedItem@@U?$less@I@std@@V?$allocator@U?$pair@$$CBIPAVManagedItem@@@std@@@3@$0A@@std@@@std@@IAEXPAU_Node@?$_Tree_nod@V?$_Tmap_traits@IPAVManagedItem@@U?$less@I@std@@V?$allocator@U?$pair@$$CBIPAVManagedItem@@@std@@@3@$0A@@std@@@2@@Z
_TEXT	SEGMENT
__Wherenode$ = 8					; size = 4
?_Lrotate@?$_Tree@V?$_Tmap_traits@IPAVManagedItem@@U?$less@I@std@@V?$allocator@U?$pair@$$CBIPAVManagedItem@@@std@@@3@$0A@@std@@@std@@IAEXPAU_Node@?$_Tree_nod@V?$_Tmap_traits@IPAVManagedItem@@U?$less@I@std@@V?$allocator@U?$pair@$$CBIPAVManagedItem@@@std@@@3@$0A@@std@@@2@@Z PROC ; std::_Tree<std::_Tmap_traits<unsigned int,ManagedItem *,std::less<unsigned int>,std::allocator<std::pair<unsigned int const ,ManagedItem *> >,0> >::_Lrotate, COMDAT
; _this$ = ecx
; Line 1763
	push	ebp
	mov	ebp, esp
; Line 1764
	mov	edx, DWORD PTR __Wherenode$[ebp]
	mov	eax, DWORD PTR [edx+8]
	push	esi
; Line 1765
	mov	esi, DWORD PTR [eax]
	mov	DWORD PTR [edx+8], esi
; Line 1767
	mov	esi, DWORD PTR [eax]
	cmp	BYTE PTR [esi+21], 0
	jne	SHORT $LN5@Lrotate
; Line 1768
	mov	DWORD PTR [esi+4], edx
$LN5@Lrotate:
; Line 1769
	mov	esi, DWORD PTR [edx+4]
	mov	DWORD PTR [eax+4], esi
; Line 1771
	mov	ecx, DWORD PTR [ecx+4]
	pop	esi
	cmp	edx, DWORD PTR [ecx+4]
	jne	SHORT $LN4@Lrotate
; Line 1772
	mov	DWORD PTR [ecx+4], eax
; Line 1778
	mov	DWORD PTR [eax], edx
; Line 1779
	mov	DWORD PTR [edx+4], eax
; Line 1780
	pop	ebp
	ret	4
$LN4@Lrotate:
; Line 1773
	mov	ecx, DWORD PTR [edx+4]
	cmp	edx, DWORD PTR [ecx]
	jne	SHORT $LN2@Lrotate
; Line 1774
	mov	DWORD PTR [ecx], eax
; Line 1778
	mov	DWORD PTR [eax], edx
; Line 1779
	mov	DWORD PTR [edx+4], eax
; Line 1780
	pop	ebp
	ret	4
$LN2@Lrotate:
; Line 1776
	mov	DWORD PTR [ecx+8], eax
; Line 1778
	mov	DWORD PTR [eax], edx
; Line 1779
	mov	DWORD PTR [edx+4], eax
; Line 1780
	pop	ebp
	ret	4
?_Lrotate@?$_Tree@V?$_Tmap_traits@IPAVManagedItem@@U?$less@I@std@@V?$allocator@U?$pair@$$CBIPAVManagedItem@@@std@@@3@$0A@@std@@@std@@IAEXPAU_Node@?$_Tree_nod@V?$_Tmap_traits@IPAVManagedItem@@U?$less@I@std@@V?$allocator@U?$pair@$$CBIPAVManagedItem@@@std@@@3@$0A@@std@@@2@@Z ENDP ; std::_Tree<std::_Tmap_traits<unsigned int,ManagedItem *,std::less<unsigned int>,std::allocator<std::pair<unsigned int const ,ManagedItem *> >,0> >::_Lrotate
_TEXT	ENDS
PUBLIC	?_Destroy@?$vector@PAVframe@@V?$allocator@PAVframe@@@std@@@std@@IAEXPAPAVframe@@0@Z ; std::vector<frame *,std::allocator<frame *> >::_Destroy
; Function compile flags: /Ogtp
;	COMDAT ?_Destroy@?$vector@PAVframe@@V?$allocator@PAVframe@@@std@@@std@@IAEXPAPAVframe@@0@Z
_TEXT	SEGMENT
__First$ = 8						; size = 4
__Last$ = 12						; size = 4
?_Destroy@?$vector@PAVframe@@V?$allocator@PAVframe@@@std@@@std@@IAEXPAPAVframe@@0@Z PROC ; std::vector<frame *,std::allocator<frame *> >::_Destroy, COMDAT
; _this$ = ecx
; File c:\program files (x86)\microsoft visual studio 10.0\vc\include\vector
; Line 1271
	ret	8
?_Destroy@?$vector@PAVframe@@V?$allocator@PAVframe@@@std@@@std@@IAEXPAPAVframe@@0@Z ENDP ; std::vector<frame *,std::allocator<frame *> >::_Destroy
_TEXT	ENDS
PUBLIC	?_Copy@?$basic_string@DU?$char_traits@D@std@@V?$allocator@D@2@@std@@QAEXII@Z ; std::basic_string<char,std::char_traits<char>,std::allocator<char> >::_Copy
EXTRN	___security_cookie:DWORD
EXTRN	___CxxFrameHandler3:PROC
EXTRN	@__security_check_cookie@4:PROC
;	COMDAT xdata$x
; File c:\program files (x86)\microsoft visual studio 10.0\vc\include\iosfwd
xdata$x	SEGMENT
__catchsym$?_Copy@?$basic_string@DU?$char_traits@D@std@@V?$allocator@D@2@@std@@QAEXII@Z$5 DD 040H
	DD	00H
	DD	00H
	DD	FLAT:__catch$?_Copy@?$basic_string@DU?$char_traits@D@std@@V?$allocator@D@2@@std@@QAEXII@Z$0
__catchsym$?_Copy@?$basic_string@DU?$char_traits@D@std@@V?$allocator@D@2@@std@@QAEXII@Z$4 DD 040H
	DD	00H
	DD	00H
	DD	FLAT:__catch$?_Copy@?$basic_string@DU?$char_traits@D@std@@V?$allocator@D@2@@std@@QAEXII@Z$1
__unwindtable$?_Copy@?$basic_string@DU?$char_traits@D@std@@V?$allocator@D@2@@std@@QAEXII@Z DD 0ffffffffH
	DD	00H
	DD	0ffffffffH
	DD	00H
	DD	01H
	DD	00H
	DD	01H
	DD	00H
__ehfuncinfo$?_Copy@?$basic_string@DU?$char_traits@D@std@@V?$allocator@D@2@@std@@QAEXII@Z DD 019930522H
	DD	04H
	DD	FLAT:__unwindtable$?_Copy@?$basic_string@DU?$char_traits@D@std@@V?$allocator@D@2@@std@@QAEXII@Z
	DD	02H
	DD	FLAT:__tryblocktable$?_Copy@?$basic_string@DU?$char_traits@D@std@@V?$allocator@D@2@@std@@QAEXII@Z
	DD	2 DUP(00H)
	DD	00H
	DD	01H
__tryblocktable$?_Copy@?$basic_string@DU?$char_traits@D@std@@V?$allocator@D@2@@std@@QAEXII@Z DD 02H
	DD	02H
	DD	03H
	DD	01H
	DD	FLAT:__catchsym$?_Copy@?$basic_string@DU?$char_traits@D@std@@V?$allocator@D@2@@std@@QAEXII@Z$4
	DD	00H
	DD	00H
	DD	03H
	DD	01H
	DD	FLAT:__catchsym$?_Copy@?$basic_string@DU?$char_traits@D@std@@V?$allocator@D@2@@std@@QAEXII@Z$5
; Function compile flags: /Ogtp
xdata$x	ENDS
;	COMDAT ?_Copy@?$basic_string@DU?$char_traits@D@std@@V?$allocator@D@2@@std@@QAEXII@Z
_TEXT	SEGMENT
$T96245 = -40						; size = 12
__Newres$ = -28						; size = 4
$T96222 = -24						; size = 4
_this$ = -20						; size = 4
__$EHRec$ = -16						; size = 16
__Ptr$ = 8						; size = 4
__Newsize$ = 8						; size = 4
__Oldlen$ = 12						; size = 4
?_Copy@?$basic_string@DU?$char_traits@D@std@@V?$allocator@D@2@@std@@QAEXII@Z PROC ; std::basic_string<char,std::char_traits<char>,std::allocator<char> >::_Copy, COMDAT
; _this$ = ecx
; File c:\program files (x86)\microsoft visual studio 10.0\vc\include\xstring
; Line 1918
	push	ebp
	mov	ebp, esp
	push	-1
	push	__ehhandler$?_Copy@?$basic_string@DU?$char_traits@D@std@@V?$allocator@D@2@@std@@QAEXII@Z
	mov	eax, DWORD PTR fs:0
	push	eax
	sub	esp, 28					; 0000001cH
	push	ebx
	push	esi
	push	edi
	mov	eax, DWORD PTR ___security_cookie
	xor	eax, ebp
	push	eax
	lea	eax, DWORD PTR __$EHRec$[ebp+4]
	mov	DWORD PTR fs:0, eax
	mov	DWORD PTR __$EHRec$[ebp], esp
	mov	edi, ecx
	mov	DWORD PTR _this$[ebp], edi
; Line 1919
	mov	eax, DWORD PTR __Newsize$[ebp]
	mov	esi, eax
	or	esi, 15					; 0000000fH
; Line 1920
	cmp	esi, -2					; fffffffeH
	jbe	SHORT $LN9@Copy
; Line 1921
	mov	esi, eax
	jmp	SHORT $LN39@Copy
$LN9@Copy:
; Line 1922
	mov	ebx, DWORD PTR [edi+20]
	mov	eax, -1431655765			; aaaaaaabH
	mul	esi
	mov	ecx, ebx
	shr	ecx, 1
	shr	edx, 1
	cmp	ecx, edx
	jbe	SHORT $LN39@Copy
; Line 1924
	mov	eax, -2					; fffffffeH
	sub	eax, ecx
; Line 1926
	lea	esi, DWORD PTR [ecx+ebx]
	cmp	ebx, eax
	jbe	SHORT $LN39@Copy
; Line 1928
	mov	esi, -2					; fffffffeH
$LN39@Copy:
; Line 1931
	xor	eax, eax
; Line 1932
	lea	ecx, DWORD PTR [esi+1]
	mov	DWORD PTR __$EHRec$[ebp+12], eax
	cmp	ecx, eax
	jbe	SHORT $LN47@Copy
	cmp	ecx, -1
	ja	SHORT $LN46@Copy
	push	ecx
	call	??2@YAPAXI@Z				; operator new
	add	esp, 4
	test	eax, eax
	je	SHORT $LN46@Copy
$LN47@Copy:
	mov	DWORD PTR __Ptr$[ebp], eax
	jmp	SHORT $LN19@Copy
$LN46@Copy:
	lea	ecx, DWORD PTR $T96222[ebp]
	push	ecx
	lea	ecx, DWORD PTR $T96245[ebp]
	mov	DWORD PTR $T96222[ebp], 0
	call	DWORD PTR __imp_??0exception@std@@QAE@ABQBD@Z
	push	OFFSET __TI2?AVbad_alloc@std@@
	lea	edx, DWORD PTR $T96245[ebp]
	push	edx
	mov	DWORD PTR $T96245[ebp], OFFSET ??_7bad_alloc@std@@6B@
	call	__CxxThrowException@8
$LN112@Copy:
__catch$?_Copy@?$basic_string@DU?$char_traits@D@std@@V?$allocator@D@2@@std@@QAEXII@Z$0:
; Line 1934
	mov	eax, DWORD PTR __Newsize$[ebp]
; Line 1936
	mov	ecx, DWORD PTR _this$[ebp]
	mov	DWORD PTR __Newres$[ebp], eax
	inc	eax
	mov	DWORD PTR __$EHRec$[ebp], esp
	push	eax
	add	ecx, 24					; 00000018H
	mov	BYTE PTR __$EHRec$[ebp+12], 2
	call	?allocate@?$allocator@D@std@@QAEPADI@Z	; std::allocator<char>::allocate
	mov	DWORD PTR __Ptr$[ebp], eax
; Line 1941
	mov	eax, $LN107@Copy
	ret	0
$LN107@Copy:
	mov	edi, DWORD PTR _this$[ebp]
	mov	esi, DWORD PTR __Newres$[ebp]
$LN19@Copy:
; Line 1943
	mov	ebx, DWORD PTR __Oldlen$[ebp]
	test	ebx, ebx
	je	SHORT $LN78@Copy
; Line 1944
	cmp	DWORD PTR [edi+20], 16			; 00000010H
	jb	SHORT $LN76@Copy
	mov	eax, DWORD PTR [edi]
	jmp	SHORT $LN77@Copy
$LN76@Copy:
	mov	eax, edi
$LN77@Copy:
	push	ebx
	push	eax
	mov	eax, DWORD PTR __Ptr$[ebp]
	push	eax
	call	_memcpy
	add	esp, 12					; 0000000cH
$LN78@Copy:
; Line 1945
	cmp	DWORD PTR [edi+20], 16			; 00000010H
	jb	SHORT $LN88@Copy
	mov	ecx, DWORD PTR [edi]
	push	ecx
	call	??3@YAXPAX@Z				; operator delete
	add	esp, 4
$LN88@Copy:
; Line 1946
	mov	eax, DWORD PTR __Ptr$[ebp]
	mov	BYTE PTR [edi], 0
	mov	DWORD PTR [edi], eax
; Line 1947
	mov	DWORD PTR [edi+20], esi
; Line 1948
	mov	DWORD PTR [edi+16], ebx
	cmp	esi, 16					; 00000010H
	jb	SHORT $LN102@Copy
	mov	edi, eax
$LN102@Copy:
	mov	BYTE PTR [edi+ebx], 0
; Line 1949
	mov	ecx, DWORD PTR __$EHRec$[ebp+4]
	mov	DWORD PTR fs:0, ecx
	pop	ecx
	pop	edi
	pop	esi
	pop	ebx
	mov	esp, ebp
	pop	ebp
	ret	8
__catch$?_Copy@?$basic_string@DU?$char_traits@D@std@@V?$allocator@D@2@@std@@QAEXII@Z$1:
; Line 1938
	mov	esi, DWORD PTR _this$[ebp]
	cmp	DWORD PTR [esi+20], 16			; 00000010H
	jb	SHORT $LN64@Copy
	mov	edx, DWORD PTR [esi]
	push	edx
	call	??3@YAXPAX@Z				; operator delete
	add	esp, 4
$LN64@Copy:
; Line 1939
	push	0
	mov	DWORD PTR [esi+20], 15			; 0000000fH
	mov	DWORD PTR [esi+16], 0
	push	0
	mov	BYTE PTR [esi], 0
	call	__CxxThrowException@8
$LN113@Copy:
$LN111@Copy:
	int	3
_TEXT	ENDS
;	COMDAT text$x
text$x	SEGMENT
__ehhandler$?_Copy@?$basic_string@DU?$char_traits@D@std@@V?$allocator@D@2@@std@@QAEXII@Z:
	mov	edx, DWORD PTR [esp+8]
	lea	eax, DWORD PTR [edx+12]
	mov	ecx, DWORD PTR [edx-44]
	xor	ecx, eax
	call	@__security_check_cookie@4
	mov	eax, OFFSET __ehfuncinfo$?_Copy@?$basic_string@DU?$char_traits@D@std@@V?$allocator@D@2@@std@@QAEXII@Z
	jmp	___CxxFrameHandler3
text$x	ENDS
?_Copy@?$basic_string@DU?$char_traits@D@std@@V?$allocator@D@2@@std@@QAEXII@Z ENDP ; std::basic_string<char,std::char_traits<char>,std::allocator<char> >::_Copy
PUBLIC	??$_Dest_val@V?$allocator@U?$pair@$$CBIPAVManagedItem@@@std@@@std@@U?$pair@$$CBIPAVManagedItem@@@2@@std@@YAXAAV?$allocator@U?$pair@$$CBIPAVManagedItem@@@std@@@0@PAU?$pair@$$CBIPAVManagedItem@@@0@@Z ; std::_Dest_val<std::allocator<std::pair<unsigned int const ,ManagedItem *> >,std::pair<unsigned int const ,ManagedItem *> >
; Function compile flags: /Ogtp
;	COMDAT ??$_Dest_val@V?$allocator@U?$pair@$$CBIPAVManagedItem@@@std@@@std@@U?$pair@$$CBIPAVManagedItem@@@2@@std@@YAXAAV?$allocator@U?$pair@$$CBIPAVManagedItem@@@std@@@0@PAU?$pair@$$CBIPAVManagedItem@@@0@@Z
_TEXT	SEGMENT
__Alval$ = 8						; size = 4
__Pdest$ = 12						; size = 4
??$_Dest_val@V?$allocator@U?$pair@$$CBIPAVManagedItem@@@std@@@std@@U?$pair@$$CBIPAVManagedItem@@@2@@std@@YAXAAV?$allocator@U?$pair@$$CBIPAVManagedItem@@@std@@@0@PAU?$pair@$$CBIPAVManagedItem@@@0@@Z PROC ; std::_Dest_val<std::allocator<std::pair<unsigned int const ,ManagedItem *> >,std::pair<unsigned int const ,ManagedItem *> >, COMDAT
; File c:\program files (x86)\microsoft visual studio 10.0\vc\include\xmemory
; Line 288
	ret	0
??$_Dest_val@V?$allocator@U?$pair@$$CBIPAVManagedItem@@@std@@@std@@U?$pair@$$CBIPAVManagedItem@@@2@@std@@YAXAAV?$allocator@U?$pair@$$CBIPAVManagedItem@@@std@@@0@PAU?$pair@$$CBIPAVManagedItem@@@0@@Z ENDP ; std::_Dest_val<std::allocator<std::pair<unsigned int const ,ManagedItem *> >,std::pair<unsigned int const ,ManagedItem *> >
_TEXT	ENDS
PUBLIC	?begin@?$_Tree@V?$_Tmap_traits@IPAVManagedItem@@U?$less@I@std@@V?$allocator@U?$pair@$$CBIPAVManagedItem@@@std@@@3@$0A@@std@@@std@@QAE?AV?$_Tree_iterator@V?$_Tree_val@V?$_Tmap_traits@IPAVManagedItem@@U?$less@I@std@@V?$allocator@U?$pair@$$CBIPAVManagedItem@@@std@@@3@$0A@@std@@@std@@@2@XZ ; std::_Tree<std::_Tmap_traits<unsigned int,ManagedItem *,std::less<unsigned int>,std::allocator<std::pair<unsigned int const ,ManagedItem *> >,0> >::begin
; Function compile flags: /Ogtp
;	COMDAT ?begin@?$_Tree@V?$_Tmap_traits@IPAVManagedItem@@U?$less@I@std@@V?$allocator@U?$pair@$$CBIPAVManagedItem@@@std@@@3@$0A@@std@@@std@@QAE?AV?$_Tree_iterator@V?$_Tree_val@V?$_Tmap_traits@IPAVManagedItem@@U?$less@I@std@@V?$allocator@U?$pair@$$CBIPAVManagedItem@@@std@@@3@$0A@@std@@@std@@@2@XZ
_TEXT	SEGMENT
___$ReturnUdt$ = 8					; size = 4
?begin@?$_Tree@V?$_Tmap_traits@IPAVManagedItem@@U?$less@I@std@@V?$allocator@U?$pair@$$CBIPAVManagedItem@@@std@@@3@$0A@@std@@@std@@QAE?AV?$_Tree_iterator@V?$_Tree_val@V?$_Tmap_traits@IPAVManagedItem@@U?$less@I@std@@V?$allocator@U?$pair@$$CBIPAVManagedItem@@@std@@@3@$0A@@std@@@std@@@2@XZ PROC ; std::_Tree<std::_Tmap_traits<unsigned int,ManagedItem *,std::less<unsigned int>,std::allocator<std::pair<unsigned int const ,ManagedItem *> >,0> >::begin, COMDAT
; _this$ = ecx
; File c:\program files (x86)\microsoft visual studio 10.0\vc\include\xtree
; Line 806
	push	ebp
	mov	ebp, esp
; Line 807
	mov	eax, DWORD PTR [ecx+4]
	mov	ecx, DWORD PTR [eax]
	mov	eax, DWORD PTR ___$ReturnUdt$[ebp]
	mov	DWORD PTR [eax], ecx
; Line 808
	pop	ebp
	ret	4
?begin@?$_Tree@V?$_Tmap_traits@IPAVManagedItem@@U?$less@I@std@@V?$allocator@U?$pair@$$CBIPAVManagedItem@@@std@@@3@$0A@@std@@@std@@QAE?AV?$_Tree_iterator@V?$_Tree_val@V?$_Tmap_traits@IPAVManagedItem@@U?$less@I@std@@V?$allocator@U?$pair@$$CBIPAVManagedItem@@@std@@@3@$0A@@std@@@std@@@2@XZ ENDP ; std::_Tree<std::_Tmap_traits<unsigned int,ManagedItem *,std::less<unsigned int>,std::allocator<std::pair<unsigned int const ,ManagedItem *> >,0> >::begin
_TEXT	ENDS
PUBLIC	??_C@_0BE@JONHPENG@map?1set?$DMT?$DO?5too?5long?$AA@ ; `string'
PUBLIC	?_Insert@?$_Tree@V?$_Tmap_traits@IPAVManagedItem@@U?$less@I@std@@V?$allocator@U?$pair@$$CBIPAVManagedItem@@@std@@@3@$0A@@std@@@std@@IAE?AV?$_Tree_iterator@V?$_Tree_val@V?$_Tmap_traits@IPAVManagedItem@@U?$less@I@std@@V?$allocator@U?$pair@$$CBIPAVManagedItem@@@std@@@3@$0A@@std@@@std@@@2@_NPAU_Node@?$_Tree_nod@V?$_Tmap_traits@IPAVManagedItem@@U?$less@I@std@@V?$allocator@U?$pair@$$CBIPAVManagedItem@@@std@@@3@$0A@@std@@@2@1@Z ; std::_Tree<std::_Tmap_traits<unsigned int,ManagedItem *,std::less<unsigned int>,std::allocator<std::pair<unsigned int const ,ManagedItem *> >,0> >::_Insert
;	COMDAT ??_C@_0BE@JONHPENG@map?1set?$DMT?$DO?5too?5long?$AA@
; File c:\program files (x86)\microsoft visual studio 10.0\vc\include\xutility
CONST	SEGMENT
??_C@_0BE@JONHPENG@map?1set?$DMT?$DO?5too?5long?$AA@ DB 'map/set<T> too l'
	DB	'ong', 00H					; `string'
; Function compile flags: /Ogtp
CONST	ENDS
;	COMDAT ?_Insert@?$_Tree@V?$_Tmap_traits@IPAVManagedItem@@U?$less@I@std@@V?$allocator@U?$pair@$$CBIPAVManagedItem@@@std@@@3@$0A@@std@@@std@@IAE?AV?$_Tree_iterator@V?$_Tree_val@V?$_Tmap_traits@IPAVManagedItem@@U?$less@I@std@@V?$allocator@U?$pair@$$CBIPAVManagedItem@@@std@@@3@$0A@@std@@@std@@@2@_NPAU_Node@?$_Tree_nod@V?$_Tmap_traits@IPAVManagedItem@@U?$less@I@std@@V?$allocator@U?$pair@$$CBIPAVManagedItem@@@std@@@3@$0A@@std@@@2@1@Z
_TEXT	SEGMENT
___$ReturnUdt$ = 8					; size = 4
__Addleft$ = 12						; size = 1
__Wherenode$ = 16					; size = 4
__Newnode$ = 20						; size = 4
?_Insert@?$_Tree@V?$_Tmap_traits@IPAVManagedItem@@U?$less@I@std@@V?$allocator@U?$pair@$$CBIPAVManagedItem@@@std@@@3@$0A@@std@@@std@@IAE?AV?$_Tree_iterator@V?$_Tree_val@V?$_Tmap_traits@IPAVManagedItem@@U?$less@I@std@@V?$allocator@U?$pair@$$CBIPAVManagedItem@@@std@@@3@$0A@@std@@@std@@@2@_NPAU_Node@?$_Tree_nod@V?$_Tmap_traits@IPAVManagedItem@@U?$less@I@std@@V?$allocator@U?$pair@$$CBIPAVManagedItem@@@std@@@3@$0A@@std@@@2@1@Z PROC ; std::_Tree<std::_Tmap_traits<unsigned int,ManagedItem *,std::less<unsigned int>,std::allocator<std::pair<unsigned int const ,ManagedItem *> >,0> >::_Insert, COMDAT
; _this$ = ecx
; File c:\program files (x86)\microsoft visual studio 10.0\vc\include\xtree
; Line 1631
	push	ebp
	mov	ebp, esp
; Line 1632
	mov	eax, DWORD PTR [ecx+8]
	cmp	eax, 536870910				; 1ffffffeH
	jb	SHORT $LN17@Insert
; Line 1637
	mov	eax, DWORD PTR __Newnode$[ebp]
	push	eax
	call	??3@YAXPAX@Z				; operator delete
	add	esp, 4
; Line 1639
	push	OFFSET ??_C@_0BE@JONHPENG@map?1set?$DMT?$DO?5too?5long?$AA@
	call	DWORD PTR __imp_?_Xlength_error@std@@YAXPBD@Z
$LN377@Insert:
$LN17@Insert:
; Line 1641
	inc	eax
	push	ebx
	mov	DWORD PTR [ecx+8], eax
; Line 1642
	mov	eax, DWORD PTR __Wherenode$[ebp]
	push	edi
	mov	edi, DWORD PTR __Newnode$[ebp]
	mov	DWORD PTR [edi+4], eax
; Line 1644
	mov	edx, DWORD PTR [ecx+4]
	xor	bl, bl
	cmp	eax, edx
	jne	SHORT $LN16@Insert
; Line 1646
	mov	DWORD PTR [edx+4], edi
; Line 1647
	mov	edx, DWORD PTR [ecx+4]
	mov	DWORD PTR [edx], edi
; Line 1648
	mov	eax, DWORD PTR [ecx+4]
	mov	DWORD PTR [eax+8], edi
	jmp	SHORT $LN11@Insert
$LN16@Insert:
; Line 1650
	cmp	BYTE PTR __Addleft$[ebp], bl
	je	SHORT $LN14@Insert
; Line 1652
	mov	DWORD PTR [eax], edi
; Line 1653
	mov	edx, DWORD PTR [ecx+4]
	cmp	eax, DWORD PTR [edx]
	jne	SHORT $LN11@Insert
; Line 1654
	mov	DWORD PTR [edx], edi
; Line 1656
	jmp	SHORT $LN11@Insert
$LN14@Insert:
; Line 1658
	mov	DWORD PTR [eax+8], edi
; Line 1659
	mov	edx, DWORD PTR [ecx+4]
	cmp	eax, DWORD PTR [edx+8]
	jne	SHORT $LN11@Insert
; Line 1660
	mov	DWORD PTR [edx+8], edi
$LN11@Insert:
; Line 1664
	mov	edx, DWORD PTR [edi+4]
	mov	eax, edi
	cmp	BYTE PTR [edx+20], bl
	jne	$LN9@Insert
	push	esi
	npad	5
$LL10@Insert:
; Line 1666
	mov	edx, DWORD PTR [eax+4]
	mov	esi, DWORD PTR [edx+4]
	cmp	edx, DWORD PTR [esi]
	jne	$LN8@Insert
; Line 1669
	mov	esi, DWORD PTR [esi+8]
; Line 1670
	cmp	BYTE PTR [esi+20], bl
	jne	SHORT $LN7@Insert
; Line 1672
	mov	BYTE PTR [edx+20], 1
; Line 1673
	mov	BYTE PTR [esi+20], 1
; Line 1675
	mov	edx, DWORD PTR [eax+4]
	mov	edx, DWORD PTR [edx+4]
	mov	BYTE PTR [edx+20], bl
; Line 1676
	mov	eax, DWORD PTR [eax+4]
	mov	eax, DWORD PTR [eax+4]
; Line 1678
	jmp	$LN316@Insert
$LN7@Insert:
; Line 1680
	cmp	eax, DWORD PTR [edx+8]
	jne	SHORT $LN111@Insert
; Line 1682
	mov	eax, edx
; Line 1683
	mov	edx, DWORD PTR [eax+8]
	mov	esi, DWORD PTR [edx]
	mov	DWORD PTR [eax+8], esi
	mov	esi, DWORD PTR [edx]
	cmp	BYTE PTR [esi+21], bl
	jne	SHORT $LN110@Insert
	mov	DWORD PTR [esi+4], eax
$LN110@Insert:
	mov	esi, DWORD PTR [eax+4]
	mov	DWORD PTR [edx+4], esi
	mov	esi, DWORD PTR [ecx+4]
	cmp	eax, DWORD PTR [esi+4]
	jne	SHORT $LN109@Insert
	mov	DWORD PTR [esi+4], edx
	jmp	SHORT $LN106@Insert
$LN109@Insert:
	mov	esi, DWORD PTR [eax+4]
	cmp	eax, DWORD PTR [esi]
	jne	SHORT $LN107@Insert
	mov	DWORD PTR [esi], edx
	jmp	SHORT $LN106@Insert
$LN107@Insert:
	mov	DWORD PTR [esi+8], edx
$LN106@Insert:
	mov	DWORD PTR [edx], eax
	mov	DWORD PTR [eax+4], edx
$LN111@Insert:
; Line 1686
	mov	edx, DWORD PTR [eax+4]
	mov	BYTE PTR [edx+20], 1
; Line 1688
	mov	edx, DWORD PTR [eax+4]
	mov	edx, DWORD PTR [edx+4]
	mov	BYTE PTR [edx+20], bl
; Line 1689
	mov	edx, DWORD PTR [eax+4]
	mov	edx, DWORD PTR [edx+4]
	mov	esi, DWORD PTR [edx]
	mov	edi, DWORD PTR [esi+8]
	mov	DWORD PTR [edx], edi
	mov	edi, DWORD PTR [esi+8]
	cmp	BYTE PTR [edi+21], bl
	jne	SHORT $LN173@Insert
	mov	DWORD PTR [edi+4], edx
$LN173@Insert:
	mov	edi, DWORD PTR [edx+4]
	mov	DWORD PTR [esi+4], edi
	mov	edi, DWORD PTR [ecx+4]
	cmp	edx, DWORD PTR [edi+4]
	jne	SHORT $LN172@Insert
	mov	DWORD PTR [edi+4], esi
	mov	DWORD PTR [esi+8], edx
; Line 1692
	jmp	$LN376@Insert
; Line 1689
$LN172@Insert:
	mov	edi, DWORD PTR [edx+4]
	cmp	edx, DWORD PTR [edi+8]
	jne	SHORT $LN170@Insert
	mov	DWORD PTR [edi+8], esi
	mov	DWORD PTR [esi+8], edx
; Line 1692
	jmp	$LN376@Insert
; Line 1689
$LN170@Insert:
	mov	DWORD PTR [edi], esi
	mov	DWORD PTR [esi+8], edx
; Line 1692
	jmp	$LN376@Insert
$LN8@Insert:
; Line 1695
	mov	esi, DWORD PTR [esi]
; Line 1696
	cmp	BYTE PTR [esi+20], bl
	jne	SHORT $LN3@Insert
; Line 1698
	mov	BYTE PTR [edx+20], 1
; Line 1699
	mov	BYTE PTR [esi+20], 1
; Line 1701
	mov	edx, DWORD PTR [eax+4]
	mov	edx, DWORD PTR [edx+4]
	mov	BYTE PTR [edx+20], bl
; Line 1702
	mov	eax, DWORD PTR [eax+4]
	mov	eax, DWORD PTR [eax+4]
; Line 1704
	jmp	$LN316@Insert
$LN3@Insert:
; Line 1706
	cmp	eax, DWORD PTR [edx]
	jne	SHORT $LN253@Insert
; Line 1708
	mov	eax, edx
; Line 1709
	mov	edx, DWORD PTR [eax]
	mov	esi, DWORD PTR [edx+8]
	mov	DWORD PTR [eax], esi
	mov	esi, DWORD PTR [edx+8]
	cmp	BYTE PTR [esi+21], bl
	jne	SHORT $LN252@Insert
	mov	DWORD PTR [esi+4], eax
$LN252@Insert:
	mov	esi, DWORD PTR [eax+4]
	mov	DWORD PTR [edx+4], esi
	mov	esi, DWORD PTR [ecx+4]
	cmp	eax, DWORD PTR [esi+4]
	jne	SHORT $LN251@Insert
	mov	DWORD PTR [esi+4], edx
	jmp	SHORT $LN248@Insert
$LN251@Insert:
	mov	esi, DWORD PTR [eax+4]
	cmp	eax, DWORD PTR [esi+8]
	jne	SHORT $LN249@Insert
	mov	DWORD PTR [esi+8], edx
	jmp	SHORT $LN248@Insert
$LN249@Insert:
	mov	DWORD PTR [esi], edx
$LN248@Insert:
	mov	DWORD PTR [edx+8], eax
	mov	DWORD PTR [eax+4], edx
$LN253@Insert:
; Line 1712
	mov	edx, DWORD PTR [eax+4]
	mov	BYTE PTR [edx+20], 1
; Line 1714
	mov	edx, DWORD PTR [eax+4]
	mov	edx, DWORD PTR [edx+4]
	mov	BYTE PTR [edx+20], bl
; Line 1715
	mov	edx, DWORD PTR [eax+4]
	mov	edx, DWORD PTR [edx+4]
	mov	esi, DWORD PTR [edx+8]
	mov	edi, DWORD PTR [esi]
	mov	DWORD PTR [edx+8], edi
	mov	edi, DWORD PTR [esi]
	cmp	BYTE PTR [edi+21], bl
	jne	SHORT $LN315@Insert
	mov	DWORD PTR [edi+4], edx
$LN315@Insert:
	mov	edi, DWORD PTR [edx+4]
	mov	DWORD PTR [esi+4], edi
	mov	edi, DWORD PTR [ecx+4]
	cmp	edx, DWORD PTR [edi+4]
	jne	SHORT $LN314@Insert
	mov	DWORD PTR [edi+4], esi
	jmp	SHORT $LN311@Insert
$LN314@Insert:
	mov	edi, DWORD PTR [edx+4]
	cmp	edx, DWORD PTR [edi]
	jne	SHORT $LN312@Insert
	mov	DWORD PTR [edi], esi
	jmp	SHORT $LN311@Insert
$LN312@Insert:
	mov	DWORD PTR [edi+8], esi
$LN311@Insert:
	mov	DWORD PTR [esi], edx
$LN376@Insert:
	mov	edi, DWORD PTR __Newnode$[ebp]
	mov	DWORD PTR [edx+4], esi
$LN316@Insert:
; Line 1664
	mov	edx, DWORD PTR [eax+4]
	cmp	BYTE PTR [edx+20], bl
	je	$LL10@Insert
	pop	esi
$LN9@Insert:
; Line 1719
	mov	eax, DWORD PTR [ecx+4]
	mov	ecx, DWORD PTR [eax+4]
; Line 1720
	mov	eax, DWORD PTR ___$ReturnUdt$[ebp]
	mov	DWORD PTR [eax], edi
	pop	edi
	mov	BYTE PTR [ecx+20], 1
	pop	ebx
; Line 1721
	pop	ebp
	ret	16					; 00000010H
$LN375@Insert:
?_Insert@?$_Tree@V?$_Tmap_traits@IPAVManagedItem@@U?$less@I@std@@V?$allocator@U?$pair@$$CBIPAVManagedItem@@@std@@@3@$0A@@std@@@std@@IAE?AV?$_Tree_iterator@V?$_Tree_val@V?$_Tmap_traits@IPAVManagedItem@@U?$less@I@std@@V?$allocator@U?$pair@$$CBIPAVManagedItem@@@std@@@3@$0A@@std@@@std@@@2@_NPAU_Node@?$_Tree_nod@V?$_Tmap_traits@IPAVManagedItem@@U?$less@I@std@@V?$allocator@U?$pair@$$CBIPAVManagedItem@@@std@@@3@$0A@@std@@@2@1@Z ENDP ; std::_Tree<std::_Tmap_traits<unsigned int,ManagedItem *,std::less<unsigned int>,std::allocator<std::pair<unsigned int const ,ManagedItem *> >,0> >::_Insert
_TEXT	ENDS
PUBLIC	??0?$pair@V?$_Tree_iterator@V?$_Tree_val@V?$_Tmap_traits@IPAVManagedItem@@U?$less@I@std@@V?$allocator@U?$pair@$$CBIPAVManagedItem@@@std@@@3@$0A@@std@@@std@@@std@@_N@std@@QAE@$$QAV?$_Tree_iterator@V?$_Tree_val@V?$_Tmap_traits@IPAVManagedItem@@U?$less@I@std@@V?$allocator@U?$pair@$$CBIPAVManagedItem@@@std@@@3@$0A@@std@@@std@@@1@$$QA_N@Z ; std::pair<std::_Tree_iterator<std::_Tree_val<std::_Tmap_traits<unsigned int,ManagedItem *,std::less<unsigned int>,std::allocator<std::pair<unsigned int const ,ManagedItem *> >,0> > >,bool>::pair<std::_Tree_iterator<std::_Tree_val<std::_Tmap_traits<unsigned int,ManagedItem *,std::less<unsigned int>,std::allocator<std::pair<unsigned int const ,ManagedItem *> >,0> > >,bool>
; Function compile flags: /Ogtp
;	COMDAT ??0?$pair@V?$_Tree_iterator@V?$_Tree_val@V?$_Tmap_traits@IPAVManagedItem@@U?$less@I@std@@V?$allocator@U?$pair@$$CBIPAVManagedItem@@@std@@@3@$0A@@std@@@std@@@std@@_N@std@@QAE@$$QAV?$_Tree_iterator@V?$_Tree_val@V?$_Tmap_traits@IPAVManagedItem@@U?$less@I@std@@V?$allocator@U?$pair@$$CBIPAVManagedItem@@@std@@@3@$0A@@std@@@std@@@1@$$QA_N@Z
_TEXT	SEGMENT
__Val1$ = 8						; size = 4
__Val2$ = 12						; size = 4
??0?$pair@V?$_Tree_iterator@V?$_Tree_val@V?$_Tmap_traits@IPAVManagedItem@@U?$less@I@std@@V?$allocator@U?$pair@$$CBIPAVManagedItem@@@std@@@3@$0A@@std@@@std@@@std@@_N@std@@QAE@$$QAV?$_Tree_iterator@V?$_Tree_val@V?$_Tmap_traits@IPAVManagedItem@@U?$less@I@std@@V?$allocator@U?$pair@$$CBIPAVManagedItem@@@std@@@3@$0A@@std@@@std@@@1@$$QA_N@Z PROC ; std::pair<std::_Tree_iterator<std::_Tree_val<std::_Tmap_traits<unsigned int,ManagedItem *,std::less<unsigned int>,std::allocator<std::pair<unsigned int const ,ManagedItem *> >,0> > >,bool>::pair<std::_Tree_iterator<std::_Tree_val<std::_Tmap_traits<unsigned int,ManagedItem *,std::less<unsigned int>,std::allocator<std::pair<unsigned int const ,ManagedItem *> >,0> > >,bool>, COMDAT
; _this$ = ecx
; File c:\program files (x86)\microsoft visual studio 10.0\vc\include\utility
; Line 227
	push	ebp
	mov	ebp, esp
	mov	eax, ecx
	mov	ecx, DWORD PTR __Val1$[ebp]
	mov	edx, DWORD PTR [ecx]
	mov	ecx, DWORD PTR __Val2$[ebp]
	mov	DWORD PTR [eax], edx
	mov	dl, BYTE PTR [ecx]
	mov	BYTE PTR [eax+4], dl
; Line 228
	pop	ebp
	ret	8
??0?$pair@V?$_Tree_iterator@V?$_Tree_val@V?$_Tmap_traits@IPAVManagedItem@@U?$less@I@std@@V?$allocator@U?$pair@$$CBIPAVManagedItem@@@std@@@3@$0A@@std@@@std@@@std@@_N@std@@QAE@$$QAV?$_Tree_iterator@V?$_Tree_val@V?$_Tmap_traits@IPAVManagedItem@@U?$less@I@std@@V?$allocator@U?$pair@$$CBIPAVManagedItem@@@std@@@3@$0A@@std@@@std@@@1@$$QA_N@Z ENDP ; std::pair<std::_Tree_iterator<std::_Tree_val<std::_Tmap_traits<unsigned int,ManagedItem *,std::less<unsigned int>,std::allocator<std::pair<unsigned int const ,ManagedItem *> >,0> > >,bool>::pair<std::_Tree_iterator<std::_Tree_val<std::_Tmap_traits<unsigned int,ManagedItem *,std::less<unsigned int>,std::allocator<std::pair<unsigned int const ,ManagedItem *> >,0> > >,bool>
_TEXT	ENDS
PUBLIC	?_Buynode@?$_Tree_val@V?$_Tmap_traits@IPAVManagedItem@@U?$less@I@std@@V?$allocator@U?$pair@$$CBIPAVManagedItem@@@std@@@3@$0A@@std@@@std@@QAEPAU_Node@?$_Tree_nod@V?$_Tmap_traits@IPAVManagedItem@@U?$less@I@std@@V?$allocator@U?$pair@$$CBIPAVManagedItem@@@std@@@3@$0A@@std@@@2@XZ ; std::_Tree_val<std::_Tmap_traits<unsigned int,ManagedItem *,std::less<unsigned int>,std::allocator<std::pair<unsigned int const ,ManagedItem *> >,0> >::_Buynode
; Function compile flags: /Ogtp
;	COMDAT ?_Buynode@?$_Tree_val@V?$_Tmap_traits@IPAVManagedItem@@U?$less@I@std@@V?$allocator@U?$pair@$$CBIPAVManagedItem@@@std@@@3@$0A@@std@@@std@@QAEPAU_Node@?$_Tree_nod@V?$_Tmap_traits@IPAVManagedItem@@U?$less@I@std@@V?$allocator@U?$pair@$$CBIPAVManagedItem@@@std@@@3@$0A@@std@@@2@XZ
_TEXT	SEGMENT
$T97255 = -16						; size = 12
$T97232 = -4						; size = 4
?_Buynode@?$_Tree_val@V?$_Tmap_traits@IPAVManagedItem@@U?$less@I@std@@V?$allocator@U?$pair@$$CBIPAVManagedItem@@@std@@@3@$0A@@std@@@std@@QAEPAU_Node@?$_Tree_nod@V?$_Tmap_traits@IPAVManagedItem@@U?$less@I@std@@V?$allocator@U?$pair@$$CBIPAVManagedItem@@@std@@@3@$0A@@std@@@2@XZ PROC ; std::_Tree_val<std::_Tmap_traits<unsigned int,ManagedItem *,std::less<unsigned int>,std::allocator<std::pair<unsigned int const ,ManagedItem *> >,0> >::_Buynode, COMDAT
; _this$ = ecx
; File c:\program files (x86)\microsoft visual studio 10.0\vc\include\xtree
; Line 559
	push	ebp
	mov	ebp, esp
	sub	esp, 16					; 00000010H
	push	esi
; Line 560
	push	24					; 00000018H
	mov	esi, ecx
	call	??2@YAPAXI@Z				; operator new
	xor	ecx, ecx
	add	esp, 4
	cmp	eax, ecx
	je	SHORT $LN5@Buynode
; Line 562
	mov	edx, DWORD PTR [esi+4]
	mov	DWORD PTR [eax], edx
; Line 563
	mov	edx, DWORD PTR [esi+4]
	mov	DWORD PTR [eax+4], edx
; Line 564
	mov	edx, DWORD PTR [esi+4]
	mov	DWORD PTR [eax+8], edx
; Line 565
	mov	WORD PTR [eax+20], cx
	pop	esi
; Line 568
	mov	esp, ebp
	pop	ebp
	ret	0
; Line 560
$LN5@Buynode:
	lea	eax, DWORD PTR $T97232[ebp]
	mov	DWORD PTR $T97232[ebp], ecx
	push	eax
	lea	ecx, DWORD PTR $T97255[ebp]
	call	DWORD PTR __imp_??0exception@std@@QAE@ABQBD@Z
	push	OFFSET __TI2?AVbad_alloc@std@@
	lea	ecx, DWORD PTR $T97255[ebp]
	push	ecx
	mov	DWORD PTR $T97255[ebp], OFFSET ??_7bad_alloc@std@@6B@
	call	__CxxThrowException@8
$LN27@Buynode:
$LN26@Buynode:
	int	3
?_Buynode@?$_Tree_val@V?$_Tmap_traits@IPAVManagedItem@@U?$less@I@std@@V?$allocator@U?$pair@$$CBIPAVManagedItem@@@std@@@3@$0A@@std@@@std@@QAEPAU_Node@?$_Tree_nod@V?$_Tmap_traits@IPAVManagedItem@@U?$less@I@std@@V?$allocator@U?$pair@$$CBIPAVManagedItem@@@std@@@3@$0A@@std@@@2@XZ ENDP ; std::_Tree_val<std::_Tmap_traits<unsigned int,ManagedItem *,std::less<unsigned int>,std::allocator<std::pair<unsigned int const ,ManagedItem *> >,0> >::_Buynode
_TEXT	ENDS
PUBLIC	??$?0$$CBIPAVManagedItem@@@?$pair@$$CBIPAVManagedItem@@@std@@QAE@$$QAU01@@Z ; std::pair<unsigned int const ,ManagedItem *>::pair<unsigned int const ,ManagedItem *><unsigned int const ,ManagedItem *>
; Function compile flags: /Ogtp
;	COMDAT ??$?0$$CBIPAVManagedItem@@@?$pair@$$CBIPAVManagedItem@@@std@@QAE@$$QAU01@@Z
_TEXT	SEGMENT
__Right$ = 8						; size = 4
??$?0$$CBIPAVManagedItem@@@?$pair@$$CBIPAVManagedItem@@@std@@QAE@$$QAU01@@Z PROC ; std::pair<unsigned int const ,ManagedItem *>::pair<unsigned int const ,ManagedItem *><unsigned int const ,ManagedItem *>, COMDAT
; _this$ = ecx
; File c:\program files (x86)\microsoft visual studio 10.0\vc\include\utility
; Line 255
	push	ebp
	mov	ebp, esp
	mov	eax, ecx
	mov	ecx, DWORD PTR __Right$[ebp]
	mov	edx, DWORD PTR [ecx]
	mov	DWORD PTR [eax], edx
	mov	ecx, DWORD PTR [ecx+4]
	mov	DWORD PTR [eax+4], ecx
; Line 256
	pop	ebp
	ret	4
??$?0$$CBIPAVManagedItem@@@?$pair@$$CBIPAVManagedItem@@@std@@QAE@$$QAU01@@Z ENDP ; std::pair<unsigned int const ,ManagedItem *>::pair<unsigned int const ,ManagedItem *><unsigned int const ,ManagedItem *>
_TEXT	ENDS
PUBLIC	??1?$basic_string@DU?$char_traits@D@std@@V?$allocator@D@2@@std@@QAE@XZ ; std::basic_string<char,std::char_traits<char>,std::allocator<char> >::~basic_string<char,std::char_traits<char>,std::allocator<char> >
; Function compile flags: /Ogtp
;	COMDAT ??1?$basic_string@DU?$char_traits@D@std@@V?$allocator@D@2@@std@@QAE@XZ
_TEXT	SEGMENT
??1?$basic_string@DU?$char_traits@D@std@@V?$allocator@D@2@@std@@QAE@XZ PROC ; std::basic_string<char,std::char_traits<char>,std::allocator<char> >::~basic_string<char,std::char_traits<char>,std::allocator<char> >, COMDAT
; _this$ = ecx
; File c:\program files (x86)\microsoft visual studio 10.0\vc\include\xstring
; Line 752
	push	esi
	mov	esi, ecx
; Line 753
	cmp	DWORD PTR [esi+20], 16			; 00000010H
	jb	SHORT $LN11@basic_stri
	mov	eax, DWORD PTR [esi]
	push	eax
	call	??3@YAXPAX@Z				; operator delete
	add	esp, 4
$LN11@basic_stri:
	mov	DWORD PTR [esi+20], 15			; 0000000fH
	mov	DWORD PTR [esi+16], 0
	mov	BYTE PTR [esi], 0
	pop	esi
; Line 754
	ret	0
??1?$basic_string@DU?$char_traits@D@std@@V?$allocator@D@2@@std@@QAE@XZ ENDP ; std::basic_string<char,std::char_traits<char>,std::allocator<char> >::~basic_string<char,std::char_traits<char>,std::allocator<char> >
_TEXT	ENDS
PUBLIC	?end@?$_Tree@V?$_Tmap_traits@IPAVManagedItem@@U?$less@I@std@@V?$allocator@U?$pair@$$CBIPAVManagedItem@@@std@@@3@$0A@@std@@@std@@QAE?AV?$_Tree_iterator@V?$_Tree_val@V?$_Tmap_traits@IPAVManagedItem@@U?$less@I@std@@V?$allocator@U?$pair@$$CBIPAVManagedItem@@@std@@@3@$0A@@std@@@std@@@2@XZ ; std::_Tree<std::_Tmap_traits<unsigned int,ManagedItem *,std::less<unsigned int>,std::allocator<std::pair<unsigned int const ,ManagedItem *> >,0> >::end
; Function compile flags: /Ogtp
;	COMDAT ?end@?$_Tree@V?$_Tmap_traits@IPAVManagedItem@@U?$less@I@std@@V?$allocator@U?$pair@$$CBIPAVManagedItem@@@std@@@3@$0A@@std@@@std@@QAE?AV?$_Tree_iterator@V?$_Tree_val@V?$_Tmap_traits@IPAVManagedItem@@U?$less@I@std@@V?$allocator@U?$pair@$$CBIPAVManagedItem@@@std@@@3@$0A@@std@@@std@@@2@XZ
_TEXT	SEGMENT
___$ReturnUdt$ = 8					; size = 4
?end@?$_Tree@V?$_Tmap_traits@IPAVManagedItem@@U?$less@I@std@@V?$allocator@U?$pair@$$CBIPAVManagedItem@@@std@@@3@$0A@@std@@@std@@QAE?AV?$_Tree_iterator@V?$_Tree_val@V?$_Tmap_traits@IPAVManagedItem@@U?$less@I@std@@V?$allocator@U?$pair@$$CBIPAVManagedItem@@@std@@@3@$0A@@std@@@std@@@2@XZ PROC ; std::_Tree<std::_Tmap_traits<unsigned int,ManagedItem *,std::less<unsigned int>,std::allocator<std::pair<unsigned int const ,ManagedItem *> >,0> >::end, COMDAT
; _this$ = ecx
; File c:\program files (x86)\microsoft visual studio 10.0\vc\include\xtree
; Line 816
	push	ebp
	mov	ebp, esp
; Line 817
	mov	ecx, DWORD PTR [ecx+4]
	mov	eax, DWORD PTR ___$ReturnUdt$[ebp]
	mov	DWORD PTR [eax], ecx
; Line 818
	pop	ebp
	ret	4
?end@?$_Tree@V?$_Tmap_traits@IPAVManagedItem@@U?$less@I@std@@V?$allocator@U?$pair@$$CBIPAVManagedItem@@@std@@@3@$0A@@std@@@std@@QAE?AV?$_Tree_iterator@V?$_Tree_val@V?$_Tmap_traits@IPAVManagedItem@@U?$less@I@std@@V?$allocator@U?$pair@$$CBIPAVManagedItem@@@std@@@3@$0A@@std@@@std@@@2@XZ ENDP ; std::_Tree<std::_Tmap_traits<unsigned int,ManagedItem *,std::less<unsigned int>,std::allocator<std::pair<unsigned int const ,ManagedItem *> >,0> >::end
_TEXT	ENDS
PUBLIC	?lower_bound@?$_Tree@V?$_Tmap_traits@IPAVManagedItem@@U?$less@I@std@@V?$allocator@U?$pair@$$CBIPAVManagedItem@@@std@@@3@$0A@@std@@@std@@QAE?AV?$_Tree_iterator@V?$_Tree_val@V?$_Tmap_traits@IPAVManagedItem@@U?$less@I@std@@V?$allocator@U?$pair@$$CBIPAVManagedItem@@@std@@@3@$0A@@std@@@std@@@2@ABI@Z ; std::_Tree<std::_Tmap_traits<unsigned int,ManagedItem *,std::less<unsigned int>,std::allocator<std::pair<unsigned int const ,ManagedItem *> >,0> >::lower_bound
; Function compile flags: /Ogtp
;	COMDAT ?lower_bound@?$_Tree@V?$_Tmap_traits@IPAVManagedItem@@U?$less@I@std@@V?$allocator@U?$pair@$$CBIPAVManagedItem@@@std@@@3@$0A@@std@@@std@@QAE?AV?$_Tree_iterator@V?$_Tree_val@V?$_Tmap_traits@IPAVManagedItem@@U?$less@I@std@@V?$allocator@U?$pair@$$CBIPAVManagedItem@@@std@@@3@$0A@@std@@@std@@@2@ABI@Z
_TEXT	SEGMENT
___$ReturnUdt$ = 8					; size = 4
__Keyval$ = 12						; size = 4
?lower_bound@?$_Tree@V?$_Tmap_traits@IPAVManagedItem@@U?$less@I@std@@V?$allocator@U?$pair@$$CBIPAVManagedItem@@@std@@@3@$0A@@std@@@std@@QAE?AV?$_Tree_iterator@V?$_Tree_val@V?$_Tmap_traits@IPAVManagedItem@@U?$less@I@std@@V?$allocator@U?$pair@$$CBIPAVManagedItem@@@std@@@3@$0A@@std@@@std@@@2@ABI@Z PROC ; std::_Tree<std::_Tmap_traits<unsigned int,ManagedItem *,std::less<unsigned int>,std::allocator<std::pair<unsigned int const ,ManagedItem *> >,0> >::lower_bound, COMDAT
; _this$ = ecx
; Line 1449
	push	ebp
	mov	ebp, esp
; Line 1450
	mov	ecx, DWORD PTR [ecx+4]
	mov	eax, DWORD PTR [ecx+4]
	cmp	BYTE PTR [eax+21], 0
	jne	SHORT $LN36@lower_boun
	mov	edx, DWORD PTR __Keyval$[ebp]
	mov	edx, DWORD PTR [edx]
$LL6@lower_boun:
	cmp	DWORD PTR [eax+12], edx
	jae	SHORT $LN4@lower_boun
	mov	eax, DWORD PTR [eax+8]
	jmp	SHORT $LN3@lower_boun
$LN4@lower_boun:
	mov	ecx, eax
	mov	eax, DWORD PTR [eax]
$LN3@lower_boun:
	cmp	BYTE PTR [eax+21], 0
	je	SHORT $LL6@lower_boun
$LN36@lower_boun:
	mov	eax, DWORD PTR ___$ReturnUdt$[ebp]
	mov	DWORD PTR [eax], ecx
; Line 1451
	pop	ebp
	ret	8
?lower_bound@?$_Tree@V?$_Tmap_traits@IPAVManagedItem@@U?$less@I@std@@V?$allocator@U?$pair@$$CBIPAVManagedItem@@@std@@@3@$0A@@std@@@std@@QAE?AV?$_Tree_iterator@V?$_Tree_val@V?$_Tmap_traits@IPAVManagedItem@@U?$less@I@std@@V?$allocator@U?$pair@$$CBIPAVManagedItem@@@std@@@3@$0A@@std@@@std@@@2@ABI@Z ENDP ; std::_Tree<std::_Tmap_traits<unsigned int,ManagedItem *,std::less<unsigned int>,std::allocator<std::pair<unsigned int const ,ManagedItem *> >,0> >::lower_bound
_TEXT	ENDS
PUBLIC	?_Tidy@?$vector@PAVframe@@V?$allocator@PAVframe@@@std@@@std@@IAEXXZ ; std::vector<frame *,std::allocator<frame *> >::_Tidy
; Function compile flags: /Ogtp
;	COMDAT ?_Tidy@?$vector@PAVframe@@V?$allocator@PAVframe@@@std@@@std@@IAEXXZ
_TEXT	SEGMENT
?_Tidy@?$vector@PAVframe@@V?$allocator@PAVframe@@@std@@@std@@IAEXXZ PROC ; std::vector<frame *,std::allocator<frame *> >::_Tidy, COMDAT
; _this$ = ecx
; File c:\program files (x86)\microsoft visual studio 10.0\vc\include\vector
; Line 1301
	push	esi
	mov	esi, ecx
; Line 1302
	mov	eax, DWORD PTR [esi]
	test	eax, eax
	je	SHORT $LN6@Tidy@2
; Line 1307
	push	eax
	call	??3@YAXPAX@Z				; operator delete
	add	esp, 4
$LN6@Tidy@2:
; Line 1309
	mov	DWORD PTR [esi], 0
; Line 1310
	mov	DWORD PTR [esi+4], 0
; Line 1311
	mov	DWORD PTR [esi+8], 0
	pop	esi
; Line 1312
	ret	0
?_Tidy@?$vector@PAVframe@@V?$allocator@PAVframe@@@std@@@std@@IAEXXZ ENDP ; std::vector<frame *,std::allocator<frame *> >::_Tidy
_TEXT	ENDS
PUBLIC	?_Grow@?$basic_string@DU?$char_traits@D@std@@V?$allocator@D@2@@std@@QAE_NI_N@Z ; std::basic_string<char,std::char_traits<char>,std::allocator<char> >::_Grow
; Function compile flags: /Ogtp
;	COMDAT ?_Grow@?$basic_string@DU?$char_traits@D@std@@V?$allocator@D@2@@std@@QAE_NI_N@Z
_TEXT	SEGMENT
__Newsize$ = 8						; size = 4
__Trim$ = 12						; size = 1
?_Grow@?$basic_string@DU?$char_traits@D@std@@V?$allocator@D@2@@std@@QAE_NI_N@Z PROC ; std::basic_string<char,std::char_traits<char>,std::allocator<char> >::_Grow, COMDAT
; _this$ = ecx
; File c:\program files (x86)\microsoft visual studio 10.0\vc\include\xstring
; Line 1958
	push	ebp
	mov	ebp, esp
	push	ebx
; Line 1959
	mov	ebx, DWORD PTR __Newsize$[ebp]
	push	esi
	mov	esi, ecx
	cmp	ebx, -2					; fffffffeH
	jbe	SHORT $LN6@Grow
; Line 1960
	push	OFFSET ??_C@_0BA@JFNIOLAK@string?5too?5long?$AA@
	call	DWORD PTR __imp_?_Xlength_error@std@@YAXPBD@Z
$LN49@Grow:
$LN6@Grow:
; Line 1961
	mov	eax, DWORD PTR [esi+20]
	cmp	eax, ebx
	jae	SHORT $LN5@Grow
; Line 1962
	mov	eax, DWORD PTR [esi+16]
	push	eax
	push	ebx
	call	?_Copy@?$basic_string@DU?$char_traits@D@std@@V?$allocator@D@2@@std@@QAEXII@Z ; std::basic_string<char,std::char_traits<char>,std::allocator<char> >::_Copy
; Line 1968
	xor	ecx, ecx
	cmp	ecx, ebx
	sbb	eax, eax
	pop	esi
	neg	eax
	pop	ebx
; Line 1969
	pop	ebp
	ret	8
$LN5@Grow:
; Line 1963
	cmp	BYTE PTR __Trim$[ebp], 0
	je	SHORT $LN3@Grow
	cmp	ebx, 16					; 00000010H
	jae	SHORT $LN3@Grow
; Line 1965
	push	edi
	mov	edi, DWORD PTR [esi+16]
	cmp	ebx, edi
	jae	SHORT $LN9@Grow
	mov	edi, ebx
$LN9@Grow:
	cmp	eax, 16					; 00000010H
	jb	SHORT $LN30@Grow
	mov	ebx, DWORD PTR [esi]
	test	edi, edi
	je	SHORT $LN28@Grow
	push	edi
	push	ebx
	push	esi
	call	_memcpy
	add	esp, 12					; 0000000cH
$LN28@Grow:
	push	ebx
	call	??3@YAXPAX@Z				; operator delete
	mov	ebx, DWORD PTR __Newsize$[ebp]
	add	esp, 4
$LN30@Grow:
	mov	DWORD PTR [esi+16], edi
	mov	DWORD PTR [esi+20], 15			; 0000000fH
; Line 1968
	xor	ecx, ecx
	mov	BYTE PTR [edi+esi], 0
	cmp	ecx, ebx
	pop	edi
	sbb	eax, eax
	pop	esi
	neg	eax
	pop	ebx
; Line 1969
	pop	ebp
	ret	8
$LN3@Grow:
; Line 1966
	test	ebx, ebx
	jne	SHORT $LN46@Grow
; Line 1967
	mov	DWORD PTR [esi+16], ebx
	cmp	eax, 16					; 00000010H
	jb	SHORT $LN44@Grow
	mov	esi, DWORD PTR [esi]
$LN44@Grow:
	mov	BYTE PTR [esi], 0
$LN46@Grow:
; Line 1968
	xor	ecx, ecx
	cmp	ecx, ebx
	sbb	eax, eax
	pop	esi
	neg	eax
	pop	ebx
; Line 1969
	pop	ebp
	ret	8
$LN48@Grow:
?_Grow@?$basic_string@DU?$char_traits@D@std@@V?$allocator@D@2@@std@@QAE_NI_N@Z ENDP ; std::basic_string<char,std::char_traits<char>,std::allocator<char> >::_Grow
_TEXT	ENDS
PUBLIC	?_Linsert@?$_Tree@V?$_Tmap_traits@IPAVManagedItem@@U?$less@I@std@@V?$allocator@U?$pair@$$CBIPAVManagedItem@@@std@@@3@$0A@@std@@@std@@QAE?AU?$pair@V?$_Tree_iterator@V?$_Tree_val@V?$_Tmap_traits@IPAVManagedItem@@U?$less@I@std@@V?$allocator@U?$pair@$$CBIPAVManagedItem@@@std@@@3@$0A@@std@@@std@@@std@@_N@2@PAU_Node@?$_Tree_nod@V?$_Tmap_traits@IPAVManagedItem@@U?$less@I@std@@V?$allocator@U?$pair@$$CBIPAVManagedItem@@@std@@@3@$0A@@std@@@2@_N@Z ; std::_Tree<std::_Tmap_traits<unsigned int,ManagedItem *,std::less<unsigned int>,std::allocator<std::pair<unsigned int const ,ManagedItem *> >,0> >::_Linsert
; Function compile flags: /Ogtp
;	COMDAT ?_Linsert@?$_Tree@V?$_Tmap_traits@IPAVManagedItem@@U?$less@I@std@@V?$allocator@U?$pair@$$CBIPAVManagedItem@@@std@@@3@$0A@@std@@@std@@QAE?AU?$pair@V?$_Tree_iterator@V?$_Tree_val@V?$_Tmap_traits@IPAVManagedItem@@U?$less@I@std@@V?$allocator@U?$pair@$$CBIPAVManagedItem@@@std@@@3@$0A@@std@@@std@@@std@@_N@2@PAU_Node@?$_Tree_nod@V?$_Tmap_traits@IPAVManagedItem@@U?$less@I@std@@V?$allocator@U?$pair@$$CBIPAVManagedItem@@@std@@@3@$0A@@std@@@2@_N@Z
_TEXT	SEGMENT
__Addleft$ = -4						; size = 1
___$ReturnUdt$ = 8					; size = 4
__Node$ = 12						; size = 4
$T97591 = 16						; size = 4
$T97589 = 16						; size = 4
__Where$91954 = 16					; size = 4
__Leftish$ = 16						; size = 1
?_Linsert@?$_Tree@V?$_Tmap_traits@IPAVManagedItem@@U?$less@I@std@@V?$allocator@U?$pair@$$CBIPAVManagedItem@@@std@@@3@$0A@@std@@@std@@QAE?AU?$pair@V?$_Tree_iterator@V?$_Tree_val@V?$_Tmap_traits@IPAVManagedItem@@U?$less@I@std@@V?$allocator@U?$pair@$$CBIPAVManagedItem@@@std@@@3@$0A@@std@@@std@@@std@@_N@2@PAU_Node@?$_Tree_nod@V?$_Tmap_traits@IPAVManagedItem@@U?$less@I@std@@V?$allocator@U?$pair@$$CBIPAVManagedItem@@@std@@@3@$0A@@std@@@2@_N@Z PROC ; std::_Tree<std::_Tmap_traits<unsigned int,ManagedItem *,std::less<unsigned int>,std::allocator<std::pair<unsigned int const ,ManagedItem *> >,0> >::_Linsert, COMDAT
; _this$ = ecx
; File c:\program files (x86)\microsoft visual studio 10.0\vc\include\xtree
; Line 944
	push	ebp
	mov	ebp, esp
	push	ecx
; Line 950
	mov	edx, DWORD PTR __Node$[ebp]
	push	ebx
	mov	ebx, ecx
	mov	ecx, DWORD PTR [ebx+4]
	mov	eax, DWORD PTR [ecx+4]
	cmp	BYTE PTR [eax+21], 0
	push	esi
	mov	esi, ecx
	mov	cl, 1
	push	edi
	mov	BYTE PTR __Addleft$[ebp], cl
	jne	SHORT $LN11@Linsert
	mov	edi, DWORD PTR [edx+12]
$LL12@Linsert:
; Line 953
	cmp	BYTE PTR __Leftish$[ebp], 0
	mov	esi, eax
	je	SHORT $LN10@Linsert
; Line 954
	cmp	DWORD PTR [eax+12], edi
	setae	cl
; Line 957
	jmp	SHORT $LN146@Linsert
$LN10@Linsert:
; Line 958
	cmp	edi, DWORD PTR [eax+12]
	setb	cl
$LN146@Linsert:
	mov	BYTE PTR __Addleft$[ebp], cl
; Line 962
	test	cl, cl
	je	SHORT $LN15@Linsert
	mov	eax, DWORD PTR [eax]
	jmp	SHORT $LN16@Linsert
$LN15@Linsert:
	mov	eax, DWORD PTR [eax+8]
$LN16@Linsert:
; Line 950
	cmp	BYTE PTR [eax+21], 0
	je	SHORT $LL12@Linsert
$LN11@Linsert:
; Line 969
	mov	edi, esi
	mov	DWORD PTR __Where$91954[ebp], edi
; Line 970
	test	cl, cl
	je	SHORT $LN99@Linsert
; Line 972
	mov	eax, DWORD PTR [ebx+4]
; Line 973
	lea	ecx, DWORD PTR $T97589[ebp]
	cmp	esi, DWORD PTR [eax]
	jne	SHORT $LN4@Linsert
	push	edx
	push	esi
	push	1
	push	ecx
	mov	ecx, ebx
	call	?_Insert@?$_Tree@V?$_Tmap_traits@IPAVManagedItem@@U?$less@I@std@@V?$allocator@U?$pair@$$CBIPAVManagedItem@@@std@@@3@$0A@@std@@@std@@IAE?AV?$_Tree_iterator@V?$_Tree_val@V?$_Tmap_traits@IPAVManagedItem@@U?$less@I@std@@V?$allocator@U?$pair@$$CBIPAVManagedItem@@@std@@@3@$0A@@std@@@std@@@2@_NPAU_Node@?$_Tree_nod@V?$_Tmap_traits@IPAVManagedItem@@U?$less@I@std@@V?$allocator@U?$pair@$$CBIPAVManagedItem@@@std@@@3@$0A@@std@@@2@1@Z ; std::_Tree<std::_Tmap_traits<unsigned int,ManagedItem *,std::less<unsigned int>,std::allocator<std::pair<unsigned int const ,ManagedItem *> >,0> >::_Insert
	mov	edx, DWORD PTR [eax]
	mov	eax, DWORD PTR ___$ReturnUdt$[ebp]
	pop	edi
	pop	esi
	mov	DWORD PTR [eax], edx
	mov	BYTE PTR [eax+4], 1
	pop	ebx
; Line 991
	mov	esp, ebp
	pop	ebp
	ret	12					; 0000000cH
$LN4@Linsert:
; Line 975
	call	??F?$_Tree_unchecked_const_iterator@V?$_Tree_val@V?$_Tmap_traits@IPAVManagedItem@@U?$less@I@std@@V?$allocator@U?$pair@$$CBIPAVManagedItem@@@std@@@3@$0A@@std@@@std@@U_Iterator_base0@2@@std@@QAEAAV01@XZ ; std::_Tree_unchecked_const_iterator<std::_Tree_val<std::_Tmap_traits<unsigned int,ManagedItem *,std::less<unsigned int>,std::allocator<std::pair<unsigned int const ,ManagedItem *> >,0> >,std::_Iterator_base0>::operator--
	mov	edi, DWORD PTR __Where$91954[ebp]
	mov	edx, DWORD PTR __Node$[ebp]
$LN99@Linsert:
; Line 977
	mov	eax, DWORD PTR [edi+12]
; Line 980
	push	edx
	cmp	eax, DWORD PTR [edx+12]
	jae	SHORT $LN2@Linsert
	mov	ecx, DWORD PTR __Addleft$[ebp]
	push	esi
	push	ecx
	lea	edx, DWORD PTR $T97591[ebp]
	push	edx
	mov	ecx, ebx
	call	?_Insert@?$_Tree@V?$_Tmap_traits@IPAVManagedItem@@U?$less@I@std@@V?$allocator@U?$pair@$$CBIPAVManagedItem@@@std@@@3@$0A@@std@@@std@@IAE?AV?$_Tree_iterator@V?$_Tree_val@V?$_Tmap_traits@IPAVManagedItem@@U?$less@I@std@@V?$allocator@U?$pair@$$CBIPAVManagedItem@@@std@@@3@$0A@@std@@@std@@@2@_NPAU_Node@?$_Tree_nod@V?$_Tmap_traits@IPAVManagedItem@@U?$less@I@std@@V?$allocator@U?$pair@$$CBIPAVManagedItem@@@std@@@3@$0A@@std@@@2@1@Z ; std::_Tree<std::_Tmap_traits<unsigned int,ManagedItem *,std::less<unsigned int>,std::allocator<std::pair<unsigned int const ,ManagedItem *> >,0> >::_Insert
	mov	ecx, DWORD PTR [eax]
	mov	eax, DWORD PTR ___$ReturnUdt$[ebp]
	pop	edi
	pop	esi
	mov	DWORD PTR [eax], ecx
	mov	BYTE PTR [eax+4], 1
	pop	ebx
; Line 991
	mov	esp, ebp
	pop	ebp
	ret	12					; 0000000cH
$LN2@Linsert:
; Line 986
	call	??3@YAXPAX@Z				; operator delete
; Line 988
	mov	eax, DWORD PTR ___$ReturnUdt$[ebp]
	add	esp, 4
	mov	DWORD PTR [eax], edi
	pop	edi
	pop	esi
	mov	BYTE PTR [eax+4], 0
	pop	ebx
; Line 991
	mov	esp, ebp
	pop	ebp
	ret	12					; 0000000cH
?_Linsert@?$_Tree@V?$_Tmap_traits@IPAVManagedItem@@U?$less@I@std@@V?$allocator@U?$pair@$$CBIPAVManagedItem@@@std@@@3@$0A@@std@@@std@@QAE?AU?$pair@V?$_Tree_iterator@V?$_Tree_val@V?$_Tmap_traits@IPAVManagedItem@@U?$less@I@std@@V?$allocator@U?$pair@$$CBIPAVManagedItem@@@std@@@3@$0A@@std@@@std@@@std@@_N@2@PAU_Node@?$_Tree_nod@V?$_Tmap_traits@IPAVManagedItem@@U?$less@I@std@@V?$allocator@U?$pair@$$CBIPAVManagedItem@@@std@@@3@$0A@@std@@@2@_N@Z ENDP ; std::_Tree<std::_Tmap_traits<unsigned int,ManagedItem *,std::less<unsigned int>,std::allocator<std::pair<unsigned int const ,ManagedItem *> >,0> >::_Linsert
_TEXT	ENDS
PUBLIC	?construct@?$allocator@U?$pair@$$CBIPAVManagedItem@@@std@@@std@@QAEXPAU?$pair@$$CBIPAVManagedItem@@@2@$$QAU32@@Z ; std::allocator<std::pair<unsigned int const ,ManagedItem *> >::construct
; Function compile flags: /Ogtp
;	COMDAT ?construct@?$allocator@U?$pair@$$CBIPAVManagedItem@@@std@@@std@@QAEXPAU?$pair@$$CBIPAVManagedItem@@@2@$$QAU32@@Z
_TEXT	SEGMENT
__Ptr$ = 8						; size = 4
__Val$ = 12						; size = 4
?construct@?$allocator@U?$pair@$$CBIPAVManagedItem@@@std@@@std@@QAEXPAU?$pair@$$CBIPAVManagedItem@@@2@$$QAU32@@Z PROC ; std::allocator<std::pair<unsigned int const ,ManagedItem *> >::construct, COMDAT
; _this$ = ecx
; File c:\program files (x86)\microsoft visual studio 10.0\vc\include\xmemory
; Line 201
	push	ebp
	mov	ebp, esp
; Line 202
	mov	eax, DWORD PTR __Ptr$[ebp]
	test	eax, eax
	je	SHORT $LN3@construct
	mov	ecx, DWORD PTR __Val$[ebp]
	mov	edx, DWORD PTR [ecx]
	mov	DWORD PTR [eax], edx
	mov	ecx, DWORD PTR [ecx+4]
	mov	DWORD PTR [eax+4], ecx
$LN3@construct:
; Line 203
	pop	ebp
	ret	8
?construct@?$allocator@U?$pair@$$CBIPAVManagedItem@@@std@@@std@@QAEXPAU?$pair@$$CBIPAVManagedItem@@@2@$$QAU32@@Z ENDP ; std::allocator<std::pair<unsigned int const ,ManagedItem *> >::construct
_TEXT	ENDS
PUBLIC	?find@?$_Tree@V?$_Tmap_traits@IPAVManagedItem@@U?$less@I@std@@V?$allocator@U?$pair@$$CBIPAVManagedItem@@@std@@@3@$0A@@std@@@std@@QAE?AV?$_Tree_iterator@V?$_Tree_val@V?$_Tmap_traits@IPAVManagedItem@@U?$less@I@std@@V?$allocator@U?$pair@$$CBIPAVManagedItem@@@std@@@3@$0A@@std@@@std@@@2@ABI@Z ; std::_Tree<std::_Tmap_traits<unsigned int,ManagedItem *,std::less<unsigned int>,std::allocator<std::pair<unsigned int const ,ManagedItem *> >,0> >::find
; Function compile flags: /Ogtp
;	COMDAT ?find@?$_Tree@V?$_Tmap_traits@IPAVManagedItem@@U?$less@I@std@@V?$allocator@U?$pair@$$CBIPAVManagedItem@@@std@@@3@$0A@@std@@@std@@QAE?AV?$_Tree_iterator@V?$_Tree_val@V?$_Tmap_traits@IPAVManagedItem@@U?$less@I@std@@V?$allocator@U?$pair@$$CBIPAVManagedItem@@@std@@@3@$0A@@std@@@std@@@2@ABI@Z
_TEXT	SEGMENT
$T97951 = -4						; size = 4
___$ReturnUdt$ = 8					; size = 4
__Where$ = 12						; size = 4
__Keyval$ = 12						; size = 4
?find@?$_Tree@V?$_Tmap_traits@IPAVManagedItem@@U?$less@I@std@@V?$allocator@U?$pair@$$CBIPAVManagedItem@@@std@@@3@$0A@@std@@@std@@QAE?AV?$_Tree_iterator@V?$_Tree_val@V?$_Tmap_traits@IPAVManagedItem@@U?$less@I@std@@V?$allocator@U?$pair@$$CBIPAVManagedItem@@@std@@@3@$0A@@std@@@std@@@2@ABI@Z PROC ; std::_Tree<std::_Tmap_traits<unsigned int,ManagedItem *,std::less<unsigned int>,std::allocator<std::pair<unsigned int const ,ManagedItem *> >,0> >::find, COMDAT
; _this$ = ecx
; File c:\program files (x86)\microsoft visual studio 10.0\vc\include\xtree
; Line 1423
	push	ebp
	mov	ebp, esp
	push	ecx
; Line 1424
	mov	edx, DWORD PTR [ecx+4]
	mov	eax, DWORD PTR [edx+4]
	cmp	BYTE PTR [eax+21], 0
	push	edi
	mov	edi, DWORD PTR __Keyval$[ebp]
	jne	SHORT $LN9@find
	push	esi
	mov	esi, DWORD PTR [edi]
$LL10@find:
	cmp	DWORD PTR [eax+12], esi
	jae	SHORT $LN8@find
	mov	eax, DWORD PTR [eax+8]
	jmp	SHORT $LN7@find
$LN8@find:
	mov	edx, eax
	mov	eax, DWORD PTR [eax]
$LN7@find:
	cmp	BYTE PTR [eax+21], 0
	je	SHORT $LL10@find
	pop	esi
$LN9@find:
; Line 1428
	mov	eax, DWORD PTR [ecx+4]
	mov	DWORD PTR __Where$[ebp], edx
	cmp	edx, eax
	je	SHORT $LN3@find
	mov	ecx, DWORD PTR [edi]
	cmp	ecx, DWORD PTR [edx+12]
	jb	SHORT $LN3@find
	lea	eax, DWORD PTR __Where$[ebp]
	mov	edx, DWORD PTR [eax]
	mov	eax, DWORD PTR ___$ReturnUdt$[ebp]
	mov	DWORD PTR [eax], edx
	pop	edi
; Line 1429
	mov	esp, ebp
	pop	ebp
	ret	8
$LN3@find:
; Line 1428
	mov	DWORD PTR $T97951[ebp], eax
	lea	eax, DWORD PTR $T97951[ebp]
	mov	edx, DWORD PTR [eax]
	mov	eax, DWORD PTR ___$ReturnUdt$[ebp]
	mov	DWORD PTR [eax], edx
	pop	edi
; Line 1429
	mov	esp, ebp
	pop	ebp
	ret	8
?find@?$_Tree@V?$_Tmap_traits@IPAVManagedItem@@U?$less@I@std@@V?$allocator@U?$pair@$$CBIPAVManagedItem@@@std@@@3@$0A@@std@@@std@@QAE?AV?$_Tree_iterator@V?$_Tree_val@V?$_Tmap_traits@IPAVManagedItem@@U?$less@I@std@@V?$allocator@U?$pair@$$CBIPAVManagedItem@@@std@@@3@$0A@@std@@@std@@@2@ABI@Z ENDP ; std::_Tree<std::_Tmap_traits<unsigned int,ManagedItem *,std::less<unsigned int>,std::allocator<std::pair<unsigned int const ,ManagedItem *> >,0> >::find
_TEXT	ENDS
PUBLIC	??1?$vector@PAVframe@@V?$allocator@PAVframe@@@std@@@std@@QAE@XZ ; std::vector<frame *,std::allocator<frame *> >::~vector<frame *,std::allocator<frame *> >
; Function compile flags: /Ogtp
;	COMDAT ??1?$vector@PAVframe@@V?$allocator@PAVframe@@@std@@@std@@QAE@XZ
_TEXT	SEGMENT
??1?$vector@PAVframe@@V?$allocator@PAVframe@@@std@@@std@@QAE@XZ PROC ; std::vector<frame *,std::allocator<frame *> >::~vector<frame *,std::allocator<frame *> >, COMDAT
; _this$ = ecx
; File c:\program files (x86)\microsoft visual studio 10.0\vc\include\vector
; Line 704
	push	esi
	mov	esi, ecx
; Line 705
	mov	eax, DWORD PTR [esi]
	test	eax, eax
	je	SHORT $LN8@vector@2
	push	eax
	call	??3@YAXPAX@Z				; operator delete
	add	esp, 4
$LN8@vector@2:
	mov	DWORD PTR [esi], 0
	mov	DWORD PTR [esi+4], 0
	mov	DWORD PTR [esi+8], 0
	pop	esi
; Line 706
	ret	0
??1?$vector@PAVframe@@V?$allocator@PAVframe@@@std@@@std@@QAE@XZ ENDP ; std::vector<frame *,std::allocator<frame *> >::~vector<frame *,std::allocator<frame *> >
_TEXT	ENDS
PUBLIC	?assign@?$basic_string@DU?$char_traits@D@std@@V?$allocator@D@2@@std@@QAEAAV12@ABV12@II@Z ; std::basic_string<char,std::char_traits<char>,std::allocator<char> >::assign
; Function compile flags: /Ogtp
;	COMDAT ?assign@?$basic_string@DU?$char_traits@D@std@@V?$allocator@D@2@@std@@QAEAAV12@ABV12@II@Z
_TEXT	SEGMENT
__Right$ = 8						; size = 4
__Roff$ = 12						; size = 4
__Count$ = 16						; size = 4
?assign@?$basic_string@DU?$char_traits@D@std@@V?$allocator@D@2@@std@@QAEAAV12@ABV12@II@Z PROC ; std::basic_string<char,std::char_traits<char>,std::allocator<char> >::assign, COMDAT
; _this$ = ecx
; File c:\program files (x86)\microsoft visual studio 10.0\vc\include\xstring
; Line 892
	push	ebp
	mov	ebp, esp
	push	ebx
; Line 893
	mov	ebx, DWORD PTR __Roff$[ebp]
	push	esi
