; Listing generated by Microsoft (R) Optimizing Compiler Version 16.00.40219.01 

	TITLE	C:\programovani\WoW Editor\Test\src\Editor\Menu.cpp
	.686P
	.XMM
	include listing.inc
	.model	flat

INCLUDELIB MSVCRT
INCLUDELIB OLDNAMES

PUBLIC	?value@?$integral_constant@_N$0A@@tr1@std@@2_NB	; std::tr1::integral_constant<bool,0>::value
PUBLIC	?value@?$integral_constant@_N$00@tr1@std@@2_NB	; std::tr1::integral_constant<bool,1>::value
PUBLIC	?value@?$integral_constant@I$0A@@tr1@std@@2IB	; std::tr1::integral_constant<unsigned int,0>::value
PUBLIC	?_Rank@?$_Arithmetic_traits@_N@std@@2HB		; std::_Arithmetic_traits<bool>::_Rank
PUBLIC	?_Rank@?$_Arithmetic_traits@D@std@@2HB		; std::_Arithmetic_traits<char>::_Rank
PUBLIC	?_Rank@?$_Arithmetic_traits@C@std@@2HB		; std::_Arithmetic_traits<signed char>::_Rank
PUBLIC	?_Rank@?$_Arithmetic_traits@E@std@@2HB		; std::_Arithmetic_traits<unsigned char>::_Rank
PUBLIC	?_Rank@?$_Arithmetic_traits@F@std@@2HB		; std::_Arithmetic_traits<short>::_Rank
PUBLIC	?_Rank@?$_Arithmetic_traits@G@std@@2HB		; std::_Arithmetic_traits<unsigned short>::_Rank
PUBLIC	?_Rank@?$_Arithmetic_traits@H@std@@2HB		; std::_Arithmetic_traits<int>::_Rank
PUBLIC	?_Rank@?$_Arithmetic_traits@I@std@@2HB		; std::_Arithmetic_traits<unsigned int>::_Rank
PUBLIC	?_Rank@?$_Arithmetic_traits@J@std@@2HB		; std::_Arithmetic_traits<long>::_Rank
PUBLIC	?_Rank@?$_Arithmetic_traits@K@std@@2HB		; std::_Arithmetic_traits<unsigned long>::_Rank
PUBLIC	?_Rank@?$_Arithmetic_traits@_J@std@@2HB		; std::_Arithmetic_traits<__int64>::_Rank
PUBLIC	?_Rank@?$_Arithmetic_traits@_K@std@@2HB		; std::_Arithmetic_traits<unsigned __int64>::_Rank
PUBLIC	?_Rank@?$_Arithmetic_traits@M@std@@2HB		; std::_Arithmetic_traits<float>::_Rank
PUBLIC	?_Rank@?$_Arithmetic_traits@N@std@@2HB		; std::_Arithmetic_traits<double>::_Rank
PUBLIC	?_Rank@?$_Arithmetic_traits@O@std@@2HB		; std::_Arithmetic_traits<long double>::_Rank
PUBLIC	?collate@?$_Locbase@H@std@@2HB			; std::_Locbase<int>::collate
PUBLIC	?ctype@?$_Locbase@H@std@@2HB			; std::_Locbase<int>::ctype
PUBLIC	?monetary@?$_Locbase@H@std@@2HB			; std::_Locbase<int>::monetary
PUBLIC	?numeric@?$_Locbase@H@std@@2HB			; std::_Locbase<int>::numeric
PUBLIC	?time@?$_Locbase@H@std@@2HB			; std::_Locbase<int>::time
PUBLIC	?messages@?$_Locbase@H@std@@2HB			; std::_Locbase<int>::messages
PUBLIC	?all@?$_Locbase@H@std@@2HB			; std::_Locbase<int>::all
PUBLIC	?none@?$_Locbase@H@std@@2HB			; std::_Locbase<int>::none
PUBLIC	?skipws@?$_Iosb@H@std@@2W4_Fmtflags@12@B	; std::_Iosb<int>::skipws
PUBLIC	?unitbuf@?$_Iosb@H@std@@2W4_Fmtflags@12@B	; std::_Iosb<int>::unitbuf
PUBLIC	?uppercase@?$_Iosb@H@std@@2W4_Fmtflags@12@B	; std::_Iosb<int>::uppercase
PUBLIC	?showbase@?$_Iosb@H@std@@2W4_Fmtflags@12@B	; std::_Iosb<int>::showbase
PUBLIC	?showpoint@?$_Iosb@H@std@@2W4_Fmtflags@12@B	; std::_Iosb<int>::showpoint
PUBLIC	?showpos@?$_Iosb@H@std@@2W4_Fmtflags@12@B	; std::_Iosb<int>::showpos
PUBLIC	?left@?$_Iosb@H@std@@2W4_Fmtflags@12@B		; std::_Iosb<int>::left
PUBLIC	?right@?$_Iosb@H@std@@2W4_Fmtflags@12@B		; std::_Iosb<int>::right
PUBLIC	?internal@?$_Iosb@H@std@@2W4_Fmtflags@12@B	; std::_Iosb<int>::internal
PUBLIC	?dec@?$_Iosb@H@std@@2W4_Fmtflags@12@B		; std::_Iosb<int>::dec
PUBLIC	?oct@?$_Iosb@H@std@@2W4_Fmtflags@12@B		; std::_Iosb<int>::oct
PUBLIC	?hex@?$_Iosb@H@std@@2W4_Fmtflags@12@B		; std::_Iosb<int>::hex
PUBLIC	?scientific@?$_Iosb@H@std@@2W4_Fmtflags@12@B	; std::_Iosb<int>::scientific
PUBLIC	?fixed@?$_Iosb@H@std@@2W4_Fmtflags@12@B		; std::_Iosb<int>::fixed
PUBLIC	?hexfloat@?$_Iosb@H@std@@2W4_Fmtflags@12@B	; std::_Iosb<int>::hexfloat
PUBLIC	?boolalpha@?$_Iosb@H@std@@2W4_Fmtflags@12@B	; std::_Iosb<int>::boolalpha
PUBLIC	?_Stdio@?$_Iosb@H@std@@2W4_Fmtflags@12@B	; std::_Iosb<int>::_Stdio
PUBLIC	?adjustfield@?$_Iosb@H@std@@2W4_Fmtflags@12@B	; std::_Iosb<int>::adjustfield
PUBLIC	?basefield@?$_Iosb@H@std@@2W4_Fmtflags@12@B	; std::_Iosb<int>::basefield
PUBLIC	?floatfield@?$_Iosb@H@std@@2W4_Fmtflags@12@B	; std::_Iosb<int>::floatfield
PUBLIC	?goodbit@?$_Iosb@H@std@@2W4_Iostate@12@B	; std::_Iosb<int>::goodbit
PUBLIC	?eofbit@?$_Iosb@H@std@@2W4_Iostate@12@B		; std::_Iosb<int>::eofbit
PUBLIC	?failbit@?$_Iosb@H@std@@2W4_Iostate@12@B	; std::_Iosb<int>::failbit
PUBLIC	?badbit@?$_Iosb@H@std@@2W4_Iostate@12@B		; std::_Iosb<int>::badbit
PUBLIC	?_Hardfail@?$_Iosb@H@std@@2W4_Iostate@12@B	; std::_Iosb<int>::_Hardfail
PUBLIC	?in@?$_Iosb@H@std@@2W4_Openmode@12@B		; std::_Iosb<int>::in
PUBLIC	?out@?$_Iosb@H@std@@2W4_Openmode@12@B		; std::_Iosb<int>::out
PUBLIC	?ate@?$_Iosb@H@std@@2W4_Openmode@12@B		; std::_Iosb<int>::ate
PUBLIC	?app@?$_Iosb@H@std@@2W4_Openmode@12@B		; std::_Iosb<int>::app
PUBLIC	?trunc@?$_Iosb@H@std@@2W4_Openmode@12@B		; std::_Iosb<int>::trunc
PUBLIC	?_Nocreate@?$_Iosb@H@std@@2W4_Openmode@12@B	; std::_Iosb<int>::_Nocreate
PUBLIC	?_Noreplace@?$_Iosb@H@std@@2W4_Openmode@12@B	; std::_Iosb<int>::_Noreplace
PUBLIC	?binary@?$_Iosb@H@std@@2W4_Openmode@12@B	; std::_Iosb<int>::binary
PUBLIC	?beg@?$_Iosb@H@std@@2W4_Seekdir@12@B		; std::_Iosb<int>::beg
PUBLIC	?cur@?$_Iosb@H@std@@2W4_Seekdir@12@B		; std::_Iosb<int>::cur
PUBLIC	?end@?$_Iosb@H@std@@2W4_Seekdir@12@B		; std::_Iosb<int>::end
CONST	SEGMENT
$SG119186 DB	'DBFilesClient\Map.dbc', 00H
$SG119780 DB	00H
	ORG $+1
$SG119240 DB	'Azeroth', 00H
$SG119241 DB	'Kalimdor', 00H
	ORG $+3
$SG119242 DB	'Outland', 00H
$SG119243 DB	'Northrend', 00H
	ORG $+2
$SG119265 DB	'MainMenu', 00H
	ORG $+3
$SG119278 DB	'Interface\Glues\Models\UI_%s\UI_%s.mdx', 00H
	ORG $+1
$SG119279 DB	'Test Menu.cpp 1 - Start', 00H
$SG119285 DB	'Test Menu.cpp 1 - Success', 00H
	ORG $+2
$SG119286 DB	'Test Menu.cpp 2 - Start', 00H
$SG119287 DB	'Test Menu.cpp 2 - Success', 00H
	ORG $+2
$SG119288 DB	'Test Menu.cpp 3 - Start', 00H
$SG119289 DB	'Test Menu.cpp 3 - Success', 00H
	ORG $+2
$SG119346 DB	'Loading...', 00H
	ORG $+1
$SG119362 DB	'Click to enter', 00H
	ORG $+1
$SG119364 DB	'Select your starting point', 00H
	ORG $+1
$SG119367 DB	'World of Warcraft Editor', 00H
	ORG $+3
$SG119368 DB	' ', 00H
	ORG $+2
$SG119369 DB	'World of Warcraft Editor', 00H
	ORG $+3
$SG119370 DB	'0.0.2', 00H
	ORG $+2
$SG119371 DB	'0.0.2', 00H
	ORG $+2
$SG119372 DB	'Controls', 00H
	ORG $+3
$SG119373 DB	'F1 - Toggle Models', 0aH, 'F2 - Toggle Doodads', 0aH, 'F'
	DB	'3 - Toggle Terrain', 0aH, 'F4 - Toggle Stats', 0aH, 'Shift + '
	DB	'F4 - Toggle Selecting', 0aH, 'F5 - Save Bookmark', 0aH, 'F6 -'
	DB	' Toggle Map objects', 0aH, 'F7 - Toggle Chunk lines', 0aH, 'F'
	DB	'8 - Toggle Detailed info', 0aH, 'F9 - Toggle Map contour', 0aH
	DB	'F10 - Reload Textures', 0aH, 'F11 - Reload Models', 0aH, 'F12'
	DB	' - Reload WMOs', 0aH, 'H - Disable highres terrain', 0aH, 'I '
	DB	'- Toggle invert mouse', 0aH, 'J - Reload ADT Tile', 0aH, 'K -'
	DB	' Save ADT Tile', 0aH, 'T - Changes Terrain Mode', 0aH, 'Y - C'
	DB	'hanges Brush Type', 0aH, 'M - Minimap', 0aH, 'U - New minimap'
	DB	0aH, 'Ctrl + Shift + P - Save Map to RAW', 0aH, 'Esc - Back/Ex'
	DB	'it', 0aH, 'WASD - Move', 0aH, 'R - Quick 180 degree turn', 0aH
	DB	'F - Toggle Fog', 0aH, 'G - Toggle Drawing of Chunk flag info', 0aH
	DB	'+,- - Adjust Fog distance', 0aH, 'O,P - Slower/Faster Movemen'
	DB	't', 0aH, 'B,N - Slower/Faster Time', 0aH, 0aH, 'Terrain Mode '
	DB	'- Raise/Lower', 0aH, '  Left Click + Shift - Raise Terrain', 0aH
	DB	'  Left Click + Alt - Lower Terrain', 0aH, 'Terrain Mode - Fla'
	DB	'tten/Blur', 0aH, '  Left Click + Shift - Flatten Terrain', 0aH
	DB	'  Left Click + Alt - Blur Terrain', 0aH, 00H
	ORG $+2
$SG119374 DB	'World of Warcraft is (C) Blizzard Entertainment', 00H
$SG119375 DB	'Bookmarks', 00H
	ORG $+2
$SG119697 DB	'bookmarks.txt', 00H
	ORG $+2
$SG119803 DB	'(%s) %s', 00H
CONST	ENDS
;	COMDAT ?end@?$_Iosb@H@std@@2W4_Seekdir@12@B
CONST	SEGMENT
?end@?$_Iosb@H@std@@2W4_Seekdir@12@B DD 02H		; std::_Iosb<int>::end
CONST	ENDS
;	COMDAT ?cur@?$_Iosb@H@std@@2W4_Seekdir@12@B
CONST	SEGMENT
?cur@?$_Iosb@H@std@@2W4_Seekdir@12@B DD 01H		; std::_Iosb<int>::cur
CONST	ENDS
;	COMDAT ?beg@?$_Iosb@H@std@@2W4_Seekdir@12@B
CONST	SEGMENT
?beg@?$_Iosb@H@std@@2W4_Seekdir@12@B DD 00H		; std::_Iosb<int>::beg
CONST	ENDS
;	COMDAT ?binary@?$_Iosb@H@std@@2W4_Openmode@12@B
CONST	SEGMENT
?binary@?$_Iosb@H@std@@2W4_Openmode@12@B DD 020H	; std::_Iosb<int>::binary
CONST	ENDS
;	COMDAT ?_Noreplace@?$_Iosb@H@std@@2W4_Openmode@12@B
CONST	SEGMENT
?_Noreplace@?$_Iosb@H@std@@2W4_Openmode@12@B DD 080H	; std::_Iosb<int>::_Noreplace
CONST	ENDS
;	COMDAT ?_Nocreate@?$_Iosb@H@std@@2W4_Openmode@12@B
CONST	SEGMENT
?_Nocreate@?$_Iosb@H@std@@2W4_Openmode@12@B DD 040H	; std::_Iosb<int>::_Nocreate
CONST	ENDS
;	COMDAT ?trunc@?$_Iosb@H@std@@2W4_Openmode@12@B
CONST	SEGMENT
?trunc@?$_Iosb@H@std@@2W4_Openmode@12@B DD 010H		; std::_Iosb<int>::trunc
CONST	ENDS
;	COMDAT ?app@?$_Iosb@H@std@@2W4_Openmode@12@B
CONST	SEGMENT
?app@?$_Iosb@H@std@@2W4_Openmode@12@B DD 08H		; std::_Iosb<int>::app
CONST	ENDS
;	COMDAT ?ate@?$_Iosb@H@std@@2W4_Openmode@12@B
CONST	SEGMENT
?ate@?$_Iosb@H@std@@2W4_Openmode@12@B DD 04H		; std::_Iosb<int>::ate
CONST	ENDS
;	COMDAT ?out@?$_Iosb@H@std@@2W4_Openmode@12@B
CONST	SEGMENT
?out@?$_Iosb@H@std@@2W4_Openmode@12@B DD 02H		; std::_Iosb<int>::out
CONST	ENDS
;	COMDAT ?in@?$_Iosb@H@std@@2W4_Openmode@12@B
CONST	SEGMENT
?in@?$_Iosb@H@std@@2W4_Openmode@12@B DD 01H		; std::_Iosb<int>::in
CONST	ENDS
;	COMDAT ?_Hardfail@?$_Iosb@H@std@@2W4_Iostate@12@B
CONST	SEGMENT
?_Hardfail@?$_Iosb@H@std@@2W4_Iostate@12@B DD 010H	; std::_Iosb<int>::_Hardfail
CONST	ENDS
;	COMDAT ?badbit@?$_Iosb@H@std@@2W4_Iostate@12@B
CONST	SEGMENT
?badbit@?$_Iosb@H@std@@2W4_Iostate@12@B DD 04H		; std::_Iosb<int>::badbit
CONST	ENDS
;	COMDAT ?failbit@?$_Iosb@H@std@@2W4_Iostate@12@B
CONST	SEGMENT
?failbit@?$_Iosb@H@std@@2W4_Iostate@12@B DD 02H		; std::_Iosb<int>::failbit
CONST	ENDS
;	COMDAT ?eofbit@?$_Iosb@H@std@@2W4_Iostate@12@B
CONST	SEGMENT
?eofbit@?$_Iosb@H@std@@2W4_Iostate@12@B DD 01H		; std::_Iosb<int>::eofbit
CONST	ENDS
;	COMDAT ?goodbit@?$_Iosb@H@std@@2W4_Iostate@12@B
CONST	SEGMENT
?goodbit@?$_Iosb@H@std@@2W4_Iostate@12@B DD 00H		; std::_Iosb<int>::goodbit
CONST	ENDS
;	COMDAT ?floatfield@?$_Iosb@H@std@@2W4_Fmtflags@12@B
CONST	SEGMENT
?floatfield@?$_Iosb@H@std@@2W4_Fmtflags@12@B DD 03000H	; std::_Iosb<int>::floatfield
CONST	ENDS
;	COMDAT ?basefield@?$_Iosb@H@std@@2W4_Fmtflags@12@B
CONST	SEGMENT
?basefield@?$_Iosb@H@std@@2W4_Fmtflags@12@B DD 0e00H	; std::_Iosb<int>::basefield
CONST	ENDS
;	COMDAT ?adjustfield@?$_Iosb@H@std@@2W4_Fmtflags@12@B
CONST	SEGMENT
?adjustfield@?$_Iosb@H@std@@2W4_Fmtflags@12@B DD 01c0H	; std::_Iosb<int>::adjustfield
CONST	ENDS
;	COMDAT ?_Stdio@?$_Iosb@H@std@@2W4_Fmtflags@12@B
CONST	SEGMENT
?_Stdio@?$_Iosb@H@std@@2W4_Fmtflags@12@B DD 08000H	; std::_Iosb<int>::_Stdio
CONST	ENDS
;	COMDAT ?boolalpha@?$_Iosb@H@std@@2W4_Fmtflags@12@B
CONST	SEGMENT
?boolalpha@?$_Iosb@H@std@@2W4_Fmtflags@12@B DD 04000H	; std::_Iosb<int>::boolalpha
CONST	ENDS
;	COMDAT ?hexfloat@?$_Iosb@H@std@@2W4_Fmtflags@12@B
CONST	SEGMENT
?hexfloat@?$_Iosb@H@std@@2W4_Fmtflags@12@B DD 03000H	; std::_Iosb<int>::hexfloat
CONST	ENDS
;	COMDAT ?fixed@?$_Iosb@H@std@@2W4_Fmtflags@12@B
CONST	SEGMENT
?fixed@?$_Iosb@H@std@@2W4_Fmtflags@12@B DD 02000H	; std::_Iosb<int>::fixed
CONST	ENDS
;	COMDAT ?scientific@?$_Iosb@H@std@@2W4_Fmtflags@12@B
CONST	SEGMENT
?scientific@?$_Iosb@H@std@@2W4_Fmtflags@12@B DD 01000H	; std::_Iosb<int>::scientific
CONST	ENDS
;	COMDAT ?hex@?$_Iosb@H@std@@2W4_Fmtflags@12@B
CONST	SEGMENT
?hex@?$_Iosb@H@std@@2W4_Fmtflags@12@B DD 0800H		; std::_Iosb<int>::hex
CONST	ENDS
;	COMDAT ?oct@?$_Iosb@H@std@@2W4_Fmtflags@12@B
CONST	SEGMENT
?oct@?$_Iosb@H@std@@2W4_Fmtflags@12@B DD 0400H		; std::_Iosb<int>::oct
CONST	ENDS
;	COMDAT ?dec@?$_Iosb@H@std@@2W4_Fmtflags@12@B
CONST	SEGMENT
?dec@?$_Iosb@H@std@@2W4_Fmtflags@12@B DD 0200H		; std::_Iosb<int>::dec
CONST	ENDS
;	COMDAT ?internal@?$_Iosb@H@std@@2W4_Fmtflags@12@B
CONST	SEGMENT
?internal@?$_Iosb@H@std@@2W4_Fmtflags@12@B DD 0100H	; std::_Iosb<int>::internal
CONST	ENDS
;	COMDAT ?right@?$_Iosb@H@std@@2W4_Fmtflags@12@B
CONST	SEGMENT
?right@?$_Iosb@H@std@@2W4_Fmtflags@12@B DD 080H		; std::_Iosb<int>::right
CONST	ENDS
;	COMDAT ?left@?$_Iosb@H@std@@2W4_Fmtflags@12@B
CONST	SEGMENT
?left@?$_Iosb@H@std@@2W4_Fmtflags@12@B DD 040H		; std::_Iosb<int>::left
CONST	ENDS
;	COMDAT ?showpos@?$_Iosb@H@std@@2W4_Fmtflags@12@B
CONST	SEGMENT
?showpos@?$_Iosb@H@std@@2W4_Fmtflags@12@B DD 020H	; std::_Iosb<int>::showpos
CONST	ENDS
;	COMDAT ?showpoint@?$_Iosb@H@std@@2W4_Fmtflags@12@B
CONST	SEGMENT
?showpoint@?$_Iosb@H@std@@2W4_Fmtflags@12@B DD 010H	; std::_Iosb<int>::showpoint
CONST	ENDS
;	COMDAT ?showbase@?$_Iosb@H@std@@2W4_Fmtflags@12@B
CONST	SEGMENT
?showbase@?$_Iosb@H@std@@2W4_Fmtflags@12@B DD 08H	; std::_Iosb<int>::showbase
CONST	ENDS
;	COMDAT ?uppercase@?$_Iosb@H@std@@2W4_Fmtflags@12@B
CONST	SEGMENT
?uppercase@?$_Iosb@H@std@@2W4_Fmtflags@12@B DD 04H	; std::_Iosb<int>::uppercase
CONST	ENDS
;	COMDAT ?unitbuf@?$_Iosb@H@std@@2W4_Fmtflags@12@B
CONST	SEGMENT
?unitbuf@?$_Iosb@H@std@@2W4_Fmtflags@12@B DD 02H	; std::_Iosb<int>::unitbuf
CONST	ENDS
;	COMDAT ?skipws@?$_Iosb@H@std@@2W4_Fmtflags@12@B
CONST	SEGMENT
?skipws@?$_Iosb@H@std@@2W4_Fmtflags@12@B DD 01H		; std::_Iosb<int>::skipws
CONST	ENDS
;	COMDAT ?none@?$_Locbase@H@std@@2HB
CONST	SEGMENT
?none@?$_Locbase@H@std@@2HB DD 00H			; std::_Locbase<int>::none
CONST	ENDS
;	COMDAT ?all@?$_Locbase@H@std@@2HB
CONST	SEGMENT
?all@?$_Locbase@H@std@@2HB DD 03fH			; std::_Locbase<int>::all
CONST	ENDS
;	COMDAT ?messages@?$_Locbase@H@std@@2HB
CONST	SEGMENT
?messages@?$_Locbase@H@std@@2HB DD 020H			; std::_Locbase<int>::messages
CONST	ENDS
;	COMDAT ?time@?$_Locbase@H@std@@2HB
CONST	SEGMENT
?time@?$_Locbase@H@std@@2HB DD 010H			; std::_Locbase<int>::time
CONST	ENDS
;	COMDAT ?numeric@?$_Locbase@H@std@@2HB
CONST	SEGMENT
?numeric@?$_Locbase@H@std@@2HB DD 08H			; std::_Locbase<int>::numeric
CONST	ENDS
;	COMDAT ?monetary@?$_Locbase@H@std@@2HB
CONST	SEGMENT
?monetary@?$_Locbase@H@std@@2HB DD 04H			; std::_Locbase<int>::monetary
CONST	ENDS
;	COMDAT ?ctype@?$_Locbase@H@std@@2HB
CONST	SEGMENT
?ctype@?$_Locbase@H@std@@2HB DD 02H			; std::_Locbase<int>::ctype
CONST	ENDS
;	COMDAT ?collate@?$_Locbase@H@std@@2HB
CONST	SEGMENT
?collate@?$_Locbase@H@std@@2HB DD 01H			; std::_Locbase<int>::collate
CONST	ENDS
;	COMDAT ?_Rank@?$_Arithmetic_traits@O@std@@2HB
CONST	SEGMENT
?_Rank@?$_Arithmetic_traits@O@std@@2HB DD 09H		; std::_Arithmetic_traits<long double>::_Rank
CONST	ENDS
;	COMDAT ?_Rank@?$_Arithmetic_traits@N@std@@2HB
CONST	SEGMENT
?_Rank@?$_Arithmetic_traits@N@std@@2HB DD 08H		; std::_Arithmetic_traits<double>::_Rank
CONST	ENDS
;	COMDAT ?_Rank@?$_Arithmetic_traits@M@std@@2HB
CONST	SEGMENT
?_Rank@?$_Arithmetic_traits@M@std@@2HB DD 07H		; std::_Arithmetic_traits<float>::_Rank
CONST	ENDS
;	COMDAT ?_Rank@?$_Arithmetic_traits@_K@std@@2HB
CONST	SEGMENT
?_Rank@?$_Arithmetic_traits@_K@std@@2HB DD 06H		; std::_Arithmetic_traits<unsigned __int64>::_Rank
CONST	ENDS
;	COMDAT ?_Rank@?$_Arithmetic_traits@_J@std@@2HB
CONST	SEGMENT
?_Rank@?$_Arithmetic_traits@_J@std@@2HB DD 06H		; std::_Arithmetic_traits<__int64>::_Rank
CONST	ENDS
;	COMDAT ?_Rank@?$_Arithmetic_traits@K@std@@2HB
CONST	SEGMENT
?_Rank@?$_Arithmetic_traits@K@std@@2HB DD 05H		; std::_Arithmetic_traits<unsigned long>::_Rank
CONST	ENDS
;	COMDAT ?_Rank@?$_Arithmetic_traits@J@std@@2HB
CONST	SEGMENT
?_Rank@?$_Arithmetic_traits@J@std@@2HB DD 05H		; std::_Arithmetic_traits<long>::_Rank
CONST	ENDS
;	COMDAT ?_Rank@?$_Arithmetic_traits@I@std@@2HB
CONST	SEGMENT
?_Rank@?$_Arithmetic_traits@I@std@@2HB DD 04H		; std::_Arithmetic_traits<unsigned int>::_Rank
CONST	ENDS
;	COMDAT ?_Rank@?$_Arithmetic_traits@H@std@@2HB
CONST	SEGMENT
?_Rank@?$_Arithmetic_traits@H@std@@2HB DD 04H		; std::_Arithmetic_traits<int>::_Rank
CONST	ENDS
;	COMDAT ?_Rank@?$_Arithmetic_traits@G@std@@2HB
CONST	SEGMENT
?_Rank@?$_Arithmetic_traits@G@std@@2HB DD 03H		; std::_Arithmetic_traits<unsigned short>::_Rank
CONST	ENDS
;	COMDAT ?_Rank@?$_Arithmetic_traits@F@std@@2HB
CONST	SEGMENT
?_Rank@?$_Arithmetic_traits@F@std@@2HB DD 03H		; std::_Arithmetic_traits<short>::_Rank
CONST	ENDS
;	COMDAT ?_Rank@?$_Arithmetic_traits@E@std@@2HB
CONST	SEGMENT
?_Rank@?$_Arithmetic_traits@E@std@@2HB DD 02H		; std::_Arithmetic_traits<unsigned char>::_Rank
CONST	ENDS
;	COMDAT ?_Rank@?$_Arithmetic_traits@C@std@@2HB
CONST	SEGMENT
?_Rank@?$_Arithmetic_traits@C@std@@2HB DD 02H		; std::_Arithmetic_traits<signed char>::_Rank
CONST	ENDS
;	COMDAT ?_Rank@?$_Arithmetic_traits@D@std@@2HB
CONST	SEGMENT
?_Rank@?$_Arithmetic_traits@D@std@@2HB DD 02H		; std::_Arithmetic_traits<char>::_Rank
CONST	ENDS
;	COMDAT ?_Rank@?$_Arithmetic_traits@_N@std@@2HB
CONST	SEGMENT
?_Rank@?$_Arithmetic_traits@_N@std@@2HB DD 01H		; std::_Arithmetic_traits<bool>::_Rank
CONST	ENDS
;	COMDAT ?value@?$integral_constant@I$0A@@tr1@std@@2IB
CONST	SEGMENT
?value@?$integral_constant@I$0A@@tr1@std@@2IB DD 00H	; std::tr1::integral_constant<unsigned int,0>::value
CONST	ENDS
;	COMDAT ?value@?$integral_constant@_N$00@tr1@std@@2_NB
CONST	SEGMENT
?value@?$integral_constant@_N$00@tr1@std@@2_NB DB 01H	; std::tr1::integral_constant<bool,1>::value
CONST	ENDS
;	COMDAT ?value@?$integral_constant@_N$0A@@tr1@std@@2_NB
CONST	SEGMENT
?value@?$integral_constant@_N$0A@@tr1@std@@2_NB DB 00H	; std::tr1::integral_constant<bool,0>::value
CONST	ENDS
PUBLIC	??_7bad_alloc@std@@6B@				; std::bad_alloc::`vftable'
PUBLIC	??0bad_alloc@std@@QAE@PBD@Z			; std::bad_alloc::bad_alloc
PUBLIC	??_R4bad_alloc@std@@6B@				; std::bad_alloc::`RTTI Complete Object Locator'
PUBLIC	??_R0?AVbad_alloc@std@@@8			; std::bad_alloc `RTTI Type Descriptor'
PUBLIC	??_R3bad_alloc@std@@8				; std::bad_alloc::`RTTI Class Hierarchy Descriptor'
PUBLIC	??_R2bad_alloc@std@@8				; std::bad_alloc::`RTTI Base Class Array'
PUBLIC	??_R1A@?0A@EA@bad_alloc@std@@8			; std::bad_alloc::`RTTI Base Class Descriptor at (0,-1,0,64)'
PUBLIC	??_R1A@?0A@EA@exception@std@@8			; std::exception::`RTTI Base Class Descriptor at (0,-1,0,64)'
PUBLIC	??_R0?AVexception@std@@@8			; std::exception `RTTI Type Descriptor'
PUBLIC	??_R3exception@std@@8				; std::exception::`RTTI Class Hierarchy Descriptor'
PUBLIC	??_R2exception@std@@8				; std::exception::`RTTI Base Class Array'
EXTRN	__imp_??0exception@std@@QAE@ABQBD@Z:PROC
EXTRN	??_7type_info@@6B@:QWORD			; type_info::`vftable'
EXTRN	??_Ebad_alloc@std@@UAEPAXI@Z:PROC		; std::bad_alloc::`vector deleting destructor'
EXTRN	?what@exception@std@@UBEPBDXZ:PROC		; std::exception::what
;	COMDAT ??_R2exception@std@@8
; File c:\program files (x86)\microsoft visual studio 10.0\vc\include\exception
rdata$r	SEGMENT
??_R2exception@std@@8 DD FLAT:??_R1A@?0A@EA@exception@std@@8 ; std::exception::`RTTI Base Class Array'
rdata$r	ENDS
;	COMDAT ??_R3exception@std@@8
rdata$r	SEGMENT
??_R3exception@std@@8 DD 00H				; std::exception::`RTTI Class Hierarchy Descriptor'
	DD	00H
	DD	01H
	DD	FLAT:??_R2exception@std@@8
rdata$r	ENDS
;	COMDAT ??_R0?AVexception@std@@@8
_DATA	SEGMENT
??_R0?AVexception@std@@@8 DD FLAT:??_7type_info@@6B@	; std::exception `RTTI Type Descriptor'
	DD	00H
	DB	'.?AVexception@std@@', 00H
_DATA	ENDS
;	COMDAT ??_R1A@?0A@EA@exception@std@@8
rdata$r	SEGMENT
??_R1A@?0A@EA@exception@std@@8 DD FLAT:??_R0?AVexception@std@@@8 ; std::exception::`RTTI Base Class Descriptor at (0,-1,0,64)'
	DD	00H
	DD	00H
	DD	0ffffffffH
	DD	00H
	DD	040H
	DD	FLAT:??_R3exception@std@@8
rdata$r	ENDS
;	COMDAT ??_R1A@?0A@EA@bad_alloc@std@@8
rdata$r	SEGMENT
??_R1A@?0A@EA@bad_alloc@std@@8 DD FLAT:??_R0?AVbad_alloc@std@@@8 ; std::bad_alloc::`RTTI Base Class Descriptor at (0,-1,0,64)'
	DD	01H
	DD	00H
	DD	0ffffffffH
	DD	00H
	DD	040H
	DD	FLAT:??_R3bad_alloc@std@@8
rdata$r	ENDS
;	COMDAT ??_R2bad_alloc@std@@8
rdata$r	SEGMENT
??_R2bad_alloc@std@@8 DD FLAT:??_R1A@?0A@EA@bad_alloc@std@@8 ; std::bad_alloc::`RTTI Base Class Array'
	DD	FLAT:??_R1A@?0A@EA@exception@std@@8
rdata$r	ENDS
;	COMDAT ??_R3bad_alloc@std@@8
rdata$r	SEGMENT
??_R3bad_alloc@std@@8 DD 00H				; std::bad_alloc::`RTTI Class Hierarchy Descriptor'
	DD	00H
	DD	02H
	DD	FLAT:??_R2bad_alloc@std@@8
rdata$r	ENDS
;	COMDAT ??_R0?AVbad_alloc@std@@@8
_DATA	SEGMENT
??_R0?AVbad_alloc@std@@@8 DD FLAT:??_7type_info@@6B@	; std::bad_alloc `RTTI Type Descriptor'
	DD	00H
	DB	'.?AVbad_alloc@std@@', 00H
_DATA	ENDS
;	COMDAT ??_R4bad_alloc@std@@6B@
rdata$r	SEGMENT
??_R4bad_alloc@std@@6B@ DD 00H				; std::bad_alloc::`RTTI Complete Object Locator'
	DD	00H
	DD	00H
	DD	FLAT:??_R0?AVbad_alloc@std@@@8
	DD	FLAT:??_R3bad_alloc@std@@8
rdata$r	ENDS
;	COMDAT ??_7bad_alloc@std@@6B@
CONST	SEGMENT
??_7bad_alloc@std@@6B@ DD FLAT:??_R4bad_alloc@std@@6B@	; std::bad_alloc::`vftable'
	DD	FLAT:??_Ebad_alloc@std@@UAEPAXI@Z
	DD	FLAT:?what@exception@std@@UBEPBDXZ
; Function compile flags: /Ogtp
CONST	ENDS
;	COMDAT ??0bad_alloc@std@@QAE@PBD@Z
_TEXT	SEGMENT
__Message$ = 8						; size = 4
??0bad_alloc@std@@QAE@PBD@Z PROC			; std::bad_alloc::bad_alloc, COMDAT
; _this$ = ecx
; Line 345
	push	ebp
	mov	ebp, esp
	push	esi
	lea	eax, DWORD PTR __Message$[ebp]
	push	eax
	mov	esi, ecx
	call	DWORD PTR __imp_??0exception@std@@QAE@ABQBD@Z
	mov	DWORD PTR [esi], OFFSET ??_7bad_alloc@std@@6B@
; Line 346
	mov	eax, esi
	pop	esi
	pop	ebp
	ret	4
??0bad_alloc@std@@QAE@PBD@Z ENDP			; std::bad_alloc::bad_alloc
_TEXT	ENDS
PUBLIC	??1bad_alloc@std@@UAE@XZ			; std::bad_alloc::~bad_alloc
EXTRN	__imp_??1exception@std@@UAE@XZ:PROC
; Function compile flags: /Ogtp
;	COMDAT ??1bad_alloc@std@@UAE@XZ
_TEXT	SEGMENT
??1bad_alloc@std@@UAE@XZ PROC				; std::bad_alloc::~bad_alloc, COMDAT
; _this$ = ecx
; Line 354
	mov	DWORD PTR [ecx], OFFSET ??_7bad_alloc@std@@6B@
; Line 355
	jmp	DWORD PTR __imp_??1exception@std@@UAE@XZ
??1bad_alloc@std@@UAE@XZ ENDP				; std::bad_alloc::~bad_alloc
_TEXT	ENDS
EXTRN	??3@YAXPAX@Z:PROC				; operator delete
; Function compile flags: /Ogtp
;	COMDAT ??_Gbad_alloc@std@@UAEPAXI@Z
_TEXT	SEGMENT
___flags$ = 8						; size = 4
??_Gbad_alloc@std@@UAEPAXI@Z PROC			; std::bad_alloc::`scalar deleting destructor', COMDAT
; _this$ = ecx
	push	ebp
	mov	ebp, esp
	push	esi
	mov	esi, ecx
	mov	DWORD PTR [esi], OFFSET ??_7bad_alloc@std@@6B@
	call	DWORD PTR __imp_??1exception@std@@UAE@XZ
	test	BYTE PTR ___flags$[ebp], 1
	je	SHORT $LN6@scalar
	push	esi
	call	??3@YAXPAX@Z				; operator delete
	add	esp, 4
$LN6@scalar:
	mov	eax, esi
	pop	esi
	pop	ebp
	ret	4
??_Gbad_alloc@std@@UAEPAXI@Z ENDP			; std::bad_alloc::`scalar deleting destructor'
_TEXT	ENDS
PUBLIC	??2@YAPAXIPAX@Z					; operator new
; Function compile flags: /Ogtp
;	COMDAT ??2@YAPAXIPAX@Z
_TEXT	SEGMENT
___formal$ = 8						; size = 4
__Where$ = 12						; size = 4
??2@YAPAXIPAX@Z PROC					; operator new, COMDAT
; File c:\program files (x86)\microsoft visual studio 10.0\vc\include\new
; Line 56
	push	ebp
	mov	ebp, esp
; Line 57
	mov	eax, DWORD PTR __Where$[ebp]
; Line 58
	pop	ebp
	ret	0
??2@YAPAXIPAX@Z ENDP					; operator new
_TEXT	ENDS
PUBLIC	??3@YAXPAX0@Z					; operator delete
; Function compile flags: /Ogtp
;	COMDAT ??3@YAXPAX0@Z
_TEXT	SEGMENT
___formal$ = 8						; size = 4
___formal$ = 12						; size = 4
??3@YAXPAX0@Z PROC					; operator delete, COMDAT
; Line 62
	ret	0
??3@YAXPAX0@Z ENDP					; operator delete
_TEXT	ENDS
PUBLIC	?compare@?$char_traits@D@std@@SAHPBD0I@Z	; std::char_traits<char>::compare
; Function compile flags: /Ogtp
;	COMDAT ?compare@?$char_traits@D@std@@SAHPBD0I@Z
_TEXT	SEGMENT
__First1$ = 8						; size = 4
__First2$ = 12						; size = 4
__Count$ = 16						; size = 4
?compare@?$char_traits@D@std@@SAHPBD0I@Z PROC		; std::char_traits<char>::compare, COMDAT
; File c:\program files (x86)\microsoft visual studio 10.0\vc\include\iosfwd
; Line 485
	push	ebp
	mov	ebp, esp
; Line 486
	mov	ecx, DWORD PTR __First2$[ebp]
	mov	edx, DWORD PTR __First1$[ebp]
	push	esi
	mov	esi, DWORD PTR __Count$[ebp]
	push	edi
	cmp	esi, 4
	jb	SHORT $LN11@compare
$LL4@compare:
	mov	eax, DWORD PTR [edx]
	cmp	eax, DWORD PTR [ecx]
	jne	SHORT $LN5@compare
	sub	esi, 4
	add	ecx, 4
	add	edx, 4
	cmp	esi, 4
	jae	SHORT $LL4@compare
$LN11@compare:
	test	esi, esi
	je	SHORT $LN6@compare
$LN5@compare:
	movzx	eax, BYTE PTR [edx]
	movzx	edi, BYTE PTR [ecx]
	sub	eax, edi
	jne	SHORT $LN7@compare
	cmp	esi, 1
	jbe	SHORT $LN6@compare
	movzx	eax, BYTE PTR [edx+1]
	movzx	edi, BYTE PTR [ecx+1]
	sub	eax, edi
	jne	SHORT $LN7@compare
	cmp	esi, 2
	jbe	SHORT $LN6@compare
	movzx	eax, BYTE PTR [edx+2]
	movzx	edi, BYTE PTR [ecx+2]
	sub	eax, edi
	jne	SHORT $LN7@compare
	cmp	esi, 3
	jbe	SHORT $LN6@compare
	movzx	eax, BYTE PTR [edx+3]
	movzx	ecx, BYTE PTR [ecx+3]
	sub	eax, ecx
$LN7@compare:
	sar	eax, 31					; 0000001fH
	pop	edi
	or	eax, 1
	pop	esi
; Line 487
	pop	ebp
	ret	0
$LN6@compare:
	pop	edi
; Line 486
	xor	eax, eax
	pop	esi
; Line 487
	pop	ebp
	ret	0
?compare@?$char_traits@D@std@@SAHPBD0I@Z ENDP		; std::char_traits<char>::compare
_TEXT	ENDS
PUBLIC	?length@?$char_traits@D@std@@SAIPBD@Z		; std::char_traits<char>::length
; Function compile flags: /Ogtp
;	COMDAT ?length@?$char_traits@D@std@@SAIPBD@Z
_TEXT	SEGMENT
__First$ = 8						; size = 4
?length@?$char_traits@D@std@@SAIPBD@Z PROC		; std::char_traits<char>::length, COMDAT
; Line 490
	push	ebp
	mov	ebp, esp
; Line 491
	mov	eax, DWORD PTR __First$[ebp]
	lea	edx, DWORD PTR [eax+1]
	npad	7
$LL3@length:
	mov	cl, BYTE PTR [eax]
	inc	eax
	test	cl, cl
	jne	SHORT $LL3@length
	sub	eax, edx
; Line 492
	pop	ebp
	ret	0
?length@?$char_traits@D@std@@SAIPBD@Z ENDP		; std::char_traits<char>::length
_TEXT	ENDS
PUBLIC	?copy@?$char_traits@D@std@@SAPADPADPBDI@Z	; std::char_traits<char>::copy
EXTRN	_memcpy:PROC
; Function compile flags: /Ogtp
;	COMDAT ?copy@?$char_traits@D@std@@SAPADPADPBDI@Z
_TEXT	SEGMENT
__First1$ = 8						; size = 4
__First2$ = 12						; size = 4
__Count$ = 16						; size = 4
?copy@?$char_traits@D@std@@SAPADPADPBDI@Z PROC		; std::char_traits<char>::copy, COMDAT
; Line 496
	push	ebp
	mov	ebp, esp
; Line 498
	pop	ebp
; Line 497
	jmp	_memcpy
?copy@?$char_traits@D@std@@SAPADPADPBDI@Z ENDP		; std::char_traits<char>::copy
_TEXT	ENDS
PUBLIC	?move@?$char_traits@D@std@@SAPADPADPBDI@Z	; std::char_traits<char>::move
EXTRN	__imp__memmove:PROC
; Function compile flags: /Ogtp
;	COMDAT ?move@?$char_traits@D@std@@SAPADPADPBDI@Z
_TEXT	SEGMENT
__First1$ = 8						; size = 4
__First2$ = 12						; size = 4
__Count$ = 16						; size = 4
?move@?$char_traits@D@std@@SAPADPADPBDI@Z PROC		; std::char_traits<char>::move, COMDAT
; Line 516
	push	ebp
	mov	ebp, esp
; Line 518
	pop	ebp
; Line 517
	jmp	DWORD PTR __imp__memmove
?move@?$char_traits@D@std@@SAPADPADPBDI@Z ENDP		; std::char_traits<char>::move
_TEXT	ENDS
PUBLIC	?assign@?$char_traits@D@std@@SAPADPADID@Z	; std::char_traits<char>::assign
EXTRN	_memset:PROC
; Function compile flags: /Ogtp
;	COMDAT ?assign@?$char_traits@D@std@@SAPADPADID@Z
_TEXT	SEGMENT
__First$ = 8						; size = 4
__Count$ = 12						; size = 4
__Ch$ = 16						; size = 1
?assign@?$char_traits@D@std@@SAPADPADID@Z PROC		; std::char_traits<char>::assign, COMDAT
; Line 521
	push	ebp
	mov	ebp, esp
; Line 522
	mov	eax, DWORD PTR __Count$[ebp]
	movsx	ecx, BYTE PTR __Ch$[ebp]
	mov	edx, DWORD PTR __First$[ebp]
	push	eax
	push	ecx
	push	edx
	call	_memset
	add	esp, 12					; 0000000cH
; Line 523
	pop	ebp
	ret	0
?assign@?$char_traits@D@std@@SAPADPADID@Z ENDP		; std::char_traits<char>::assign
_TEXT	ENDS
PUBLIC	?assign@?$char_traits@D@std@@SAXAADABD@Z	; std::char_traits<char>::assign
; Function compile flags: /Ogtp
;	COMDAT ?assign@?$char_traits@D@std@@SAXAADABD@Z
_TEXT	SEGMENT
__Left$ = 8						; size = 4
__Right$ = 12						; size = 4
?assign@?$char_traits@D@std@@SAXAADABD@Z PROC		; std::char_traits<char>::assign, COMDAT
; Line 526
	push	ebp
	mov	ebp, esp
; Line 527
	mov	eax, DWORD PTR __Right$[ebp]
	mov	cl, BYTE PTR [eax]
	mov	edx, DWORD PTR __Left$[ebp]
	mov	BYTE PTR [edx], cl
; Line 528
	pop	ebp
	ret	0
?assign@?$char_traits@D@std@@SAXAADABD@Z ENDP		; std::char_traits<char>::assign
_TEXT	ENDS
PUBLIC	?to_char_type@?$char_traits@D@std@@SADABH@Z	; std::char_traits<char>::to_char_type
; Function compile flags: /Ogtp
;	COMDAT ?to_char_type@?$char_traits@D@std@@SADABH@Z
_TEXT	SEGMENT
__Meta$ = 8						; size = 4
?to_char_type@?$char_traits@D@std@@SADABH@Z PROC	; std::char_traits<char>::to_char_type, COMDAT
; Line 541
	push	ebp
	mov	ebp, esp
; Line 542
	mov	eax, DWORD PTR __Meta$[ebp]
	mov	al, BYTE PTR [eax]
; Line 543
	pop	ebp
	ret	0
?to_char_type@?$char_traits@D@std@@SADABH@Z ENDP	; std::char_traits<char>::to_char_type
_TEXT	ENDS
PUBLIC	?eq_int_type@?$char_traits@D@std@@SA_NABH0@Z	; std::char_traits<char>::eq_int_type
; Function compile flags: /Ogtp
;	COMDAT ?eq_int_type@?$char_traits@D@std@@SA_NABH0@Z
_TEXT	SEGMENT
__Left$ = 8						; size = 4
__Right$ = 12						; size = 4
?eq_int_type@?$char_traits@D@std@@SA_NABH0@Z PROC	; std::char_traits<char>::eq_int_type, COMDAT
; Line 552
	push	ebp
	mov	ebp, esp
; Line 553
	mov	eax, DWORD PTR __Left$[ebp]
	mov	ecx, DWORD PTR [eax]
	mov	edx, DWORD PTR __Right$[ebp]
	xor	eax, eax
	cmp	ecx, DWORD PTR [edx]
	sete	al
; Line 554
	pop	ebp
	ret	0
?eq_int_type@?$char_traits@D@std@@SA_NABH0@Z ENDP	; std::char_traits<char>::eq_int_type
_TEXT	ENDS
PUBLIC	?eof@?$char_traits@D@std@@SAHXZ			; std::char_traits<char>::eof
; Function compile flags: /Ogtp
;	COMDAT ?eof@?$char_traits@D@std@@SAHXZ
_TEXT	SEGMENT
?eof@?$char_traits@D@std@@SAHXZ PROC			; std::char_traits<char>::eof, COMDAT
; Line 563
	or	eax, -1
; Line 564
	ret	0
?eof@?$char_traits@D@std@@SAHXZ ENDP			; std::char_traits<char>::eof
_TEXT	ENDS
PUBLIC	?_Adopt@_Iterator_base0@std@@QAEXPBX@Z		; std::_Iterator_base0::_Adopt
; Function compile flags: /Ogtp
;	COMDAT ?_Adopt@_Iterator_base0@std@@QAEXPBX@Z
_TEXT	SEGMENT
___formal$ = 8						; size = 4
?_Adopt@_Iterator_base0@std@@QAEXPBX@Z PROC		; std::_Iterator_base0::_Adopt, COMDAT
; _this$ = ecx
; File c:\program files (x86)\microsoft visual studio 10.0\vc\include\xutility
; Line 49
	ret	4
?_Adopt@_Iterator_base0@std@@QAEXPBX@Z ENDP		; std::_Iterator_base0::_Adopt
_TEXT	ENDS
PUBLIC	??_7AppState@@6B@				; AppState::`vftable'
PUBLIC	??0AppState@@QAE@XZ				; AppState::AppState
PUBLIC	??_R4AppState@@6B@				; AppState::`RTTI Complete Object Locator'
PUBLIC	??_R0?AVAppState@@@8				; AppState `RTTI Type Descriptor'
PUBLIC	??_R3AppState@@8				; AppState::`RTTI Class Hierarchy Descriptor'
PUBLIC	??_R2AppState@@8				; AppState::`RTTI Base Class Array'
PUBLIC	??_R1A@?0A@EA@AppState@@8			; AppState::`RTTI Base Class Descriptor at (0,-1,0,64)'
PUBLIC	?tick@AppState@@UAEXMM@Z			; AppState::tick
PUBLIC	?display@AppState@@UAEXMM@Z			; AppState::display
PUBLIC	?mousemove@AppState@@UAEXPAUSDL_MouseMotionEvent@@@Z ; AppState::mousemove
PUBLIC	?mouseclick@AppState@@UAEXPAUSDL_MouseButtonEvent@@@Z ; AppState::mouseclick
PUBLIC	?keypressed@AppState@@UAEXPAUSDL_KeyboardEvent@@@Z ; AppState::keypressed
EXTRN	??_EAppState@@UAEPAXI@Z:PROC			; AppState::`vector deleting destructor'
;	COMDAT ??_R1A@?0A@EA@AppState@@8
; File c:\programovani\wow editor\test\src\editor\appstate.h
rdata$r	SEGMENT
??_R1A@?0A@EA@AppState@@8 DD FLAT:??_R0?AVAppState@@@8	; AppState::`RTTI Base Class Descriptor at (0,-1,0,64)'
	DD	00H
	DD	00H
	DD	0ffffffffH
	DD	00H
	DD	040H
	DD	FLAT:??_R3AppState@@8
rdata$r	ENDS
;	COMDAT ??_R2AppState@@8
rdata$r	SEGMENT
??_R2AppState@@8 DD FLAT:??_R1A@?0A@EA@AppState@@8	; AppState::`RTTI Base Class Array'
rdata$r	ENDS
;	COMDAT ??_R3AppState@@8
rdata$r	SEGMENT
??_R3AppState@@8 DD 00H					; AppState::`RTTI Class Hierarchy Descriptor'
	DD	00H
	DD	01H
	DD	FLAT:??_R2AppState@@8
rdata$r	ENDS
;	COMDAT ??_R0?AVAppState@@@8
_DATA	SEGMENT
??_R0?AVAppState@@@8 DD FLAT:??_7type_info@@6B@		; AppState `RTTI Type Descriptor'
	DD	00H
	DB	'.?AVAppState@@', 00H
_DATA	ENDS
;	COMDAT ??_R4AppState@@6B@
rdata$r	SEGMENT
??_R4AppState@@6B@ DD 00H				; AppState::`RTTI Complete Object Locator'
	DD	00H
	DD	00H
	DD	FLAT:??_R0?AVAppState@@@8
	DD	FLAT:??_R3AppState@@8
rdata$r	ENDS
;	COMDAT ??_7AppState@@6B@
CONST	SEGMENT
??_7AppState@@6B@ DD FLAT:??_R4AppState@@6B@		; AppState::`vftable'
	DD	FLAT:??_EAppState@@UAEPAXI@Z
	DD	FLAT:?tick@AppState@@UAEXMM@Z
	DD	FLAT:?display@AppState@@UAEXMM@Z
	DD	FLAT:?mousemove@AppState@@UAEXPAUSDL_MouseMotionEvent@@@Z
	DD	FLAT:?mouseclick@AppState@@UAEXPAUSDL_MouseButtonEvent@@@Z
	DD	FLAT:?keypressed@AppState@@UAEXPAUSDL_KeyboardEvent@@@Z
; Function compile flags: /Ogtp
CONST	ENDS
;	COMDAT ??0AppState@@QAE@XZ
_TEXT	SEGMENT
??0AppState@@QAE@XZ PROC				; AppState::AppState, COMDAT
; _this$ = ecx
; Line 10
	mov	eax, ecx
	mov	DWORD PTR [eax], OFFSET ??_7AppState@@6B@
	ret	0
??0AppState@@QAE@XZ ENDP				; AppState::AppState
_TEXT	ENDS
PUBLIC	??1AppState@@UAE@XZ				; AppState::~AppState
; Function compile flags: /Ogtp
;	COMDAT ??1AppState@@UAE@XZ
_TEXT	SEGMENT
??1AppState@@UAE@XZ PROC				; AppState::~AppState, COMDAT
; _this$ = ecx
; Line 11
	mov	DWORD PTR [ecx], OFFSET ??_7AppState@@6B@
	ret	0
??1AppState@@UAE@XZ ENDP				; AppState::~AppState
; Function compile flags: /Ogtp
_TEXT	ENDS
;	COMDAT ?tick@AppState@@UAEXMM@Z
_TEXT	SEGMENT
_t$ = 8							; size = 4
_dt$ = 12						; size = 4
?tick@AppState@@UAEXMM@Z PROC				; AppState::tick, COMDAT
; _this$ = ecx
; Line 13
	ret	8
?tick@AppState@@UAEXMM@Z ENDP				; AppState::tick
; Function compile flags: /Ogtp
_TEXT	ENDS
;	COMDAT ?display@AppState@@UAEXMM@Z
_TEXT	SEGMENT
_t$ = 8							; size = 4
_dt$ = 12						; size = 4
?display@AppState@@UAEXMM@Z PROC			; AppState::display, COMDAT
; _this$ = ecx
; Line 14
	ret	8
?display@AppState@@UAEXMM@Z ENDP			; AppState::display
; Function compile flags: /Ogtp
_TEXT	ENDS
;	COMDAT ?mousemove@AppState@@UAEXPAUSDL_MouseMotionEvent@@@Z
_TEXT	SEGMENT
_e$ = 8							; size = 4
?mousemove@AppState@@UAEXPAUSDL_MouseMotionEvent@@@Z PROC ; AppState::mousemove, COMDAT
; _this$ = ecx
; Line 16
	ret	4
?mousemove@AppState@@UAEXPAUSDL_MouseMotionEvent@@@Z ENDP ; AppState::mousemove
; Function compile flags: /Ogtp
_TEXT	ENDS
;	COMDAT ?mouseclick@AppState@@UAEXPAUSDL_MouseButtonEvent@@@Z
_TEXT	SEGMENT
_e$ = 8							; size = 4
?mouseclick@AppState@@UAEXPAUSDL_MouseButtonEvent@@@Z PROC ; AppState::mouseclick, COMDAT
; _this$ = ecx
; Line 17
	ret	4
?mouseclick@AppState@@UAEXPAUSDL_MouseButtonEvent@@@Z ENDP ; AppState::mouseclick
; Function compile flags: /Ogtp
_TEXT	ENDS
;	COMDAT ?keypressed@AppState@@UAEXPAUSDL_KeyboardEvent@@@Z
_TEXT	SEGMENT
_e$ = 8							; size = 4
?keypressed@AppState@@UAEXPAUSDL_KeyboardEvent@@@Z PROC	; AppState::keypressed, COMDAT
; _this$ = ecx
; Line 18
	ret	4
?keypressed@AppState@@UAEXPAUSDL_KeyboardEvent@@@Z ENDP	; AppState::keypressed
; Function compile flags: /Ogtp
_TEXT	ENDS
;	COMDAT ??_GAppState@@UAEPAXI@Z
_TEXT	SEGMENT
___flags$ = 8						; size = 4
??_GAppState@@UAEPAXI@Z PROC				; AppState::`scalar deleting destructor', COMDAT
; _this$ = ecx
	push	ebp
	mov	ebp, esp
	test	BYTE PTR ___flags$[ebp], 1
	push	esi
	mov	esi, ecx
	mov	DWORD PTR [esi], OFFSET ??_7AppState@@6B@
	je	SHORT $LN6@scalar@2
	push	esi
	call	??3@YAXPAX@Z				; operator delete
	add	esp, 4
$LN6@scalar@2:
	mov	eax, esi
	pop	esi
	pop	ebp
	ret	4
??_GAppState@@UAEPAXI@Z ENDP				; AppState::`scalar deleting destructor'
_TEXT	ENDS
PUBLIC	?_Register@facet@locale@std@@QAEXXZ		; std::locale::facet::_Register
EXTRN	?_Facet_Register@facet@locale@std@@CAXPAV123@@Z:PROC ; std::locale::facet::_Facet_Register
; Function compile flags: /Ogtp
;	COMDAT ?_Register@facet@locale@std@@QAEXXZ
_TEXT	SEGMENT
?_Register@facet@locale@std@@QAEXXZ PROC		; std::locale::facet::_Register, COMDAT
; _this$ = ecx
; File c:\program files (x86)\microsoft visual studio 10.0\vc\include\xlocale
; Line 133
	push	ecx
	call	?_Facet_Register@facet@locale@std@@CAXPAV123@@Z ; std::locale::facet::_Facet_Register
	pop	ecx
; Line 135
	ret	0
?_Register@facet@locale@std@@QAEXXZ ENDP		; std::locale::facet::_Register
_TEXT	ENDS
PUBLIC	??1locale@std@@QAE@XZ				; std::locale::~locale
EXTRN	__imp_?_Decref@facet@locale@std@@QAEPAV123@XZ:PROC
; Function compile flags: /Ogtp
;	COMDAT ??1locale@std@@QAE@XZ
_TEXT	SEGMENT
??1locale@std@@QAE@XZ PROC				; std::locale::~locale, COMDAT
; _this$ = ecx
; Line 410
	mov	ecx, DWORD PTR [ecx]
	test	ecx, ecx
	je	SHORT $LN4@locale
; Line 411
	call	DWORD PTR __imp_?_Decref@facet@locale@std@@QAEPAV123@XZ
	test	eax, eax
	je	SHORT $LN4@locale
	mov	edx, DWORD PTR [eax]
	mov	ecx, eax
	mov	eax, DWORD PTR [edx]
	push	1
	call	eax
$LN4@locale:
; Line 412
	ret	0
??1locale@std@@QAE@XZ ENDP				; std::locale::~locale
_TEXT	ENDS
PUBLIC	?_Getfacet@locale@std@@QBEPBVfacet@12@I@Z	; std::locale::_Getfacet
EXTRN	__imp_?_Getgloballocale@locale@std@@CAPAV_Locimp@12@XZ:PROC
; Function compile flags: /Ogtp
;	COMDAT ?_Getfacet@locale@std@@QBEPBVfacet@12@I@Z
_TEXT	SEGMENT
__Id$ = 8						; size = 4
?_Getfacet@locale@std@@QBEPBVfacet@12@I@Z PROC		; std::locale::_Getfacet, COMDAT
; _this$ = ecx
; Line 436
	push	ebp
	mov	ebp, esp
; Line 438
	mov	ecx, DWORD PTR [ecx]
	push	esi
	mov	esi, DWORD PTR __Id$[ebp]
	cmp	esi, DWORD PTR [ecx+12]
	jae	SHORT $LN6@Getfacet
	mov	eax, DWORD PTR [ecx+8]
	mov	eax, DWORD PTR [eax+esi*4]
; Line 439
	test	eax, eax
	jne	SHORT $LN1@Getfacet
$LN10@Getfacet:
	cmp	BYTE PTR [ecx+20], 0
	je	SHORT $LN1@Getfacet
; Line 443
	call	DWORD PTR __imp_?_Getgloballocale@locale@std@@CAPAV_Locimp@12@XZ
; Line 446
	cmp	esi, DWORD PTR [eax+12]
	jae	SHORT $LN8@Getfacet
	mov	ecx, DWORD PTR [eax+8]
	mov	eax, DWORD PTR [ecx+esi*4]
	pop	esi
; Line 448
	pop	ebp
	ret	4
$LN6@Getfacet:
; Line 438
	xor	eax, eax
; Line 439
	jmp	SHORT $LN10@Getfacet
$LN8@Getfacet:
; Line 446
	xor	eax, eax
$LN1@Getfacet:
	pop	esi
; Line 448
	pop	ebp
	ret	4
?_Getfacet@locale@std@@QBEPBVfacet@12@I@Z ENDP		; std::locale::_Getfacet
_TEXT	ENDS
PUBLIC	??0Vec3D@@QAE@MMM@Z				; Vec3D::Vec3D
EXTRN	__fltused:DWORD
; Function compile flags: /Ogtp
;	COMDAT ??0Vec3D@@QAE@MMM@Z
_TEXT	SEGMENT
_x0$ = 8						; size = 4
_y0$ = 12						; size = 4
_z0$ = 16						; size = 4
??0Vec3D@@QAE@MMM@Z PROC				; Vec3D::Vec3D, COMDAT
; _this$ = ecx
; File c:\programovani\wow editor\test\src\editor\vec3d.h
; Line 12
	push	ebp
	mov	ebp, esp
	mov	edx, DWORD PTR _y0$[ebp]
	mov	eax, ecx
	mov	ecx, DWORD PTR _x0$[ebp]
	mov	DWORD PTR [eax], ecx
	mov	ecx, DWORD PTR _z0$[ebp]
	mov	DWORD PTR [eax+4], edx
	mov	DWORD PTR [eax+8], ecx
	pop	ebp
	ret	12					; 0000000cH
??0Vec3D@@QAE@MMM@Z ENDP				; Vec3D::Vec3D
_TEXT	ENDS
PUBLIC	??0Vec3D@@QAE@ABV0@@Z				; Vec3D::Vec3D
; Function compile flags: /Ogtp
;	COMDAT ??0Vec3D@@QAE@ABV0@@Z
_TEXT	SEGMENT
_v$ = 8							; size = 4
??0Vec3D@@QAE@ABV0@@Z PROC				; Vec3D::Vec3D, COMDAT
; _this$ = ecx
; Line 14
	push	ebp
	mov	ebp, esp
	mov	eax, ecx
	mov	ecx, DWORD PTR _v$[ebp]
	mov	edx, DWORD PTR [ecx]
	mov	DWORD PTR [eax], edx
	mov	edx, DWORD PTR [ecx+4]
	mov	DWORD PTR [eax+4], edx
	mov	ecx, DWORD PTR [ecx+8]
	mov	DWORD PTR [eax+8], ecx
	pop	ebp
	ret	4
??0Vec3D@@QAE@ABV0@@Z ENDP				; Vec3D::Vec3D
_TEXT	ENDS
PUBLIC	??4Vec3D@@QAEAAV0@ABV0@@Z			; Vec3D::operator=
; Function compile flags: /Ogtp
;	COMDAT ??4Vec3D@@QAEAAV0@ABV0@@Z
_TEXT	SEGMENT
_v$ = 8							; size = 4
??4Vec3D@@QAEAAV0@ABV0@@Z PROC				; Vec3D::operator=, COMDAT
; _this$ = ecx
; Line 17
	push	ebp
	mov	ebp, esp
	mov	eax, ecx
; Line 18
	mov	ecx, DWORD PTR _v$[ebp]
	mov	edx, DWORD PTR [ecx]
	mov	DWORD PTR [eax], edx
; Line 19
	mov	edx, DWORD PTR [ecx+4]
	mov	DWORD PTR [eax+4], edx
; Line 20
	mov	ecx, DWORD PTR [ecx+8]
	mov	DWORD PTR [eax+8], ecx
; Line 22
	pop	ebp
	ret	4
??4Vec3D@@QAEAAV0@ABV0@@Z ENDP				; Vec3D::operator=
_TEXT	ENDS
PUBLIC	??HVec3D@@QBE?AV0@ABV0@@Z			; Vec3D::operator+
; Function compile flags: /Ogtp
;	COMDAT ??HVec3D@@QBE?AV0@ABV0@@Z
_TEXT	SEGMENT
___$ReturnUdt$ = 8					; size = 4
_v$ = 12						; size = 4
??HVec3D@@QBE?AV0@ABV0@@Z PROC				; Vec3D::operator+, COMDAT
; _this$ = ecx
; Line 25
	push	ebp
	mov	ebp, esp
; Line 26
	mov	edx, DWORD PTR _v$[ebp]
	fld	DWORD PTR [edx]
	mov	eax, DWORD PTR ___$ReturnUdt$[ebp]
	fadd	DWORD PTR [ecx]
	fstp	DWORD PTR [eax]
	fld	DWORD PTR [edx+4]
	fadd	DWORD PTR [ecx+4]
	fstp	DWORD PTR [eax+4]
	fld	DWORD PTR [edx+8]
	fadd	DWORD PTR [ecx+8]
	fstp	DWORD PTR [eax+8]
; Line 28
	pop	ebp
	ret	8
??HVec3D@@QBE?AV0@ABV0@@Z ENDP				; Vec3D::operator+
_TEXT	ENDS
PUBLIC	??0Vec4D@@QAE@MMMM@Z				; Vec4D::Vec4D
; Function compile flags: /Ogtp
;	COMDAT ??0Vec4D@@QAE@MMMM@Z
_TEXT	SEGMENT
_x0$ = 8						; size = 4
_y0$ = 12						; size = 4
_z0$ = 16						; size = 4
_w0$ = 20						; size = 4
??0Vec4D@@QAE@MMMM@Z PROC				; Vec4D::Vec4D, COMDAT
; _this$ = ecx
; File c:\programovani\wow editor\test\src\editor\quaternion.h
; Line 12
	push	ebp
	mov	ebp, esp
	mov	edx, DWORD PTR _y0$[ebp]
	mov	eax, ecx
	mov	ecx, DWORD PTR _x0$[ebp]
	mov	DWORD PTR [eax], ecx
	mov	ecx, DWORD PTR _z0$[ebp]
	mov	DWORD PTR [eax+4], edx
	mov	edx, DWORD PTR _w0$[ebp]
	mov	DWORD PTR [eax+8], ecx
	mov	DWORD PTR [eax+12], edx
	pop	ebp
	ret	16					; 00000010H
??0Vec4D@@QAE@MMMM@Z ENDP				; Vec4D::Vec4D
_TEXT	ENDS
PUBLIC	??BVec4D@@QAEPAMXZ				; Vec4D::operator float *
; Function compile flags: /Ogtp
;	COMDAT ??BVec4D@@QAEPAMXZ
_TEXT	SEGMENT
??BVec4D@@QAEPAMXZ PROC					; Vec4D::operator float *, COMDAT
; _this$ = ecx
; Line 99
	mov	eax, ecx
; Line 101
	ret	0
??BVec4D@@QAEPAMXZ ENDP					; Vec4D::operator float *
_TEXT	ENDS
PUBLIC	??_H@YGXPAXIHP6EPAX0@Z@Z			; `vector constructor iterator'
; Function compile flags: /Ogtp
;	COMDAT ??_H@YGXPAXIHP6EPAX0@Z@Z
_TEXT	SEGMENT
___t$ = 8						; size = 4
___s$ = 12						; size = 4
___n$ = 16						; size = 4
___f$ = 20						; size = 4
??_H@YGXPAXIHP6EPAX0@Z@Z PROC				; `vector constructor iterator', COMDAT
	push	ebp
	mov	ebp, esp
	push	edi
	mov	edi, DWORD PTR ___n$[ebp]
	dec	edi
	js	SHORT $LN1@vector
	push	ebx
	mov	ebx, DWORD PTR ___f$[ebp]
	push	esi
	mov	esi, DWORD PTR ___t$[ebp]
$LL2@vector:
	mov	ecx, esi
	call	ebx
	add	esi, DWORD PTR ___s$[ebp]
	dec	edi
	jns	SHORT $LL2@vector
	pop	esi
	pop	ebx
$LN1@vector:
	pop	edi
	pop	ebp
	ret	16					; 00000010H
??_H@YGXPAXIHP6EPAX0@Z@Z ENDP				; `vector constructor iterator'
_TEXT	ENDS
PUBLIC	?getUInt@Record@DBCFile@@QBEII@Z		; DBCFile::Record::getUInt
; Function compile flags: /Ogtp
;	COMDAT ?getUInt@Record@DBCFile@@QBEII@Z
_TEXT	SEGMENT
_field$ = 8						; size = 4
?getUInt@Record@DBCFile@@QBEII@Z PROC			; DBCFile::Record::getUInt, COMDAT
; _this$ = ecx
; File c:\programovani\wow editor\test\src\editor\dbcfile.h
; Line 44
	push	ebp
	mov	ebp, esp
; Line 46
	mov	eax, DWORD PTR [ecx]
	mov	ecx, DWORD PTR _field$[ebp]
	mov	eax, DWORD PTR [eax+ecx*4]
; Line 47
	pop	ebp
	ret	4
?getUInt@Record@DBCFile@@QBEII@Z ENDP			; DBCFile::Record::getUInt
_TEXT	ENDS
PUBLIC	?getString@Record@DBCFile@@QBEPBDI@Z		; DBCFile::Record::getString
; Function compile flags: /Ogtp
;	COMDAT ?getString@Record@DBCFile@@QBEPBDI@Z
_TEXT	SEGMENT
_field$ = 8						; size = 4
?getString@Record@DBCFile@@QBEPBDI@Z PROC		; DBCFile::Record::getString, COMDAT
; _this$ = ecx
; Line 54
	push	ebp
	mov	ebp, esp
; Line 58
	mov	eax, DWORD PTR [ecx]
	mov	edx, DWORD PTR _field$[ebp]
	mov	ecx, DWORD PTR [ecx+4]
	mov	eax, DWORD PTR [eax+edx*4]
	add	eax, DWORD PTR [ecx+48]
; Line 59
	pop	ebp
	ret	4
?getString@Record@DBCFile@@QBEPBDI@Z ENDP		; DBCFile::Record::getString
_TEXT	ENDS
PUBLIC	??EIterator@DBCFile@@QAEAAV01@XZ		; DBCFile::Iterator::operator++
; Function compile flags: /Ogtp
;	COMDAT ??EIterator@DBCFile@@QAEAAV01@XZ
_TEXT	SEGMENT
??EIterator@DBCFile@@QAEAAV01@XZ PROC			; DBCFile::Iterator::operator++, COMDAT
; _this$ = ecx
; Line 77
	mov	eax, ecx
; Line 78
	mov	ecx, DWORD PTR [eax+4]
	mov	edx, DWORD PTR [ecx+28]
	add	DWORD PTR [eax], edx
; Line 80
	ret	0
??EIterator@DBCFile@@QAEAAV01@XZ ENDP			; DBCFile::Iterator::operator++
_TEXT	ENDS
PUBLIC	??CIterator@DBCFile@@QBEPBVRecord@1@XZ		; DBCFile::Iterator::operator->
; Function compile flags: /Ogtp
;	COMDAT ??CIterator@DBCFile@@QBEPBVRecord@1@XZ
_TEXT	SEGMENT
??CIterator@DBCFile@@QBEPBVRecord@1@XZ PROC		; DBCFile::Iterator::operator->, COMDAT
; _this$ = ecx
; Line 83
	mov	eax, ecx
; Line 85
	ret	0
??CIterator@DBCFile@@QBEPBVRecord@1@XZ ENDP		; DBCFile::Iterator::operator->
_TEXT	ENDS
PUBLIC	??9Iterator@DBCFile@@QBE_NABV01@@Z		; DBCFile::Iterator::operator!=
; Function compile flags: /Ogtp
;	COMDAT ??9Iterator@DBCFile@@QBE_NABV01@@Z
_TEXT	SEGMENT
_b$ = 8							; size = 4
??9Iterator@DBCFile@@QBE_NABV01@@Z PROC			; DBCFile::Iterator::operator!=, COMDAT
; _this$ = ecx
; Line 92
	push	ebp
	mov	ebp, esp
; Line 93
	mov	eax, DWORD PTR [ecx]
	mov	edx, DWORD PTR _b$[ebp]
	xor	ecx, ecx
	cmp	eax, DWORD PTR [edx]
	setne	al
; Line 94
	pop	ebp
	ret	4
??9Iterator@DBCFile@@QBE_NABV01@@Z ENDP			; DBCFile::Iterator::operator!=
_TEXT	ENDS
PUBLIC	?keypressed@Menu@@UAEXPAUSDL_KeyboardEvent@@@Z	; Menu::keypressed
EXTRN	?gPop@@3_NA:BYTE				; gPop
; Function compile flags: /Ogtp
_TEXT	SEGMENT
_e$ = 8							; size = 4
?keypressed@Menu@@UAEXPAUSDL_KeyboardEvent@@@Z PROC	; Menu::keypressed
; _this$ = ecx
; File c:\programovani\wow editor\test\src\editor\menu.cpp
; Line 382
	push	ebp
	mov	ebp, esp
; Line 383
	mov	eax, DWORD PTR _e$[ebp]
	cmp	BYTE PTR [eax], 2
	jne	SHORT $LN1@keypressed
; Line 385
	cmp	DWORD PTR [eax+8], 27			; 0000001bH
	jne	SHORT $LN1@keypressed
; Line 387
	mov	BYTE PTR ?gPop@@3_NA, 1			; gPop
$LN1@keypressed:
; Line 390
	pop	ebp
	ret	4
?keypressed@Menu@@UAEXPAUSDL_KeyboardEvent@@@Z ENDP	; Menu::keypressed
_TEXT	ENDS
PUBLIC	?mousemove@Menu@@UAEXPAUSDL_MouseMotionEvent@@@Z ; Menu::mousemove
; Function compile flags: /Ogtp
_TEXT	SEGMENT
_e$ = 8							; size = 4
?mousemove@Menu@@UAEXPAUSDL_MouseMotionEvent@@@Z PROC	; Menu::mousemove
; _this$ = ecx
; Line 395
	ret	4
?mousemove@Menu@@UAEXPAUSDL_MouseMotionEvent@@@Z ENDP	; Menu::mousemove
_TEXT	ENDS
PUBLIC	?hit@Clickable@@QAE_NHH@Z			; Clickable::hit
; Function compile flags: /Ogtp
_TEXT	SEGMENT
_x$ = 8							; size = 4
_y$ = 12						; size = 4
?hit@Clickable@@QAE_NHH@Z PROC				; Clickable::hit
; _this$ = ecx
; Line 398
	push	ebp
	mov	ebp, esp
; Line 399
	mov	eax, DWORD PTR _y$[ebp]
	cmp	eax, DWORD PTR [ecx+4]
	jl	SHORT $LN3@hit
	cmp	eax, DWORD PTR [ecx+12]
	jge	SHORT $LN3@hit
	mov	eax, DWORD PTR _x$[ebp]
	cmp	eax, DWORD PTR [ecx]
	jl	SHORT $LN3@hit
	cmp	eax, DWORD PTR [ecx+8]
	jge	SHORT $LN3@hit
	mov	eax, 1
; Line 400
	pop	ebp
	ret	8
$LN3@hit:
; Line 399
	xor	eax, eax
; Line 400
	pop	ebp
	ret	8
?hit@Clickable@@QAE_NHH@Z ENDP				; Clickable::hit
_TEXT	ENDS
PUBLIC	??_GWorld@@QAEPAXI@Z				; World::`scalar deleting destructor'
EXTRN	??1World@@QAE@XZ:PROC				; World::~World
; Function compile flags: /Ogtp
;	COMDAT ??_GWorld@@QAEPAXI@Z
_TEXT	SEGMENT
___flags$ = 8						; size = 4
??_GWorld@@QAEPAXI@Z PROC				; World::`scalar deleting destructor', COMDAT
; _this$ = ecx
	push	ebp
	mov	ebp, esp
	push	esi
	mov	esi, ecx
	call	??1World@@QAE@XZ			; World::~World
	test	BYTE PTR ___flags$[ebp], 1
	je	SHORT $LN4@scalar@3
	push	esi
	call	??3@YAXPAX@Z				; operator delete
	add	esp, 4
$LN4@scalar@3:
	mov	eax, esi
	pop	esi
	pop	ebp
	ret	4
??_GWorld@@QAEPAXI@Z ENDP				; World::`scalar deleting destructor'
_TEXT	ENDS
PUBLIC	?size@?$basic_string@DU?$char_traits@D@std@@V?$allocator@D@2@@std@@QBEIXZ ; std::basic_string<char,std::char_traits<char>,std::allocator<char> >::size
; Function compile flags: /Ogtp
;	COMDAT ?size@?$basic_string@DU?$char_traits@D@std@@V?$allocator@D@2@@std@@QBEIXZ
_TEXT	SEGMENT
?size@?$basic_string@DU?$char_traits@D@std@@V?$allocator@D@2@@std@@QBEIXZ PROC ; std::basic_string<char,std::char_traits<char>,std::allocator<char> >::size, COMDAT
; _this$ = ecx
; File c:\program files (x86)\microsoft visual studio 10.0\vc\include\xstring
; Line 1511
	mov	eax, DWORD PTR [ecx+16]
; Line 1512
	ret	0
?size@?$basic_string@DU?$char_traits@D@std@@V?$allocator@D@2@@std@@QBEIXZ ENDP ; std::basic_string<char,std::char_traits<char>,std::allocator<char> >::size
_TEXT	ENDS
PUBLIC	??Bsentry@?$basic_istream@DU?$char_traits@D@std@@@std@@QBEPQ_Bool_struct@2@HXZ ; std::basic_istream<char,std::char_traits<char> >::sentry::operator int std::_Bool_struct::*
; Function compile flags: /Ogtp
;	COMDAT ??Bsentry@?$basic_istream@DU?$char_traits@D@std@@@std@@QBEPQ_Bool_struct@2@HXZ
_TEXT	SEGMENT
??Bsentry@?$basic_istream@DU?$char_traits@D@std@@@std@@QBEPQ_Bool_struct@2@HXZ PROC ; std::basic_istream<char,std::char_traits<char> >::sentry::operator int std::_Bool_struct::*, COMDAT
; _this$ = ecx
; File c:\program files (x86)\microsoft visual studio 10.0\vc\include\istream
; Line 105
	xor	eax, eax
	cmp	BYTE PTR [ecx+4], al
	setne	al
	dec	eax
; Line 106
	ret	0
??Bsentry@?$basic_istream@DU?$char_traits@D@std@@@std@@QBEPQ_Bool_struct@2@HXZ ENDP ; std::basic_istream<char,std::char_traits<char> >::sentry::operator int std::_Bool_struct::*
_TEXT	ENDS
PUBLIC	??1_Sentry_base@?$basic_istream@DU?$char_traits@D@std@@@std@@QAE@XZ ; std::basic_istream<char,std::char_traits<char> >::_Sentry_base::~_Sentry_base
; Function compile flags: /Ogtp
;	COMDAT ??1_Sentry_base@?$basic_istream@DU?$char_traits@D@std@@@std@@QAE@XZ
_TEXT	SEGMENT
??1_Sentry_base@?$basic_istream@DU?$char_traits@D@std@@@std@@QAE@XZ PROC ; std::basic_istream<char,std::char_traits<char> >::_Sentry_base::~_Sentry_base, COMDAT
; _this$ = ecx
; Line 83
	mov	eax, DWORD PTR [ecx]
	mov	ecx, DWORD PTR [eax]
	mov	edx, DWORD PTR [ecx+4]
	mov	eax, DWORD PTR [edx+eax+56]
	test	eax, eax
	je	SHORT $LN1@Sentry_bas
; Line 84
	mov	edx, DWORD PTR [eax]
	mov	ecx, eax
	mov	eax, DWORD PTR [edx+8]
	jmp	eax
$LN1@Sentry_bas:
; Line 85
	ret	0
??1_Sentry_base@?$basic_istream@DU?$char_traits@D@std@@@std@@QAE@XZ ENDP ; std::basic_istream<char,std::char_traits<char> >::_Sentry_base::~_Sentry_base
_TEXT	ENDS
PUBLIC	?size@?$vector@VWMOInstance@@V?$allocator@VWMOInstance@@@std@@@std@@QBEIXZ ; std::vector<WMOInstance,std::allocator<WMOInstance> >::size
; Function compile flags: /Ogtp
;	COMDAT ?size@?$vector@VWMOInstance@@V?$allocator@VWMOInstance@@@std@@@std@@QBEIXZ
_TEXT	SEGMENT
?size@?$vector@VWMOInstance@@V?$allocator@VWMOInstance@@@std@@@std@@QBEIXZ PROC ; std::vector<WMOInstance,std::allocator<WMOInstance> >::size, COMDAT
; _this$ = ecx
; File c:\program files (x86)\microsoft visual studio 10.0\vc\include\vector
; Line 879
	mov	edx, DWORD PTR [ecx+4]
	sub	edx, DWORD PTR [ecx]
	mov	eax, 954437177				; 38e38e39H
	imul	edx
	sar	edx, 4
	mov	eax, edx
	shr	eax, 31					; 0000001fH
	add	eax, edx
; Line 880
	ret	0
?size@?$vector@VWMOInstance@@V?$allocator@VWMOInstance@@@std@@@std@@QBEIXZ ENDP ; std::vector<WMOInstance,std::allocator<WMOInstance> >::size
_TEXT	ENDS
PUBLIC	??A?$vector@VWMOInstance@@V?$allocator@VWMOInstance@@@std@@@std@@QAEAAVWMOInstance@@I@Z ; std::vector<WMOInstance,std::allocator<WMOInstance> >::operator[]
; Function compile flags: /Ogtp
;	COMDAT ??A?$vector@VWMOInstance@@V?$allocator@VWMOInstance@@@std@@@std@@QAEAAVWMOInstance@@I@Z
_TEXT	SEGMENT
__Pos$ = 8						; size = 4
??A?$vector@VWMOInstance@@V?$allocator@VWMOInstance@@@std@@@std@@QAEAAVWMOInstance@@I@Z PROC ; std::vector<WMOInstance,std::allocator<WMOInstance> >::operator[], COMDAT
; _this$ = ecx
; Line 928
	push	ebp
	mov	ebp, esp
; Line 940
	mov	eax, DWORD PTR __Pos$[ebp]
	mov	ecx, DWORD PTR [ecx]
	lea	eax, DWORD PTR [eax+eax*8]
	lea	eax, DWORD PTR [ecx+eax*8]
; Line 941
	pop	ebp
	ret	4
??A?$vector@VWMOInstance@@V?$allocator@VWMOInstance@@@std@@@std@@QAEAAVWMOInstance@@I@Z ENDP ; std::vector<WMOInstance,std::allocator<WMOInstance> >::operator[]
_TEXT	ENDS
PUBLIC	?size@?$vector@UMapEntry@@V?$allocator@UMapEntry@@@std@@@std@@QBEIXZ ; std::vector<MapEntry,std::allocator<MapEntry> >::size
; Function compile flags: /Ogtp
;	COMDAT ?size@?$vector@UMapEntry@@V?$allocator@UMapEntry@@@std@@@std@@QBEIXZ
_TEXT	SEGMENT
?size@?$vector@UMapEntry@@V?$allocator@UMapEntry@@@std@@@std@@QBEIXZ PROC ; std::vector<MapEntry,std::allocator<MapEntry> >::size, COMDAT
; _this$ = ecx
; Line 879
	mov	edx, DWORD PTR [ecx+4]
	sub	edx, DWORD PTR [ecx]
	mov	eax, 1808407283				; 6bca1af3H
	imul	edx
	sar	edx, 5
	mov	eax, edx
	shr	eax, 31					; 0000001fH
	add	eax, edx
; Line 880
	ret	0
?size@?$vector@UMapEntry@@V?$allocator@UMapEntry@@@std@@@std@@QBEIXZ ENDP ; std::vector<MapEntry,std::allocator<MapEntry> >::size
_TEXT	ENDS
PUBLIC	??A?$vector@UMapEntry@@V?$allocator@UMapEntry@@@std@@@std@@QAEAAUMapEntry@@I@Z ; std::vector<MapEntry,std::allocator<MapEntry> >::operator[]
; Function compile flags: /Ogtp
;	COMDAT ??A?$vector@UMapEntry@@V?$allocator@UMapEntry@@@std@@@std@@QAEAAUMapEntry@@I@Z
_TEXT	SEGMENT
__Pos$ = 8						; size = 4
??A?$vector@UMapEntry@@V?$allocator@UMapEntry@@@std@@@std@@QAEAAUMapEntry@@I@Z PROC ; std::vector<MapEntry,std::allocator<MapEntry> >::operator[], COMDAT
; _this$ = ecx
; Line 928
	push	ebp
	mov	ebp, esp
; Line 940
	mov	eax, DWORD PTR __Pos$[ebp]
	imul	eax, 76					; 0000004cH
	add	eax, DWORD PTR [ecx]
; Line 941
	pop	ebp
	ret	4
??A?$vector@UMapEntry@@V?$allocator@UMapEntry@@@std@@@std@@QAEAAUMapEntry@@I@Z ENDP ; std::vector<MapEntry,std::allocator<MapEntry> >::operator[]
_TEXT	ENDS
PUBLIC	?size@?$vector@UBookmark@@V?$allocator@UBookmark@@@std@@@std@@QBEIXZ ; std::vector<Bookmark,std::allocator<Bookmark> >::size
; Function compile flags: /Ogtp
;	COMDAT ?size@?$vector@UBookmark@@V?$allocator@UBookmark@@@std@@@std@@QBEIXZ
_TEXT	SEGMENT
?size@?$vector@UBookmark@@V?$allocator@UBookmark@@@std@@@std@@QBEIXZ PROC ; std::vector<Bookmark,std::allocator<Bookmark> >::size, COMDAT
; _this$ = ecx
; Line 878
	push	esi
; Line 879
	mov	esi, DWORD PTR [ecx+4]
	sub	esi, DWORD PTR [ecx]
	mov	eax, -2004318071			; 88888889H
	imul	esi
	add	edx, esi
	sar	edx, 6
	mov	eax, edx
	shr	eax, 31					; 0000001fH
	add	eax, edx
	pop	esi
; Line 880
	ret	0
?size@?$vector@UBookmark@@V?$allocator@UBookmark@@@std@@@std@@QBEIXZ ENDP ; std::vector<Bookmark,std::allocator<Bookmark> >::size
_TEXT	ENDS
PUBLIC	??A?$vector@UBookmark@@V?$allocator@UBookmark@@@std@@@std@@QAEAAUBookmark@@I@Z ; std::vector<Bookmark,std::allocator<Bookmark> >::operator[]
; Function compile flags: /Ogtp
;	COMDAT ??A?$vector@UBookmark@@V?$allocator@UBookmark@@@std@@@std@@QAEAAUBookmark@@I@Z
_TEXT	SEGMENT
__Pos$ = 8						; size = 4
??A?$vector@UBookmark@@V?$allocator@UBookmark@@@std@@@std@@QAEAAUBookmark@@I@Z PROC ; std::vector<Bookmark,std::allocator<Bookmark> >::operator[], COMDAT
; _this$ = ecx
; Line 928
	push	ebp
	mov	ebp, esp
; Line 940
	mov	eax, DWORD PTR __Pos$[ebp]
	mov	edx, eax
	shl	edx, 4
	sub	edx, eax
	mov	eax, DWORD PTR [ecx]
	lea	eax, DWORD PTR [eax+edx*8]
; Line 941
	pop	ebp
	ret	4
??A?$vector@UBookmark@@V?$allocator@UBookmark@@@std@@@std@@QAEAAUBookmark@@I@Z ENDP ; std::vector<Bookmark,std::allocator<Bookmark> >::operator[]
_TEXT	ENDS
PUBLIC	?_Myptr@?$basic_string@DU?$char_traits@D@std@@V?$allocator@D@2@@std@@QBEPBDXZ ; std::basic_string<char,std::char_traits<char>,std::allocator<char> >::_Myptr
; Function compile flags: /Ogtp
;	COMDAT ?_Myptr@?$basic_string@DU?$char_traits@D@std@@V?$allocator@D@2@@std@@QBEPBDXZ
_TEXT	SEGMENT
?_Myptr@?$basic_string@DU?$char_traits@D@std@@V?$allocator@D@2@@std@@QBEPBDXZ PROC ; std::basic_string<char,std::char_traits<char>,std::allocator<char> >::_Myptr, COMDAT
; _this$ = ecx
; File c:\program files (x86)\microsoft visual studio 10.0\vc\include\xstring
; Line 2008
	mov	eax, ecx
; Line 2010
	cmp	DWORD PTR [eax+20], 16			; 00000010H
	jb	SHORT $LN4@Myptr
	mov	eax, DWORD PTR [eax]
$LN4@Myptr:
; Line 2011
	ret	0
?_Myptr@?$basic_string@DU?$char_traits@D@std@@V?$allocator@D@2@@std@@QBEPBDXZ ENDP ; std::basic_string<char,std::char_traits<char>,std::allocator<char> >::_Myptr
_TEXT	ENDS
PUBLIC	??1?$_String_val@DV?$allocator@D@std@@@std@@QAE@XZ ; std::_String_val<char,std::allocator<char> >::~_String_val<char,std::allocator<char> >
; Function compile flags: /Ogtp
;	COMDAT ??1?$_String_val@DV?$allocator@D@std@@@std@@QAE@XZ
_TEXT	SEGMENT
??1?$_String_val@DV?$allocator@D@std@@@std@@QAE@XZ PROC	; std::_String_val<char,std::allocator<char> >::~_String_val<char,std::allocator<char> >, COMDAT
; _this$ = ecx
; Line 459
	ret	0
??1?$_String_val@DV?$allocator@D@std@@@std@@QAE@XZ ENDP	; std::_String_val<char,std::allocator<char> >::~_String_val<char,std::allocator<char> >
_TEXT	ENDS
PUBLIC	??0?$allocator@D@std@@QAE@XZ			; std::allocator<char>::allocator<char>
; Function compile flags: /Ogtp
;	COMDAT ??0?$allocator@D@std@@QAE@XZ
_TEXT	SEGMENT
??0?$allocator@D@std@@QAE@XZ PROC			; std::allocator<char>::allocator<char>, COMDAT
; _this$ = ecx
; File c:\program files (x86)\microsoft visual studio 10.0\vc\include\xmemory
; Line 161
	mov	eax, ecx
; Line 163
	ret	0
??0?$allocator@D@std@@QAE@XZ ENDP			; std::allocator<char>::allocator<char>
_TEXT	ENDS
PUBLIC	??0?$allocator@D@std@@QAE@ABV01@@Z		; std::allocator<char>::allocator<char>
; Function compile flags: /Ogtp
;	COMDAT ??0?$allocator@D@std@@QAE@ABV01@@Z
_TEXT	SEGMENT
___formal$ = 8						; size = 4
??0?$allocator@D@std@@QAE@ABV01@@Z PROC			; std::allocator<char>::allocator<char>, COMDAT
; _this$ = ecx
; Line 165
	mov	eax, ecx
; Line 167
	ret	4
??0?$allocator@D@std@@QAE@ABV01@@Z ENDP			; std::allocator<char>::allocator<char>
_TEXT	ENDS
PUBLIC	??0_Sentry_base@?$basic_istream@DU?$char_traits@D@std@@@std@@QAE@AAV12@@Z ; std::basic_istream<char,std::char_traits<char> >::_Sentry_base::_Sentry_base
; Function compile flags: /Ogtp
;	COMDAT ??0_Sentry_base@?$basic_istream@DU?$char_traits@D@std@@@std@@QAE@AAV12@@Z
_TEXT	SEGMENT
__Istr$ = 8						; size = 4
??0_Sentry_base@?$basic_istream@DU?$char_traits@D@std@@@std@@QAE@AAV12@@Z PROC ; std::basic_istream<char,std::char_traits<char> >::_Sentry_base::_Sentry_base, COMDAT
; _this$ = ecx
; File c:\program files (x86)\microsoft visual studio 10.0\vc\include\istream
; Line 76
	push	ebp
	mov	ebp, esp
	mov	eax, DWORD PTR __Istr$[ebp]
	push	esi
	mov	esi, ecx
	mov	DWORD PTR [esi], eax
; Line 77
	mov	ecx, DWORD PTR [eax]
	mov	edx, DWORD PTR [ecx+4]
	mov	ecx, DWORD PTR [edx+eax+56]
	test	ecx, ecx
	je	SHORT $LN8@Sentry_bas@2
; Line 78
	mov	eax, DWORD PTR [ecx]
	mov	edx, DWORD PTR [eax+4]
	call	edx
$LN8@Sentry_bas@2:
; Line 79
	mov	eax, esi
	pop	esi
	pop	ebp
	ret	4
??0_Sentry_base@?$basic_istream@DU?$char_traits@D@std@@@std@@QAE@AAV12@@Z ENDP ; std::basic_istream<char,std::char_traits<char> >::_Sentry_base::_Sentry_base
_TEXT	ENDS
PUBLIC	?_Inside@?$vector@PAVAppState@@V?$allocator@PAVAppState@@@std@@@std@@IBE_NPBQAVAppState@@@Z ; std::vector<AppState *,std::allocator<AppState *> >::_Inside
; Function compile flags: /Ogtp
;	COMDAT ?_Inside@?$vector@PAVAppState@@V?$allocator@PAVAppState@@@std@@@std@@IBE_NPBQAVAppState@@@Z
_TEXT	SEGMENT
__Ptr$ = 8						; size = 4
?_Inside@?$vector@PAVAppState@@V?$allocator@PAVAppState@@@std@@@std@@IBE_NPBQAVAppState@@@Z PROC ; std::vector<AppState *,std::allocator<AppState *> >::_Inside, COMDAT
; _this$ = ecx
; File c:\program files (x86)\microsoft visual studio 10.0\vc\include\vector
; Line 1285
	push	ebp
	mov	ebp, esp
; Line 1286
	mov	eax, DWORD PTR __Ptr$[ebp]
	cmp	eax, DWORD PTR [ecx+4]
	jae	SHORT $LN3@Inside
	cmp	DWORD PTR [ecx], eax
	ja	SHORT $LN3@Inside
	mov	eax, 1
; Line 1287
	pop	ebp
	ret	4
$LN3@Inside:
; Line 1286
	xor	eax, eax
; Line 1287
	pop	ebp
	ret	4
?_Inside@?$vector@PAVAppState@@V?$allocator@PAVAppState@@@std@@@std@@IBE_NPBQAVAppState@@@Z ENDP ; std::vector<AppState *,std::allocator<AppState *> >::_Inside
_TEXT	ENDS
PUBLIC	?_Orphan_range@?$vector@PAVAppState@@V?$allocator@PAVAppState@@@std@@@std@@IBEXPAPAVAppState@@0@Z ; std::vector<AppState *,std::allocator<AppState *> >::_Orphan_range
; Function compile flags: /Ogtp
;	COMDAT ?_Orphan_range@?$vector@PAVAppState@@V?$allocator@PAVAppState@@@std@@@std@@IBEXPAPAVAppState@@0@Z
_TEXT	SEGMENT
___formal$ = 8						; size = 4
___formal$ = 12						; size = 4
?_Orphan_range@?$vector@PAVAppState@@V?$allocator@PAVAppState@@@std@@@std@@IBEXPAPAVAppState@@0@Z PROC ; std::vector<AppState *,std::allocator<AppState *> >::_Orphan_range, COMDAT
; _this$ = ecx
; Line 1454
	ret	8
?_Orphan_range@?$vector@PAVAppState@@V?$allocator@PAVAppState@@@std@@@std@@IBEXPAPAVAppState@@0@Z ENDP ; std::vector<AppState *,std::allocator<AppState *> >::_Orphan_range
_TEXT	ENDS
PUBLIC	?_Inside@?$vector@UMapEntry@@V?$allocator@UMapEntry@@@std@@@std@@IBE_NPBUMapEntry@@@Z ; std::vector<MapEntry,std::allocator<MapEntry> >::_Inside
; Function compile flags: /Ogtp
;	COMDAT ?_Inside@?$vector@UMapEntry@@V?$allocator@UMapEntry@@@std@@@std@@IBE_NPBUMapEntry@@@Z
_TEXT	SEGMENT
__Ptr$ = 8						; size = 4
?_Inside@?$vector@UMapEntry@@V?$allocator@UMapEntry@@@std@@@std@@IBE_NPBUMapEntry@@@Z PROC ; std::vector<MapEntry,std::allocator<MapEntry> >::_Inside, COMDAT
; _this$ = ecx
; Line 1285
	push	ebp
	mov	ebp, esp
; Line 1286
	mov	eax, DWORD PTR __Ptr$[ebp]
	cmp	eax, DWORD PTR [ecx+4]
	jae	SHORT $LN3@Inside@2
	cmp	DWORD PTR [ecx], eax
	ja	SHORT $LN3@Inside@2
	mov	eax, 1
; Line 1287
	pop	ebp
	ret	4
$LN3@Inside@2:
; Line 1286
	xor	eax, eax
; Line 1287
	pop	ebp
	ret	4
?_Inside@?$vector@UMapEntry@@V?$allocator@UMapEntry@@@std@@@std@@IBE_NPBUMapEntry@@@Z ENDP ; std::vector<MapEntry,std::allocator<MapEntry> >::_Inside
_TEXT	ENDS
PUBLIC	?_Orphan_range@?$vector@UMapEntry@@V?$allocator@UMapEntry@@@std@@@std@@IBEXPAUMapEntry@@0@Z ; std::vector<MapEntry,std::allocator<MapEntry> >::_Orphan_range
; Function compile flags: /Ogtp
;	COMDAT ?_Orphan_range@?$vector@UMapEntry@@V?$allocator@UMapEntry@@@std@@@std@@IBEXPAUMapEntry@@0@Z
_TEXT	SEGMENT
___formal$ = 8						; size = 4
___formal$ = 12						; size = 4
?_Orphan_range@?$vector@UMapEntry@@V?$allocator@UMapEntry@@@std@@@std@@IBEXPAUMapEntry@@0@Z PROC ; std::vector<MapEntry,std::allocator<MapEntry> >::_Orphan_range, COMDAT
; _this$ = ecx
; Line 1454
	ret	8
?_Orphan_range@?$vector@UMapEntry@@V?$allocator@UMapEntry@@@std@@@std@@IBEXPAUMapEntry@@0@Z ENDP ; std::vector<MapEntry,std::allocator<MapEntry> >::_Orphan_range
_TEXT	ENDS
PUBLIC	??1?$_Vector_val@UMapEntry@@V?$allocator@UMapEntry@@@std@@@std@@QAE@XZ ; std::_Vector_val<MapEntry,std::allocator<MapEntry> >::~_Vector_val<MapEntry,std::allocator<MapEntry> >
; Function compile flags: /Ogtp
;	COMDAT ??1?$_Vector_val@UMapEntry@@V?$allocator@UMapEntry@@@std@@@std@@QAE@XZ
_TEXT	SEGMENT
??1?$_Vector_val@UMapEntry@@V?$allocator@UMapEntry@@@std@@@std@@QAE@XZ PROC ; std::_Vector_val<MapEntry,std::allocator<MapEntry> >::~_Vector_val<MapEntry,std::allocator<MapEntry> >, COMDAT
; _this$ = ecx
; Line 434
	ret	0
??1?$_Vector_val@UMapEntry@@V?$allocator@UMapEntry@@@std@@@std@@QAE@XZ ENDP ; std::_Vector_val<MapEntry,std::allocator<MapEntry> >::~_Vector_val<MapEntry,std::allocator<MapEntry> >
_TEXT	ENDS
PUBLIC	??0?$allocator@UMapEntry@@@std@@QAE@XZ		; std::allocator<MapEntry>::allocator<MapEntry>
; Function compile flags: /Ogtp
;	COMDAT ??0?$allocator@UMapEntry@@@std@@QAE@XZ
_TEXT	SEGMENT
??0?$allocator@UMapEntry@@@std@@QAE@XZ PROC		; std::allocator<MapEntry>::allocator<MapEntry>, COMDAT
; _this$ = ecx
; File c:\program files (x86)\microsoft visual studio 10.0\vc\include\xmemory
; Line 161
	mov	eax, ecx
; Line 163
	ret	0
??0?$allocator@UMapEntry@@@std@@QAE@XZ ENDP		; std::allocator<MapEntry>::allocator<MapEntry>
_TEXT	ENDS
PUBLIC	?_Inside@?$vector@UBookmark@@V?$allocator@UBookmark@@@std@@@std@@IBE_NPBUBookmark@@@Z ; std::vector<Bookmark,std::allocator<Bookmark> >::_Inside
; Function compile flags: /Ogtp
;	COMDAT ?_Inside@?$vector@UBookmark@@V?$allocator@UBookmark@@@std@@@std@@IBE_NPBUBookmark@@@Z
_TEXT	SEGMENT
__Ptr$ = 8						; size = 4
?_Inside@?$vector@UBookmark@@V?$allocator@UBookmark@@@std@@@std@@IBE_NPBUBookmark@@@Z PROC ; std::vector<Bookmark,std::allocator<Bookmark> >::_Inside, COMDAT
; _this$ = ecx
; File c:\program files (x86)\microsoft visual studio 10.0\vc\include\vector
; Line 1285
	push	ebp
	mov	ebp, esp
; Line 1286
	mov	eax, DWORD PTR __Ptr$[ebp]
	cmp	eax, DWORD PTR [ecx+4]
	jae	SHORT $LN3@Inside@3
	cmp	DWORD PTR [ecx], eax
	ja	SHORT $LN3@Inside@3
	mov	eax, 1
; Line 1287
	pop	ebp
	ret	4
$LN3@Inside@3:
; Line 1286
	xor	eax, eax
; Line 1287
	pop	ebp
	ret	4
?_Inside@?$vector@UBookmark@@V?$allocator@UBookmark@@@std@@@std@@IBE_NPBUBookmark@@@Z ENDP ; std::vector<Bookmark,std::allocator<Bookmark> >::_Inside
_TEXT	ENDS
PUBLIC	?_Orphan_range@?$vector@UBookmark@@V?$allocator@UBookmark@@@std@@@std@@IBEXPAUBookmark@@0@Z ; std::vector<Bookmark,std::allocator<Bookmark> >::_Orphan_range
; Function compile flags: /Ogtp
;	COMDAT ?_Orphan_range@?$vector@UBookmark@@V?$allocator@UBookmark@@@std@@@std@@IBEXPAUBookmark@@0@Z
_TEXT	SEGMENT
___formal$ = 8						; size = 4
___formal$ = 12						; size = 4
?_Orphan_range@?$vector@UBookmark@@V?$allocator@UBookmark@@@std@@@std@@IBEXPAUBookmark@@0@Z PROC ; std::vector<Bookmark,std::allocator<Bookmark> >::_Orphan_range, COMDAT
; _this$ = ecx
; Line 1454
	ret	8
?_Orphan_range@?$vector@UBookmark@@V?$allocator@UBookmark@@@std@@@std@@IBEXPAUBookmark@@0@Z ENDP ; std::vector<Bookmark,std::allocator<Bookmark> >::_Orphan_range
_TEXT	ENDS
PUBLIC	??1?$_Vector_val@UBookmark@@V?$allocator@UBookmark@@@std@@@std@@QAE@XZ ; std::_Vector_val<Bookmark,std::allocator<Bookmark> >::~_Vector_val<Bookmark,std::allocator<Bookmark> >
; Function compile flags: /Ogtp
;	COMDAT ??1?$_Vector_val@UBookmark@@V?$allocator@UBookmark@@@std@@@std@@QAE@XZ
_TEXT	SEGMENT
??1?$_Vector_val@UBookmark@@V?$allocator@UBookmark@@@std@@@std@@QAE@XZ PROC ; std::_Vector_val<Bookmark,std::allocator<Bookmark> >::~_Vector_val<Bookmark,std::allocator<Bookmark> >, COMDAT
; _this$ = ecx
; Line 434
	ret	0
??1?$_Vector_val@UBookmark@@V?$allocator@UBookmark@@@std@@@std@@QAE@XZ ENDP ; std::_Vector_val<Bookmark,std::allocator<Bookmark> >::~_Vector_val<Bookmark,std::allocator<Bookmark> >
_TEXT	ENDS
PUBLIC	??0?$allocator@UBookmark@@@std@@QAE@XZ		; std::allocator<Bookmark>::allocator<Bookmark>
; Function compile flags: /Ogtp
;	COMDAT ??0?$allocator@UBookmark@@@std@@QAE@XZ
_TEXT	SEGMENT
??0?$allocator@UBookmark@@@std@@QAE@XZ PROC		; std::allocator<Bookmark>::allocator<Bookmark>, COMDAT
; _this$ = ecx
; File c:\program files (x86)\microsoft visual studio 10.0\vc\include\xmemory
; Line 161
	mov	eax, ecx
; Line 163
	ret	0
??0?$allocator@UBookmark@@@std@@QAE@XZ ENDP		; std::allocator<Bookmark>::allocator<Bookmark>
_TEXT	ENDS
PUBLIC	?is_open@?$basic_filebuf@DU?$char_traits@D@std@@@std@@QBE_NXZ ; std::basic_filebuf<char,std::char_traits<char> >::is_open
; Function compile flags: /Ogtp
;	COMDAT ?is_open@?$basic_filebuf@DU?$char_traits@D@std@@@std@@QBE_NXZ
_TEXT	SEGMENT
?is_open@?$basic_filebuf@DU?$char_traits@D@std@@@std@@QBE_NXZ PROC ; std::basic_filebuf<char,std::char_traits<char> >::is_open, COMDAT
; _this$ = ecx
; File c:\program files (x86)\microsoft visual studio 10.0\vc\include\fstream
; Line 212
	xor	eax, eax
	cmp	DWORD PTR [ecx+84], eax
	setne	al
; Line 213
	ret	0
?is_open@?$basic_filebuf@DU?$char_traits@D@std@@@std@@QBE_NXZ ENDP ; std::basic_filebuf<char,std::char_traits<char> >::is_open
_TEXT	ENDS
PUBLIC	?_Stinit@?1??_Init@?$basic_filebuf@DU?$char_traits@D@std@@@std@@IAEXPAU_iobuf@@W4_Initfl@23@@Z@4HA ; `std::basic_filebuf<char,std::char_traits<char> >::_Init'::`2'::_Stinit
PUBLIC	?_Init@?$basic_filebuf@DU?$char_traits@D@std@@@std@@IAEXPAU_iobuf@@W4_Initfl@12@@Z ; std::basic_filebuf<char,std::char_traits<char> >::_Init
EXTRN	__imp_?_Init@?$basic_streambuf@DU?$char_traits@D@std@@@std@@IAEXXZ:PROC
;	COMDAT ?_Stinit@?1??_Init@?$basic_filebuf@DU?$char_traits@D@std@@@std@@IAEXPAU_iobuf@@W4_Initfl@23@@Z@4HA
; File c:\program files (x86)\microsoft visual studio 10.0\vc\include\streambuf
_BSS	SEGMENT
?_Stinit@?1??_Init@?$basic_filebuf@DU?$char_traits@D@std@@@std@@IAEXPAU_iobuf@@W4_Initfl@23@@Z@4HA DD 01H DUP (?) ; `std::basic_filebuf<char,std::char_traits<char> >::_Init'::`2'::_Stinit
; Function compile flags: /Ogtp
_BSS	ENDS
;	COMDAT ?_Init@?$basic_filebuf@DU?$char_traits@D@std@@@std@@IAEXPAU_iobuf@@W4_Initfl@12@@Z
_TEXT	SEGMENT
__File$ = 8						; size = 4
__Which$ = 12						; size = 4
?_Init@?$basic_filebuf@DU?$char_traits@D@std@@@std@@IAEXPAU_iobuf@@W4_Initfl@12@@Z PROC ; std::basic_filebuf<char,std::char_traits<char> >::_Init, COMDAT
; _this$ = ecx
; File c:\program files (x86)\microsoft visual studio 10.0\vc\include\fstream
; Line 555
	push	ebp
	mov	ebp, esp
; Line 558
	cmp	DWORD PTR __Which$[ebp], 1
	push	esi
	mov	esi, ecx
	sete	al
	mov	BYTE PTR [esi+80], al
; Line 559
	mov	BYTE PTR [esi+73], 0
; Line 561
	call	DWORD PTR __imp_?_Init@?$basic_streambuf@DU?$char_traits@D@std@@@std@@IAEXXZ
; Line 570
	mov	eax, DWORD PTR __File$[ebp]
	test	eax, eax
	je	SHORT $LN10@Init
; Line 574
	lea	ecx, DWORD PTR [eax+8]
; Line 578
	mov	DWORD PTR [esi+16], ecx
	mov	DWORD PTR [esi+20], ecx
	lea	ecx, DWORD PTR [eax+4]
	mov	DWORD PTR [esi+32], eax
	mov	DWORD PTR [esi+36], eax
	mov	DWORD PTR [esi+48], ecx
	mov	DWORD PTR [esi+52], ecx
$LN10@Init:
; Line 581
	mov	DWORD PTR [esi+84], eax
; Line 582
	mov	ecx, DWORD PTR ?_Stinit@?1??_Init@?$basic_filebuf@DU?$char_traits@D@std@@@std@@IAEXPAU_iobuf@@W4_Initfl@23@@Z@4HA ; `std::basic_filebuf<char,std::char_traits<char> >::_Init'::`2'::_Stinit
	mov	DWORD PTR [esi+76], ecx
; Line 583
	mov	DWORD PTR [esi+68], 0
	pop	esi
; Line 584
	pop	ebp
	ret	8
?_Init@?$basic_filebuf@DU?$char_traits@D@std@@@std@@IAEXPAU_iobuf@@W4_Initfl@12@@Z ENDP ; std::basic_filebuf<char,std::char_traits<char> >::_Init
_TEXT	ENDS
PUBLIC	?_Initcvt@?$basic_filebuf@DU?$char_traits@D@std@@@std@@IAEXPBV?$codecvt@DDH@2@@Z ; std::basic_filebuf<char,std::char_traits<char> >::_Initcvt
EXTRN	__imp_?always_noconv@codecvt_base@std@@QBE_NXZ:PROC
; Function compile flags: /Ogtp
;	COMDAT ?_Initcvt@?$basic_filebuf@DU?$char_traits@D@std@@@std@@IAEXPBV?$codecvt@DDH@2@@Z
_TEXT	SEGMENT
__Newpcvt$ = 8						; size = 4
?_Initcvt@?$basic_filebuf@DU?$char_traits@D@std@@@std@@IAEXPBV?$codecvt@DDH@2@@Z PROC ; std::basic_filebuf<char,std::char_traits<char> >::_Initcvt, COMDAT
; _this$ = ecx
; Line 628
	push	ebp
	mov	ebp, esp
	push	esi
	push	edi
; Line 629
	mov	edi, DWORD PTR __Newpcvt$[ebp]
	mov	esi, ecx
	mov	ecx, edi
	call	DWORD PTR __imp_?always_noconv@codecvt_base@std@@QBE_NXZ
	test	al, al
	je	SHORT $LN2@Initcvt
; Line 630
	pop	edi
	mov	DWORD PTR [esi+68], 0
	pop	esi
; Line 636
	pop	ebp
	ret	4
$LN2@Initcvt:
; Line 634
	mov	ecx, esi
	mov	DWORD PTR [esi+68], edi
	call	DWORD PTR __imp_?_Init@?$basic_streambuf@DU?$char_traits@D@std@@@std@@IAEXXZ
	pop	edi
	pop	esi
; Line 636
	pop	ebp
	ret	4
?_Initcvt@?$basic_filebuf@DU?$char_traits@D@std@@@std@@IAEXPBV?$codecvt@DDH@2@@Z ENDP ; std::basic_filebuf<char,std::char_traits<char> >::_Initcvt
_TEXT	ENDS
PUBLIC	?_Reset_back@?$basic_filebuf@DU?$char_traits@D@std@@@std@@AAEXXZ ; std::basic_filebuf<char,std::char_traits<char> >::_Reset_back
; Function compile flags: /Ogtp
;	COMDAT ?_Reset_back@?$basic_filebuf@DU?$char_traits@D@std@@@std@@AAEXXZ
_TEXT	SEGMENT
?_Reset_back@?$basic_filebuf@DU?$char_traits@D@std@@@std@@AAEXXZ PROC ; std::basic_filebuf<char,std::char_traits<char> >::_Reset_back, COMDAT
; _this$ = ecx
; Line 641
	mov	edx, DWORD PTR [ecx+16]
	lea	eax, DWORD PTR [ecx+72]
	cmp	DWORD PTR [edx], eax
	jne	SHORT $LN6@Reset_back
; Line 642
	mov	eax, DWORD PTR [ecx+64]
	push	esi
	mov	esi, DWORD PTR [ecx+60]
	mov	DWORD PTR [edx], esi
	mov	edx, DWORD PTR [ecx+32]
	mov	DWORD PTR [edx], eax
	mov	ecx, DWORD PTR [ecx+48]
	sub	eax, eax
	mov	DWORD PTR [ecx], eax
	pop	esi
$LN6@Reset_back:
; Line 643
	ret	0
?_Reset_back@?$basic_filebuf@DU?$char_traits@D@std@@@std@@AAEXXZ ENDP ; std::basic_filebuf<char,std::char_traits<char> >::_Reset_back
_TEXT	ENDS
PUBLIC	?_Myptr@?$basic_string@DU?$char_traits@D@std@@V?$allocator@D@2@@std@@QAEPADXZ ; std::basic_string<char,std::char_traits<char>,std::allocator<char> >::_Myptr
; Function compile flags: /Ogtp
;	COMDAT ?_Myptr@?$basic_string@DU?$char_traits@D@std@@V?$allocator@D@2@@std@@QAEPADXZ
_TEXT	SEGMENT
?_Myptr@?$basic_string@DU?$char_traits@D@std@@V?$allocator@D@2@@std@@QAEPADXZ PROC ; std::basic_string<char,std::char_traits<char>,std::allocator<char> >::_Myptr, COMDAT
; _this$ = ecx
; File c:\program files (x86)\microsoft visual studio 10.0\vc\include\xstring
; Line 2002
	mov	eax, ecx
; Line 2004
	cmp	DWORD PTR [eax+20], 16			; 00000010H
	jb	SHORT $LN4@Myptr@2
	mov	eax, DWORD PTR [eax]
$LN4@Myptr@2:
; Line 2005
	ret	0
?_Myptr@?$basic_string@DU?$char_traits@D@std@@V?$allocator@D@2@@std@@QAEPADXZ ENDP ; std::basic_string<char,std::char_traits<char>,std::allocator<char> >::_Myptr
_TEXT	ENDS
PUBLIC	??_C@_0BA@JFNIOLAK@string?5too?5long?$AA@	; `string'
PUBLIC	?_Xlen@?$basic_string@DU?$char_traits@D@std@@V?$allocator@D@2@@std@@QBEXXZ ; std::basic_string<char,std::char_traits<char>,std::allocator<char> >::_Xlen
EXTRN	__imp_?_Xlength_error@std@@YAXPBD@Z:PROC
;	COMDAT ??_C@_0BA@JFNIOLAK@string?5too?5long?$AA@
CONST	SEGMENT
??_C@_0BA@JFNIOLAK@string?5too?5long?$AA@ DB 'string too long', 00H ; `string'
; Function compile flags: /Ogtp
CONST	ENDS
;	COMDAT ?_Xlen@?$basic_string@DU?$char_traits@D@std@@V?$allocator@D@2@@std@@QBEXXZ
_TEXT	SEGMENT
?_Xlen@?$basic_string@DU?$char_traits@D@std@@V?$allocator@D@2@@std@@QBEXXZ PROC ; std::basic_string<char,std::char_traits<char>,std::allocator<char> >::_Xlen, COMDAT
; _this$ = ecx
; Line 2015
	push	OFFSET ??_C@_0BA@JFNIOLAK@string?5too?5long?$AA@
	call	DWORD PTR __imp_?_Xlength_error@std@@YAXPBD@Z
$LN4@Xlen:
$LN3@Xlen:
	int	3
?_Xlen@?$basic_string@DU?$char_traits@D@std@@V?$allocator@D@2@@std@@QBEXXZ ENDP ; std::basic_string<char,std::char_traits<char>,std::allocator<char> >::_Xlen
_TEXT	ENDS
PUBLIC	??_C@_0BI@CFPLBAOH@invalid?5string?5position?$AA@ ; `string'
PUBLIC	?_Xran@?$basic_string@DU?$char_traits@D@std@@V?$allocator@D@2@@std@@QBEXXZ ; std::basic_string<char,std::char_traits<char>,std::allocator<char> >::_Xran
EXTRN	__imp_?_Xout_of_range@std@@YAXPBD@Z:PROC
;	COMDAT ??_C@_0BI@CFPLBAOH@invalid?5string?5position?$AA@
CONST	SEGMENT
??_C@_0BI@CFPLBAOH@invalid?5string?5position?$AA@ DB 'invalid string posi'
	DB	'tion', 00H					; `string'
; Function compile flags: /Ogtp
CONST	ENDS
;	COMDAT ?_Xran@?$basic_string@DU?$char_traits@D@std@@V?$allocator@D@2@@std@@QBEXXZ
_TEXT	SEGMENT
?_Xran@?$basic_string@DU?$char_traits@D@std@@V?$allocator@D@2@@std@@QBEXXZ PROC ; std::basic_string<char,std::char_traits<char>,std::allocator<char> >::_Xran, COMDAT
; _this$ = ecx
; Line 2020
	push	OFFSET ??_C@_0BI@CFPLBAOH@invalid?5string?5position?$AA@
	call	DWORD PTR __imp_?_Xout_of_range@std@@YAXPBD@Z
$LN4@Xran:
$LN3@Xran:
	int	3
?_Xran@?$basic_string@DU?$char_traits@D@std@@V?$allocator@D@2@@std@@QBEXXZ ENDP ; std::basic_string<char,std::char_traits<char>,std::allocator<char> >::_Xran
_TEXT	ENDS
PUBLIC	?deallocate@?$allocator@D@std@@QAEXPADI@Z	; std::allocator<char>::deallocate
; Function compile flags: /Ogtp
;	COMDAT ?deallocate@?$allocator@D@std@@QAEXPADI@Z
_TEXT	SEGMENT
__Ptr$ = 8						; size = 4
___formal$ = 12						; size = 4
?deallocate@?$allocator@D@std@@QAEXPADI@Z PROC		; std::allocator<char>::deallocate, COMDAT
; _this$ = ecx
; File c:\program files (x86)\microsoft visual studio 10.0\vc\include\xmemory
; Line 181
	push	ebp
	mov	ebp, esp
; Line 182
	mov	eax, DWORD PTR __Ptr$[ebp]
	push	eax
	call	??3@YAXPAX@Z				; operator delete
	add	esp, 4
; Line 183
	pop	ebp
	ret	8
?deallocate@?$allocator@D@std@@QAEXPADI@Z ENDP		; std::allocator<char>::deallocate
_TEXT	ENDS
PUBLIC	?capacity@?$vector@PAVAppState@@V?$allocator@PAVAppState@@@std@@@std@@QBEIXZ ; std::vector<AppState *,std::allocator<AppState *> >::capacity
; Function compile flags: /Ogtp
;	COMDAT ?capacity@?$vector@PAVAppState@@V?$allocator@PAVAppState@@@std@@@std@@QBEIXZ
_TEXT	SEGMENT
?capacity@?$vector@PAVAppState@@V?$allocator@PAVAppState@@@std@@@std@@QBEIXZ PROC ; std::vector<AppState *,std::allocator<AppState *> >::capacity, COMDAT
; _this$ = ecx
; File c:\program files (x86)\microsoft visual studio 10.0\vc\include\vector
; Line 777
	mov	eax, DWORD PTR [ecx+8]
	sub	eax, DWORD PTR [ecx]
	sar	eax, 2
; Line 778
	ret	0
?capacity@?$vector@PAVAppState@@V?$allocator@PAVAppState@@@std@@@std@@QBEIXZ ENDP ; std::vector<AppState *,std::allocator<AppState *> >::capacity
_TEXT	ENDS
PUBLIC	?size@?$vector@PAVAppState@@V?$allocator@PAVAppState@@@std@@@std@@QBEIXZ ; std::vector<AppState *,std::allocator<AppState *> >::size
; Function compile flags: /Ogtp
;	COMDAT ?size@?$vector@PAVAppState@@V?$allocator@PAVAppState@@@std@@@std@@QBEIXZ
_TEXT	SEGMENT
?size@?$vector@PAVAppState@@V?$allocator@PAVAppState@@@std@@@std@@QBEIXZ PROC ; std::vector<AppState *,std::allocator<AppState *> >::size, COMDAT
; _this$ = ecx
; Line 879
	mov	eax, DWORD PTR [ecx+4]
	sub	eax, DWORD PTR [ecx]
	sar	eax, 2
; Line 880
	ret	0
?size@?$vector@PAVAppState@@V?$allocator@PAVAppState@@@std@@@std@@QBEIXZ ENDP ; std::vector<AppState *,std::allocator<AppState *> >::size
_TEXT	ENDS
PUBLIC	??_C@_0BD@OLBABOEK@vector?$DMT?$DO?5too?5long?$AA@ ; `string'
PUBLIC	?_Xlen@?$vector@PAVAppState@@V?$allocator@PAVAppState@@@std@@@std@@IBEXXZ ; std::vector<AppState *,std::allocator<AppState *> >::_Xlen
;	COMDAT ??_C@_0BD@OLBABOEK@vector?$DMT?$DO?5too?5long?$AA@
CONST	SEGMENT
??_C@_0BD@OLBABOEK@vector?$DMT?$DO?5too?5long?$AA@ DB 'vector<T> too long'
	DB	00H						; `string'
; Function compile flags: /Ogtp
CONST	ENDS
;	COMDAT ?_Xlen@?$vector@PAVAppState@@V?$allocator@PAVAppState@@@std@@@std@@IBEXXZ
_TEXT	SEGMENT
?_Xlen@?$vector@PAVAppState@@V?$allocator@PAVAppState@@@std@@@std@@IBEXXZ PROC ; std::vector<AppState *,std::allocator<AppState *> >::_Xlen, COMDAT
; _this$ = ecx
; Line 1427
	push	OFFSET ??_C@_0BD@OLBABOEK@vector?$DMT?$DO?5too?5long?$AA@
	call	DWORD PTR __imp_?_Xlength_error@std@@YAXPBD@Z
$LN4@Xlen@2:
$LN3@Xlen@2:
	int	3
?_Xlen@?$vector@PAVAppState@@V?$allocator@PAVAppState@@@std@@@std@@IBEXXZ ENDP ; std::vector<AppState *,std::allocator<AppState *> >::_Xlen
_TEXT	ENDS
PUBLIC	?capacity@?$vector@UMapEntry@@V?$allocator@UMapEntry@@@std@@@std@@QBEIXZ ; std::vector<MapEntry,std::allocator<MapEntry> >::capacity
; Function compile flags: /Ogtp
;	COMDAT ?capacity@?$vector@UMapEntry@@V?$allocator@UMapEntry@@@std@@@std@@QBEIXZ
_TEXT	SEGMENT
?capacity@?$vector@UMapEntry@@V?$allocator@UMapEntry@@@std@@@std@@QBEIXZ PROC ; std::vector<MapEntry,std::allocator<MapEntry> >::capacity, COMDAT
; _this$ = ecx
; Line 777
	mov	edx, DWORD PTR [ecx+8]
	sub	edx, DWORD PTR [ecx]
	mov	eax, 1808407283				; 6bca1af3H
	imul	edx
	sar	edx, 5
	mov	eax, edx
	shr	eax, 31					; 0000001fH
	add	eax, edx
; Line 778
	ret	0
?capacity@?$vector@UMapEntry@@V?$allocator@UMapEntry@@@std@@@std@@QBEIXZ ENDP ; std::vector<MapEntry,std::allocator<MapEntry> >::capacity
_TEXT	ENDS
PUBLIC	?_Xlen@?$vector@UMapEntry@@V?$allocator@UMapEntry@@@std@@@std@@IBEXXZ ; std::vector<MapEntry,std::allocator<MapEntry> >::_Xlen
; Function compile flags: /Ogtp
;	COMDAT ?_Xlen@?$vector@UMapEntry@@V?$allocator@UMapEntry@@@std@@@std@@IBEXXZ
_TEXT	SEGMENT
?_Xlen@?$vector@UMapEntry@@V?$allocator@UMapEntry@@@std@@@std@@IBEXXZ PROC ; std::vector<MapEntry,std::allocator<MapEntry> >::_Xlen, COMDAT
; _this$ = ecx
; Line 1427
	push	OFFSET ??_C@_0BD@OLBABOEK@vector?$DMT?$DO?5too?5long?$AA@
	call	DWORD PTR __imp_?_Xlength_error@std@@YAXPBD@Z
$LN4@Xlen@3:
$LN3@Xlen@3:
	int	3
?_Xlen@?$vector@UMapEntry@@V?$allocator@UMapEntry@@@std@@@std@@IBEXXZ ENDP ; std::vector<MapEntry,std::allocator<MapEntry> >::_Xlen
_TEXT	ENDS
PUBLIC	??0?$allocator@UMapEntry@@@std@@QAE@ABV01@@Z	; std::allocator<MapEntry>::allocator<MapEntry>
; Function compile flags: /Ogtp
;	COMDAT ??0?$allocator@UMapEntry@@@std@@QAE@ABV01@@Z
_TEXT	SEGMENT
___formal$ = 8						; size = 4
??0?$allocator@UMapEntry@@@std@@QAE@ABV01@@Z PROC	; std::allocator<MapEntry>::allocator<MapEntry>, COMDAT
; _this$ = ecx
; File c:\program files (x86)\microsoft visual studio 10.0\vc\include\xmemory
; Line 165
	mov	eax, ecx
; Line 167
	ret	4
??0?$allocator@UMapEntry@@@std@@QAE@ABV01@@Z ENDP	; std::allocator<MapEntry>::allocator<MapEntry>
_TEXT	ENDS
PUBLIC	?deallocate@?$allocator@UMapEntry@@@std@@QAEXPAUMapEntry@@I@Z ; std::allocator<MapEntry>::deallocate
; Function compile flags: /Ogtp
;	COMDAT ?deallocate@?$allocator@UMapEntry@@@std@@QAEXPAUMapEntry@@I@Z
_TEXT	SEGMENT
__Ptr$ = 8						; size = 4
___formal$ = 12						; size = 4
?deallocate@?$allocator@UMapEntry@@@std@@QAEXPAUMapEntry@@I@Z PROC ; std::allocator<MapEntry>::deallocate, COMDAT
; _this$ = ecx
; Line 181
	push	ebp
	mov	ebp, esp
; Line 182
	mov	eax, DWORD PTR __Ptr$[ebp]
	push	eax
	call	??3@YAXPAX@Z				; operator delete
	add	esp, 4
; Line 183
	pop	ebp
	ret	8
?deallocate@?$allocator@UMapEntry@@@std@@QAEXPAUMapEntry@@I@Z ENDP ; std::allocator<MapEntry>::deallocate
_TEXT	ENDS
PUBLIC	?capacity@?$vector@UBookmark@@V?$allocator@UBookmark@@@std@@@std@@QBEIXZ ; std::vector<Bookmark,std::allocator<Bookmark> >::capacity
; Function compile flags: /Ogtp
;	COMDAT ?capacity@?$vector@UBookmark@@V?$allocator@UBookmark@@@std@@@std@@QBEIXZ
_TEXT	SEGMENT
?capacity@?$vector@UBookmark@@V?$allocator@UBookmark@@@std@@@std@@QBEIXZ PROC ; std::vector<Bookmark,std::allocator<Bookmark> >::capacity, COMDAT
; _this$ = ecx
; File c:\program files (x86)\microsoft visual studio 10.0\vc\include\vector
; Line 776
	push	esi
; Line 777
	mov	esi, DWORD PTR [ecx+8]
	sub	esi, DWORD PTR [ecx]
	mov	eax, -2004318071			; 88888889H
	imul	esi
	add	edx, esi
	sar	edx, 6
	mov	eax, edx
	shr	eax, 31					; 0000001fH
	add	eax, edx
	pop	esi
; Line 778
	ret	0
?capacity@?$vector@UBookmark@@V?$allocator@UBookmark@@@std@@@std@@QBEIXZ ENDP ; std::vector<Bookmark,std::allocator<Bookmark> >::capacity
_TEXT	ENDS
PUBLIC	?_Xlen@?$vector@UBookmark@@V?$allocator@UBookmark@@@std@@@std@@IBEXXZ ; std::vector<Bookmark,std::allocator<Bookmark> >::_Xlen
; Function compile flags: /Ogtp
;	COMDAT ?_Xlen@?$vector@UBookmark@@V?$allocator@UBookmark@@@std@@@std@@IBEXXZ
_TEXT	SEGMENT
?_Xlen@?$vector@UBookmark@@V?$allocator@UBookmark@@@std@@@std@@IBEXXZ PROC ; std::vector<Bookmark,std::allocator<Bookmark> >::_Xlen, COMDAT
; _this$ = ecx
; Line 1427
	push	OFFSET ??_C@_0BD@OLBABOEK@vector?$DMT?$DO?5too?5long?$AA@
	call	DWORD PTR __imp_?_Xlength_error@std@@YAXPBD@Z
$LN4@Xlen@4:
$LN3@Xlen@4:
	int	3
?_Xlen@?$vector@UBookmark@@V?$allocator@UBookmark@@@std@@@std@@IBEXXZ ENDP ; std::vector<Bookmark,std::allocator<Bookmark> >::_Xlen
_TEXT	ENDS
PUBLIC	??0?$allocator@UBookmark@@@std@@QAE@ABV01@@Z	; std::allocator<Bookmark>::allocator<Bookmark>
; Function compile flags: /Ogtp
;	COMDAT ??0?$allocator@UBookmark@@@std@@QAE@ABV01@@Z
_TEXT	SEGMENT
___formal$ = 8						; size = 4
??0?$allocator@UBookmark@@@std@@QAE@ABV01@@Z PROC	; std::allocator<Bookmark>::allocator<Bookmark>, COMDAT
; _this$ = ecx
; File c:\program files (x86)\microsoft visual studio 10.0\vc\include\xmemory
; Line 165
	mov	eax, ecx
; Line 167
	ret	4
??0?$allocator@UBookmark@@@std@@QAE@ABV01@@Z ENDP	; std::allocator<Bookmark>::allocator<Bookmark>
_TEXT	ENDS
PUBLIC	?deallocate@?$allocator@UBookmark@@@std@@QAEXPAUBookmark@@I@Z ; std::allocator<Bookmark>::deallocate
; Function compile flags: /Ogtp
;	COMDAT ?deallocate@?$allocator@UBookmark@@@std@@QAEXPAUBookmark@@I@Z
_TEXT	SEGMENT
__Ptr$ = 8						; size = 4
___formal$ = 12						; size = 4
?deallocate@?$allocator@UBookmark@@@std@@QAEXPAUBookmark@@I@Z PROC ; std::allocator<Bookmark>::deallocate, COMDAT
; _this$ = ecx
; Line 181
	push	ebp
	mov	ebp, esp
; Line 182
	mov	eax, DWORD PTR __Ptr$[ebp]
	push	eax
	call	??3@YAXPAX@Z				; operator delete
	add	esp, 4
; Line 183
	pop	ebp
	ret	8
?deallocate@?$allocator@UBookmark@@@std@@QAEXPAUBookmark@@I@Z ENDP ; std::allocator<Bookmark>::deallocate
_TEXT	ENDS
PUBLIC	??D?$_String_const_iterator@DU?$char_traits@D@std@@V?$allocator@D@2@@std@@QBEABDXZ ; std::_String_const_iterator<char,std::char_traits<char>,std::allocator<char> >::operator*
; Function compile flags: /Ogtp
;	COMDAT ??D?$_String_const_iterator@DU?$char_traits@D@std@@V?$allocator@D@2@@std@@QBEABDXZ
_TEXT	SEGMENT
??D?$_String_const_iterator@DU?$char_traits@D@std@@V?$allocator@D@2@@std@@QBEABDXZ PROC ; std::_String_const_iterator<char,std::char_traits<char>,std::allocator<char> >::operator*, COMDAT
; _this$ = ecx
; File c:\program files (x86)\microsoft visual studio 10.0\vc\include\xstring
; Line 92
	mov	eax, DWORD PTR [ecx]
; Line 93
	ret	0
??D?$_String_const_iterator@DU?$char_traits@D@std@@V?$allocator@D@2@@std@@QBEABDXZ ENDP ; std::_String_const_iterator<char,std::char_traits<char>,std::allocator<char> >::operator*
_TEXT	ENDS
PUBLIC	?deallocate@?$allocator@PAVAppState@@@std@@QAEXPAPAVAppState@@I@Z ; std::allocator<AppState *>::deallocate
; Function compile flags: /Ogtp
;	COMDAT ?deallocate@?$allocator@PAVAppState@@@std@@QAEXPAPAVAppState@@I@Z
_TEXT	SEGMENT
__Ptr$ = 8						; size = 4
___formal$ = 12						; size = 4
?deallocate@?$allocator@PAVAppState@@@std@@QAEXPAPAVAppState@@I@Z PROC ; std::allocator<AppState *>::deallocate, COMDAT
; _this$ = ecx
; File c:\program files (x86)\microsoft visual studio 10.0\vc\include\xmemory
; Line 181
	push	ebp
	mov	ebp, esp
; Line 182
	mov	eax, DWORD PTR __Ptr$[ebp]
	push	eax
	call	??3@YAXPAX@Z				; operator delete
	add	esp, 4
; Line 183
	pop	ebp
	ret	8
?deallocate@?$allocator@PAVAppState@@@std@@QAEXPAPAVAppState@@I@Z ENDP ; std::allocator<AppState *>::deallocate
_TEXT	ENDS
PUBLIC	?max_size@?$allocator@PAVAppState@@@std@@QBEIXZ	; std::allocator<AppState *>::max_size
; Function compile flags: /Ogtp
;	COMDAT ?max_size@?$allocator@PAVAppState@@@std@@QBEIXZ
_TEXT	SEGMENT
?max_size@?$allocator@PAVAppState@@@std@@QBEIXZ PROC	; std::allocator<AppState *>::max_size, COMDAT
; _this$ = ecx
; Line 219
	mov	eax, 1073741823				; 3fffffffH
; Line 220
	ret	0
?max_size@?$allocator@PAVAppState@@@std@@QBEIXZ ENDP	; std::allocator<AppState *>::max_size
_TEXT	ENDS
PUBLIC	?max_size@?$allocator@UMapEntry@@@std@@QBEIXZ	; std::allocator<MapEntry>::max_size
; Function compile flags: /Ogtp
;	COMDAT ?max_size@?$allocator@UMapEntry@@@std@@QBEIXZ
_TEXT	SEGMENT
?max_size@?$allocator@UMapEntry@@@std@@QBEIXZ PROC	; std::allocator<MapEntry>::max_size, COMDAT
; _this$ = ecx
; Line 219
	mov	eax, 56512727				; 035e50d7H
; Line 220
	ret	0
?max_size@?$allocator@UMapEntry@@@std@@QBEIXZ ENDP	; std::allocator<MapEntry>::max_size
_TEXT	ENDS
PUBLIC	?max_size@?$allocator@UBookmark@@@std@@QBEIXZ	; std::allocator<Bookmark>::max_size
; Function compile flags: /Ogtp
;	COMDAT ?max_size@?$allocator@UBookmark@@@std@@QBEIXZ
_TEXT	SEGMENT
?max_size@?$allocator@UBookmark@@@std@@QBEIXZ PROC	; std::allocator<Bookmark>::max_size, COMDAT
; _this$ = ecx
; Line 219
	mov	eax, 35791394				; 02222222H
; Line 220
	ret	0
?max_size@?$allocator@UBookmark@@@std@@QBEIXZ ENDP	; std::allocator<Bookmark>::max_size
_TEXT	ENDS
PUBLIC	??0?$_String_const_iterator@DU?$char_traits@D@std@@V?$allocator@D@2@@std@@QAE@PBDPBU_Container_base0@1@@Z ; std::_String_const_iterator<char,std::char_traits<char>,std::allocator<char> >::_String_const_iterator<char,std::char_traits<char>,std::allocator<char> >
; Function compile flags: /Ogtp
;	COMDAT ??0?$_String_const_iterator@DU?$char_traits@D@std@@V?$allocator@D@2@@std@@QAE@PBDPBU_Container_base0@1@@Z
_TEXT	SEGMENT
__Parg$ = 8						; size = 4
__Pstring$ = 12						; size = 4
??0?$_String_const_iterator@DU?$char_traits@D@std@@V?$allocator@D@2@@std@@QAE@PBDPBU_Container_base0@1@@Z PROC ; std::_String_const_iterator<char,std::char_traits<char>,std::allocator<char> >::_String_const_iterator<char,std::char_traits<char>,std::allocator<char> >, COMDAT
; _this$ = ecx
; File c:\program files (x86)\microsoft visual studio 10.0\vc\include\xstring
; Line 50
	push	ebp
	mov	ebp, esp
	mov	eax, ecx
; Line 53
	mov	ecx, DWORD PTR __Parg$[ebp]
	mov	DWORD PTR [eax], ecx
; Line 54
	pop	ebp
	ret	8
??0?$_String_const_iterator@DU?$char_traits@D@std@@V?$allocator@D@2@@std@@QAE@PBDPBU_Container_base0@1@@Z ENDP ; std::_String_const_iterator<char,std::char_traits<char>,std::allocator<char> >::_String_const_iterator<char,std::char_traits<char>,std::allocator<char> >
_TEXT	ENDS
PUBLIC	??0?$_Vector_const_iterator@V?$_Vector_val@UBookmark@@V?$allocator@UBookmark@@@std@@@std@@@std@@QAE@PAUBookmark@@PBU_Container_base0@1@@Z ; std::_Vector_const_iterator<std::_Vector_val<Bookmark,std::allocator<Bookmark> > >::_Vector_const_iterator<std::_Vector_val<Bookmark,std::allocator<Bookmark> > >
; Function compile flags: /Ogtp
;	COMDAT ??0?$_Vector_const_iterator@V?$_Vector_val@UBookmark@@V?$allocator@UBookmark@@@std@@@std@@@std@@QAE@PAUBookmark@@PBU_Container_base0@1@@Z
_TEXT	SEGMENT
__Parg$ = 8						; size = 4
__Pvector$ = 12						; size = 4
??0?$_Vector_const_iterator@V?$_Vector_val@UBookmark@@V?$allocator@UBookmark@@@std@@@std@@@std@@QAE@PAUBookmark@@PBU_Container_base0@1@@Z PROC ; std::_Vector_const_iterator<std::_Vector_val<Bookmark,std::allocator<Bookmark> > >::_Vector_const_iterator<std::_Vector_val<Bookmark,std::allocator<Bookmark> > >, COMDAT
; _this$ = ecx
; File c:\program files (x86)\microsoft visual studio 10.0\vc\include\vector
; Line 45
	push	ebp
	mov	ebp, esp
	mov	eax, ecx
	mov	ecx, DWORD PTR __Parg$[ebp]
	mov	DWORD PTR [eax], ecx
; Line 47
	pop	ebp
	ret	8
??0?$_Vector_const_iterator@V?$_Vector_val@UBookmark@@V?$allocator@UBookmark@@@std@@@std@@@std@@QAE@PAUBookmark@@PBU_Container_base0@1@@Z ENDP ; std::_Vector_const_iterator<std::_Vector_val<Bookmark,std::allocator<Bookmark> > >::_Vector_const_iterator<std::_Vector_val<Bookmark,std::allocator<Bookmark> > >
_TEXT	ENDS
PUBLIC	?max_size@?$allocator@D@std@@QBEIXZ		; std::allocator<char>::max_size
; Function compile flags: /Ogtp
;	COMDAT ?max_size@?$allocator@D@std@@QBEIXZ
_TEXT	SEGMENT
?max_size@?$allocator@D@std@@QBEIXZ PROC		; std::allocator<char>::max_size, COMDAT
; _this$ = ecx
; File c:\program files (x86)\microsoft visual studio 10.0\vc\include\xmemory
; Line 219
	or	eax, -1
; Line 220
	ret	0
?max_size@?$allocator@D@std@@QBEIXZ ENDP		; std::allocator<char>::max_size
_TEXT	ENDS
PUBLIC	?_Compat@?$_Vector_const_iterator@V?$_Vector_val@UBookmark@@V?$allocator@UBookmark@@@std@@@std@@@std@@QBEXABV12@@Z ; std::_Vector_const_iterator<std::_Vector_val<Bookmark,std::allocator<Bookmark> > >::_Compat
; Function compile flags: /Ogtp
;	COMDAT ?_Compat@?$_Vector_const_iterator@V?$_Vector_val@UBookmark@@V?$allocator@UBookmark@@@std@@@std@@@std@@QBEXABV12@@Z
_TEXT	SEGMENT
___formal$ = 8						; size = 4
?_Compat@?$_Vector_const_iterator@V?$_Vector_val@UBookmark@@V?$allocator@UBookmark@@@std@@@std@@@std@@QBEXABV12@@Z PROC ; std::_Vector_const_iterator<std::_Vector_val<Bookmark,std::allocator<Bookmark> > >::_Compat, COMDAT
; _this$ = ecx
; File c:\program files (x86)\microsoft visual studio 10.0\vc\include\vector
; Line 253
	ret	4
?_Compat@?$_Vector_const_iterator@V?$_Vector_val@UBookmark@@V?$allocator@UBookmark@@@std@@@std@@@std@@QBEXABV12@@Z ENDP ; std::_Vector_const_iterator<std::_Vector_val<Bookmark,std::allocator<Bookmark> > >::_Compat
_TEXT	ENDS
PUBLIC	__TI2?AVbad_cast@std@@
PUBLIC	??_C@_08EPJLHIJG@bad?5cast?$AA@			; `string'
PUBLIC	?_Psave@?$_Facetptr@V?$ctype@D@std@@@std@@2PBVfacet@locale@2@B ; std::_Facetptr<std::ctype<char> >::_Psave
PUBLIC	??$use_facet@V?$ctype@D@std@@@std@@YAABV?$ctype@D@0@ABVlocale@0@@Z ; std::use_facet<std::ctype<char> >
PUBLIC	__CTA2?AVbad_cast@std@@
PUBLIC	__CT??_R0?AVbad_cast@std@@@8??0bad_cast@std@@QAE@ABV01@@Z12
PUBLIC	??_R0?AVbad_cast@std@@@8			; std::bad_cast `RTTI Type Descriptor'
PUBLIC	__CT??_R0?AVexception@std@@@8??0exception@std@@QAE@ABV01@@Z12
EXTRN	__imp_?_Incref@facet@locale@std@@QAEXXZ:PROC
EXTRN	__imp_??0bad_cast@std@@QAE@PBD@Z:PROC
EXTRN	__imp_?_Getcat@?$ctype@D@std@@SAIPAPBVfacet@locale@2@PBV42@@Z:PROC
EXTRN	__imp_??1_Lockit@std@@QAE@XZ:PROC
EXTRN	__imp_?_Id_cnt@id@locale@std@@0HA:DWORD
EXTRN	__imp_?id@?$ctype@D@std@@2V0locale@2@A:DWORD
EXTRN	__imp_??0_Lockit@std@@QAE@H@Z:PROC
EXTRN	___security_cookie:DWORD
EXTRN	___CxxFrameHandler3:PROC
EXTRN	@__security_check_cookie@4:PROC
EXTRN	__CxxThrowException@8:PROC
EXTRN	??1bad_cast@std@@UAE@XZ:PROC			; std::bad_cast::~bad_cast
EXTRN	??0bad_cast@std@@QAE@ABV01@@Z:PROC		; std::bad_cast::bad_cast
EXTRN	??0exception@std@@QAE@ABV01@@Z:PROC		; std::exception::exception
;	COMDAT ?_Psave@?$_Facetptr@V?$ctype@D@std@@@std@@2PBVfacet@locale@2@B
; File c:\program files (x86)\microsoft visual studio 10.0\vc\include\xlocale
_BSS	SEGMENT
?_Psave@?$_Facetptr@V?$ctype@D@std@@@std@@2PBVfacet@locale@2@B DD 01H DUP (?) ; std::_Facetptr<std::ctype<char> >::_Psave
_BSS	ENDS
;	COMDAT __CT??_R0?AVexception@std@@@8??0exception@std@@QAE@ABV01@@Z12
xdata$x	SEGMENT
__CT??_R0?AVexception@std@@@8??0exception@std@@QAE@ABV01@@Z12 DD 00H
	DD	FLAT:??_R0?AVexception@std@@@8
	DD	00H
	DD	0ffffffffH
	ORG $+4
	DD	0cH
	DD	FLAT:??0exception@std@@QAE@ABV01@@Z
xdata$x	ENDS
;	COMDAT ??_R0?AVbad_cast@std@@@8
_DATA	SEGMENT
??_R0?AVbad_cast@std@@@8 DD FLAT:??_7type_info@@6B@	; std::bad_cast `RTTI Type Descriptor'
	DD	00H
	DB	'.?AVbad_cast@std@@', 00H
_DATA	ENDS
;	COMDAT __CT??_R0?AVbad_cast@std@@@8??0bad_cast@std@@QAE@ABV01@@Z12
xdata$x	SEGMENT
__CT??_R0?AVbad_cast@std@@@8??0bad_cast@std@@QAE@ABV01@@Z12 DD 00H
	DD	FLAT:??_R0?AVbad_cast@std@@@8
	DD	00H
	DD	0ffffffffH
	ORG $+4
	DD	0cH
	DD	FLAT:??0bad_cast@std@@QAE@ABV01@@Z
xdata$x	ENDS
;	COMDAT __CTA2?AVbad_cast@std@@
xdata$x	SEGMENT
__CTA2?AVbad_cast@std@@ DD 02H
	DD	FLAT:__CT??_R0?AVbad_cast@std@@@8??0bad_cast@std@@QAE@ABV01@@Z12
	DD	FLAT:__CT??_R0?AVexception@std@@@8??0exception@std@@QAE@ABV01@@Z12
xdata$x	ENDS
;	COMDAT __TI2?AVbad_cast@std@@
xdata$x	SEGMENT
__TI2?AVbad_cast@std@@ DD 00H
	DD	FLAT:??1bad_cast@std@@UAE@XZ
	DD	00H
	DD	FLAT:__CTA2?AVbad_cast@std@@
xdata$x	ENDS
;	COMDAT ??_C@_08EPJLHIJG@bad?5cast?$AA@
CONST	SEGMENT
??_C@_08EPJLHIJG@bad?5cast?$AA@ DB 'bad cast', 00H	; `string'
CONST	ENDS
;	COMDAT xdata$x
xdata$x	SEGMENT
__unwindtable$??$use_facet@V?$ctype@D@std@@@std@@YAABV?$ctype@D@0@ABVlocale@0@@Z DD 0ffffffffH
	DD	FLAT:__unwindfunclet$??$use_facet@V?$ctype@D@std@@@std@@YAABV?$ctype@D@0@ABVlocale@0@@Z$0
__ehfuncinfo$??$use_facet@V?$ctype@D@std@@@std@@YAABV?$ctype@D@0@ABVlocale@0@@Z DD 019930522H
	DD	01H
	DD	FLAT:__unwindtable$??$use_facet@V?$ctype@D@std@@@std@@YAABV?$ctype@D@0@ABVlocale@0@@Z
	DD	2 DUP(00H)
	DD	2 DUP(00H)
	DD	00H
	DD	01H
; Function compile flags: /Ogtp
xdata$x	ENDS
;	COMDAT ??$use_facet@V?$ctype@D@std@@@std@@YAABV?$ctype@D@0@ABVlocale@0@@Z
_TEXT	SEGMENT
$T134903 = -36						; size = 12
__Lock$126911 = -24					; size = 4
__Lock$134911 = -20					; size = 4
__Psave$126912 = -16					; size = 4
__$EHRec$ = -12						; size = 12
__Loc$ = 8						; size = 4
??$use_facet@V?$ctype@D@std@@@std@@YAABV?$ctype@D@0@ABVlocale@0@@Z PROC ; std::use_facet<std::ctype<char> >, COMDAT
; Line 504
	push	ebp
	mov	ebp, esp
	push	-1
	push	__ehhandler$??$use_facet@V?$ctype@D@std@@@std@@YAABV?$ctype@D@0@ABVlocale@0@@Z
	mov	eax, DWORD PTR fs:0
	push	eax
	sub	esp, 24					; 00000018H
	push	ebx
	push	esi
	push	edi
	mov	eax, DWORD PTR ___security_cookie
	xor	eax, ebp
	push	eax
	lea	eax, DWORD PTR __$EHRec$[ebp]
	mov	DWORD PTR fs:0, eax
; Line 505
	mov	edi, DWORD PTR __imp_??0_Lockit@std@@QAE@H@Z
	push	0
	lea	ecx, DWORD PTR __Lock$126911[ebp]
	call	edi
; Line 507
	mov	eax, DWORD PTR ?_Psave@?$_Facetptr@V?$ctype@D@std@@@std@@2PBVfacet@locale@2@B ; std::_Facetptr<std::ctype<char> >::_Psave
; Line 509
	mov	esi, DWORD PTR __imp_?id@?$ctype@D@std@@2V0locale@2@A
	mov	DWORD PTR __Psave$126912[ebp], eax
	cmp	DWORD PTR [esi], 0
	mov	DWORD PTR __$EHRec$[ebp+8], 0
	jne	SHORT $LN11@use_facet
	push	0
	lea	ecx, DWORD PTR __Lock$134911[ebp]
	call	edi
	cmp	DWORD PTR [esi], 0
	jne	SHORT $LN10@use_facet
	mov	eax, DWORD PTR __imp_?_Id_cnt@id@locale@std@@0HA
	inc	DWORD PTR [eax]
	mov	ecx, DWORD PTR __imp_?_Id_cnt@id@locale@std@@0HA
	mov	edx, DWORD PTR [ecx]
	mov	DWORD PTR [esi], edx
$LN10@use_facet:
	lea	ecx, DWORD PTR __Lock$134911[ebp]
	call	DWORD PTR __imp_??1_Lockit@std@@QAE@XZ
$LN11@use_facet:
; Line 510
	mov	ebx, DWORD PTR __Loc$[ebp]
	mov	edi, DWORD PTR [esi]
	mov	eax, DWORD PTR [ebx]
	cmp	edi, DWORD PTR [eax+12]
	jae	SHORT $LN20@use_facet
	mov	ecx, DWORD PTR [eax+8]
	mov	esi, DWORD PTR [ecx+edi*4]
	test	esi, esi
	jne	SHORT $LN28@use_facet
$LN30@use_facet:
	cmp	BYTE PTR [eax+20], 0
	je	SHORT $LN16@use_facet
	call	DWORD PTR __imp_?_Getgloballocale@locale@std@@CAPAV_Locimp@12@XZ
	cmp	edi, DWORD PTR [eax+12]
	jae	SHORT $LN31@use_facet
	mov	edx, DWORD PTR [eax+8]
	mov	esi, DWORD PTR [edx+edi*4]
$LN16@use_facet:
; Line 512
	test	esi, esi
	jne	SHORT $LN28@use_facet
$LN31@use_facet:
; Line 514
	mov	esi, DWORD PTR __Psave$126912[ebp]
	test	esi, esi
; Line 515
	jne	SHORT $LN28@use_facet
; Line 516
	lea	eax, DWORD PTR __Psave$126912[ebp]
	push	ebx
	push	eax
	call	DWORD PTR __imp_?_Getcat@?$ctype@D@std@@SAIPAPBVfacet@locale@2@PBV42@@Z
	add	esp, 8
	cmp	eax, -1
	jne	SHORT $LN2@use_facet
; Line 520
	push	OFFSET ??_C@_08EPJLHIJG@bad?5cast?$AA@
	lea	ecx, DWORD PTR $T134903[ebp]
	call	DWORD PTR __imp_??0bad_cast@std@@QAE@PBD@Z
	push	OFFSET __TI2?AVbad_cast@std@@
	lea	ecx, DWORD PTR $T134903[ebp]
	push	ecx
	call	__CxxThrowException@8
$LN38@use_facet:
; Line 510
$LN20@use_facet:
	xor	esi, esi
	jmp	SHORT $LN30@use_facet
$LN2@use_facet:
; Line 528
	mov	ecx, DWORD PTR __Psave$126912[ebp]
	mov	esi, ecx
; Line 529
	mov	DWORD PTR ?_Psave@?$_Facetptr@V?$ctype@D@std@@@std@@2PBVfacet@locale@2@B, ecx ; std::_Facetptr<std::ctype<char> >::_Psave
; Line 531
	mov	edi, ecx
; Line 532
	call	DWORD PTR __imp_?_Incref@facet@locale@std@@QAEXXZ
; Line 533
	push	edi
	call	?_Facet_Register@facet@locale@std@@CAXPAV123@@Z ; std::locale::facet::_Facet_Register
	add	esp, 4
$LN28@use_facet:
; Line 536
	lea	ecx, DWORD PTR __Lock$126911[ebp]
	mov	DWORD PTR __$EHRec$[ebp+8], -1
	call	DWORD PTR __imp_??1_Lockit@std@@QAE@XZ
	mov	eax, esi
; Line 538
	mov	ecx, DWORD PTR __$EHRec$[ebp]
	mov	DWORD PTR fs:0, ecx
	pop	ecx
	pop	edi
	pop	esi
	pop	ebx
	mov	esp, ebp
	pop	ebp
	ret	0
$LN36@use_facet:
_TEXT	ENDS
;	COMDAT text$x
text$x	SEGMENT
__unwindfunclet$??$use_facet@V?$ctype@D@std@@@std@@YAABV?$ctype@D@0@ABVlocale@0@@Z$0:
	lea	ecx, DWORD PTR __Lock$126911[ebp]
	jmp	DWORD PTR __imp_??1_Lockit@std@@QAE@XZ
__ehhandler$??$use_facet@V?$ctype@D@std@@@std@@YAABV?$ctype@D@0@ABVlocale@0@@Z:
	mov	edx, DWORD PTR [esp+8]
	lea	eax, DWORD PTR [edx+12]
	mov	ecx, DWORD PTR [edx-40]
	xor	ecx, eax
	call	@__security_check_cookie@4
	mov	eax, OFFSET __ehfuncinfo$??$use_facet@V?$ctype@D@std@@@std@@YAABV?$ctype@D@0@ABVlocale@0@@Z
	jmp	___CxxFrameHandler3
text$x	ENDS
??$use_facet@V?$ctype@D@std@@@std@@YAABV?$ctype@D@0@ABVlocale@0@@Z ENDP ; std::use_facet<std::ctype<char> >
PUBLIC	??$sprintf_s@$0BAA@@@YAHAAY0BAA@DPBDZZ		; sprintf_s<256>
EXTRN	__imp__vsprintf_s:PROC
; Function compile flags: /Ogtp
;	COMDAT ??$sprintf_s@$0BAA@@@YAHAAY0BAA@DPBDZZ
_TEXT	SEGMENT
__Dest$ = 8						; size = 4
__Format$ = 12						; size = 4
??$sprintf_s@$0BAA@@@YAHAAY0BAA@DPBDZZ PROC		; sprintf_s<256>, COMDAT
; File c:\program files (x86)\microsoft visual studio 10.0\vc\include\stdio.h
; Line 323
	push	ebp
	mov	ebp, esp
	mov	ecx, DWORD PTR __Format$[ebp]
	mov	edx, DWORD PTR __Dest$[ebp]
	lea	eax, DWORD PTR __Format$[ebp+4]
	push	eax
	push	ecx
	push	256					; 00000100H
	push	edx
	call	DWORD PTR __imp__vsprintf_s
	add	esp, 16					; 00000010H
	pop	ebp
	ret	0
??$sprintf_s@$0BAA@@@YAHAAY0BAA@DPBDZZ ENDP		; sprintf_s<256>
_TEXT	ENDS
PUBLIC	??$addressof@QAVAppState@@@std@@YAPBQAVAppState@@ABQAV1@@Z ; std::addressof<AppState * const>
; Function compile flags: /Ogtp
;	COMDAT ??$addressof@QAVAppState@@@std@@YAPBQAVAppState@@ABQAV1@@Z
_TEXT	SEGMENT
__Val$ = 8						; size = 4
??$addressof@QAVAppState@@@std@@YAPBQAVAppState@@ABQAV1@@Z PROC ; std::addressof<AppState * const>, COMDAT
; File c:\program files (x86)\microsoft visual studio 10.0\vc\include\xmemory
; Line 110
	push	ebp
	mov	ebp, esp
; Line 111
	mov	eax, DWORD PTR __Val$[ebp]
; Line 112
	pop	ebp
	ret	0
??$addressof@QAVAppState@@@std@@YAPBQAVAppState@@ABQAV1@@Z ENDP ; std::addressof<AppState * const>
_TEXT	ENDS
PUBLIC	??$addressof@$$CBUMapEntry@@@std@@YAPBUMapEntry@@ABU1@@Z ; std::addressof<MapEntry const >
; Function compile flags: /Ogtp
;	COMDAT ??$addressof@$$CBUMapEntry@@@std@@YAPBUMapEntry@@ABU1@@Z
_TEXT	SEGMENT
__Val$ = 8						; size = 4
??$addressof@$$CBUMapEntry@@@std@@YAPBUMapEntry@@ABU1@@Z PROC ; std::addressof<MapEntry const >, COMDAT
; Line 110
	push	ebp
	mov	ebp, esp
; Line 111
	mov	eax, DWORD PTR __Val$[ebp]
; Line 112
	pop	ebp
	ret	0
??$addressof@$$CBUMapEntry@@@std@@YAPBUMapEntry@@ABU1@@Z ENDP ; std::addressof<MapEntry const >
_TEXT	ENDS
PUBLIC	??$addressof@$$CBUBookmark@@@std@@YAPBUBookmark@@ABU1@@Z ; std::addressof<Bookmark const >
; Function compile flags: /Ogtp
;	COMDAT ??$addressof@$$CBUBookmark@@@std@@YAPBUBookmark@@ABU1@@Z
_TEXT	SEGMENT
__Val$ = 8						; size = 4
??$addressof@$$CBUBookmark@@@std@@YAPBUBookmark@@ABU1@@Z PROC ; std::addressof<Bookmark const >, COMDAT
; Line 110
	push	ebp
	mov	ebp, esp
; Line 111
	mov	eax, DWORD PTR __Val$[ebp]
; Line 112
	pop	ebp
	ret	0
??$addressof@$$CBUBookmark@@@std@@YAPBUBookmark@@ABU1@@Z ENDP ; std::addressof<Bookmark const >
_TEXT	ENDS
PUBLIC	?_Psave@?$_Facetptr@V?$codecvt@DDH@std@@@std@@2PBVfacet@locale@2@B ; std::_Facetptr<std::codecvt<char,char,int> >::_Psave
PUBLIC	??$use_facet@V?$codecvt@DDH@std@@@std@@YAABV?$codecvt@DDH@0@ABVlocale@0@@Z ; std::use_facet<std::codecvt<char,char,int> >
EXTRN	__imp_?_Getcat@?$codecvt@DDH@std@@SAIPAPBVfacet@locale@2@PBV42@@Z:PROC
EXTRN	__imp_?id@?$codecvt@DDH@std@@2V0locale@2@A:DWORD
;	COMDAT ?_Psave@?$_Facetptr@V?$codecvt@DDH@std@@@std@@2PBVfacet@locale@2@B
; File c:\program files (x86)\microsoft visual studio 10.0\vc\include\xlocale
_BSS	SEGMENT
?_Psave@?$_Facetptr@V?$codecvt@DDH@std@@@std@@2PBVfacet@locale@2@B DD 01H DUP (?) ; std::_Facetptr<std::codecvt<char,char,int> >::_Psave
_BSS	ENDS
;	COMDAT xdata$x
xdata$x	SEGMENT
__unwindtable$??$use_facet@V?$codecvt@DDH@std@@@std@@YAABV?$codecvt@DDH@0@ABVlocale@0@@Z DD 0ffffffffH
	DD	FLAT:__unwindfunclet$??$use_facet@V?$codecvt@DDH@std@@@std@@YAABV?$codecvt@DDH@0@ABVlocale@0@@Z$0
__ehfuncinfo$??$use_facet@V?$codecvt@DDH@std@@@std@@YAABV?$codecvt@DDH@0@ABVlocale@0@@Z DD 019930522H
	DD	01H
	DD	FLAT:__unwindtable$??$use_facet@V?$codecvt@DDH@std@@@std@@YAABV?$codecvt@DDH@0@ABVlocale@0@@Z
	DD	2 DUP(00H)
	DD	2 DUP(00H)
	DD	00H
	DD	01H
; Function compile flags: /Ogtp
xdata$x	ENDS
;	COMDAT ??$use_facet@V?$codecvt@DDH@std@@@std@@YAABV?$codecvt@DDH@0@ABVlocale@0@@Z
_TEXT	SEGMENT
$T134966 = -36						; size = 12
__Lock$127446 = -24					; size = 4
__Lock$134973 = -20					; size = 4
__Psave$127447 = -16					; size = 4
__$EHRec$ = -12						; size = 12
__Loc$ = 8						; size = 4
??$use_facet@V?$codecvt@DDH@std@@@std@@YAABV?$codecvt@DDH@0@ABVlocale@0@@Z PROC ; std::use_facet<std::codecvt<char,char,int> >, COMDAT
; Line 504
	push	ebp
	mov	ebp, esp
	push	-1
	push	__ehhandler$??$use_facet@V?$codecvt@DDH@std@@@std@@YAABV?$codecvt@DDH@0@ABVlocale@0@@Z
	mov	eax, DWORD PTR fs:0
	push	eax
	sub	esp, 24					; 00000018H
	push	ebx
	push	esi
	push	edi
	mov	eax, DWORD PTR ___security_cookie
	xor	eax, ebp
	push	eax
	lea	eax, DWORD PTR __$EHRec$[ebp]
	mov	DWORD PTR fs:0, eax
; Line 505
	mov	edi, DWORD PTR __imp_??0_Lockit@std@@QAE@H@Z
	push	0
	lea	ecx, DWORD PTR __Lock$127446[ebp]
	call	edi
; Line 507
	mov	eax, DWORD PTR ?_Psave@?$_Facetptr@V?$codecvt@DDH@std@@@std@@2PBVfacet@locale@2@B ; std::_Facetptr<std::codecvt<char,char,int> >::_Psave
; Line 509
	mov	esi, DWORD PTR __imp_?id@?$codecvt@DDH@std@@2V0locale@2@A
	mov	DWORD PTR __Psave$127447[ebp], eax
	cmp	DWORD PTR [esi], 0
	mov	DWORD PTR __$EHRec$[ebp+8], 0
	jne	SHORT $LN11@use_facet@2
	push	0
	lea	ecx, DWORD PTR __Lock$134973[ebp]
	call	edi
	cmp	DWORD PTR [esi], 0
	jne	SHORT $LN10@use_facet@2
	mov	eax, DWORD PTR __imp_?_Id_cnt@id@locale@std@@0HA
	inc	DWORD PTR [eax]
	mov	ecx, DWORD PTR __imp_?_Id_cnt@id@locale@std@@0HA
	mov	edx, DWORD PTR [ecx]
	mov	DWORD PTR [esi], edx
$LN10@use_facet@2:
	lea	ecx, DWORD PTR __Lock$134973[ebp]
	call	DWORD PTR __imp_??1_Lockit@std@@QAE@XZ
$LN11@use_facet@2:
; Line 510
	mov	ebx, DWORD PTR __Loc$[ebp]
	mov	edi, DWORD PTR [esi]
	mov	eax, DWORD PTR [ebx]
	cmp	edi, DWORD PTR [eax+12]
	jae	SHORT $LN20@use_facet@2
	mov	ecx, DWORD PTR [eax+8]
	mov	esi, DWORD PTR [ecx+edi*4]
	test	esi, esi
	jne	SHORT $LN28@use_facet@2
$LN30@use_facet@2:
	cmp	BYTE PTR [eax+20], 0
	je	SHORT $LN16@use_facet@2
	call	DWORD PTR __imp_?_Getgloballocale@locale@std@@CAPAV_Locimp@12@XZ
	cmp	edi, DWORD PTR [eax+12]
	jae	SHORT $LN31@use_facet@2
	mov	edx, DWORD PTR [eax+8]
	mov	esi, DWORD PTR [edx+edi*4]
$LN16@use_facet@2:
; Line 512
	test	esi, esi
	jne	SHORT $LN28@use_facet@2
$LN31@use_facet@2:
; Line 514
	mov	esi, DWORD PTR __Psave$127447[ebp]
	test	esi, esi
; Line 515
	jne	SHORT $LN28@use_facet@2
; Line 516
	lea	eax, DWORD PTR __Psave$127447[ebp]
	push	ebx
	push	eax
	call	DWORD PTR __imp_?_Getcat@?$codecvt@DDH@std@@SAIPAPBVfacet@locale@2@PBV42@@Z
	add	esp, 8
	cmp	eax, -1
	jne	SHORT $LN2@use_facet@2
; Line 520
	push	OFFSET ??_C@_08EPJLHIJG@bad?5cast?$AA@
	lea	ecx, DWORD PTR $T134966[ebp]
	call	DWORD PTR __imp_??0bad_cast@std@@QAE@PBD@Z
	push	OFFSET __TI2?AVbad_cast@std@@
	lea	ecx, DWORD PTR $T134966[ebp]
	push	ecx
	call	__CxxThrowException@8
$LN38@use_facet@2:
; Line 510
$LN20@use_facet@2:
	xor	esi, esi
	jmp	SHORT $LN30@use_facet@2
$LN2@use_facet@2:
; Line 528
	mov	ecx, DWORD PTR __Psave$127447[ebp]
	mov	esi, ecx
; Line 529
	mov	DWORD PTR ?_Psave@?$_Facetptr@V?$codecvt@DDH@std@@@std@@2PBVfacet@locale@2@B, ecx ; std::_Facetptr<std::codecvt<char,char,int> >::_Psave
; Line 531
	mov	edi, ecx
; Line 532
	call	DWORD PTR __imp_?_Incref@facet@locale@std@@QAEXXZ
; Line 533
	push	edi
	call	?_Facet_Register@facet@locale@std@@CAXPAV123@@Z ; std::locale::facet::_Facet_Register
	add	esp, 4
$LN28@use_facet@2:
; Line 536
	lea	ecx, DWORD PTR __Lock$127446[ebp]
	mov	DWORD PTR __$EHRec$[ebp+8], -1
	call	DWORD PTR __imp_??1_Lockit@std@@QAE@XZ
	mov	eax, esi
; Line 538
	mov	ecx, DWORD PTR __$EHRec$[ebp]
	mov	DWORD PTR fs:0, ecx
	pop	ecx
	pop	edi
	pop	esi
	pop	ebx
	mov	esp, ebp
	pop	ebp
	ret	0
$LN36@use_facet@2:
_TEXT	ENDS
;	COMDAT text$x
text$x	SEGMENT
__unwindfunclet$??$use_facet@V?$codecvt@DDH@std@@@std@@YAABV?$codecvt@DDH@0@ABVlocale@0@@Z$0:
	lea	ecx, DWORD PTR __Lock$127446[ebp]
	jmp	DWORD PTR __imp_??1_Lockit@std@@QAE@XZ
__ehhandler$??$use_facet@V?$codecvt@DDH@std@@@std@@YAABV?$codecvt@DDH@0@ABVlocale@0@@Z:
	mov	edx, DWORD PTR [esp+8]
	lea	eax, DWORD PTR [edx+12]
	mov	ecx, DWORD PTR [edx-40]
	xor	ecx, eax
	call	@__security_check_cookie@4
	mov	eax, OFFSET __ehfuncinfo$??$use_facet@V?$codecvt@DDH@std@@@std@@YAABV?$codecvt@DDH@0@ABVlocale@0@@Z
	jmp	___CxxFrameHandler3
text$x	ENDS
??$use_facet@V?$codecvt@DDH@std@@@std@@YAABV?$codecvt@DDH@0@ABVlocale@0@@Z ENDP ; std::use_facet<std::codecvt<char,char,int> >
PUBLIC	__TI2?AVbad_alloc@std@@
PUBLIC	??$_Allocate@PAVAppState@@@std@@YAPAPAVAppState@@IPAPAV1@@Z ; std::_Allocate<AppState *>
PUBLIC	__CTA2?AVbad_alloc@std@@
PUBLIC	__CT??_R0?AVbad_alloc@std@@@8??0bad_alloc@std@@QAE@ABV01@@Z12
PUBLIC	??0bad_alloc@std@@QAE@ABV01@@Z			; std::bad_alloc::bad_alloc
EXTRN	??2@YAPAXI@Z:PROC				; operator new
;	COMDAT __CT??_R0?AVbad_alloc@std@@@8??0bad_alloc@std@@QAE@ABV01@@Z12
; File c:\program files (x86)\microsoft visual studio 10.0\vc\include\exception
xdata$x	SEGMENT
__CT??_R0?AVbad_alloc@std@@@8??0bad_alloc@std@@QAE@ABV01@@Z12 DD 00H
	DD	FLAT:??_R0?AVbad_alloc@std@@@8
	DD	00H
	DD	0ffffffffH
	ORG $+4
	DD	0cH
	DD	FLAT:??0bad_alloc@std@@QAE@ABV01@@Z
xdata$x	ENDS
;	COMDAT __CTA2?AVbad_alloc@std@@
xdata$x	SEGMENT
__CTA2?AVbad_alloc@std@@ DD 02H
	DD	FLAT:__CT??_R0?AVbad_alloc@std@@@8??0bad_alloc@std@@QAE@ABV01@@Z12
	DD	FLAT:__CT??_R0?AVexception@std@@@8??0exception@std@@QAE@ABV01@@Z12
xdata$x	ENDS
;	COMDAT __TI2?AVbad_alloc@std@@
xdata$x	SEGMENT
__TI2?AVbad_alloc@std@@ DD 00H
	DD	FLAT:??1bad_alloc@std@@UAE@XZ
	DD	00H
	DD	FLAT:__CTA2?AVbad_alloc@std@@
; Function compile flags: /Ogtp
xdata$x	ENDS
;	COMDAT ??$_Allocate@PAVAppState@@@std@@YAPAPAVAppState@@IPAPAV1@@Z
_TEXT	SEGMENT
$T135015 = -12						; size = 12
$T135019 = 8						; size = 4
__Count$ = 8						; size = 4
___formal$ = 12						; size = 4
??$_Allocate@PAVAppState@@@std@@YAPAPAVAppState@@IPAPAV1@@Z PROC ; std::_Allocate<AppState *>, COMDAT
; File c:\program files (x86)\microsoft visual studio 10.0\vc\include\xmemory
; Line 30
	push	ebp
	mov	ebp, esp
; Line 33
	mov	ecx, DWORD PTR __Count$[ebp]
	sub	esp, 12					; 0000000cH
	xor	eax, eax
	test	ecx, ecx
; Line 35
	je	SHORT $LN5@Allocate
; Line 36
	cmp	ecx, 1073741823				; 3fffffffH
	ja	SHORT $LN1@Allocate
	lea	eax, DWORD PTR [ecx*4]
	push	eax
	call	??2@YAPAXI@Z				; operator new
	add	esp, 4
	test	eax, eax
; Line 39
	jne	SHORT $LN5@Allocate
$LN1@Allocate:
; Line 37
	lea	ecx, DWORD PTR $T135019[ebp]
	push	ecx
	lea	ecx, DWORD PTR $T135015[ebp]
	mov	DWORD PTR $T135019[ebp], 0
	call	DWORD PTR __imp_??0exception@std@@QAE@ABQBD@Z
	push	OFFSET __TI2?AVbad_alloc@std@@
	lea	edx, DWORD PTR $T135015[ebp]
	push	edx
	mov	DWORD PTR $T135015[ebp], OFFSET ??_7bad_alloc@std@@6B@
	call	__CxxThrowException@8
$LN10@Allocate:
$LN5@Allocate:
; Line 40
	mov	esp, ebp
	pop	ebp
	ret	0
$LN9@Allocate:
??$_Allocate@PAVAppState@@@std@@YAPAPAVAppState@@IPAPAV1@@Z ENDP ; std::_Allocate<AppState *>
_TEXT	ENDS
PUBLIC	??$_Allocate@UMapEntry@@@std@@YAPAUMapEntry@@IPAU1@@Z ; std::_Allocate<MapEntry>
; Function compile flags: /Ogtp
;	COMDAT ??$_Allocate@UMapEntry@@@std@@YAPAUMapEntry@@IPAU1@@Z
_TEXT	SEGMENT
$T135024 = -12						; size = 12
$T135028 = 8						; size = 4
__Count$ = 8						; size = 4
___formal$ = 12						; size = 4
??$_Allocate@UMapEntry@@@std@@YAPAUMapEntry@@IPAU1@@Z PROC ; std::_Allocate<MapEntry>, COMDAT
; Line 30
	push	ebp
	mov	ebp, esp
; Line 33
	mov	ecx, DWORD PTR __Count$[ebp]
	sub	esp, 12					; 0000000cH
	xor	eax, eax
	test	ecx, ecx
; Line 35
	je	SHORT $LN5@Allocate@2
; Line 36
	cmp	ecx, 56512727				; 035e50d7H
	ja	SHORT $LN1@Allocate@2
	imul	ecx, 76					; 0000004cH
	push	ecx
	call	??2@YAPAXI@Z				; operator new
	add	esp, 4
	test	eax, eax
; Line 39
	jne	SHORT $LN5@Allocate@2
$LN1@Allocate@2:
; Line 37
	lea	eax, DWORD PTR $T135028[ebp]
	push	eax
	lea	ecx, DWORD PTR $T135024[ebp]
	mov	DWORD PTR $T135028[ebp], 0
	call	DWORD PTR __imp_??0exception@std@@QAE@ABQBD@Z
	push	OFFSET __TI2?AVbad_alloc@std@@
	lea	ecx, DWORD PTR $T135024[ebp]
	push	ecx
	mov	DWORD PTR $T135024[ebp], OFFSET ??_7bad_alloc@std@@6B@
	call	__CxxThrowException@8
$LN10@Allocate@2:
$LN5@Allocate@2:
; Line 40
	mov	esp, ebp
	pop	ebp
	ret	0
$LN9@Allocate@2:
??$_Allocate@UMapEntry@@@std@@YAPAUMapEntry@@IPAU1@@Z ENDP ; std::_Allocate<MapEntry>
_TEXT	ENDS
PUBLIC	??$_Allocate@UBookmark@@@std@@YAPAUBookmark@@IPAU1@@Z ; std::_Allocate<Bookmark>
; Function compile flags: /Ogtp
;	COMDAT ??$_Allocate@UBookmark@@@std@@YAPAUBookmark@@IPAU1@@Z
_TEXT	SEGMENT
$T135033 = -12						; size = 12
$T135037 = 8						; size = 4
__Count$ = 8						; size = 4
___formal$ = 12						; size = 4
??$_Allocate@UBookmark@@@std@@YAPAUBookmark@@IPAU1@@Z PROC ; std::_Allocate<Bookmark>, COMDAT
; Line 30
	push	ebp
	mov	ebp, esp
; Line 33
	mov	ecx, DWORD PTR __Count$[ebp]
	sub	esp, 12					; 0000000cH
	xor	eax, eax
	test	ecx, ecx
; Line 35
	je	SHORT $LN5@Allocate@3
; Line 36
	cmp	ecx, 35791394				; 02222222H
	ja	SHORT $LN1@Allocate@3
	mov	eax, ecx
	shl	eax, 4
	sub	eax, ecx
	add	eax, eax
	add	eax, eax
	add	eax, eax
	push	eax
	call	??2@YAPAXI@Z				; operator new
	add	esp, 4
	test	eax, eax
; Line 39
	jne	SHORT $LN5@Allocate@3
$LN1@Allocate@3:
; Line 37
	lea	ecx, DWORD PTR $T135037[ebp]
	push	ecx
	lea	ecx, DWORD PTR $T135033[ebp]
	mov	DWORD PTR $T135037[ebp], 0
	call	DWORD PTR __imp_??0exception@std@@QAE@ABQBD@Z
	push	OFFSET __TI2?AVbad_alloc@std@@
	lea	edx, DWORD PTR $T135033[ebp]
	push	edx
	mov	DWORD PTR $T135033[ebp], OFFSET ??_7bad_alloc@std@@6B@
	call	__CxxThrowException@8
$LN10@Allocate@3:
$LN5@Allocate@3:
; Line 40
	mov	esp, ebp
	pop	ebp
	ret	0
$LN9@Allocate@3:
??$_Allocate@UBookmark@@@std@@YAPAUBookmark@@IPAU1@@Z ENDP ; std::_Allocate<Bookmark>
_TEXT	ENDS
PUBLIC	??$_Allocate@D@std@@YAPADIPAD@Z			; std::_Allocate<char>
; Function compile flags: /Ogtp
;	COMDAT ??$_Allocate@D@std@@YAPADIPAD@Z
_TEXT	SEGMENT
$T135042 = -12						; size = 12
$T135046 = 8						; size = 4
__Count$ = 8						; size = 4
___formal$ = 12						; size = 4
??$_Allocate@D@std@@YAPADIPAD@Z PROC			; std::_Allocate<char>, COMDAT
; Line 30
	push	ebp
	mov	ebp, esp
; Line 33
	mov	ecx, DWORD PTR __Count$[ebp]
	sub	esp, 12					; 0000000cH
	xor	eax, eax
	test	ecx, ecx
; Line 35
	je	SHORT $LN5@Allocate@4
; Line 36
	cmp	ecx, -1
	ja	SHORT $LN1@Allocate@4
	push	ecx
	call	??2@YAPAXI@Z				; operator new
	add	esp, 4
	test	eax, eax
; Line 39
	jne	SHORT $LN5@Allocate@4
$LN1@Allocate@4:
; Line 37
	lea	eax, DWORD PTR $T135046[ebp]
	push	eax
	lea	ecx, DWORD PTR $T135042[ebp]
	mov	DWORD PTR $T135046[ebp], 0
	call	DWORD PTR __imp_??0exception@std@@QAE@ABQBD@Z
	push	OFFSET __TI2?AVbad_alloc@std@@
	lea	ecx, DWORD PTR $T135042[ebp]
	push	ecx
	mov	DWORD PTR $T135042[ebp], OFFSET ??_7bad_alloc@std@@6B@
	call	__CxxThrowException@8
$LN10@Allocate@4:
$LN5@Allocate@4:
; Line 40
	mov	esp, ebp
	pop	ebp
	ret	0
$LN9@Allocate@4:
??$_Allocate@D@std@@YAPADIPAD@Z ENDP			; std::_Allocate<char>
_TEXT	ENDS
EXTRN	__imp_??0exception@std@@QAE@ABV01@@Z:PROC
; Function compile flags: /Ogtp
;	COMDAT ??0bad_alloc@std@@QAE@ABV01@@Z
_TEXT	SEGMENT
___that$ = 8						; size = 4
??0bad_alloc@std@@QAE@ABV01@@Z PROC			; std::bad_alloc::bad_alloc, COMDAT
; _this$ = ecx
	push	ebp
	mov	ebp, esp
	mov	eax, DWORD PTR ___that$[ebp]
	push	esi
	push	eax
	mov	esi, ecx
	call	DWORD PTR __imp_??0exception@std@@QAE@ABV01@@Z
	mov	DWORD PTR [esi], OFFSET ??_7bad_alloc@std@@6B@
	mov	eax, esi
	pop	esi
	pop	ebp
	ret	4
??0bad_alloc@std@@QAE@ABV01@@Z ENDP			; std::bad_alloc::bad_alloc
_TEXT	ENDS
PUBLIC	??$move@AAV?$basic_istream@DU?$char_traits@D@std@@@std@@@std@@YA$$QAV?$basic_istream@DU?$char_traits@D@std@@@0@AAV10@@Z ; std::move<std::basic_istream<char,std::char_traits<char> > &>
; Function compile flags: /Ogtp
;	COMDAT ??$move@AAV?$basic_istream@DU?$char_traits@D@std@@@std@@@std@@YA$$QAV?$basic_istream@DU?$char_traits@D@std@@@0@AAV10@@Z
_TEXT	SEGMENT
__Arg$ = 8						; size = 4
??$move@AAV?$basic_istream@DU?$char_traits@D@std@@@std@@@std@@YA$$QAV?$basic_istream@DU?$char_traits@D@std@@@0@AAV10@@Z PROC ; std::move<std::basic_istream<char,std::char_traits<char> > &>, COMDAT
; File c:\program files (x86)\microsoft visual studio 10.0\vc\include\utility
; Line 86
	push	ebp
	mov	ebp, esp
; Line 87
	mov	eax, DWORD PTR __Arg$[ebp]
; Line 88
	pop	ebp
	ret	0
??$move@AAV?$basic_istream@DU?$char_traits@D@std@@@std@@@std@@YA$$QAV?$basic_istream@DU?$char_traits@D@std@@@0@AAV10@@Z ENDP ; std::move<std::basic_istream<char,std::char_traits<char> > &>
_TEXT	ENDS
PUBLIC	??$forward@AAPAVAppState@@@std@@YAAAPAVAppState@@AAPAV1@@Z ; std::forward<AppState * &>
; Function compile flags: /Ogtp
;	COMDAT ??$forward@AAPAVAppState@@@std@@YAAAPAVAppState@@AAPAV1@@Z
_TEXT	SEGMENT
__Arg$ = 8						; size = 4
??$forward@AAPAVAppState@@@std@@YAAAPAVAppState@@AAPAV1@@Z PROC ; std::forward<AppState * &>, COMDAT
; Line 78
	push	ebp
	mov	ebp, esp
; Line 79
	mov	eax, DWORD PTR __Arg$[ebp]
; Line 80
	pop	ebp
	ret	0
??$forward@AAPAVAppState@@@std@@YAAAPAVAppState@@AAPAV1@@Z ENDP ; std::forward<AppState * &>
_TEXT	ENDS
PUBLIC	??$construct@AAPAVAppState@@@?$allocator@PAVAppState@@@std@@QAEXPAPAVAppState@@AAPAV2@@Z ; std::allocator<AppState *>::construct<AppState * &>
; Function compile flags: /Ogtp
;	COMDAT ??$construct@AAPAVAppState@@@?$allocator@PAVAppState@@@std@@QAEXPAPAVAppState@@AAPAV2@@Z
_TEXT	SEGMENT
__Ptr$ = 8						; size = 4
__Val$ = 12						; size = 4
??$construct@AAPAVAppState@@@?$allocator@PAVAppState@@@std@@QAEXPAPAVAppState@@AAPAV2@@Z PROC ; std::allocator<AppState *>::construct<AppState * &>, COMDAT
; _this$ = ecx
; File c:\program files (x86)\microsoft visual studio 10.0\vc\include\xmemory
; Line 206
	push	ebp
	mov	ebp, esp
; Line 208
	mov	eax, DWORD PTR __Ptr$[ebp]
	test	eax, eax
	je	SHORT $LN3@construct
	mov	ecx, DWORD PTR __Val$[ebp]
	mov	edx, DWORD PTR [ecx]
	mov	DWORD PTR [eax], edx
$LN3@construct:
; Line 209
	pop	ebp
	ret	8
??$construct@AAPAVAppState@@@?$allocator@PAVAppState@@@std@@QAEXPAPAVAppState@@AAPAV2@@Z ENDP ; std::allocator<AppState *>::construct<AppState * &>
_TEXT	ENDS
PUBLIC	??$forward@ABQAVAppState@@@std@@YAABQAVAppState@@ABQAV1@@Z ; std::forward<AppState * const &>
; Function compile flags: /Ogtp
;	COMDAT ??$forward@ABQAVAppState@@@std@@YAABQAVAppState@@ABQAV1@@Z
_TEXT	SEGMENT
__Arg$ = 8						; size = 4
??$forward@ABQAVAppState@@@std@@YAABQAVAppState@@ABQAV1@@Z PROC ; std::forward<AppState * const &>, COMDAT
; File c:\program files (x86)\microsoft visual studio 10.0\vc\include\utility
; Line 78
	push	ebp
	mov	ebp, esp
; Line 79
	mov	eax, DWORD PTR __Arg$[ebp]
; Line 80
	pop	ebp
	ret	0
??$forward@ABQAVAppState@@@std@@YAABQAVAppState@@ABQAV1@@Z ENDP ; std::forward<AppState * const &>
_TEXT	ENDS
PUBLIC	??$forward@AAUMapEntry@@@std@@YAAAUMapEntry@@AAU1@@Z ; std::forward<MapEntry &>
; Function compile flags: /Ogtp
;	COMDAT ??$forward@AAUMapEntry@@@std@@YAAAUMapEntry@@AAU1@@Z
_TEXT	SEGMENT
__Arg$ = 8						; size = 4
??$forward@AAUMapEntry@@@std@@YAAAUMapEntry@@AAU1@@Z PROC ; std::forward<MapEntry &>, COMDAT
; Line 78
	push	ebp
	mov	ebp, esp
; Line 79
	mov	eax, DWORD PTR __Arg$[ebp]
; Line 80
	pop	ebp
	ret	0
??$forward@AAUMapEntry@@@std@@YAAAUMapEntry@@AAU1@@Z ENDP ; std::forward<MapEntry &>
_TEXT	ENDS
PUBLIC	??$forward@ABUMapEntry@@@std@@YAABUMapEntry@@ABU1@@Z ; std::forward<MapEntry const &>
; Function compile flags: /Ogtp
;	COMDAT ??$forward@ABUMapEntry@@@std@@YAABUMapEntry@@ABU1@@Z
_TEXT	SEGMENT
__Arg$ = 8						; size = 4
??$forward@ABUMapEntry@@@std@@YAABUMapEntry@@ABU1@@Z PROC ; std::forward<MapEntry const &>, COMDAT
; Line 78
	push	ebp
	mov	ebp, esp
; Line 79
	mov	eax, DWORD PTR __Arg$[ebp]
; Line 80
	pop	ebp
	ret	0
??$forward@ABUMapEntry@@@std@@YAABUMapEntry@@ABU1@@Z ENDP ; std::forward<MapEntry const &>
_TEXT	ENDS
PUBLIC	??$forward@AAUBookmark@@@std@@YAAAUBookmark@@AAU1@@Z ; std::forward<Bookmark &>
; Function compile flags: /Ogtp
;	COMDAT ??$forward@AAUBookmark@@@std@@YAAAUBookmark@@AAU1@@Z
_TEXT	SEGMENT
__Arg$ = 8						; size = 4
??$forward@AAUBookmark@@@std@@YAAAUBookmark@@AAU1@@Z PROC ; std::forward<Bookmark &>, COMDAT
; Line 78
	push	ebp
	mov	ebp, esp
; Line 79
	mov	eax, DWORD PTR __Arg$[ebp]
; Line 80
	pop	ebp
	ret	0
??$forward@AAUBookmark@@@std@@YAAAUBookmark@@AAU1@@Z ENDP ; std::forward<Bookmark &>
_TEXT	ENDS
PUBLIC	??$forward@ABUBookmark@@@std@@YAABUBookmark@@ABU1@@Z ; std::forward<Bookmark const &>
; Function compile flags: /Ogtp
;	COMDAT ??$forward@ABUBookmark@@@std@@YAABUBookmark@@ABU1@@Z
_TEXT	SEGMENT
__Arg$ = 8						; size = 4
??$forward@ABUBookmark@@@std@@YAABUBookmark@@ABU1@@Z PROC ; std::forward<Bookmark const &>, COMDAT
; Line 78
	push	ebp
	mov	ebp, esp
; Line 79
	mov	eax, DWORD PTR __Arg$[ebp]
; Line 80
	pop	ebp
	ret	0
??$forward@ABUBookmark@@@std@@YAABUBookmark@@ABU1@@Z ENDP ; std::forward<Bookmark const &>
_TEXT	ENDS
PUBLIC	??$_Ptr_cat@UBookmark@@U1@@std@@YA?AU_Nonscalar_ptr_iterator_tag@0@PAUBookmark@@0@Z ; std::_Ptr_cat<Bookmark,Bookmark>
; Function compile flags: /Ogtp
;	COMDAT ??$_Ptr_cat@UBookmark@@U1@@std@@YA?AU_Nonscalar_ptr_iterator_tag@0@PAUBookmark@@0@Z
_TEXT	SEGMENT
__Cat$ = -1						; size = 1
___formal$ = 8						; size = 4
___formal$ = 12						; size = 4
??$_Ptr_cat@UBookmark@@U1@@std@@YA?AU_Nonscalar_ptr_iterator_tag@0@PAUBookmark@@0@Z PROC ; std::_Ptr_cat<Bookmark,Bookmark>, COMDAT
; File c:\program files (x86)\microsoft visual studio 10.0\vc\include\xutility
; Line 528
	push	ebp
	mov	ebp, esp
	push	ecx
; Line 530
	mov	al, BYTE PTR __Cat$[ebp]
; Line 531
	mov	esp, ebp
	pop	ebp
	ret	0
??$_Ptr_cat@UBookmark@@U1@@std@@YA?AU_Nonscalar_ptr_iterator_tag@0@PAUBookmark@@0@Z ENDP ; std::_Ptr_cat<Bookmark,Bookmark>
_TEXT	ENDS
PUBLIC	??$_Ptr_cat@UMapEntry@@U1@@std@@YA?AU_Nonscalar_ptr_iterator_tag@0@PAUMapEntry@@0@Z ; std::_Ptr_cat<MapEntry,MapEntry>
; Function compile flags: /Ogtp
;	COMDAT ??$_Ptr_cat@UMapEntry@@U1@@std@@YA?AU_Nonscalar_ptr_iterator_tag@0@PAUMapEntry@@0@Z
_TEXT	SEGMENT
__Cat$ = -1						; size = 1
___formal$ = 8						; size = 4
___formal$ = 12						; size = 4
??$_Ptr_cat@UMapEntry@@U1@@std@@YA?AU_Nonscalar_ptr_iterator_tag@0@PAUMapEntry@@0@Z PROC ; std::_Ptr_cat<MapEntry,MapEntry>, COMDAT
; Line 528
	push	ebp
	mov	ebp, esp
	push	ecx
; Line 530
	mov	al, BYTE PTR __Cat$[ebp]
; Line 531
	mov	esp, ebp
	pop	ebp
	ret	0
??$_Ptr_cat@UMapEntry@@U1@@std@@YA?AU_Nonscalar_ptr_iterator_tag@0@PAUMapEntry@@0@Z ENDP ; std::_Ptr_cat<MapEntry,MapEntry>
_TEXT	ENDS
PUBLIC	??$_Ptr_cat@PAVAppState@@PAV1@@std@@YA?AU_Scalar_ptr_iterator_tag@0@PAPAVAppState@@0@Z ; std::_Ptr_cat<AppState *,AppState *>
; Function compile flags: /Ogtp
;	COMDAT ??$_Ptr_cat@PAVAppState@@PAV1@@std@@YA?AU_Scalar_ptr_iterator_tag@0@PAPAVAppState@@0@Z
_TEXT	SEGMENT
__Cat$ = -1						; size = 1
___formal$ = 8						; size = 4
___formal$ = 12						; size = 4
??$_Ptr_cat@PAVAppState@@PAV1@@std@@YA?AU_Scalar_ptr_iterator_tag@0@PAPAVAppState@@0@Z PROC ; std::_Ptr_cat<AppState *,AppState *>, COMDAT
; Line 528
	push	ebp
	mov	ebp, esp
	push	ecx
; Line 530
	mov	al, BYTE PTR __Cat$[ebp]
; Line 531
	mov	esp, ebp
	pop	ebp
	ret	0
??$_Ptr_cat@PAVAppState@@PAV1@@std@@YA?AU_Scalar_ptr_iterator_tag@0@PAPAVAppState@@0@Z ENDP ; std::_Ptr_cat<AppState *,AppState *>
_TEXT	ENDS
PUBLIC	??$_Destroy_range@V?$allocator@PAVAppState@@@std@@@std@@YAXPAPAVAppState@@0AAV?$allocator@PAVAppState@@@0@U_Scalar_ptr_iterator_tag@0@@Z ; std::_Destroy_range<std::allocator<AppState *> >
; Function compile flags: /Ogtp
;	COMDAT ??$_Destroy_range@V?$allocator@PAVAppState@@@std@@@std@@YAXPAPAVAppState@@0AAV?$allocator@PAVAppState@@@0@U_Scalar_ptr_iterator_tag@0@@Z
_TEXT	SEGMENT
__First$ = 8						; size = 4
__Last$ = 12						; size = 4
__Al$ = 16						; size = 4
___formal$ = 20						; size = 1
??$_Destroy_range@V?$allocator@PAVAppState@@@std@@@std@@YAXPAPAVAppState@@0AAV?$allocator@PAVAppState@@@0@U_Scalar_ptr_iterator_tag@0@@Z PROC ; std::_Destroy_range<std::allocator<AppState *> >, COMDAT
; File c:\program files (x86)\microsoft visual studio 10.0\vc\include\xmemory
; Line 105
	ret	0
??$_Destroy_range@V?$allocator@PAVAppState@@@std@@@std@@YAXPAPAVAppState@@0AAV?$allocator@PAVAppState@@@0@U_Scalar_ptr_iterator_tag@0@@Z ENDP ; std::_Destroy_range<std::allocator<AppState *> >
_TEXT	ENDS
PUBLIC	??$_Construct@PAVAppState@@ABQAV1@@std@@YAXPAPAVAppState@@ABQAV1@@Z ; std::_Construct<AppState *,AppState * const &>
; Function compile flags: /Ogtp
;	COMDAT ??$_Construct@PAVAppState@@ABQAV1@@std@@YAXPAPAVAppState@@ABQAV1@@Z
_TEXT	SEGMENT
__Ptr$ = 8						; size = 4
__Val$ = 12						; size = 4
??$_Construct@PAVAppState@@ABQAV1@@std@@YAXPAPAVAppState@@ABQAV1@@Z PROC ; std::_Construct<AppState *,AppState * const &>, COMDAT
; Line 46
	push	ebp
	mov	ebp, esp
; Line 48
	mov	eax, DWORD PTR __Ptr$[ebp]
	test	eax, eax
	je	SHORT $LN3@Construct
	mov	ecx, DWORD PTR __Val$[ebp]
	mov	edx, DWORD PTR [ecx]
	mov	DWORD PTR [eax], edx
$LN3@Construct:
; Line 49
	pop	ebp
	ret	0
??$_Construct@PAVAppState@@ABQAV1@@std@@YAXPAPAVAppState@@ABQAV1@@Z ENDP ; std::_Construct<AppState *,AppState * const &>
_TEXT	ENDS
PUBLIC	??$move@AAUBookmark@@@std@@YA$$QAUBookmark@@AAU1@@Z ; std::move<Bookmark &>
; Function compile flags: /Ogtp
;	COMDAT ??$move@AAUBookmark@@@std@@YA$$QAUBookmark@@AAU1@@Z
_TEXT	SEGMENT
__Arg$ = 8						; size = 4
??$move@AAUBookmark@@@std@@YA$$QAUBookmark@@AAU1@@Z PROC ; std::move<Bookmark &>, COMDAT
; File c:\program files (x86)\microsoft visual studio 10.0\vc\include\utility
; Line 86
	push	ebp
	mov	ebp, esp
; Line 87
	mov	eax, DWORD PTR __Arg$[ebp]
; Line 88
	pop	ebp
	ret	0
??$move@AAUBookmark@@@std@@YA$$QAUBookmark@@AAU1@@Z ENDP ; std::move<Bookmark &>
_TEXT	ENDS
PUBLIC	??$_Val_type@PAPAVAppState@@@std@@YAPAPAVAppState@@PAPAV1@@Z ; std::_Val_type<AppState * *>
; Function compile flags: /Ogtp
;	COMDAT ??$_Val_type@PAPAVAppState@@@std@@YAPAPAVAppState@@PAPAV1@@Z
_TEXT	SEGMENT
___formal$ = 8						; size = 4
??$_Val_type@PAPAVAppState@@@std@@YAPAPAVAppState@@PAPAV1@@Z PROC ; std::_Val_type<AppState * *>, COMDAT
; File c:\program files (x86)\microsoft visual studio 10.0\vc\include\xutility
; Line 802
	xor	eax, eax
; Line 803
	ret	0
??$_Val_type@PAPAVAppState@@@std@@YAPAPAVAppState@@PAPAV1@@Z ENDP ; std::_Val_type<AppState * *>
_TEXT	ENDS
PUBLIC	??$_Uninit_move@PAVAppState@@PAV1@PAV1@@std@@YAPAPAVAppState@@PAPAV1@00AAV?$allocator@PAVAppState@@@0@0U_Scalar_ptr_iterator_tag@0@@Z ; std::_Uninit_move<AppState *,AppState *,AppState *>
; Function compile flags: /Ogtp
;	COMDAT ??$_Uninit_move@PAVAppState@@PAV1@PAV1@@std@@YAPAPAVAppState@@PAPAV1@00AAV?$allocator@PAVAppState@@@0@0U_Scalar_ptr_iterator_tag@0@@Z
_TEXT	SEGMENT
__First$ = 8						; size = 4
__Last$ = 12						; size = 4
__Dest$ = 16						; size = 4
___formal$ = 20						; size = 4
___formal$ = 24						; size = 4
___formal$ = 28						; size = 1
??$_Uninit_move@PAVAppState@@PAV1@PAV1@@std@@YAPAPAVAppState@@PAPAV1@00AAV?$allocator@PAVAppState@@@0@0U_Scalar_ptr_iterator_tag@0@@Z PROC ; std::_Uninit_move<AppState *,AppState *,AppState *>, COMDAT
; File c:\program files (x86)\microsoft visual studio 10.0\vc\include\memory
; Line 456
	push	ebp
	mov	ebp, esp
; Line 459
	mov	ecx, DWORD PTR __First$[ebp]
	mov	eax, DWORD PTR __Last$[ebp]
	sub	eax, ecx
	push	esi
	sar	eax, 2
; Line 461
	lea	esi, DWORD PTR [eax*4]
	mov	eax, DWORD PTR __Dest$[ebp]
	push	esi
	push	ecx
	push	eax
	call	DWORD PTR __imp__memmove
	add	esp, 12					; 0000000cH
	add	eax, esi
	pop	esi
; Line 462
	pop	ebp
	ret	0
??$_Uninit_move@PAVAppState@@PAV1@PAV1@@std@@YAPAPAVAppState@@PAPAV1@00AAV?$allocator@PAVAppState@@@0@0U_Scalar_ptr_iterator_tag@0@@Z ENDP ; std::_Uninit_move<AppState *,AppState *,AppState *>
_TEXT	ENDS
PUBLIC	??$_Val_type@PAUMapEntry@@@std@@YAPAUMapEntry@@PAU1@@Z ; std::_Val_type<MapEntry *>
; Function compile flags: /Ogtp
;	COMDAT ??$_Val_type@PAUMapEntry@@@std@@YAPAUMapEntry@@PAU1@@Z
_TEXT	SEGMENT
___formal$ = 8						; size = 4
??$_Val_type@PAUMapEntry@@@std@@YAPAUMapEntry@@PAU1@@Z PROC ; std::_Val_type<MapEntry *>, COMDAT
; File c:\program files (x86)\microsoft visual studio 10.0\vc\include\xutility
; Line 802
	xor	eax, eax
; Line 803
	ret	0
??$_Val_type@PAUMapEntry@@@std@@YAPAUMapEntry@@PAU1@@Z ENDP ; std::_Val_type<MapEntry *>
_TEXT	ENDS
PUBLIC	??$_Val_type@PAUBookmark@@@std@@YAPAUBookmark@@PAU1@@Z ; std::_Val_type<Bookmark *>
; Function compile flags: /Ogtp
;	COMDAT ??$_Val_type@PAUBookmark@@@std@@YAPAUBookmark@@PAU1@@Z
_TEXT	SEGMENT
___formal$ = 8						; size = 4
??$_Val_type@PAUBookmark@@@std@@YAPAUBookmark@@PAU1@@Z PROC ; std::_Val_type<Bookmark *>, COMDAT
; Line 802
	xor	eax, eax
; Line 803
	ret	0
??$_Val_type@PAUBookmark@@@std@@YAPAUBookmark@@PAU1@@Z ENDP ; std::_Val_type<Bookmark *>
_TEXT	ENDS
PUBLIC	??$forward@UMapEntry@@@std@@YA$$QAUMapEntry@@AAU1@@Z ; std::forward<MapEntry>
; Function compile flags: /Ogtp
;	COMDAT ??$forward@UMapEntry@@@std@@YA$$QAUMapEntry@@AAU1@@Z
_TEXT	SEGMENT
__Arg$ = 8						; size = 4
??$forward@UMapEntry@@@std@@YA$$QAUMapEntry@@AAU1@@Z PROC ; std::forward<MapEntry>, COMDAT
; File c:\program files (x86)\microsoft visual studio 10.0\vc\include\utility
; Line 78
	push	ebp
	mov	ebp, esp
; Line 79
	mov	eax, DWORD PTR __Arg$[ebp]
; Line 80
	pop	ebp
	ret	0
??$forward@UMapEntry@@@std@@YA$$QAUMapEntry@@AAU1@@Z ENDP ; std::forward<MapEntry>
_TEXT	ENDS
PUBLIC	??$forward@UBookmark@@@std@@YA$$QAUBookmark@@AAU1@@Z ; std::forward<Bookmark>
; Function compile flags: /Ogtp
;	COMDAT ??$forward@UBookmark@@@std@@YA$$QAUBookmark@@AAU1@@Z
_TEXT	SEGMENT
__Arg$ = 8						; size = 4
??$forward@UBookmark@@@std@@YA$$QAUBookmark@@AAU1@@Z PROC ; std::forward<Bookmark>, COMDAT
; Line 78
	push	ebp
	mov	ebp, esp
; Line 79
	mov	eax, DWORD PTR __Arg$[ebp]
; Line 80
	pop	ebp
	ret	0
??$forward@UBookmark@@@std@@YA$$QAUBookmark@@AAU1@@Z ENDP ; std::forward<Bookmark>
_TEXT	ENDS
PUBLIC	??1sentry@?$basic_istream@DU?$char_traits@D@std@@@std@@QAE@XZ ; std::basic_istream<char,std::char_traits<char> >::sentry::~sentry
; Function compile flags: /Ogtp
;	COMDAT ??1sentry@?$basic_istream@DU?$char_traits@D@std@@@std@@QAE@XZ
_TEXT	SEGMENT
??1sentry@?$basic_istream@DU?$char_traits@D@std@@@std@@QAE@XZ PROC ; std::basic_istream<char,std::char_traits<char> >::sentry::~sentry, COMDAT
; _this$ = ecx
	mov	eax, DWORD PTR [ecx]
	mov	ecx, DWORD PTR [eax]
	mov	edx, DWORD PTR [ecx+4]
	mov	eax, DWORD PTR [edx+eax+56]
	test	eax, eax
	je	SHORT $LN4@sentry
	mov	edx, DWORD PTR [eax]
	mov	ecx, eax
	mov	eax, DWORD PTR [edx+8]
	jmp	eax
$LN4@sentry:
	ret	0
??1sentry@?$basic_istream@DU?$char_traits@D@std@@@std@@QAE@XZ ENDP ; std::basic_istream<char,std::char_traits<char> >::sentry::~sentry
_TEXT	ENDS
PUBLIC	?c_str@?$basic_string@DU?$char_traits@D@std@@V?$allocator@D@2@@std@@QBEPBDXZ ; std::basic_string<char,std::char_traits<char>,std::allocator<char> >::c_str
; Function compile flags: /Ogtp
;	COMDAT ?c_str@?$basic_string@DU?$char_traits@D@std@@V?$allocator@D@2@@std@@QBEPBDXZ
_TEXT	SEGMENT
?c_str@?$basic_string@DU?$char_traits@D@std@@V?$allocator@D@2@@std@@QBEPBDXZ PROC ; std::basic_string<char,std::char_traits<char>,std::allocator<char> >::c_str, COMDAT
; _this$ = ecx
; File c:\program files (x86)\microsoft visual studio 10.0\vc\include\xstring
; Line 1495
	mov	eax, ecx
; Line 1496
	cmp	DWORD PTR [eax+20], 16			; 00000010H
	jb	SHORT $LN6@c_str
	mov	eax, DWORD PTR [eax]
$LN6@c_str:
; Line 1497
	ret	0
?c_str@?$basic_string@DU?$char_traits@D@std@@V?$allocator@D@2@@std@@QBEPBDXZ ENDP ; std::basic_string<char,std::char_traits<char>,std::allocator<char> >::c_str
_TEXT	ENDS
PUBLIC	??0sentry@?$basic_istream@DU?$char_traits@D@std@@@std@@QAE@AAV12@_N@Z ; std::basic_istream<char,std::char_traits<char> >::sentry::sentry
EXTRN	__imp_?_Ipfx@?$basic_istream@DU?$char_traits@D@std@@@std@@QAE_N_N@Z:PROC
;	COMDAT xdata$x
; File c:\program files (x86)\microsoft visual studio 10.0\vc\include\ios
xdata$x	SEGMENT
__unwindtable$??0sentry@?$basic_istream@DU?$char_traits@D@std@@@std@@QAE@AAV12@_N@Z DD 0ffffffffH
	DD	FLAT:__unwindfunclet$??0sentry@?$basic_istream@DU?$char_traits@D@std@@@std@@QAE@AAV12@_N@Z$0
__ehfuncinfo$??0sentry@?$basic_istream@DU?$char_traits@D@std@@@std@@QAE@AAV12@_N@Z DD 019930522H
	DD	01H
	DD	FLAT:__unwindtable$??0sentry@?$basic_istream@DU?$char_traits@D@std@@@std@@QAE@AAV12@_N@Z
	DD	2 DUP(00H)
	DD	2 DUP(00H)
	DD	00H
	DD	01H
; Function compile flags: /Ogtp
xdata$x	ENDS
;	COMDAT ??0sentry@?$basic_istream@DU?$char_traits@D@std@@@std@@QAE@AAV12@_N@Z
_TEXT	SEGMENT
_this$ = -16						; size = 4
__$EHRec$ = -12						; size = 12
__Istr$ = 8						; size = 4
__Noskip$ = 12						; size = 1
??0sentry@?$basic_istream@DU?$char_traits@D@std@@@std@@QAE@AAV12@_N@Z PROC ; std::basic_istream<char,std::char_traits<char> >::sentry::sentry, COMDAT
; _this$ = ecx
; File c:\program files (x86)\microsoft visual studio 10.0\vc\include\istream
; Line 99
	push	ebp
	mov	ebp, esp
	push	-1
	push	__ehhandler$??0sentry@?$basic_istream@DU?$char_traits@D@std@@@std@@QAE@AAV12@_N@Z
	mov	eax, DWORD PTR fs:0
	push	eax
	push	ecx
	push	esi
	mov	eax, DWORD PTR ___security_cookie
	xor	eax, ebp
	push	eax
	lea	eax, DWORD PTR __$EHRec$[ebp]
	mov	DWORD PTR fs:0, eax
	mov	esi, ecx
	mov	DWORD PTR _this$[ebp], esi
	mov	eax, DWORD PTR __Istr$[ebp]
	mov	DWORD PTR [esi], eax
	mov	ecx, DWORD PTR [eax]
	mov	edx, DWORD PTR [ecx+4]
	mov	eax, DWORD PTR [edx+eax+56]
	test	eax, eax
	je	SHORT $LN4@sentry@2
	mov	edx, DWORD PTR [eax]
	mov	ecx, eax
	mov	eax, DWORD PTR [edx+4]
	call	eax
$LN4@sentry@2:
; Line 100
	mov	ecx, DWORD PTR __Noskip$[ebp]
	push	ecx
	mov	ecx, DWORD PTR [esi]
	mov	DWORD PTR __$EHRec$[ebp+8], 0
	call	DWORD PTR __imp_?_Ipfx@?$basic_istream@DU?$char_traits@D@std@@@std@@QAE_N_N@Z
	mov	BYTE PTR [esi+4], al
; Line 101
	mov	eax, esi
	mov	ecx, DWORD PTR __$EHRec$[ebp]
	mov	DWORD PTR fs:0, ecx
	pop	ecx
	pop	esi
	mov	esp, ebp
	pop	ebp
	ret	8
_TEXT	ENDS
;	COMDAT text$x
text$x	SEGMENT
__unwindfunclet$??0sentry@?$basic_istream@DU?$char_traits@D@std@@@std@@QAE@AAV12@_N@Z$0:
	mov	ecx, DWORD PTR _this$[ebp]
	jmp	??1_Sentry_base@?$basic_istream@DU?$char_traits@D@std@@@std@@QAE@XZ ; std::basic_istream<char,std::char_traits<char> >::_Sentry_base::~_Sentry_base
__ehhandler$??0sentry@?$basic_istream@DU?$char_traits@D@std@@@std@@QAE@AAV12@_N@Z:
	mov	edx, DWORD PTR [esp+8]
	lea	eax, DWORD PTR [edx+12]
	mov	ecx, DWORD PTR [edx-12]
	xor	ecx, eax
	call	@__security_check_cookie@4
	mov	eax, OFFSET __ehfuncinfo$??0sentry@?$basic_istream@DU?$char_traits@D@std@@@std@@QAE@AAV12@_N@Z
	jmp	___CxxFrameHandler3
text$x	ENDS
??0sentry@?$basic_istream@DU?$char_traits@D@std@@@std@@QAE@AAV12@_N@Z ENDP ; std::basic_istream<char,std::char_traits<char> >::sentry::sentry
PUBLIC	?is_open@?$basic_ifstream@DU?$char_traits@D@std@@@std@@QBE_NXZ ; std::basic_ifstream<char,std::char_traits<char> >::is_open
; Function compile flags: /Ogtp
;	COMDAT ?is_open@?$basic_ifstream@DU?$char_traits@D@std@@@std@@QBE_NXZ
_TEXT	SEGMENT
?is_open@?$basic_ifstream@DU?$char_traits@D@std@@@std@@QBE_NXZ PROC ; std::basic_ifstream<char,std::char_traits<char> >::is_open, COMDAT
; _this$ = ecx
; File c:\program files (x86)\microsoft visual studio 10.0\vc\include\fstream
; Line 855
	xor	eax, eax
	cmp	DWORD PTR [ecx+100], eax
	setne	al
; Line 856
	ret	0
?is_open@?$basic_ifstream@DU?$char_traits@D@std@@@std@@QBE_NXZ ENDP ; std::basic_ifstream<char,std::char_traits<char> >::is_open
_TEXT	ENDS
PUBLIC	?compare@?$basic_string@DU?$char_traits@D@std@@V?$allocator@D@2@@std@@QBEHIIPBDI@Z ; std::basic_string<char,std::char_traits<char>,std::allocator<char> >::compare
; Function compile flags: /Ogtp
;	COMDAT ?compare@?$basic_string@DU?$char_traits@D@std@@V?$allocator@D@2@@std@@QBEHIIPBDI@Z
_TEXT	SEGMENT
__Off$ = 8						; size = 4
__N0$ = 12						; size = 4
__Ptr$ = 16						; size = 4
__Count$ = 20						; size = 4
?compare@?$basic_string@DU?$char_traits@D@std@@V?$allocator@D@2@@std@@QBEHIIPBDI@Z PROC ; std::basic_string<char,std::char_traits<char>,std::allocator<char> >::compare, COMDAT
; _this$ = ecx
; File c:\program files (x86)\microsoft visual studio 10.0\vc\include\xstring
; Line 1887
	push	ebp
	mov	ebp, esp
; Line 1893
	mov	eax, DWORD PTR [ecx+16]
	push	ebx
	push	esi
	push	edi
	mov	edi, DWORD PTR __Off$[ebp]
	cmp	eax, edi
	jae	SHORT $LN2@compare@2
; Line 1894
	push	OFFSET ??_C@_0BI@CFPLBAOH@invalid?5string?5position?$AA@
	call	DWORD PTR __imp_?_Xout_of_range@std@@YAXPBD@Z
$LN19@compare@2:
$LN2@compare@2:
; Line 1895
	mov	esi, DWORD PTR __N0$[ebp]
	sub	eax, edi
	cmp	eax, esi
	jae	SHORT $LN1@compare@2
; Line 1896
	mov	esi, eax
$LN1@compare@2:
; Line 1899
	mov	ebx, DWORD PTR __Count$[ebp]
	mov	edx, esi
	cmp	esi, ebx
	jb	SHORT $LN6@compare@2
	mov	edx, ebx
$LN6@compare@2:
	cmp	DWORD PTR [ecx+20], 16			; 00000010H
	jb	SHORT $LN16@compare@2
	mov	eax, DWORD PTR [ecx]
	jmp	SHORT $LN17@compare@2
$LN16@compare@2:
	mov	eax, ecx
$LN17@compare@2:
	mov	ecx, DWORD PTR __Ptr$[ebp]
	push	edx
	push	ecx
	add	eax, edi
	push	eax
	call	?compare@?$char_traits@D@std@@SAHPBD0I@Z ; std::char_traits<char>::compare
	add	esp, 12					; 0000000cH
; Line 1901
	test	eax, eax
	jne	SHORT $LN8@compare@2
	cmp	esi, ebx
	jae	SHORT $LN7@compare@2
	pop	edi
	pop	esi
	or	eax, -1
	pop	ebx
; Line 1902
	pop	ebp
	ret	16					; 00000010H
$LN7@compare@2:
; Line 1901
	xor	eax, eax
	cmp	esi, ebx
	setne	al
$LN8@compare@2:
	pop	edi
	pop	esi
	pop	ebx
; Line 1902
	pop	ebp
	ret	16					; 00000010H
$LN18@compare@2:
?compare@?$basic_string@DU?$char_traits@D@std@@V?$allocator@D@2@@std@@QBEHIIPBDI@Z ENDP ; std::basic_string<char,std::char_traits<char>,std::allocator<char> >::compare
_TEXT	ENDS
PUBLIC	??0?$_String_val@DV?$allocator@D@std@@@std@@QAE@V?$allocator@D@1@@Z ; std::_String_val<char,std::allocator<char> >::_String_val<char,std::allocator<char> >
; Function compile flags: /Ogtp
;	COMDAT ??0?$_String_val@DV?$allocator@D@std@@@std@@QAE@V?$allocator@D@1@@Z
_TEXT	SEGMENT
__Al$ = 8						; size = 1
??0?$_String_val@DV?$allocator@D@std@@@std@@QAE@V?$allocator@D@1@@Z PROC ; std::_String_val<char,std::allocator<char> >::_String_val<char,std::allocator<char> >, COMDAT
; _this$ = ecx
; Line 454
	mov	eax, ecx
; Line 455
	ret	4
??0?$_String_val@DV?$allocator@D@std@@@std@@QAE@V?$allocator@D@1@@Z ENDP ; std::_String_val<char,std::allocator<char> >::_String_val<char,std::allocator<char> >
_TEXT	ENDS
PUBLIC	??0?$_Vector_val@UMapEntry@@V?$allocator@UMapEntry@@@std@@@std@@QAE@V?$allocator@UMapEntry@@@1@@Z ; std::_Vector_val<MapEntry,std::allocator<MapEntry> >::_Vector_val<MapEntry,std::allocator<MapEntry> >
; Function compile flags: /Ogtp
;	COMDAT ??0?$_Vector_val@UMapEntry@@V?$allocator@UMapEntry@@@std@@@std@@QAE@V?$allocator@UMapEntry@@@1@@Z
_TEXT	SEGMENT
__Al$ = 8						; size = 1
??0?$_Vector_val@UMapEntry@@V?$allocator@UMapEntry@@@std@@@std@@QAE@V?$allocator@UMapEntry@@@1@@Z PROC ; std::_Vector_val<MapEntry,std::allocator<MapEntry> >::_Vector_val<MapEntry,std::allocator<MapEntry> >, COMDAT
; _this$ = ecx
; File c:\program files (x86)\microsoft visual studio 10.0\vc\include\vector
; Line 426
	mov	eax, ecx
; Line 427
	xor	ecx, ecx
	mov	DWORD PTR [eax], ecx
; Line 428
	mov	DWORD PTR [eax+4], ecx
; Line 429
	mov	DWORD PTR [eax+8], ecx
; Line 430
	ret	4
??0?$_Vector_val@UMapEntry@@V?$allocator@UMapEntry@@@std@@@std@@QAE@V?$allocator@UMapEntry@@@1@@Z ENDP ; std::_Vector_val<MapEntry,std::allocator<MapEntry> >::_Vector_val<MapEntry,std::allocator<MapEntry> >
_TEXT	ENDS
PUBLIC	??0?$_Vector_val@UBookmark@@V?$allocator@UBookmark@@@std@@@std@@QAE@V?$allocator@UBookmark@@@1@@Z ; std::_Vector_val<Bookmark,std::allocator<Bookmark> >::_Vector_val<Bookmark,std::allocator<Bookmark> >
; Function compile flags: /Ogtp
;	COMDAT ??0?$_Vector_val@UBookmark@@V?$allocator@UBookmark@@@std@@@std@@QAE@V?$allocator@UBookmark@@@1@@Z
_TEXT	SEGMENT
__Al$ = 8						; size = 1
??0?$_Vector_val@UBookmark@@V?$allocator@UBookmark@@@std@@@std@@QAE@V?$allocator@UBookmark@@@1@@Z PROC ; std::_Vector_val<Bookmark,std::allocator<Bookmark> >::_Vector_val<Bookmark,std::allocator<Bookmark> >, COMDAT
; _this$ = ecx
; Line 426
	mov	eax, ecx
; Line 427
	xor	ecx, ecx
	mov	DWORD PTR [eax], ecx
; Line 428
	mov	DWORD PTR [eax+4], ecx
; Line 429
	mov	DWORD PTR [eax+8], ecx
; Line 430
	ret	4
??0?$_Vector_val@UBookmark@@V?$allocator@UBookmark@@@std@@@std@@QAE@V?$allocator@UBookmark@@@1@@Z ENDP ; std::_Vector_val<Bookmark,std::allocator<Bookmark> >::_Vector_val<Bookmark,std::allocator<Bookmark> >
_TEXT	ENDS
PUBLIC	??_7?$basic_filebuf@DU?$char_traits@D@std@@@std@@6B@ ; std::basic_filebuf<char,std::char_traits<char> >::`vftable'
PUBLIC	??0?$basic_filebuf@DU?$char_traits@D@std@@@std@@QAE@PAU_iobuf@@@Z ; std::basic_filebuf<char,std::char_traits<char> >::basic_filebuf<char,std::char_traits<char> >
PUBLIC	??_R4?$basic_filebuf@DU?$char_traits@D@std@@@std@@6B@ ; std::basic_filebuf<char,std::char_traits<char> >::`RTTI Complete Object Locator'
PUBLIC	??_R0?AV?$basic_filebuf@DU?$char_traits@D@std@@@std@@@8 ; std::basic_filebuf<char,std::char_traits<char> > `RTTI Type Descriptor'
PUBLIC	??_R3?$basic_filebuf@DU?$char_traits@D@std@@@std@@8 ; std::basic_filebuf<char,std::char_traits<char> >::`RTTI Class Hierarchy Descriptor'
PUBLIC	??_R2?$basic_filebuf@DU?$char_traits@D@std@@@std@@8 ; std::basic_filebuf<char,std::char_traits<char> >::`RTTI Base Class Array'
PUBLIC	??_R1A@?0A@EA@?$basic_filebuf@DU?$char_traits@D@std@@@std@@8 ; std::basic_filebuf<char,std::char_traits<char> >::`RTTI Base Class Descriptor at (0,-1,0,64)'
PUBLIC	??_R1A@?0A@EA@?$basic_streambuf@DU?$char_traits@D@std@@@std@@8 ; std::basic_streambuf<char,std::char_traits<char> >::`RTTI Base Class Descriptor at (0,-1,0,64)'
PUBLIC	??_R0?AV?$basic_streambuf@DU?$char_traits@D@std@@@std@@@8 ; std::basic_streambuf<char,std::char_traits<char> > `RTTI Type Descriptor'
PUBLIC	??_R3?$basic_streambuf@DU?$char_traits@D@std@@@std@@8 ; std::basic_streambuf<char,std::char_traits<char> >::`RTTI Class Hierarchy Descriptor'
PUBLIC	??_R2?$basic_streambuf@DU?$char_traits@D@std@@@std@@8 ; std::basic_streambuf<char,std::char_traits<char> >::`RTTI Base Class Array'
PUBLIC	?_Lock@?$basic_filebuf@DU?$char_traits@D@std@@@std@@UAEXXZ ; std::basic_filebuf<char,std::char_traits<char> >::_Lock
PUBLIC	?_Unlock@?$basic_filebuf@DU?$char_traits@D@std@@@std@@UAEXXZ ; std::basic_filebuf<char,std::char_traits<char> >::_Unlock
PUBLIC	?overflow@?$basic_filebuf@DU?$char_traits@D@std@@@std@@MAEHH@Z ; std::basic_filebuf<char,std::char_traits<char> >::overflow
PUBLIC	?pbackfail@?$basic_filebuf@DU?$char_traits@D@std@@@std@@MAEHH@Z ; std::basic_filebuf<char,std::char_traits<char> >::pbackfail
PUBLIC	?underflow@?$basic_filebuf@DU?$char_traits@D@std@@@std@@MAEHXZ ; std::basic_filebuf<char,std::char_traits<char> >::underflow
PUBLIC	?uflow@?$basic_filebuf@DU?$char_traits@D@std@@@std@@MAEHXZ ; std::basic_filebuf<char,std::char_traits<char> >::uflow
PUBLIC	?seekoff@?$basic_filebuf@DU?$char_traits@D@std@@@std@@MAE?AV?$fpos@H@2@_JHH@Z ; std::basic_filebuf<char,std::char_traits<char> >::seekoff
PUBLIC	?seekpos@?$basic_filebuf@DU?$char_traits@D@std@@@std@@MAE?AV?$fpos@H@2@V32@H@Z ; std::basic_filebuf<char,std::char_traits<char> >::seekpos
PUBLIC	?setbuf@?$basic_filebuf@DU?$char_traits@D@std@@@std@@MAEPAV?$basic_streambuf@DU?$char_traits@D@std@@@2@PAD_J@Z ; std::basic_filebuf<char,std::char_traits<char> >::setbuf
PUBLIC	?sync@?$basic_filebuf@DU?$char_traits@D@std@@@std@@MAEHXZ ; std::basic_filebuf<char,std::char_traits<char> >::sync
PUBLIC	?imbue@?$basic_filebuf@DU?$char_traits@D@std@@@std@@MAEXABVlocale@2@@Z ; std::basic_filebuf<char,std::char_traits<char> >::imbue
EXTRN	__imp_??1?$basic_streambuf@DU?$char_traits@D@std@@@std@@UAE@XZ:PROC
EXTRN	__imp_??0?$basic_streambuf@DU?$char_traits@D@std@@@std@@IAE@XZ:PROC
EXTRN	??_E?$basic_filebuf@DU?$char_traits@D@std@@@std@@UAEPAXI@Z:PROC ; std::basic_filebuf<char,std::char_traits<char> >::`vector deleting destructor'
EXTRN	?showmanyc@?$basic_streambuf@DU?$char_traits@D@std@@@std@@MAE_JXZ:PROC ; std::basic_streambuf<char,std::char_traits<char> >::showmanyc
EXTRN	?xsgetn@?$basic_streambuf@DU?$char_traits@D@std@@@std@@MAE_JPAD_J@Z:PROC ; std::basic_streambuf<char,std::char_traits<char> >::xsgetn
EXTRN	?xsputn@?$basic_streambuf@DU?$char_traits@D@std@@@std@@MAE_JPBD_J@Z:PROC ; std::basic_streambuf<char,std::char_traits<char> >::xsputn
;	COMDAT ??_R2?$basic_streambuf@DU?$char_traits@D@std@@@std@@8
; File c:\program files (x86)\microsoft visual studio 10.0\vc\include\streambuf
rdata$r	SEGMENT
??_R2?$basic_streambuf@DU?$char_traits@D@std@@@std@@8 DD FLAT:??_R1A@?0A@EA@?$basic_streambuf@DU?$char_traits@D@std@@@std@@8 ; std::basic_streambuf<char,std::char_traits<char> >::`RTTI Base Class Array'
rdata$r	ENDS
;	COMDAT ??_R3?$basic_streambuf@DU?$char_traits@D@std@@@std@@8
rdata$r	SEGMENT
??_R3?$basic_streambuf@DU?$char_traits@D@std@@@std@@8 DD 00H ; std::basic_streambuf<char,std::char_traits<char> >::`RTTI Class Hierarchy Descriptor'
	DD	00H
	DD	01H
	DD	FLAT:??_R2?$basic_streambuf@DU?$char_traits@D@std@@@std@@8
rdata$r	ENDS
;	COMDAT ??_R0?AV?$basic_streambuf@DU?$char_traits@D@std@@@std@@@8
_DATA	SEGMENT
??_R0?AV?$basic_streambuf@DU?$char_traits@D@std@@@std@@@8 DD FLAT:??_7type_info@@6B@ ; std::basic_streambuf<char,std::char_traits<char> > `RTTI Type Descriptor'
	DD	00H
	DB	'.?AV?$basic_streambuf@DU?$char_traits@D@std@@@std@@', 00H
_DATA	ENDS
;	COMDAT ??_R1A@?0A@EA@?$basic_streambuf@DU?$char_traits@D@std@@@std@@8
rdata$r	SEGMENT
??_R1A@?0A@EA@?$basic_streambuf@DU?$char_traits@D@std@@@std@@8 DD FLAT:??_R0?AV?$basic_streambuf@DU?$char_traits@D@std@@@std@@@8 ; std::basic_streambuf<char,std::char_traits<char> >::`RTTI Base Class Descriptor at (0,-1,0,64)'
	DD	00H
	DD	00H
	DD	0ffffffffH
	DD	00H
	DD	040H
	DD	FLAT:??_R3?$basic_streambuf@DU?$char_traits@D@std@@@std@@8
rdata$r	ENDS
;	COMDAT ??_R1A@?0A@EA@?$basic_filebuf@DU?$char_traits@D@std@@@std@@8
rdata$r	SEGMENT
??_R1A@?0A@EA@?$basic_filebuf@DU?$char_traits@D@std@@@std@@8 DD FLAT:??_R0?AV?$basic_filebuf@DU?$char_traits@D@std@@@std@@@8 ; std::basic_filebuf<char,std::char_traits<char> >::`RTTI Base Class Descriptor at (0,-1,0,64)'
	DD	01H
	DD	00H
	DD	0ffffffffH
	DD	00H
	DD	040H
	DD	FLAT:??_R3?$basic_filebuf@DU?$char_traits@D@std@@@std@@8
rdata$r	ENDS
;	COMDAT ??_R2?$basic_filebuf@DU?$char_traits@D@std@@@std@@8
rdata$r	SEGMENT
??_R2?$basic_filebuf@DU?$char_traits@D@std@@@std@@8 DD FLAT:??_R1A@?0A@EA@?$basic_filebuf@DU?$char_traits@D@std@@@std@@8 ; std::basic_filebuf<char,std::char_traits<char> >::`RTTI Base Class Array'
	DD	FLAT:??_R1A@?0A@EA@?$basic_streambuf@DU?$char_traits@D@std@@@std@@8
rdata$r	ENDS
;	COMDAT ??_R3?$basic_filebuf@DU?$char_traits@D@std@@@std@@8
rdata$r	SEGMENT
??_R3?$basic_filebuf@DU?$char_traits@D@std@@@std@@8 DD 00H ; std::basic_filebuf<char,std::char_traits<char> >::`RTTI Class Hierarchy Descriptor'
	DD	00H
	DD	02H
	DD	FLAT:??_R2?$basic_filebuf@DU?$char_traits@D@std@@@std@@8
rdata$r	ENDS
;	COMDAT ??_R0?AV?$basic_filebuf@DU?$char_traits@D@std@@@std@@@8
_DATA	SEGMENT
??_R0?AV?$basic_filebuf@DU?$char_traits@D@std@@@std@@@8 DD FLAT:??_7type_info@@6B@ ; std::basic_filebuf<char,std::char_traits<char> > `RTTI Type Descriptor'
	DD	00H
	DB	'.?AV?$basic_filebuf@DU?$char_traits@D@std@@@std@@', 00H
_DATA	ENDS
;	COMDAT ??_R4?$basic_filebuf@DU?$char_traits@D@std@@@std@@6B@
rdata$r	SEGMENT
??_R4?$basic_filebuf@DU?$char_traits@D@std@@@std@@6B@ DD 00H ; std::basic_filebuf<char,std::char_traits<char> >::`RTTI Complete Object Locator'
	DD	00H
	DD	00H
	DD	FLAT:??_R0?AV?$basic_filebuf@DU?$char_traits@D@std@@@std@@@8
	DD	FLAT:??_R3?$basic_filebuf@DU?$char_traits@D@std@@@std@@8
rdata$r	ENDS
;	COMDAT ??_7?$basic_filebuf@DU?$char_traits@D@std@@@std@@6B@
CONST	SEGMENT
??_7?$basic_filebuf@DU?$char_traits@D@std@@@std@@6B@ DD FLAT:??_R4?$basic_filebuf@DU?$char_traits@D@std@@@std@@6B@ ; std::basic_filebuf<char,std::char_traits<char> >::`vftable'
	DD	FLAT:??_E?$basic_filebuf@DU?$char_traits@D@std@@@std@@UAEPAXI@Z
	DD	FLAT:?_Lock@?$basic_filebuf@DU?$char_traits@D@std@@@std@@UAEXXZ
	DD	FLAT:?_Unlock@?$basic_filebuf@DU?$char_traits@D@std@@@std@@UAEXXZ
	DD	FLAT:?overflow@?$basic_filebuf@DU?$char_traits@D@std@@@std@@MAEHH@Z
	DD	FLAT:?pbackfail@?$basic_filebuf@DU?$char_traits@D@std@@@std@@MAEHH@Z
	DD	FLAT:?showmanyc@?$basic_streambuf@DU?$char_traits@D@std@@@std@@MAE_JXZ
	DD	FLAT:?underflow@?$basic_filebuf@DU?$char_traits@D@std@@@std@@MAEHXZ
	DD	FLAT:?uflow@?$basic_filebuf@DU?$char_traits@D@std@@@std@@MAEHXZ
	DD	FLAT:?xsgetn@?$basic_streambuf@DU?$char_traits@D@std@@@std@@MAE_JPAD_J@Z
	DD	FLAT:?xsputn@?$basic_streambuf@DU?$char_traits@D@std@@@std@@MAE_JPBD_J@Z
	DD	FLAT:?seekoff@?$basic_filebuf@DU?$char_traits@D@std@@@std@@MAE?AV?$fpos@H@2@_JHH@Z
	DD	FLAT:?seekpos@?$basic_filebuf@DU?$char_traits@D@std@@@std@@MAE?AV?$fpos@H@2@V32@H@Z
	DD	FLAT:?setbuf@?$basic_filebuf@DU?$char_traits@D@std@@@std@@MAEPAV?$basic_streambuf@DU?$char_traits@D@std@@@2@PAD_J@Z
	DD	FLAT:?sync@?$basic_filebuf@DU?$char_traits@D@std@@@std@@MAEHXZ
	DD	FLAT:?imbue@?$basic_filebuf@DU?$char_traits@D@std@@@std@@MAEXABVlocale@2@@Z
CONST	ENDS
;	COMDAT xdata$x
xdata$x	SEGMENT
__unwindtable$??0?$basic_filebuf@DU?$char_traits@D@std@@@std@@QAE@PAU_iobuf@@@Z DD 0ffffffffH
	DD	FLAT:__unwindfunclet$??0?$basic_filebuf@DU?$char_traits@D@std@@@std@@QAE@PAU_iobuf@@@Z$0
__ehfuncinfo$??0?$basic_filebuf@DU?$char_traits@D@std@@@std@@QAE@PAU_iobuf@@@Z DD 019930522H
	DD	01H
	DD	FLAT:__unwindtable$??0?$basic_filebuf@DU?$char_traits@D@std@@@std@@QAE@PAU_iobuf@@@Z
	DD	2 DUP(00H)
	DD	2 DUP(00H)
	DD	00H
	DD	01H
; Function compile flags: /Ogtp
xdata$x	ENDS
;	COMDAT ??0?$basic_filebuf@DU?$char_traits@D@std@@@std@@QAE@PAU_iobuf@@@Z
_TEXT	SEGMENT
_this$ = -16						; size = 4
__$EHRec$ = -12						; size = 12
__File$ = 8						; size = 4
??0?$basic_filebuf@DU?$char_traits@D@std@@@std@@QAE@PAU_iobuf@@@Z PROC ; std::basic_filebuf<char,std::char_traits<char> >::basic_filebuf<char,std::char_traits<char> >, COMDAT
; _this$ = ecx
; File c:\program files (x86)\microsoft visual studio 10.0\vc\include\fstream
; Line 152
	push	ebp
	mov	ebp, esp
	push	-1
	push	__ehhandler$??0?$basic_filebuf@DU?$char_traits@D@std@@@std@@QAE@PAU_iobuf@@@Z
	mov	eax, DWORD PTR fs:0
	push	eax
	push	ecx
	push	ebx
	push	esi
	mov	eax, DWORD PTR ___security_cookie
	xor	eax, ebp
	push	eax
	lea	eax, DWORD PTR __$EHRec$[ebp]
	mov	DWORD PTR fs:0, eax
	mov	esi, ecx
	mov	DWORD PTR _this$[ebp], esi
	call	DWORD PTR __imp_??0?$basic_streambuf@DU?$char_traits@D@std@@@std@@IAE@XZ
	xor	ebx, ebx
; Line 153
	mov	ecx, esi
	mov	DWORD PTR __$EHRec$[ebp+8], ebx
	mov	DWORD PTR [esi], OFFSET ??_7?$basic_filebuf@DU?$char_traits@D@std@@@std@@6B@
	mov	BYTE PTR [esi+80], bl
	mov	BYTE PTR [esi+73], bl
	call	DWORD PTR __imp_?_Init@?$basic_streambuf@DU?$char_traits@D@std@@@std@@IAEXXZ
	mov	eax, DWORD PTR __File$[ebp]
	cmp	eax, ebx
	je	SHORT $LN13@basic_file
	lea	ecx, DWORD PTR [eax+8]
	mov	DWORD PTR [esi+16], ecx
	mov	DWORD PTR [esi+20], ecx
	lea	ecx, DWORD PTR [eax+4]
	mov	DWORD PTR [esi+32], eax
	mov	DWORD PTR [esi+36], eax
	mov	DWORD PTR [esi+48], ecx
	mov	DWORD PTR [esi+52], ecx
$LN13@basic_file:
	mov	DWORD PTR [esi+84], eax
	mov	eax, DWORD PTR ?_Stinit@?1??_Init@?$basic_filebuf@DU?$char_traits@D@std@@@std@@IAEXPAU_iobuf@@W4_Initfl@23@@Z@4HA
	mov	DWORD PTR [esi+76], eax
	mov	DWORD PTR [esi+68], ebx
; Line 154
	mov	eax, esi
	mov	ecx, DWORD PTR __$EHRec$[ebp]
	mov	DWORD PTR fs:0, ecx
	pop	ecx
	pop	esi
	pop	ebx
	mov	esp, ebp
	pop	ebp
	ret	4
_TEXT	ENDS
;	COMDAT text$x
text$x	SEGMENT
__unwindfunclet$??0?$basic_filebuf@DU?$char_traits@D@std@@@std@@QAE@PAU_iobuf@@@Z$0:
	mov	ecx, DWORD PTR _this$[ebp]
	jmp	DWORD PTR __imp_??1?$basic_streambuf@DU?$char_traits@D@std@@@std@@UAE@XZ
__ehhandler$??0?$basic_filebuf@DU?$char_traits@D@std@@@std@@QAE@PAU_iobuf@@@Z:
	mov	edx, DWORD PTR [esp+8]
	lea	eax, DWORD PTR [edx+12]
	mov	ecx, DWORD PTR [edx-16]
	xor	ecx, eax
	call	@__security_check_cookie@4
	mov	eax, OFFSET __ehfuncinfo$??0?$basic_filebuf@DU?$char_traits@D@std@@@std@@QAE@PAU_iobuf@@@Z
	jmp	___CxxFrameHandler3
text$x	ENDS
??0?$basic_filebuf@DU?$char_traits@D@std@@@std@@QAE@PAU_iobuf@@@Z ENDP ; std::basic_filebuf<char,std::char_traits<char> >::basic_filebuf<char,std::char_traits<char> >
PUBLIC	?to_int_type@?$char_traits@D@std@@SAHABD@Z	; std::char_traits<char>::to_int_type
; Function compile flags: /Ogtp
;	COMDAT ?to_int_type@?$char_traits@D@std@@SAHABD@Z
_TEXT	SEGMENT
__Ch$ = 8						; size = 4
?to_int_type@?$char_traits@D@std@@SAHABD@Z PROC		; std::char_traits<char>::to_int_type, COMDAT
; File c:\program files (x86)\microsoft visual studio 10.0\vc\include\iosfwd
; Line 546
	push	ebp
	mov	ebp, esp
; Line 547
	mov	eax, DWORD PTR __Ch$[ebp]
	movzx	eax, BYTE PTR [eax]
; Line 548
	pop	ebp
	ret	0
?to_int_type@?$char_traits@D@std@@SAHABD@Z ENDP		; std::char_traits<char>::to_int_type
_TEXT	ENDS
PUBLIC	??$_Fgetc@D@std@@YA_NAADPAU_iobuf@@@Z		; std::_Fgetc<char>
EXTRN	__imp__fgetc:PROC
; Function compile flags: /Ogtp
;	COMDAT ??$_Fgetc@D@std@@YA_NAADPAU_iobuf@@@Z
_TEXT	SEGMENT
__Byte$ = 8						; size = 4
__File$ = 12						; size = 4
??$_Fgetc@D@std@@YA_NAADPAU_iobuf@@@Z PROC		; std::_Fgetc<char>, COMDAT
; File c:\program files (x86)\microsoft visual studio 10.0\vc\include\fstream
; Line 35
	push	ebp
	mov	ebp, esp
; Line 37
	mov	eax, DWORD PTR __File$[ebp]
	push	eax
	call	DWORD PTR __imp__fgetc
	add	esp, 4
	cmp	eax, -1
	jne	SHORT $LN2@Fgetc
; Line 38
	xor	al, al
; Line 44
	pop	ebp
	ret	0
$LN2@Fgetc:
; Line 41
	mov	ecx, DWORD PTR __Byte$[ebp]
	mov	BYTE PTR [ecx], al
; Line 42
	mov	al, 1
; Line 44
	pop	ebp
	ret	0
??$_Fgetc@D@std@@YA_NAADPAU_iobuf@@@Z ENDP		; std::_Fgetc<char>
_TEXT	ENDS
PUBLIC	??$_Fputc@D@std@@YA_NDPAU_iobuf@@@Z		; std::_Fputc<char>
EXTRN	__imp__fputc:PROC
; Function compile flags: /Ogtp
;	COMDAT ??$_Fputc@D@std@@YA_NDPAU_iobuf@@@Z
_TEXT	SEGMENT
__Byte$ = 8						; size = 1
__File$ = 12						; size = 4
??$_Fputc@D@std@@YA_NDPAU_iobuf@@@Z PROC		; std::_Fputc<char>, COMDAT
; Line 80
	push	ebp
	mov	ebp, esp
; Line 81
	mov	eax, DWORD PTR __File$[ebp]
	movsx	ecx, BYTE PTR __Byte$[ebp]
	push	eax
	push	ecx
	call	DWORD PTR __imp__fputc
	xor	edx, edx
	add	esp, 8
	cmp	eax, -1
	setne	al
; Line 82
	pop	ebp
	ret	0
??$_Fputc@D@std@@YA_NDPAU_iobuf@@@Z ENDP		; std::_Fputc<char>
_TEXT	ENDS
PUBLIC	??$_Ungetc@D@std@@YA_NABDPAU_iobuf@@@Z		; std::_Ungetc<char>
EXTRN	__imp__ungetc:PROC
; Function compile flags: /Ogtp
;	COMDAT ??$_Ungetc@D@std@@YA_NABDPAU_iobuf@@@Z
_TEXT	SEGMENT
__Byte$ = 8						; size = 4
__File$ = 12						; size = 4
??$_Ungetc@D@std@@YA_NABDPAU_iobuf@@@Z PROC		; std::_Ungetc<char>, COMDAT
; Line 104
	push	ebp
	mov	ebp, esp
; Line 105
	mov	ecx, DWORD PTR __Byte$[ebp]
	mov	eax, DWORD PTR __File$[ebp]
	movzx	edx, BYTE PTR [ecx]
	push	eax
	push	edx
	call	DWORD PTR __imp__ungetc
	xor	ecx, ecx
	add	esp, 8
	cmp	eax, -1
	setne	al
; Line 106
	pop	ebp
	ret	0
??$_Ungetc@D@std@@YA_NABDPAU_iobuf@@@Z ENDP		; std::_Ungetc<char>
_TEXT	ENDS
EXTRN	__imp___lock_file:PROC
; Function compile flags: /Ogtp
;	COMDAT ?_Lock@?$basic_filebuf@DU?$char_traits@D@std@@@std@@UAEXXZ
_TEXT	SEGMENT
?_Lock@?$basic_filebuf@DU?$char_traits@D@std@@@std@@UAEXXZ PROC ; std::basic_filebuf<char,std::char_traits<char> >::_Lock, COMDAT
; _this$ = ecx
; Line 309
	mov	eax, DWORD PTR [ecx+84]
	test	eax, eax
	je	SHORT $LN1@Lock
; Line 310
	push	eax
	call	DWORD PTR __imp___lock_file
	pop	ecx
$LN1@Lock:
; Line 311
	ret	0
?_Lock@?$basic_filebuf@DU?$char_traits@D@std@@@std@@UAEXXZ ENDP ; std::basic_filebuf<char,std::char_traits<char> >::_Lock
_TEXT	ENDS
EXTRN	__imp___unlock_file:PROC
; Function compile flags: /Ogtp
;	COMDAT ?_Unlock@?$basic_filebuf@DU?$char_traits@D@std@@@std@@UAEXXZ
_TEXT	SEGMENT
?_Unlock@?$basic_filebuf@DU?$char_traits@D@std@@@std@@UAEXXZ PROC ; std::basic_filebuf<char,std::char_traits<char> >::_Unlock, COMDAT
; _this$ = ecx
; Line 315
	mov	eax, DWORD PTR [ecx+84]
	test	eax, eax
	je	SHORT $LN1@Unlock
; Line 316
	push	eax
	call	DWORD PTR __imp___unlock_file
	pop	ecx
$LN1@Unlock:
; Line 317
	ret	0
?_Unlock@?$basic_filebuf@DU?$char_traits@D@std@@@std@@UAEXXZ ENDP ; std::basic_filebuf<char,std::char_traits<char> >::_Unlock
; Function compile flags: /Ogtp
_TEXT	ENDS
;	COMDAT ?underflow@?$basic_filebuf@DU?$char_traits@D@std@@@std@@MAEHXZ
_TEXT	SEGMENT
?underflow@?$basic_filebuf@DU?$char_traits@D@std@@@std@@MAEHXZ PROC ; std::basic_filebuf<char,std::char_traits<char> >::underflow, COMDAT
; _this$ = ecx
; Line 408
	push	esi
	mov	esi, ecx
; Line 411
	mov	eax, DWORD PTR [esi+32]
	mov	ecx, DWORD PTR [eax]
	test	ecx, ecx
	je	SHORT $LN4@underflow
	mov	edx, DWORD PTR [esi+48]
	mov	edx, DWORD PTR [edx]
	mov	eax, ecx
	add	edx, eax
	cmp	eax, edx
	jae	SHORT $LN4@underflow
; Line 412
	movzx	eax, BYTE PTR [ecx]
	pop	esi
; Line 420
	ret	0
$LN4@underflow:
; Line 413
	mov	eax, DWORD PTR [esi]
	mov	edx, DWORD PTR [eax+28]
	push	edi
	mov	ecx, esi
	call	edx
	mov	edi, eax
	cmp	edi, -1
	jne	SHORT $LN2@underflow
; Line 414
	pop	edi
	or	eax, eax
	pop	esi
; Line 420
	ret	0
$LN2@underflow:
; Line 417
	mov	eax, DWORD PTR [esi]
	mov	edx, DWORD PTR [eax+16]
	push	edi
	mov	ecx, esi
	call	edx
; Line 418
	mov	eax, edi
	pop	edi
	pop	esi
; Line 420
	ret	0
?underflow@?$basic_filebuf@DU?$char_traits@D@std@@@std@@MAEHXZ ENDP ; std::basic_filebuf<char,std::char_traits<char> >::underflow
_TEXT	ENDS
EXTRN	__imp__fflush:PROC
; Function compile flags: /Ogtp
;	COMDAT ?sync@?$basic_filebuf@DU?$char_traits@D@std@@@std@@MAEHXZ
_TEXT	SEGMENT
?sync@?$basic_filebuf@DU?$char_traits@D@std@@@std@@MAEHXZ PROC ; std::basic_filebuf<char,std::char_traits<char> >::sync, COMDAT
; _this$ = ecx
; Line 543
	push	esi
	mov	esi, ecx
; Line 546
	cmp	DWORD PTR [esi+84], 0
	je	SHORT $LN3@sync
	mov	eax, DWORD PTR [esi]
	mov	edx, DWORD PTR [eax+12]
	push	-1
	call	edx
	cmp	eax, -1
	je	SHORT $LN3@sync
	mov	eax, DWORD PTR [esi+84]
	push	eax
	call	DWORD PTR __imp__fflush
	add	esp, 4
	test	eax, eax
	jns	SHORT $LN3@sync
	or	eax, -1
	pop	esi
; Line 547
	ret	0
$LN3@sync:
; Line 546
	xor	eax, eax
	pop	esi
; Line 547
	ret	0
?sync@?$basic_filebuf@DU?$char_traits@D@std@@@std@@MAEHXZ ENDP ; std::basic_filebuf<char,std::char_traits<char> >::sync
_TEXT	ENDS
PUBLIC	?_Set_back@?$basic_filebuf@DU?$char_traits@D@std@@@std@@AAEXXZ ; std::basic_filebuf<char,std::char_traits<char> >::_Set_back
; Function compile flags: /Ogtp
;	COMDAT ?_Set_back@?$basic_filebuf@DU?$char_traits@D@std@@@std@@AAEXXZ
_TEXT	SEGMENT
?_Set_back@?$basic_filebuf@DU?$char_traits@D@std@@@std@@AAEXXZ PROC ; std::basic_filebuf<char,std::char_traits<char> >::_Set_back, COMDAT
; _this$ = ecx
; Line 647
	mov	edx, DWORD PTR [ecx+16]
	push	esi
	mov	esi, DWORD PTR [edx]
	lea	eax, DWORD PTR [ecx+72]
	cmp	esi, eax
	je	SHORT $LN1@Set_back
; Line 649
	mov	DWORD PTR [ecx+60], esi
; Line 650
	mov	esi, DWORD PTR [ecx+48]
	mov	esi, DWORD PTR [esi]
	push	edi
	mov	edi, DWORD PTR [ecx+32]
	add	esi, DWORD PTR [edi]
	pop	edi
	mov	DWORD PTR [ecx+64], esi
$LN1@Set_back:
; Line 652
	mov	DWORD PTR [edx], eax
	mov	edx, DWORD PTR [ecx+32]
	mov	DWORD PTR [edx], eax
	mov	edx, ecx
	sub	edx, eax
	mov	eax, DWORD PTR [ecx+48]
	add	edx, 73					; 00000049H
	mov	DWORD PTR [eax], edx
	pop	esi
; Line 653
	ret	0
?_Set_back@?$basic_filebuf@DU?$char_traits@D@std@@@std@@AAEXXZ ENDP ; std::basic_filebuf<char,std::char_traits<char> >::_Set_back
_TEXT	ENDS
PUBLIC	??0?$fpos@H@std@@QAE@_J@Z			; std::fpos<int>::fpos<int>
; Function compile flags: /Ogtp
;	COMDAT ??0?$fpos@H@std@@QAE@_J@Z
_TEXT	SEGMENT
__Off$ = 8						; size = 8
??0?$fpos@H@std@@QAE@_J@Z PROC				; std::fpos<int>::fpos<int>, COMDAT
; _this$ = ecx
; File c:\program files (x86)\microsoft visual studio 10.0\vc\include\iosfwd
; Line 40
	push	ebp
	mov	ebp, esp
	mov	edx, DWORD PTR __Off$[ebp+4]
	mov	eax, ecx
	mov	ecx, DWORD PTR __Off$[ebp]
	mov	DWORD PTR [eax], ecx
	xor	ecx, ecx
	mov	DWORD PTR [eax+4], edx
	mov	DWORD PTR [eax+8], ecx
	mov	DWORD PTR [eax+12], ecx
	mov	DWORD PTR [eax+16], ecx
; Line 41
	pop	ebp
	ret	8
??0?$fpos@H@std@@QAE@_J@Z ENDP				; std::fpos<int>::fpos<int>
_TEXT	ENDS
PUBLIC	??0?$fpos@H@std@@QAE@H_J@Z			; std::fpos<int>::fpos<int>
; Function compile flags: /Ogtp
;	COMDAT ??0?$fpos@H@std@@QAE@H_J@Z
_TEXT	SEGMENT
__State$ = 8						; size = 4
__Fileposition$ = 12					; size = 8
??0?$fpos@H@std@@QAE@H_J@Z PROC				; std::fpos<int>::fpos<int>, COMDAT
; _this$ = ecx
; Line 45
	push	ebp
	mov	ebp, esp
	mov	edx, DWORD PTR __Fileposition$[ebp+4]
	mov	eax, ecx
	mov	ecx, DWORD PTR __Fileposition$[ebp]
	mov	DWORD PTR [eax+8], ecx
	mov	ecx, DWORD PTR __State$[ebp]
	mov	DWORD PTR [eax], 0
	mov	DWORD PTR [eax+4], 0
	mov	DWORD PTR [eax+12], edx
	mov	DWORD PTR [eax+16], ecx
; Line 46
	pop	ebp
	ret	12					; 0000000cH
??0?$fpos@H@std@@QAE@H_J@Z ENDP				; std::fpos<int>::fpos<int>
_TEXT	ENDS
PUBLIC	?state@?$fpos@H@std@@QBEHXZ			; std::fpos<int>::state
; Function compile flags: /Ogtp
;	COMDAT ?state@?$fpos@H@std@@QBEHXZ
_TEXT	SEGMENT
?state@?$fpos@H@std@@QBEHXZ PROC			; std::fpos<int>::state, COMDAT
; _this$ = ecx
; Line 50
	mov	eax, DWORD PTR [ecx+16]
; Line 51
	ret	0
?state@?$fpos@H@std@@QBEHXZ ENDP			; std::fpos<int>::state
_TEXT	ENDS
PUBLIC	?seekpos@?$fpos@H@std@@QBE_JXZ			; std::fpos<int>::seekpos
; Function compile flags: /Ogtp
;	COMDAT ?seekpos@?$fpos@H@std@@QBE_JXZ
_TEXT	SEGMENT
?seekpos@?$fpos@H@std@@QBE_JXZ PROC			; std::fpos<int>::seekpos, COMDAT
; _this$ = ecx
; Line 60
	mov	eax, DWORD PTR [ecx+8]
	mov	edx, DWORD PTR [ecx+12]
; Line 61
	ret	0
?seekpos@?$fpos@H@std@@QBE_JXZ ENDP			; std::fpos<int>::seekpos
_TEXT	ENDS
PUBLIC	??B?$fpos@H@std@@QBE_JXZ			; std::fpos<int>::operator __int64
; Function compile flags: /Ogtp
;	COMDAT ??B?$fpos@H@std@@QBE_JXZ
_TEXT	SEGMENT
??B?$fpos@H@std@@QBE_JXZ PROC				; std::fpos<int>::operator __int64, COMDAT
; _this$ = ecx
; Line 65
	mov	eax, DWORD PTR [ecx+8]
	cdq
	add	eax, DWORD PTR [ecx]
	adc	edx, DWORD PTR [ecx+4]
; Line 66
	ret	0
??B?$fpos@H@std@@QBE_JXZ ENDP				; std::fpos<int>::operator __int64
_TEXT	ENDS
PUBLIC	?not_eof@?$char_traits@D@std@@SAHABH@Z		; std::char_traits<char>::not_eof
; Function compile flags: /Ogtp
;	COMDAT ?not_eof@?$char_traits@D@std@@SAHABH@Z
_TEXT	SEGMENT
__Meta$ = 8						; size = 4
?not_eof@?$char_traits@D@std@@SAHABH@Z PROC		; std::char_traits<char>::not_eof, COMDAT
; Line 557
	push	ebp
	mov	ebp, esp
; Line 558
	mov	eax, DWORD PTR __Meta$[ebp]
	mov	ecx, DWORD PTR [eax]
	lea	eax, DWORD PTR [ecx+1]
	neg	eax
	sbb	eax, eax
	and	eax, ecx
; Line 559
	pop	ebp
	ret	0
?not_eof@?$char_traits@D@std@@SAHABH@Z ENDP		; std::char_traits<char>::not_eof
; Function compile flags: /Ogtp
_TEXT	ENDS
;	COMDAT ?pbackfail@?$basic_filebuf@DU?$char_traits@D@std@@@std@@MAEHH@Z
_TEXT	SEGMENT
__Meta$ = 8						; size = 4
?pbackfail@?$basic_filebuf@DU?$char_traits@D@std@@@std@@MAEHH@Z PROC ; std::basic_filebuf<char,std::char_traits<char> >::pbackfail, COMDAT
; _this$ = ecx
; File c:\program files (x86)\microsoft visual studio 10.0\vc\include\fstream
; Line 383
	push	ebp
	mov	ebp, esp
	push	ebx
; Line 388
	mov	ebx, DWORD PTR __Meta$[ebp]
	push	esi
	mov	esi, ecx
	mov	eax, DWORD PTR [esi+32]
	mov	eax, DWORD PTR [eax]
	test	eax, eax
	je	SHORT $LN10@pbackfail
	mov	ecx, DWORD PTR [esi+16]
	cmp	DWORD PTR [ecx], eax
	jae	SHORT $LN10@pbackfail
	cmp	ebx, -1
	je	SHORT $LN9@pbackfail
	movzx	edx, BYTE PTR [eax-1]
	cmp	edx, ebx
	jne	SHORT $LN10@pbackfail
$LN9@pbackfail:
; Line 390
	mov	eax, DWORD PTR [esi+48]
	inc	DWORD PTR [eax]
	mov	esi, DWORD PTR [esi+32]
	dec	DWORD PTR [esi]
; Line 391
	lea	eax, DWORD PTR [ebx+1]
	neg	eax
	sbb	eax, eax
	pop	esi
	and	eax, ebx
	pop	ebx
; Line 405
	pop	ebp
	ret	4
$LN10@pbackfail:
; Line 393
	mov	eax, DWORD PTR [esi+84]
	test	eax, eax
	je	SHORT $LN6@pbackfail
	cmp	ebx, -1
	je	SHORT $LN6@pbackfail
; Line 395
	cmp	DWORD PTR [esi+68], 0
	jne	SHORT $LN4@pbackfail
	push	eax
	movzx	eax, bl
	push	eax
	call	DWORD PTR __imp__ungetc
	add	esp, 8
	cmp	eax, -1
; Line 396
	jne	SHORT $LN55@pbackfail
$LN4@pbackfail:
; Line 397
	mov	ecx, DWORD PTR [esi+32]
	lea	eax, DWORD PTR [esi+72]
	cmp	DWORD PTR [ecx], eax
	je	SHORT $LN6@pbackfail
; Line 400
	mov	ecx, esi
	mov	BYTE PTR [eax], bl
	call	?_Set_back@?$basic_filebuf@DU?$char_traits@D@std@@@std@@AAEXXZ ; std::basic_filebuf<char,std::char_traits<char> >::_Set_back
$LN55@pbackfail:
; Line 401
	pop	esi
	mov	eax, ebx
	pop	ebx
; Line 405
	pop	ebp
	ret	4
$LN6@pbackfail:
	pop	esi
; Line 394
	or	eax, -1
	pop	ebx
; Line 405
	pop	ebp
	ret	4
?pbackfail@?$basic_filebuf@DU?$char_traits@D@std@@@std@@MAEHH@Z ENDP ; std::basic_filebuf<char,std::char_traits<char> >::pbackfail
_TEXT	ENDS
EXTRN	__imp__setvbuf:PROC
; Function compile flags: /Ogtp
;	COMDAT ?setbuf@?$basic_filebuf@DU?$char_traits@D@std@@@std@@MAEPAV?$basic_streambuf@DU?$char_traits@D@std@@@2@PAD_J@Z
_TEXT	SEGMENT
__Buffer$ = 8						; size = 4
__Count$ = 12						; size = 8
?setbuf@?$basic_filebuf@DU?$char_traits@D@std@@@std@@MAEPAV?$basic_streambuf@DU?$char_traits@D@std@@@2@PAD_J@Z PROC ; std::basic_filebuf<char,std::char_traits<char> >::setbuf, COMDAT
; _this$ = ecx
; Line 530
	push	ebp
	mov	ebp, esp
	push	esi
	mov	esi, ecx
; Line 533
	mov	ecx, DWORD PTR [esi+84]
	push	edi
	test	ecx, ecx
	je	SHORT $LN2@setbuf
	mov	edx, DWORD PTR __Buffer$[ebp]
	mov	edi, DWORD PTR __Count$[ebp]
	test	edx, edx
	jne	SHORT $LN6@setbuf
	mov	eax, edi
	or	eax, DWORD PTR __Count$[ebp+4]
	jne	SHORT $LN6@setbuf
	mov	eax, 4
	jmp	SHORT $LN7@setbuf
$LN6@setbuf:
	xor	eax, eax
$LN7@setbuf:
	push	edi
	push	eax
	push	edx
	push	ecx
	call	DWORD PTR __imp__setvbuf
	add	esp, 16					; 00000010H
	test	eax, eax
	jne	SHORT $LN2@setbuf
; Line 537
	mov	edi, DWORD PTR [esi+84]
	mov	ecx, esi
	mov	BYTE PTR [esi+80], 1
	mov	BYTE PTR [esi+73], al
	call	DWORD PTR __imp_?_Init@?$basic_streambuf@DU?$char_traits@D@std@@@std@@IAEXXZ
	test	edi, edi
	je	SHORT $LN17@setbuf
	lea	eax, DWORD PTR [edi+8]
	mov	DWORD PTR [esi+16], eax
	mov	DWORD PTR [esi+20], eax
	lea	eax, DWORD PTR [edi+4]
	mov	DWORD PTR [esi+32], edi
	mov	DWORD PTR [esi+36], edi
	mov	DWORD PTR [esi+48], eax
	mov	DWORD PTR [esi+52], eax
$LN17@setbuf:
	mov	DWORD PTR [esi+84], edi
	mov	ecx, DWORD PTR ?_Stinit@?1??_Init@?$basic_filebuf@DU?$char_traits@D@std@@@std@@IAEXPAU_iobuf@@W4_Initfl@23@@Z@4HA
	pop	edi
	mov	DWORD PTR [esi+76], ecx
	mov	DWORD PTR [esi+68], 0
; Line 538
	mov	eax, esi
	pop	esi
; Line 540
	pop	ebp
	ret	12					; 0000000cH
$LN2@setbuf:
	pop	edi
; Line 534
	xor	eax, eax
	pop	esi
; Line 540
	pop	ebp
	ret	12					; 0000000cH
?setbuf@?$basic_filebuf@DU?$char_traits@D@std@@@std@@MAEPAV?$basic_streambuf@DU?$char_traits@D@std@@@2@PAD_J@Z ENDP ; std::basic_filebuf<char,std::char_traits<char> >::setbuf
; Function compile flags: /Ogtp
_TEXT	ENDS
;	COMDAT ?imbue@?$basic_filebuf@DU?$char_traits@D@std@@@std@@MAEXABVlocale@2@@Z
_TEXT	SEGMENT
__Loc$ = 8						; size = 4
?imbue@?$basic_filebuf@DU?$char_traits@D@std@@@std@@MAEXABVlocale@2@@Z PROC ; std::basic_filebuf<char,std::char_traits<char> >::imbue, COMDAT
; _this$ = ecx
; Line 550
	push	ebp
	mov	ebp, esp
; Line 551
	mov	eax, DWORD PTR __Loc$[ebp]
	push	esi
	push	edi
	push	eax
	mov	esi, ecx
	call	??$use_facet@V?$codecvt@DDH@std@@@std@@YAABV?$codecvt@DDH@0@ABVlocale@0@@Z ; std::use_facet<std::codecvt<char,char,int> >
	mov	edi, eax
	add	esp, 4
	mov	ecx, edi
	call	DWORD PTR __imp_?always_noconv@codecvt_base@std@@QBE_NXZ
	test	al, al
	je	SHORT $LN4@imbue
	pop	edi
	mov	DWORD PTR [esi+68], 0
	pop	esi
; Line 552
	pop	ebp
	ret	4
; Line 551
$LN4@imbue:
	mov	ecx, esi
	mov	DWORD PTR [esi+68], edi
	call	DWORD PTR __imp_?_Init@?$basic_streambuf@DU?$char_traits@D@std@@@std@@IAEXXZ
	pop	edi
	pop	esi
; Line 552
	pop	ebp
	ret	4
?imbue@?$basic_filebuf@DU?$char_traits@D@std@@@std@@MAEXABVlocale@2@@Z ENDP ; std::basic_filebuf<char,std::char_traits<char> >::imbue
_TEXT	ENDS
PUBLIC	?open@?$basic_filebuf@DU?$char_traits@D@std@@@std@@QAEPAV12@PBDHH@Z ; std::basic_filebuf<char,std::char_traits<char> >::open
EXTRN	__imp_?getloc@?$basic_streambuf@DU?$char_traits@D@std@@@std@@QBE?AVlocale@2@XZ:PROC
EXTRN	__imp_?_Fiopen@std@@YAPAU_iobuf@@PBDHH@Z:PROC
;	COMDAT xdata$x
; File c:\program files (x86)\microsoft visual studio 10.0\vc\include\xlocale
xdata$x	SEGMENT
__unwindtable$?open@?$basic_filebuf@DU?$char_traits@D@std@@@std@@QAEPAV12@PBDHH@Z DD 0ffffffffH
	DD	FLAT:__unwindfunclet$?open@?$basic_filebuf@DU?$char_traits@D@std@@@std@@QAEPAV12@PBDHH@Z$0
__ehfuncinfo$?open@?$basic_filebuf@DU?$char_traits@D@std@@@std@@QAEPAV12@PBDHH@Z DD 019930522H
	DD	01H
	DD	FLAT:__unwindtable$?open@?$basic_filebuf@DU?$char_traits@D@std@@@std@@QAEPAV12@PBDHH@Z
	DD	2 DUP(00H)
	DD	2 DUP(00H)
	DD	00H
	DD	01H
; Function compile flags: /Ogtp
xdata$x	ENDS
;	COMDAT ?open@?$basic_filebuf@DU?$char_traits@D@std@@@std@@QAEPAV12@PBDHH@Z
_TEXT	SEGMENT
__$EHRec$ = -12						; size = 12
__Filename$ = 8						; size = 4
__Mode$ = 12						; size = 4
$T135472 = 16						; size = 4
__Prot$ = 16						; size = 4
?open@?$basic_filebuf@DU?$char_traits@D@std@@@std@@QAEPAV12@PBDHH@Z PROC ; std::basic_filebuf<char,std::char_traits<char> >::open, COMDAT
; _this$ = ecx
; File c:\program files (x86)\microsoft visual studio 10.0\vc\include\fstream
; Line 218
	push	ebp
	mov	ebp, esp
	push	-1
	push	__ehhandler$?open@?$basic_filebuf@DU?$char_traits@D@std@@@std@@QAEPAV12@PBDHH@Z
	mov	eax, DWORD PTR fs:0
	push	eax
	push	ebx
	push	esi
	push	edi
	mov	eax, DWORD PTR ___security_cookie
	xor	eax, ebp
	push	eax
	lea	eax, DWORD PTR __$EHRec$[ebp]
	mov	DWORD PTR fs:0, eax
	mov	esi, ecx
; Line 220
	xor	ebx, ebx
	cmp	DWORD PTR [esi+84], ebx
	jne	$LN1@open
	mov	eax, DWORD PTR __Prot$[ebp]
	mov	ecx, DWORD PTR __Mode$[ebp]
	mov	edx, DWORD PTR __Filename$[ebp]
	push	eax
	push	ecx
	push	edx
	call	DWORD PTR __imp_?_Fiopen@std@@YAPAU_iobuf@@PBDHH@Z
	mov	edi, eax
	add	esp, 12					; 0000000cH
	cmp	edi, ebx
	je	$LN1@open
; Line 223
	mov	ecx, esi
	mov	BYTE PTR [esi+80], 1
	mov	BYTE PTR [esi+73], bl
	call	DWORD PTR __imp_?_Init@?$basic_streambuf@DU?$char_traits@D@std@@@std@@IAEXXZ
	lea	ecx, DWORD PTR [edi+4]
	mov	DWORD PTR [esi+48], ecx
	mov	DWORD PTR [esi+52], ecx
	lea	eax, DWORD PTR [edi+8]
; Line 224
	lea	ecx, DWORD PTR $T135472[ebp]
	mov	DWORD PTR [esi+16], eax
	mov	DWORD PTR [esi+20], eax
	mov	DWORD PTR [esi+32], edi
	mov	DWORD PTR [esi+36], edi
	mov	DWORD PTR [esi+84], edi
	mov	eax, DWORD PTR ?_Stinit@?1??_Init@?$basic_filebuf@DU?$char_traits@D@std@@@std@@IAEXPAU_iobuf@@W4_Initfl@23@@Z@4HA
	push	ecx
	mov	ecx, esi
	mov	DWORD PTR [esi+76], eax
	mov	DWORD PTR [esi+68], ebx
	call	DWORD PTR __imp_?getloc@?$basic_streambuf@DU?$char_traits@D@std@@@std@@QBE?AVlocale@2@XZ
	push	eax
	mov	DWORD PTR __$EHRec$[ebp+8], ebx
	call	??$use_facet@V?$codecvt@DDH@std@@@std@@YAABV?$codecvt@DDH@0@ABVlocale@0@@Z ; std::use_facet<std::codecvt<char,char,int> >
	mov	edi, eax
	add	esp, 4
	mov	ecx, edi
	call	DWORD PTR __imp_?always_noconv@codecvt_base@std@@QBE_NXZ
	test	al, al
	je	SHORT $LN18@open
	mov	DWORD PTR [esi+68], ebx
	jmp	SHORT $LN17@open
$LN18@open:
	mov	ecx, esi
	mov	DWORD PTR [esi+68], edi
	call	DWORD PTR __imp_?_Init@?$basic_streambuf@DU?$char_traits@D@std@@@std@@IAEXXZ
$LN17@open:
	mov	ecx, DWORD PTR $T135472[ebp]
	mov	DWORD PTR __$EHRec$[ebp+8], -1
	cmp	ecx, ebx
	je	SHORT $LN30@open
	call	DWORD PTR __imp_?_Decref@facet@locale@std@@QAEPAV123@XZ
	cmp	eax, ebx
	je	SHORT $LN30@open
	mov	edx, DWORD PTR [eax]
	mov	ecx, eax
	mov	eax, DWORD PTR [edx]
	push	1
	call	eax
$LN30@open:
; Line 225
	mov	eax, esi
; Line 226
	mov	ecx, DWORD PTR __$EHRec$[ebp]
	mov	DWORD PTR fs:0, ecx
	pop	ecx
	pop	edi
	pop	esi
	pop	ebx
	mov	esp, ebp
	pop	ebp
	ret	12					; 0000000cH
$LN1@open:
; Line 221
	xor	eax, eax
; Line 226
	mov	ecx, DWORD PTR __$EHRec$[ebp]
	mov	DWORD PTR fs:0, ecx
	pop	ecx
	pop	edi
	pop	esi
	pop	ebx
	mov	esp, ebp
	pop	ebp
	ret	12					; 0000000cH
_TEXT	ENDS
;	COMDAT text$x
text$x	SEGMENT
__unwindfunclet$?open@?$basic_filebuf@DU?$char_traits@D@std@@@std@@QAEPAV12@PBDHH@Z$0:
	lea	ecx, DWORD PTR $T135472[ebp]
	jmp	??1locale@std@@QAE@XZ			; std::locale::~locale
__ehhandler$?open@?$basic_filebuf@DU?$char_traits@D@std@@@std@@QAEPAV12@PBDHH@Z:
	mov	edx, DWORD PTR [esp+8]
	lea	eax, DWORD PTR [edx+12]
	mov	ecx, DWORD PTR [edx-16]
	xor	ecx, eax
	call	@__security_check_cookie@4
	mov	eax, OFFSET __ehfuncinfo$?open@?$basic_filebuf@DU?$char_traits@D@std@@@std@@QAEPAV12@PBDHH@Z
	jmp	___CxxFrameHandler3
text$x	ENDS
?open@?$basic_filebuf@DU?$char_traits@D@std@@@std@@QAEPAV12@PBDHH@Z ENDP ; std::basic_filebuf<char,std::char_traits<char> >::open
PUBLIC	??D?$_String_iterator@DU?$char_traits@D@std@@V?$allocator@D@2@@std@@QBEAADXZ ; std::_String_iterator<char,std::char_traits<char>,std::allocator<char> >::operator*
; Function compile flags: /Ogtp
;	COMDAT ??D?$_String_iterator@DU?$char_traits@D@std@@V?$allocator@D@2@@std@@QBEAADXZ
_TEXT	SEGMENT
??D?$_String_iterator@DU?$char_traits@D@std@@V?$allocator@D@2@@std@@QBEAADXZ PROC ; std::_String_iterator<char,std::char_traits<char>,std::allocator<char> >::operator*, COMDAT
; _this$ = ecx
; File c:\program files (x86)\microsoft visual studio 10.0\vc\include\xstring
; Line 343
	mov	eax, DWORD PTR [ecx]
; Line 344
	ret	0
??D?$_String_iterator@DU?$char_traits@D@std@@V?$allocator@D@2@@std@@QBEAADXZ ENDP ; std::_String_iterator<char,std::char_traits<char>,std::allocator<char> >::operator*
_TEXT	ENDS
PUBLIC	?_Chassign@?$basic_string@DU?$char_traits@D@std@@V?$allocator@D@2@@std@@QAEXIID@Z ; std::basic_string<char,std::char_traits<char>,std::allocator<char> >::_Chassign
; Function compile flags: /Ogtp
;	COMDAT ?_Chassign@?$basic_string@DU?$char_traits@D@std@@V?$allocator@D@2@@std@@QAEXIID@Z
_TEXT	SEGMENT
__Off$ = 8						; size = 4
__Count$ = 12						; size = 4
__Ch$ = 16						; size = 1
?_Chassign@?$basic_string@DU?$char_traits@D@std@@V?$allocator@D@2@@std@@QAEXIID@Z PROC ; std::basic_string<char,std::char_traits<char>,std::allocator<char> >::_Chassign, COMDAT
; _this$ = ecx
; Line 1910
	push	ebp
	mov	ebp, esp
; Line 1911
	mov	eax, DWORD PTR __Count$[ebp]
	cmp	eax, 1
	jne	SHORT $LN2@Chassign
; Line 1912
	cmp	DWORD PTR [ecx+20], 16			; 00000010H
	jb	SHORT $LN7@Chassign
	mov	ecx, DWORD PTR [ecx]
$LN7@Chassign:
	mov	al, BYTE PTR __Ch$[ebp]
	mov	edx, DWORD PTR __Off$[ebp]
	mov	BYTE PTR [ecx+edx], al
; Line 1915
	pop	ebp
	ret	12					; 0000000cH
$LN2@Chassign:
; Line 1914
	cmp	DWORD PTR [ecx+20], 16			; 00000010H
	jb	SHORT $LN13@Chassign
	mov	ecx, DWORD PTR [ecx]
$LN13@Chassign:
	add	ecx, DWORD PTR __Off$[ebp]
	push	eax
	movsx	eax, BYTE PTR __Ch$[ebp]
	push	eax
	push	ecx
	call	_memset
	add	esp, 12					; 0000000cH
; Line 1915
	pop	ebp
	ret	12					; 0000000cH
?_Chassign@?$basic_string@DU?$char_traits@D@std@@V?$allocator@D@2@@std@@QAEXIID@Z ENDP ; std::basic_string<char,std::char_traits<char>,std::allocator<char> >::_Chassign
_TEXT	ENDS
PUBLIC	?_Eos@?$basic_string@DU?$char_traits@D@std@@V?$allocator@D@2@@std@@QAEXI@Z ; std::basic_string<char,std::char_traits<char>,std::allocator<char> >::_Eos
; Function compile flags: /Ogtp
;	COMDAT ?_Eos@?$basic_string@DU?$char_traits@D@std@@V?$allocator@D@2@@std@@QAEXI@Z
_TEXT	SEGMENT
__Newsize$ = 8						; size = 4
?_Eos@?$basic_string@DU?$char_traits@D@std@@V?$allocator@D@2@@std@@QAEXI@Z PROC ; std::basic_string<char,std::char_traits<char>,std::allocator<char> >::_Eos, COMDAT
; _this$ = ecx
; Line 1952
	push	ebp
	mov	ebp, esp
; Line 1953
	cmp	DWORD PTR [ecx+20], 16			; 00000010H
	mov	eax, DWORD PTR __Newsize$[ebp]
	mov	DWORD PTR [ecx+16], eax
	jb	SHORT $LN5@Eos
	mov	ecx, DWORD PTR [ecx]
$LN5@Eos:
	mov	BYTE PTR [ecx+eax], 0
; Line 1954
	pop	ebp
	ret	4
?_Eos@?$basic_string@DU?$char_traits@D@std@@V?$allocator@D@2@@std@@QAEXI@Z ENDP ; std::basic_string<char,std::char_traits<char>,std::allocator<char> >::_Eos
_TEXT	ENDS
PUBLIC	?_Inside@?$basic_string@DU?$char_traits@D@std@@V?$allocator@D@2@@std@@QAE_NPBD@Z ; std::basic_string<char,std::char_traits<char>,std::allocator<char> >::_Inside
; Function compile flags: /Ogtp
;	COMDAT ?_Inside@?$basic_string@DU?$char_traits@D@std@@V?$allocator@D@2@@std@@QAE_NPBD@Z
_TEXT	SEGMENT
__Ptr$ = 8						; size = 4
?_Inside@?$basic_string@DU?$char_traits@D@std@@V?$allocator@D@2@@std@@QAE_NPBD@Z PROC ; std::basic_string<char,std::char_traits<char>,std::allocator<char> >::_Inside, COMDAT
; _this$ = ecx
; Line 1972
	push	ebp
	mov	ebp, esp
	push	esi
; Line 1973
	mov	esi, DWORD PTR __Ptr$[ebp]
	test	esi, esi
	je	SHORT $LN2@Inside@4
	mov	edx, DWORD PTR [ecx+20]
	cmp	edx, 16					; 00000010H
	jb	SHORT $LN8@Inside@4
	mov	eax, DWORD PTR [ecx]
	jmp	SHORT $LN9@Inside@4
$LN8@Inside@4:
	mov	eax, ecx
$LN9@Inside@4:
	cmp	esi, eax
	jb	SHORT $LN2@Inside@4
	cmp	edx, 16					; 00000010H
	jb	SHORT $LN12@Inside@4
	mov	eax, DWORD PTR [ecx]
	jmp	SHORT $LN13@Inside@4
$LN12@Inside@4:
	mov	eax, ecx
$LN13@Inside@4:
	mov	ecx, DWORD PTR [ecx+16]
	add	ecx, eax
	cmp	ecx, esi
	jbe	SHORT $LN2@Inside@4
; Line 1976
	mov	al, 1
	pop	esi
; Line 1977
	pop	ebp
	ret	4
$LN2@Inside@4:
; Line 1974
	xor	al, al
	pop	esi
; Line 1977
	pop	ebp
	ret	4
?_Inside@?$basic_string@DU?$char_traits@D@std@@V?$allocator@D@2@@std@@QAE_NPBD@Z ENDP ; std::basic_string<char,std::char_traits<char>,std::allocator<char> >::_Inside
_TEXT	ENDS
PUBLIC	?max_size@?$vector@PAVAppState@@V?$allocator@PAVAppState@@@std@@@std@@QBEIXZ ; std::vector<AppState *,std::allocator<AppState *> >::max_size
; Function compile flags: /Ogtp
;	COMDAT ?max_size@?$vector@PAVAppState@@V?$allocator@PAVAppState@@@std@@@std@@QBEIXZ
_TEXT	SEGMENT
?max_size@?$vector@PAVAppState@@V?$allocator@PAVAppState@@@std@@@std@@QBEIXZ PROC ; std::vector<AppState *,std::allocator<AppState *> >::max_size, COMDAT
; _this$ = ecx
; File c:\program files (x86)\microsoft visual studio 10.0\vc\include\vector
; Line 884
	mov	eax, 1073741823				; 3fffffffH
; Line 885
	ret	0
?max_size@?$vector@PAVAppState@@V?$allocator@PAVAppState@@@std@@@std@@QBEIXZ ENDP ; std::vector<AppState *,std::allocator<AppState *> >::max_size
_TEXT	ENDS
PUBLIC	?_Grow_to@?$vector@PAVAppState@@V?$allocator@PAVAppState@@@std@@@std@@IBEII@Z ; std::vector<AppState *,std::allocator<AppState *> >::_Grow_to
; Function compile flags: /Ogtp
;	COMDAT ?_Grow_to@?$vector@PAVAppState@@V?$allocator@PAVAppState@@@std@@@std@@IBEII@Z
_TEXT	SEGMENT
__Count$ = 8						; size = 4
?_Grow_to@?$vector@PAVAppState@@V?$allocator@PAVAppState@@@std@@@std@@IBEII@Z PROC ; std::vector<AppState *,std::allocator<AppState *> >::_Grow_to, COMDAT
; _this$ = ecx
; Line 1274
	push	ebp
	mov	ebp, esp
; Line 1275
	mov	eax, DWORD PTR [ecx+8]
	sub	eax, DWORD PTR [ecx]
; Line 1278
	mov	edx, 1073741823				; 3fffffffH
	sar	eax, 2
	mov	ecx, eax
	shr	ecx, 1
	sub	edx, ecx
	cmp	edx, eax
	jae	SHORT $LN4@Grow_to
	xor	eax, eax
	jmp	SHORT $LN5@Grow_to
$LN4@Grow_to:
	add	eax, ecx
$LN5@Grow_to:
; Line 1279
	mov	ecx, DWORD PTR __Count$[ebp]
	cmp	eax, ecx
	jae	SHORT $LN1@Grow_to
; Line 1281
	mov	eax, ecx
$LN1@Grow_to:
; Line 1282
	pop	ebp
	ret	4
?_Grow_to@?$vector@PAVAppState@@V?$allocator@PAVAppState@@@std@@@std@@IBEII@Z ENDP ; std::vector<AppState *,std::allocator<AppState *> >::_Grow_to
_TEXT	ENDS
PUBLIC	?max_size@?$vector@UMapEntry@@V?$allocator@UMapEntry@@@std@@@std@@QBEIXZ ; std::vector<MapEntry,std::allocator<MapEntry> >::max_size
; Function compile flags: /Ogtp
;	COMDAT ?max_size@?$vector@UMapEntry@@V?$allocator@UMapEntry@@@std@@@std@@QBEIXZ
_TEXT	SEGMENT
?max_size@?$vector@UMapEntry@@V?$allocator@UMapEntry@@@std@@@std@@QBEIXZ PROC ; std::vector<MapEntry,std::allocator<MapEntry> >::max_size, COMDAT
; _this$ = ecx
; Line 884
	mov	eax, 56512727				; 035e50d7H
; Line 885
	ret	0
?max_size@?$vector@UMapEntry@@V?$allocator@UMapEntry@@@std@@@std@@QBEIXZ ENDP ; std::vector<MapEntry,std::allocator<MapEntry> >::max_size
_TEXT	ENDS
PUBLIC	?_Grow_to@?$vector@UMapEntry@@V?$allocator@UMapEntry@@@std@@@std@@IBEII@Z ; std::vector<MapEntry,std::allocator<MapEntry> >::_Grow_to
; Function compile flags: /Ogtp
;	COMDAT ?_Grow_to@?$vector@UMapEntry@@V?$allocator@UMapEntry@@@std@@@std@@IBEII@Z
_TEXT	SEGMENT
__Count$ = 8						; size = 4
?_Grow_to@?$vector@UMapEntry@@V?$allocator@UMapEntry@@@std@@@std@@IBEII@Z PROC ; std::vector<MapEntry,std::allocator<MapEntry> >::_Grow_to, COMDAT
; _this$ = ecx
; Line 1274
	push	ebp
	mov	ebp, esp
; Line 1275
	mov	edx, DWORD PTR [ecx+8]
	sub	edx, DWORD PTR [ecx]
	mov	eax, 1808407283				; 6bca1af3H
	imul	edx
	sar	edx, 5
	mov	eax, edx
	shr	eax, 31					; 0000001fH
	add	eax, edx
; Line 1278
	mov	ecx, eax
	shr	ecx, 1
	mov	edx, 56512727				; 035e50d7H
	sub	edx, ecx
	cmp	edx, eax
	jae	SHORT $LN4@Grow_to@2
	xor	eax, eax
	jmp	SHORT $LN5@Grow_to@2
$LN4@Grow_to@2:
	add	eax, ecx
$LN5@Grow_to@2:
; Line 1279
	mov	ecx, DWORD PTR __Count$[ebp]
	cmp	eax, ecx
	jae	SHORT $LN1@Grow_to@2
; Line 1281
	mov	eax, ecx
$LN1@Grow_to@2:
; Line 1282
	pop	ebp
	ret	4
?_Grow_to@?$vector@UMapEntry@@V?$allocator@UMapEntry@@@std@@@std@@IBEII@Z ENDP ; std::vector<MapEntry,std::allocator<MapEntry> >::_Grow_to
_TEXT	ENDS
PUBLIC	?max_size@?$vector@UBookmark@@V?$allocator@UBookmark@@@std@@@std@@QBEIXZ ; std::vector<Bookmark,std::allocator<Bookmark> >::max_size
; Function compile flags: /Ogtp
;	COMDAT ?max_size@?$vector@UBookmark@@V?$allocator@UBookmark@@@std@@@std@@QBEIXZ
_TEXT	SEGMENT
?max_size@?$vector@UBookmark@@V?$allocator@UBookmark@@@std@@@std@@QBEIXZ PROC ; std::vector<Bookmark,std::allocator<Bookmark> >::max_size, COMDAT
; _this$ = ecx
; Line 884
	mov	eax, 35791394				; 02222222H
; Line 885
	ret	0
?max_size@?$vector@UBookmark@@V?$allocator@UBookmark@@@std@@@std@@QBEIXZ ENDP ; std::vector<Bookmark,std::allocator<Bookmark> >::max_size
_TEXT	ENDS
PUBLIC	?_Grow_to@?$vector@UBookmark@@V?$allocator@UBookmark@@@std@@@std@@IBEII@Z ; std::vector<Bookmark,std::allocator<Bookmark> >::_Grow_to
; Function compile flags: /Ogtp
;	COMDAT ?_Grow_to@?$vector@UBookmark@@V?$allocator@UBookmark@@@std@@@std@@IBEII@Z
_TEXT	SEGMENT
__Count$ = 8						; size = 4
?_Grow_to@?$vector@UBookmark@@V?$allocator@UBookmark@@@std@@@std@@IBEII@Z PROC ; std::vector<Bookmark,std::allocator<Bookmark> >::_Grow_to, COMDAT
; _this$ = ecx
; Line 1274
	push	ebp
	mov	ebp, esp
	push	esi
; Line 1275
	mov	esi, DWORD PTR [ecx+8]
	sub	esi, DWORD PTR [ecx]
	mov	eax, -2004318071			; 88888889H
	imul	esi
	add	edx, esi
	sar	edx, 6
	mov	eax, edx
	shr	eax, 31					; 0000001fH
	add	eax, edx
; Line 1278
	mov	ecx, eax
	shr	ecx, 1
	mov	edx, 35791394				; 02222222H
	sub	edx, ecx
	pop	esi
	cmp	edx, eax
	jae	SHORT $LN4@Grow_to@3
	xor	eax, eax
	jmp	SHORT $LN5@Grow_to@3
$LN4@Grow_to@3:
	add	eax, ecx
$LN5@Grow_to@3:
; Line 1279
	mov	ecx, DWORD PTR __Count$[ebp]
	cmp	eax, ecx
	jae	SHORT $LN1@Grow_to@3
; Line 1281
	mov	eax, ecx
$LN1@Grow_to@3:
; Line 1282
	pop	ebp
	ret	4
?_Grow_to@?$vector@UBookmark@@V?$allocator@UBookmark@@@std@@@std@@IBEII@Z ENDP ; std::vector<Bookmark,std::allocator<Bookmark> >::_Grow_to
_TEXT	ENDS
PUBLIC	??0?$_String_iterator@DU?$char_traits@D@std@@V?$allocator@D@2@@std@@QAE@PADPBU_Container_base0@1@@Z ; std::_String_iterator<char,std::char_traits<char>,std::allocator<char> >::_String_iterator<char,std::char_traits<char>,std::allocator<char> >
; Function compile flags: /Ogtp
;	COMDAT ??0?$_String_iterator@DU?$char_traits@D@std@@V?$allocator@D@2@@std@@QAE@PADPBU_Container_base0@1@@Z
_TEXT	SEGMENT
__Parg$ = 8						; size = 4
__Pstring$ = 12						; size = 4
??0?$_String_iterator@DU?$char_traits@D@std@@V?$allocator@D@2@@std@@QAE@PADPBU_Container_base0@1@@Z PROC ; std::_String_iterator<char,std::char_traits<char>,std::allocator<char> >::_String_iterator<char,std::char_traits<char>,std::allocator<char> >, COMDAT
; _this$ = ecx
; File c:\program files (x86)\microsoft visual studio 10.0\vc\include\xstring
; Line 325
	push	ebp
	mov	ebp, esp
	mov	eax, ecx
	mov	ecx, DWORD PTR __Parg$[ebp]
	mov	DWORD PTR [eax], ecx
; Line 326
	pop	ebp
	ret	8
??0?$_String_iterator@DU?$char_traits@D@std@@V?$allocator@D@2@@std@@QAE@PADPBU_Container_base0@1@@Z ENDP ; std::_String_iterator<char,std::char_traits<char>,std::allocator<char> >::_String_iterator<char,std::char_traits<char>,std::allocator<char> >
_TEXT	ENDS
PUBLIC	??0?$_Vector_iterator@V?$_Vector_val@UBookmark@@V?$allocator@UBookmark@@@std@@@std@@@std@@QAE@PAUBookmark@@PBU_Container_base0@1@@Z ; std::_Vector_iterator<std::_Vector_val<Bookmark,std::allocator<Bookmark> > >::_Vector_iterator<std::_Vector_val<Bookmark,std::allocator<Bookmark> > >
; Function compile flags: /Ogtp
;	COMDAT ??0?$_Vector_iterator@V?$_Vector_val@UBookmark@@V?$allocator@UBookmark@@@std@@@std@@@std@@QAE@PAUBookmark@@PBU_Container_base0@1@@Z
_TEXT	SEGMENT
__Parg$ = 8						; size = 4
__Pvector$ = 12						; size = 4
??0?$_Vector_iterator@V?$_Vector_val@UBookmark@@V?$allocator@UBookmark@@@std@@@std@@@std@@QAE@PAUBookmark@@PBU_Container_base0@1@@Z PROC ; std::_Vector_iterator<std::_Vector_val<Bookmark,std::allocator<Bookmark> > >::_Vector_iterator<std::_Vector_val<Bookmark,std::allocator<Bookmark> > >, COMDAT
; _this$ = ecx
; File c:\program files (x86)\microsoft visual studio 10.0\vc\include\vector
; Line 304
	push	ebp
	mov	ebp, esp
	mov	eax, ecx
	mov	ecx, DWORD PTR __Parg$[ebp]
	mov	DWORD PTR [eax], ecx
; Line 305
	pop	ebp
	ret	8
??0?$_Vector_iterator@V?$_Vector_val@UBookmark@@V?$allocator@UBookmark@@@std@@@std@@@std@@QAE@PAUBookmark@@PBU_Container_base0@1@@Z ENDP ; std::_Vector_iterator<std::_Vector_val<Bookmark,std::allocator<Bookmark> > >::_Vector_iterator<std::_Vector_val<Bookmark,std::allocator<Bookmark> > >
_TEXT	ENDS
PUBLIC	?max_size@?$basic_string@DU?$char_traits@D@std@@V?$allocator@D@2@@std@@QBEIXZ ; std::basic_string<char,std::char_traits<char>,std::allocator<char> >::max_size
; Function compile flags: /Ogtp
;	COMDAT ?max_size@?$basic_string@DU?$char_traits@D@std@@V?$allocator@D@2@@std@@QBEIXZ
_TEXT	SEGMENT
?max_size@?$basic_string@DU?$char_traits@D@std@@V?$allocator@D@2@@std@@QBEIXZ PROC ; std::basic_string<char,std::char_traits<char>,std::allocator<char> >::max_size, COMDAT
; _this$ = ecx
; File c:\program files (x86)\microsoft visual studio 10.0\vc\include\xstring
; Line 1517
	mov	eax, -2					; fffffffeH
; Line 1518
	ret	0
?max_size@?$basic_string@DU?$char_traits@D@std@@V?$allocator@D@2@@std@@QBEIXZ ENDP ; std::basic_string<char,std::char_traits<char>,std::allocator<char> >::max_size
_TEXT	ENDS
PUBLIC	?allocate@?$allocator@PAVAppState@@@std@@QAEPAPAVAppState@@I@Z ; std::allocator<AppState *>::allocate
; Function compile flags: /Ogtp
;	COMDAT ?allocate@?$allocator@PAVAppState@@@std@@QAEPAPAVAppState@@I@Z
_TEXT	SEGMENT
$T135735 = -12						; size = 12
$T135733 = 8						; size = 4
__Count$ = 8						; size = 4
?allocate@?$allocator@PAVAppState@@@std@@QAEPAPAVAppState@@I@Z PROC ; std::allocator<AppState *>::allocate, COMDAT
; _this$ = ecx
; File c:\program files (x86)\microsoft visual studio 10.0\vc\include\xmemory
; Line 186
	push	ebp
	mov	ebp, esp
; Line 187
	mov	ecx, DWORD PTR __Count$[ebp]
	sub	esp, 12					; 0000000cH
	xor	eax, eax
	test	ecx, ecx
	je	SHORT $LN1@allocate
	cmp	ecx, 1073741823				; 3fffffffH
	ja	SHORT $LN3@allocate
	lea	eax, DWORD PTR [ecx*4]
	push	eax
	call	??2@YAPAXI@Z				; operator new
	add	esp, 4
	test	eax, eax
	jne	SHORT $LN1@allocate
$LN3@allocate:
	lea	ecx, DWORD PTR $T135733[ebp]
	push	ecx
	lea	ecx, DWORD PTR $T135735[ebp]
	mov	DWORD PTR $T135733[ebp], 0
	call	DWORD PTR __imp_??0exception@std@@QAE@ABQBD@Z
	push	OFFSET __TI2?AVbad_alloc@std@@
	lea	edx, DWORD PTR $T135735[ebp]
	push	edx
	mov	DWORD PTR $T135735[ebp], OFFSET ??_7bad_alloc@std@@6B@
	call	__CxxThrowException@8
$LN13@allocate:
$LN1@allocate:
; Line 188
	mov	esp, ebp
	pop	ebp
	ret	4
$LN12@allocate:
?allocate@?$allocator@PAVAppState@@@std@@QAEPAPAVAppState@@I@Z ENDP ; std::allocator<AppState *>::allocate
_TEXT	ENDS
PUBLIC	?allocate@?$allocator@UMapEntry@@@std@@QAEPAUMapEntry@@I@Z ; std::allocator<MapEntry>::allocate
; Function compile flags: /Ogtp
;	COMDAT ?allocate@?$allocator@UMapEntry@@@std@@QAEPAUMapEntry@@I@Z
_TEXT	SEGMENT
$T135758 = -12						; size = 12
$T135756 = 8						; size = 4
__Count$ = 8						; size = 4
?allocate@?$allocator@UMapEntry@@@std@@QAEPAUMapEntry@@I@Z PROC ; std::allocator<MapEntry>::allocate, COMDAT
; _this$ = ecx
; Line 186
	push	ebp
	mov	ebp, esp
; Line 187
	mov	ecx, DWORD PTR __Count$[ebp]
	sub	esp, 12					; 0000000cH
	xor	eax, eax
	test	ecx, ecx
	je	SHORT $LN1@allocate@2
	cmp	ecx, 56512727				; 035e50d7H
	ja	SHORT $LN3@allocate@2
	imul	ecx, 76					; 0000004cH
	push	ecx
	call	??2@YAPAXI@Z				; operator new
	add	esp, 4
	test	eax, eax
	jne	SHORT $LN1@allocate@2
$LN3@allocate@2:
	lea	eax, DWORD PTR $T135756[ebp]
	push	eax
	lea	ecx, DWORD PTR $T135758[ebp]
	mov	DWORD PTR $T135756[ebp], 0
	call	DWORD PTR __imp_??0exception@std@@QAE@ABQBD@Z
	push	OFFSET __TI2?AVbad_alloc@std@@
	lea	ecx, DWORD PTR $T135758[ebp]
	push	ecx
	mov	DWORD PTR $T135758[ebp], OFFSET ??_7bad_alloc@std@@6B@
	call	__CxxThrowException@8
$LN13@allocate@2:
$LN1@allocate@2:
; Line 188
	mov	esp, ebp
	pop	ebp
	ret	4
$LN12@allocate@2:
?allocate@?$allocator@UMapEntry@@@std@@QAEPAUMapEntry@@I@Z ENDP ; std::allocator<MapEntry>::allocate
_TEXT	ENDS
PUBLIC	?allocate@?$allocator@UBookmark@@@std@@QAEPAUBookmark@@I@Z ; std::allocator<Bookmark>::allocate
; Function compile flags: /Ogtp
;	COMDAT ?allocate@?$allocator@UBookmark@@@std@@QAEPAUBookmark@@I@Z
_TEXT	SEGMENT
$T135781 = -12						; size = 12
$T135779 = 8						; size = 4
__Count$ = 8						; size = 4
?allocate@?$allocator@UBookmark@@@std@@QAEPAUBookmark@@I@Z PROC ; std::allocator<Bookmark>::allocate, COMDAT
; _this$ = ecx
; Line 186
	push	ebp
	mov	ebp, esp
; Line 187
	mov	ecx, DWORD PTR __Count$[ebp]
	sub	esp, 12					; 0000000cH
	xor	eax, eax
	test	ecx, ecx
	je	SHORT $LN1@allocate@3
	cmp	ecx, 35791394				; 02222222H
	ja	SHORT $LN3@allocate@3
	mov	eax, ecx
	shl	eax, 4
	sub	eax, ecx
	add	eax, eax
	add	eax, eax
	add	eax, eax
	push	eax
	call	??2@YAPAXI@Z				; operator new
	add	esp, 4
	test	eax, eax
	jne	SHORT $LN1@allocate@3
$LN3@allocate@3:
	lea	ecx, DWORD PTR $T135779[ebp]
	push	ecx
	lea	ecx, DWORD PTR $T135781[ebp]
	mov	DWORD PTR $T135779[ebp], 0
	call	DWORD PTR __imp_??0exception@std@@QAE@ABQBD@Z
	push	OFFSET __TI2?AVbad_alloc@std@@
	lea	edx, DWORD PTR $T135781[ebp]
	push	edx
	mov	DWORD PTR $T135781[ebp], OFFSET ??_7bad_alloc@std@@6B@
	call	__CxxThrowException@8
$LN13@allocate@3:
$LN1@allocate@3:
; Line 188
	mov	esp, ebp
	pop	ebp
	ret	4
$LN12@allocate@3:
?allocate@?$allocator@UBookmark@@@std@@QAEPAUBookmark@@I@Z ENDP ; std::allocator<Bookmark>::allocate
_TEXT	ENDS
PUBLIC	??8?$_Vector_const_iterator@V?$_Vector_val@UBookmark@@V?$allocator@UBookmark@@@std@@@std@@@std@@QBE_NABV01@@Z ; std::_Vector_const_iterator<std::_Vector_val<Bookmark,std::allocator<Bookmark> > >::operator==
; Function compile flags: /Ogtp
;	COMDAT ??8?$_Vector_const_iterator@V?$_Vector_val@UBookmark@@V?$allocator@UBookmark@@@std@@@std@@@std@@QBE_NABV01@@Z
_TEXT	SEGMENT
__Right$ = 8						; size = 4
??8?$_Vector_const_iterator@V?$_Vector_val@UBookmark@@V?$allocator@UBookmark@@@std@@@std@@@std@@QBE_NABV01@@Z PROC ; std::_Vector_const_iterator<std::_Vector_val<Bookmark,std::allocator<Bookmark> > >::operator==, COMDAT
; _this$ = ecx
; File c:\program files (x86)\microsoft visual studio 10.0\vc\include\vector
; Line 201
	push	ebp
	mov	ebp, esp
; Line 203
	mov	eax, DWORD PTR [ecx]
	mov	edx, DWORD PTR __Right$[ebp]
	xor	ecx, ecx
	cmp	eax, DWORD PTR [edx]
	sete	al
; Line 204
	pop	ebp
	ret	4
??8?$_Vector_const_iterator@V?$_Vector_val@UBookmark@@V?$allocator@UBookmark@@@std@@@std@@@std@@QBE_NABV01@@Z ENDP ; std::_Vector_const_iterator<std::_Vector_val<Bookmark,std::allocator<Bookmark> > >::operator==
_TEXT	ENDS
PUBLIC	?allocate@?$allocator@D@std@@QAEPADI@Z		; std::allocator<char>::allocate
; Function compile flags: /Ogtp
;	COMDAT ?allocate@?$allocator@D@std@@QAEPADI@Z
_TEXT	SEGMENT
$T135809 = -12						; size = 12
$T135807 = 8						; size = 4
__Count$ = 8						; size = 4
?allocate@?$allocator@D@std@@QAEPADI@Z PROC		; std::allocator<char>::allocate, COMDAT
; _this$ = ecx
; File c:\program files (x86)\microsoft visual studio 10.0\vc\include\xmemory
; Line 186
	push	ebp
	mov	ebp, esp
; Line 187
	mov	ecx, DWORD PTR __Count$[ebp]
	sub	esp, 12					; 0000000cH
	xor	eax, eax
	test	ecx, ecx
	je	SHORT $LN1@allocate@4
	cmp	ecx, -1
	ja	SHORT $LN3@allocate@4
	push	ecx
	call	??2@YAPAXI@Z				; operator new
	add	esp, 4
	test	eax, eax
	jne	SHORT $LN1@allocate@4
$LN3@allocate@4:
	lea	eax, DWORD PTR $T135807[ebp]
	push	eax
	lea	ecx, DWORD PTR $T135809[ebp]
	mov	DWORD PTR $T135807[ebp], 0
	call	DWORD PTR __imp_??0exception@std@@QAE@ABQBD@Z
	push	OFFSET __TI2?AVbad_alloc@std@@
	lea	ecx, DWORD PTR $T135809[ebp]
	push	ecx
	mov	DWORD PTR $T135809[ebp], OFFSET ??_7bad_alloc@std@@6B@
	call	__CxxThrowException@8
$LN13@allocate@4:
$LN1@allocate@4:
; Line 188
	mov	esp, ebp
	pop	ebp
	ret	4
$LN12@allocate@4:
?allocate@?$allocator@D@std@@QAEPADI@Z ENDP		; std::allocator<char>::allocate
_TEXT	ENDS
PUBLIC	??$_Cons_val@V?$allocator@PAVAppState@@@std@@PAVAppState@@AAPAV3@@std@@YAXAAV?$allocator@PAVAppState@@@0@PAPAVAppState@@AAPAV2@@Z ; std::_Cons_val<std::allocator<AppState *>,AppState *,AppState * &>
; Function compile flags: /Ogtp
;	COMDAT ??$_Cons_val@V?$allocator@PAVAppState@@@std@@PAVAppState@@AAPAV3@@std@@YAXAAV?$allocator@PAVAppState@@@0@PAPAVAppState@@AAPAV2@@Z
_TEXT	SEGMENT
__Alval$ = 8						; size = 4
__Pdest$ = 12						; size = 4
__Src$ = 16						; size = 4
??$_Cons_val@V?$allocator@PAVAppState@@@std@@PAVAppState@@AAPAV3@@std@@YAXAAV?$allocator@PAVAppState@@@0@PAPAVAppState@@AAPAV2@@Z PROC ; std::_Cons_val<std::allocator<AppState *>,AppState *,AppState * &>, COMDAT
; Line 279
	push	ebp
	mov	ebp, esp
; Line 280
	mov	eax, DWORD PTR __Pdest$[ebp]
	test	eax, eax
	je	SHORT $LN7@Cons_val
	mov	ecx, DWORD PTR __Src$[ebp]
	mov	edx, DWORD PTR [ecx]
	mov	DWORD PTR [eax], edx
$LN7@Cons_val:
; Line 281
	pop	ebp
	ret	0
??$_Cons_val@V?$allocator@PAVAppState@@@std@@PAVAppState@@AAPAV3@@std@@YAXAAV?$allocator@PAVAppState@@@0@PAPAVAppState@@AAPAV2@@Z ENDP ; std::_Cons_val<std::allocator<AppState *>,AppState *,AppState * &>
_TEXT	ENDS
PUBLIC	??$_Destroy_range@V?$allocator@PAVAppState@@@std@@@std@@YAXPAPAVAppState@@0AAV?$allocator@PAVAppState@@@0@@Z ; std::_Destroy_range<std::allocator<AppState *> >
; Function compile flags: /Ogtp
;	COMDAT ??$_Destroy_range@V?$allocator@PAVAppState@@@std@@@std@@YAXPAPAVAppState@@0AAV?$allocator@PAVAppState@@@0@@Z
_TEXT	SEGMENT
__First$ = 8						; size = 4
__Last$ = 12						; size = 4
__Al$ = 16						; size = 4
??$_Destroy_range@V?$allocator@PAVAppState@@@std@@@std@@YAXPAPAVAppState@@0AAV?$allocator@PAVAppState@@@0@@Z PROC ; std::_Destroy_range<std::allocator<AppState *> >, COMDAT
; Line 89
	ret	0
??$_Destroy_range@V?$allocator@PAVAppState@@@std@@@std@@YAXPAPAVAppState@@0AAV?$allocator@PAVAppState@@@0@@Z ENDP ; std::_Destroy_range<std::allocator<AppState *> >
_TEXT	ENDS
PUBLIC	?construct@?$allocator@PAVAppState@@@std@@QAEXPAPAVAppState@@ABQAV3@@Z ; std::allocator<AppState *>::construct
; Function compile flags: /Ogtp
;	COMDAT ?construct@?$allocator@PAVAppState@@@std@@QAEXPAPAVAppState@@ABQAV3@@Z
_TEXT	SEGMENT
__Ptr$ = 8						; size = 4
__Val$ = 12						; size = 4
?construct@?$allocator@PAVAppState@@@std@@QAEXPAPAVAppState@@ABQAV3@@Z PROC ; std::allocator<AppState *>::construct, COMDAT
; _this$ = ecx
; Line 196
	push	ebp
	mov	ebp, esp
; Line 197
	mov	eax, DWORD PTR __Ptr$[ebp]
	test	eax, eax
	je	SHORT $LN5@construct@2
	mov	ecx, DWORD PTR __Val$[ebp]
	mov	edx, DWORD PTR [ecx]
	mov	DWORD PTR [eax], edx
$LN5@construct@2:
; Line 198
	pop	ebp
	ret	8
?construct@?$allocator@PAVAppState@@@std@@QAEXPAPAVAppState@@ABQAV3@@Z ENDP ; std::allocator<AppState *>::construct
_TEXT	ENDS
PUBLIC	??$?5DU?$char_traits@D@std@@@std@@YAAAV?$basic_istream@DU?$char_traits@D@std@@@0@$$QAV10@AAD@Z ; std::operator>><char,std::char_traits<char> >
EXTRN	__imp_?setstate@?$basic_ios@DU?$char_traits@D@std@@@std@@QAEXH_N@Z:PROC
EXTRN	__imp_?sbumpc@?$basic_streambuf@DU?$char_traits@D@std@@@std@@QAEHXZ:PROC
;	COMDAT xdata$x
; File c:\program files (x86)\microsoft visual studio 10.0\vc\include\ios
xdata$x	SEGMENT
__catchsym$??$?5DU?$char_traits@D@std@@@std@@YAAAV?$basic_istream@DU?$char_traits@D@std@@@0@$$QAV10@AAD@Z$5 DD 040H
	DD	00H
	DD	00H
	DD	FLAT:__catch$??$?5DU?$char_traits@D@std@@@std@@YAAAV?$basic_istream@DU?$char_traits@D@std@@@0@$$QAV10@AAD@Z$0
__tryblocktable$??$?5DU?$char_traits@D@std@@@std@@YAAAV?$basic_istream@DU?$char_traits@D@std@@@0@$$QAV10@AAD@Z DD 02H
	DD	02H
	DD	03H
	DD	01H
	DD	FLAT:__catchsym$??$?5DU?$char_traits@D@std@@@std@@YAAAV?$basic_istream@DU?$char_traits@D@std@@@0@$$QAV10@AAD@Z$5
__unwindtable$??$?5DU?$char_traits@D@std@@@std@@YAAAV?$basic_istream@DU?$char_traits@D@std@@@0@$$QAV10@AAD@Z DD 0ffffffffH
	DD	FLAT:__unwindfunclet$??$?5DU?$char_traits@D@std@@@std@@YAAAV?$basic_istream@DU?$char_traits@D@std@@@0@$$QAV10@AAD@Z$3
	DD	0ffffffffH
	DD	FLAT:__unwindfunclet$??$?5DU?$char_traits@D@std@@@std@@YAAAV?$basic_istream@DU?$char_traits@D@std@@@0@$$QAV10@AAD@Z$2
	DD	01H
	DD	00H
	DD	01H
	DD	00H
__ehfuncinfo$??$?5DU?$char_traits@D@std@@@std@@YAAAV?$basic_istream@DU?$char_traits@D@std@@@0@$$QAV10@AAD@Z DD 019930522H
	DD	04H
	DD	FLAT:__unwindtable$??$?5DU?$char_traits@D@std@@@std@@YAAAV?$basic_istream@DU?$char_traits@D@std@@@0@$$QAV10@AAD@Z
	DD	01H
	DD	FLAT:__tryblocktable$??$?5DU?$char_traits@D@std@@@std@@YAAAV?$basic_istream@DU?$char_traits@D@std@@@0@$$QAV10@AAD@Z
	DD	2 DUP(00H)
	DD	00H
	DD	01H
; Function compile flags: /Ogtp
xdata$x	ENDS
;	COMDAT ??$?5DU?$char_traits@D@std@@@std@@YAAAV?$basic_istream@DU?$char_traits@D@std@@@0@$$QAV10@AAD@Z
_TEXT	SEGMENT
__Ok$ = -28						; size = 8
__State$ = -20						; size = 4
__$EHRec$ = -16						; size = 16
__Istr$ = 8						; size = 4
__Ch$ = 12						; size = 4
??$?5DU?$char_traits@D@std@@@std@@YAAAV?$basic_istream@DU?$char_traits@D@std@@@0@$$QAV10@AAD@Z PROC ; std::operator>><char,std::char_traits<char> >, COMDAT
; File c:\program files (x86)\microsoft visual studio 10.0\vc\include\istream
; Line 1030
	push	ebp
	mov	ebp, esp
	push	-1
	push	__ehhandler$??$?5DU?$char_traits@D@std@@@std@@YAAAV?$basic_istream@DU?$char_traits@D@std@@@0@$$QAV10@AAD@Z
	mov	eax, DWORD PTR fs:0
	push	eax
	sub	esp, 16					; 00000010H
	push	ebx
	push	esi
	push	edi
	mov	eax, DWORD PTR ___security_cookie
	xor	eax, ebp
	push	eax
	lea	eax, DWORD PTR __$EHRec$[ebp+4]
	mov	DWORD PTR fs:0, eax
	mov	DWORD PTR __$EHRec$[ebp], esp
; Line 1035
	mov	esi, DWORD PTR __Istr$[ebp]
	mov	eax, DWORD PTR [esi]
	mov	ecx, DWORD PTR [eax+4]
	mov	ecx, DWORD PTR [ecx+esi+56]
	xor	edi, edi
	mov	DWORD PTR __State$[ebp], edi
	mov	DWORD PTR __Ok$[ebp], esi
	cmp	ecx, edi
	je	SHORT $LN15@operator
	mov	edx, DWORD PTR [ecx]
	mov	eax, DWORD PTR [edx+4]
	call	eax
$LN15@operator:
	push	edi
	mov	ecx, esi
	mov	DWORD PTR __$EHRec$[ebp+12], edi
	call	DWORD PTR __imp_?_Ipfx@?$basic_istream@DU?$char_traits@D@std@@@std@@QAE_N_N@Z
	mov	BYTE PTR __Ok$[ebp+4], al
	mov	ebx, 1
	mov	DWORD PTR __$EHRec$[ebp+12], ebx
; Line 1037
	test	al, al
	je	SHORT $LN11@operator
; Line 1040
	mov	ecx, DWORD PTR [esi]
	mov	edx, DWORD PTR [ecx+4]
	mov	ecx, DWORD PTR [edx+esi+56]
	mov	BYTE PTR __$EHRec$[ebp+12], 2
	call	DWORD PTR __imp_?sbumpc@?$basic_streambuf@DU?$char_traits@D@std@@@std@@QAEHXZ
; Line 1041
	cmp	eax, -1
	jne	SHORT $LN2@operator
; Line 1042
	lea	edi, DWORD PTR [ebx+2]
	mov	DWORD PTR __$EHRec$[ebp+12], ebx
	jmp	SHORT $LN11@operator
$LN2@operator:
; Line 1044
	mov	ecx, DWORD PTR __Ch$[ebp]
	mov	BYTE PTR [ecx], al
	mov	DWORD PTR __$EHRec$[ebp+12], ebx
	jmp	SHORT $LN11@operator
__catch$??$?5DU?$char_traits@D@std@@@std@@YAAAV?$basic_istream@DU?$char_traits@D@std@@@0@$$QAV10@AAD@Z$0:
; Line 1045
	mov	eax, DWORD PTR __Istr$[ebp]
	mov	edx, DWORD PTR [eax]
	mov	ecx, DWORD PTR [edx+4]
	mov	ebx, 1
	push	ebx
	push	4
	add	ecx, eax
	call	DWORD PTR __imp_?setstate@?$basic_ios@DU?$char_traits@D@std@@@std@@QAEXH_N@Z
	mov	DWORD PTR __$EHRec$[ebp+12], ebx
	mov	eax, $LN44@operator
	ret	0
$LN44@operator:
	mov	esi, DWORD PTR __Istr$[ebp]
	mov	edi, DWORD PTR __State$[ebp]
$LN11@operator:
; Line 1048
	mov	eax, DWORD PTR [esi]
	mov	ecx, DWORD PTR [eax+4]
	push	0
	push	edi
	add	ecx, esi
	call	DWORD PTR __imp_?setstate@?$basic_ios@DU?$char_traits@D@std@@@std@@QAEXH_N@Z
; Line 1049
	mov	ecx, DWORD PTR [esi]
	mov	edx, DWORD PTR [ecx+4]
	mov	ecx, DWORD PTR [edx+esi+56]
	mov	DWORD PTR __$EHRec$[ebp+12], -1
	test	ecx, ecx
	je	SHORT $LN43@operator
	mov	eax, DWORD PTR [ecx]
	mov	edx, DWORD PTR [eax+8]
	call	edx
$LN43@operator:
	mov	eax, esi
; Line 1050
	mov	ecx, DWORD PTR __$EHRec$[ebp+4]
	mov	DWORD PTR fs:0, ecx
	pop	ecx
	pop	edi
	pop	esi
	pop	ebx
	mov	esp, ebp
	pop	ebp
	ret	0
_TEXT	ENDS
;	COMDAT text$x
text$x	SEGMENT
__unwindfunclet$??$?5DU?$char_traits@D@std@@@std@@YAAAV?$basic_istream@DU?$char_traits@D@std@@@0@$$QAV10@AAD@Z$3:
	lea	ecx, DWORD PTR __Ok$[ebp]
	jmp	??1_Sentry_base@?$basic_istream@DU?$char_traits@D@std@@@std@@QAE@XZ ; std::basic_istream<char,std::char_traits<char> >::_Sentry_base::~_Sentry_base
__unwindfunclet$??$?5DU?$char_traits@D@std@@@std@@YAAAV?$basic_istream@DU?$char_traits@D@std@@@0@$$QAV10@AAD@Z$2:
	lea	ecx, DWORD PTR __Ok$[ebp]
	jmp	??1sentry@?$basic_istream@DU?$char_traits@D@std@@@std@@QAE@XZ
__ehhandler$??$?5DU?$char_traits@D@std@@@std@@YAAAV?$basic_istream@DU?$char_traits@D@std@@@0@$$QAV10@AAD@Z:
	mov	edx, DWORD PTR [esp+8]
	lea	eax, DWORD PTR [edx+12]
	mov	ecx, DWORD PTR [edx-32]
	xor	ecx, eax
	call	@__security_check_cookie@4
	mov	eax, OFFSET __ehfuncinfo$??$?5DU?$char_traits@D@std@@@std@@YAAAV?$basic_istream@DU?$char_traits@D@std@@@0@$$QAV10@AAD@Z
	jmp	___CxxFrameHandler3
text$x	ENDS
??$?5DU?$char_traits@D@std@@@std@@YAAAV?$basic_istream@DU?$char_traits@D@std@@@0@$$QAV10@AAD@Z ENDP ; std::operator>><char,std::char_traits<char> >
PUBLIC	??$_Uninitialized_move@PAPAVAppState@@PAPAV1@V?$allocator@PAVAppState@@@std@@@std@@YAPAPAVAppState@@PAPAV1@00AAV?$allocator@PAVAppState@@@0@@Z ; std::_Uninitialized_move<AppState * *,AppState * *,std::allocator<AppState *> >
; Function compile flags: /Ogtp
;	COMDAT ??$_Uninitialized_move@PAPAVAppState@@PAPAV1@V?$allocator@PAVAppState@@@std@@@std@@YAPAPAVAppState@@PAPAV1@00AAV?$allocator@PAVAppState@@@0@@Z
_TEXT	SEGMENT
__First$ = 8						; size = 4
__Last$ = 12						; size = 4
__Dest$ = 16						; size = 4
__Al$ = 20						; size = 4
??$_Uninitialized_move@PAPAVAppState@@PAPAV1@V?$allocator@PAVAppState@@@std@@@std@@YAPAPAVAppState@@PAPAV1@00AAV?$allocator@PAVAppState@@@0@@Z PROC ; std::_Uninitialized_move<AppState * *,AppState * *,std::allocator<AppState *> >, COMDAT
; File c:\program files (x86)\microsoft visual studio 10.0\vc\include\memory
; Line 469
	push	ebp
	mov	ebp, esp
; Line 471
	mov	ecx, DWORD PTR __First$[ebp]
	mov	eax, DWORD PTR __Last$[ebp]
	sub	eax, ecx
	push	esi
	sar	eax, 2
	lea	esi, DWORD PTR [eax*4]
	mov	eax, DWORD PTR __Dest$[ebp]
	push	esi
	push	ecx
	push	eax
	call	DWORD PTR __imp__memmove
	add	esp, 12					; 0000000cH
	add	eax, esi
	pop	esi
; Line 472
	pop	ebp
	ret	0
??$_Uninitialized_move@PAPAVAppState@@PAPAV1@V?$allocator@PAVAppState@@@std@@@std@@YAPAPAVAppState@@PAPAV1@00AAV?$allocator@PAVAppState@@@0@@Z ENDP ; std::_Uninitialized_move<AppState * *,AppState * *,std::allocator<AppState *> >
_TEXT	ENDS
PUBLIC	__real@3fe0000000000000
PUBLIC	?display@Menu@@UAEXMM@Z				; Menu::display
EXTRN	?shdrawtext@Font@@QAEXHHPBD@Z:PROC		; Font::shdrawtext
EXTRN	?f24@@3PAVFont@@A:DWORD				; f24
EXTRN	?shprint@freetype@@YAXABUfont_data@1@MMPBDZZ:PROC ; freetype::shprint
EXTRN	?width@freetype@@YAHABUfont_data@1@PBDZZ:PROC	; freetype::width
EXTRN	?morpheus@@3Ufont_data@freetype@@A:BYTE		; morpheus
EXTRN	?f16@@3PAVFont@@A:DWORD				; f16
EXTRN	__imp__glTexCoord2f@8:PROC
EXTRN	__imp__glBindTexture@8:PROC
EXTRN	?shprint@Font@@QAAXHHPBDZZ:PROC			; Font::shprint
EXTRN	?textwidth@Font@@QAEHPBD@Z:PROC			; Font::textwidth
EXTRN	?f32@@3PAVFont@@A:DWORD				; f32
EXTRN	__imp__glEnd@0:PROC
EXTRN	__imp__glBegin@4:PROC
EXTRN	__imp__glVertex2i@8:PROC
EXTRN	__imp__glBlendFunc@8:PROC
EXTRN	?set2D@Video@@QAEXXZ:PROC			; Video::set2D
EXTRN	?draw@Model@@QAEXXZ:PROC			; Model::draw
EXTRN	?setup@ModelCamera@@QAEXH@Z:PROC		; ModelCamera::setup
EXTRN	?globalTime@@3HA:DWORD				; globalTime
EXTRN	__imp__glDepthFunc@4:PROC
EXTRN	__imp__glEnableClientState@4:PROC
EXTRN	__imp__glLightf@12:PROC
EXTRN	__imp__glColor4f@16:PROC
EXTRN	__imp__glColorMaterial@8:PROC
EXTRN	__imp__glEnable@4:PROC
EXTRN	__imp__glLightModelfv@8:PROC
EXTRN	__imp__glDisable@4:PROC
EXTRN	?clearScreen@Video@@QAEXXZ:PROC			; Video::clearScreen
EXTRN	?video@@3VVideo@@A:BYTE				; video
;	COMDAT __real@3fe0000000000000
; File c:\program files (x86)\microsoft visual studio 10.0\vc\include\xstring
CONST	SEGMENT
__real@3fe0000000000000 DQ 03fe0000000000000r	; 0.5
; Function compile flags: /Ogtp
CONST	ENDS
_TEXT	SEGMENT
_la$119334 = -36					; size = 16
tv935 = -20						; size = 4
tv928 = -20						; size = 4
tv743 = -20						; size = 4
_w$119366 = -20						; size = 4
tv771 = -16						; size = 8
_this$ = -12						; size = 4
tv429 = -8						; size = 4
_i$119356 = -8						; size = 4
tv995 = -4						; size = 4
_t$ = 8							; size = 4
_dt$ = 12						; size = 4
?display@Menu@@UAEXMM@Z PROC				; Menu::display
; _this$ = ecx
; File c:\programovani\wow editor\test\src\editor\menu.cpp
; Line 173
	push	ebp
	mov	ebp, esp
	sub	esp, 36					; 00000024H
	push	ebx
	push	esi
	mov	esi, ecx
	push	edi
; Line 174
	mov	ecx, OFFSET ?video@@3VVideo@@A		; video
	mov	DWORD PTR _this$[ebp], esi
	call	?clearScreen@Video@@QAEXXZ		; Video::clearScreen
; Line 175
	mov	edi, DWORD PTR __imp__glDisable@4
	push	2912					; 00000b60H
	call	edi
; Line 177
	cmp	DWORD PTR [esi+76], 0
	je	$LN92@display
; Line 178
	mov	eax, 1036831949				; 3dcccccdH
	mov	DWORD PTR _la$119334[ebp], eax
	mov	DWORD PTR _la$119334[ebp+4], eax
	mov	DWORD PTR _la$119334[ebp+8], eax
; Line 179
	lea	eax, DWORD PTR _la$119334[ebp]
	push	eax
	push	2899					; 00000b53H
	mov	DWORD PTR _la$119334[ebp+12], 1065353216 ; 3f800000H
	call	DWORD PTR __imp__glLightModelfv@8
; Line 181
	push	2903					; 00000b57H
	call	DWORD PTR __imp__glEnable@4
; Line 182
	push	5634					; 00001602H
	push	1032					; 00000408H
	call	DWORD PTR __imp__glColorMaterial@8
; Line 183
	sub	esp, 16					; 00000010H
	mov	DWORD PTR [esp+12], 1065353216		; 3f800000H
	mov	DWORD PTR [esp+8], 1065353216		; 3f800000H
	mov	DWORD PTR [esp+4], 1065353216		; 3f800000H
	mov	DWORD PTR [esp], 1065353216		; 3f800000H
	call	DWORD PTR __imp__glColor4f@16
	mov	ebx, DWORD PTR __imp__glLightf@12
	mov	edi, 16384				; 00004000H
	mov	DWORD PTR tv429[ebp], 8
	npad	8
$LL28@display:
; Line 187
	push	ecx
	mov	DWORD PTR [esp], 0
	push	4615					; 00001207H
	push	edi
	call	ebx
; Line 188
	push	ecx
	mov	DWORD PTR [esp], 1060320051		; 3f333333H
	push	4616					; 00001208H
	push	edi
	call	ebx
; Line 189
	push	ecx
	mov	DWORD PTR [esp], 1022739087		; 3cf5c28fH
	push	4617					; 00001209H
	push	edi
	call	ebx
; Line 190
	push	edi
	call	DWORD PTR __imp__glDisable@4
	inc	edi
	dec	DWORD PTR tv429[ebp]
	jne	SHORT $LL28@display
; Line 192
	mov	edi, DWORD PTR __imp__glEnableClientState@4
	push	32884					; 00008074H
	call	edi
; Line 193
	push	32885					; 00008075H
	call	edi
; Line 194
	push	32888					; 00008078H
	call	edi
; Line 195
	mov	ebx, DWORD PTR __imp__glEnable@4
	push	3553					; 00000de1H
	call	ebx
; Line 196
	push	2929					; 00000b71H
	call	ebx
; Line 197
	push	515					; 00000203H
	call	DWORD PTR __imp__glDepthFunc@4
; Line 198
	push	2896					; 00000b50H
	call	ebx
; Line 199
	mov	ecx, DWORD PTR ?globalTime@@3HA		; globalTime
	push	ecx
	mov	ecx, DWORD PTR [esi+76]
	add	ecx, 156				; 0000009cH
	call	?setup@ModelCamera@@QAEXH@Z		; ModelCamera::setup
; Line 200
	mov	ecx, DWORD PTR [esi+76]
	call	?draw@Model@@QAEXXZ			; Model::draw
	mov	edi, DWORD PTR __imp__glDisable@4
	jmp	SHORT $LN29@display
$LN92@display:
	mov	ebx, DWORD PTR __imp__glEnable@4
$LN29@display:
; Line 203
	mov	ecx, OFFSET ?video@@3VVideo@@A		; video
	call	?set2D@Video@@QAEXXZ			; Video::set2D
; Line 204
	push	3042					; 00000be2H
	call	ebx
; Line 205
	push	771					; 00000303H
	push	770					; 00000302H
	call	DWORD PTR __imp__glBlendFunc@8
; Line 206
	push	2929					; 00000b71H
	call	edi
; Line 207
	push	2884					; 00000b44H
	call	edi
; Line 208
	push	2896					; 00000b50H
	call	edi
; Line 210
	cmp	BYTE PTR [esi+88], 0
	mov	edi, DWORD PTR __imp__glVertex2i@8
	je	SHORT $LN93@display
; Line 212
	push	3553					; 00000de1H
	call	DWORD PTR __imp__glDisable@4
; Line 214
	sub	esp, 16					; 00000010H
	mov	DWORD PTR [esp+12], 1051931443		; 3eb33333H
	mov	DWORD PTR [esp+8], 0
	mov	DWORD PTR [esp+4], 0
	mov	DWORD PTR [esp], 0
	call	DWORD PTR __imp__glColor4f@16
; Line 215
	push	7
	call	DWORD PTR __imp__glBegin@4
; Line 216
	push	0
	push	0
	call	edi
; Line 217
	mov	edx, DWORD PTR ?video@@3VVideo@@A+52
	push	0
	push	edx
	call	edi
; Line 218
	mov	eax, DWORD PTR ?video@@3VVideo@@A+56
	mov	ecx, DWORD PTR ?video@@3VVideo@@A+52
	push	eax
	push	ecx
	call	edi
; Line 219
	mov	edx, DWORD PTR ?video@@3VVideo@@A+56
	push	edx
	push	0
	call	edi
; Line 220
	call	DWORD PTR __imp__glEnd@0
$LN93@display:
; Line 223
	sub	esp, 16					; 00000010H
	mov	DWORD PTR [esp+12], 1065353216		; 3f800000H
	mov	DWORD PTR [esp+8], 1065353216		; 3f800000H
	mov	DWORD PTR [esp+4], 1065353216		; 3f800000H
	mov	DWORD PTR [esp], 1065353216		; 3f800000H
	call	DWORD PTR __imp__glColor4f@16
; Line 225
	push	3553					; 00000de1H
	call	ebx
; Line 231
	mov	eax, DWORD PTR [esi+8]
	cmp	eax, 1
	jne	SHORT $LN24@display
; Line 237
	mov	eax, DWORD PTR ?video@@3VVideo@@A+56
	mov	ecx, DWORD PTR ?f32@@3PAVFont@@A	; f32
	cdq
	sub	eax, edx
	sar	eax, 1
	push	OFFSET $SG119346
	sub	eax, 16					; 00000010H
	push	eax
	push	OFFSET $SG119346
	call	?textwidth@Font@@QAEHPBD@Z		; Font::textwidth
	cdq
	sub	eax, edx
	mov	ecx, eax
	mov	eax, DWORD PTR ?video@@3VVideo@@A+52
	cdq
	sub	eax, edx
	mov	edx, DWORD PTR ?f32@@3PAVFont@@A	; f32
	sar	ecx, 1
	sar	eax, 1
	sub	eax, ecx
	push	eax
	push	edx
	call	?shprint@Font@@QAAXHHPBDZZ		; Font::shprint
; Line 376
	add	esp, 16					; 00000010H
	pop	edi
	mov	DWORD PTR [esi+8], 2
	pop	esi
	pop	ebx
; Line 379
	mov	esp, ebp
	pop	ebp
	ret	8
$LN24@display:
; Line 241
	test	eax, eax
	jne	$LN1@display
; Line 244
	cmp	DWORD PTR [esi+4], -1
	je	$LN21@display
	mov	eax, DWORD PTR [esi+28]
	test	eax, eax
	je	$LN21@display
; Line 247
	cmp	DWORD PTR [eax+21244], 0
	je	$LN94@display
; Line 251
	sub	esp, 16					; 00000010H
	mov	DWORD PTR [esp+12], 1065353216		; 3f800000H
	mov	DWORD PTR [esp+8], 1065353216		; 3f800000H
	mov	DWORD PTR [esp+4], 1065353216		; 3f800000H
	mov	DWORD PTR [esp], 1065353216		; 3f800000H
	call	DWORD PTR __imp__glColor4f@16
; Line 252
	mov	eax, DWORD PTR [esi+28]
	mov	ecx, DWORD PTR [eax+21244]
	push	ecx
	push	3553					; 00000de1H
	call	DWORD PTR __imp__glBindTexture@8
; Line 253
	push	7
	call	DWORD PTR __imp__glBegin@4
; Line 254
	mov	ebx, DWORD PTR __imp__glTexCoord2f@8
	sub	esp, 8
	mov	DWORD PTR [esp+4], 0
	mov	DWORD PTR [esp], 0
	call	ebx
; Line 255
	push	0
	push	200					; 000000c8H
	call	edi
; Line 256
	sub	esp, 8
	mov	DWORD PTR [esp+4], 0
	mov	DWORD PTR [esp], 1065353216		; 3f800000H
	call	ebx
; Line 257
	push	0
	push	968					; 000003c8H
	call	edi
; Line 258
	sub	esp, 8
	mov	DWORD PTR [esp+4], 1065353216		; 3f800000H
	mov	DWORD PTR [esp], 1065353216		; 3f800000H
	call	ebx
; Line 259
	push	768					; 00000300H
	push	968					; 000003c8H
	call	edi
; Line 260
	sub	esp, 8
	mov	DWORD PTR [esp+4], 1065353216		; 3f800000H
	mov	DWORD PTR [esp], 0
	call	ebx
; Line 261
	push	768					; 00000300H
	push	200					; 000000c8H
	call	edi
; Line 262
	call	DWORD PTR __imp__glEnd@0
$LN94@display:
; Line 265
	push	3553					; 00000de1H
	call	DWORD PTR __imp__glDisable@4
; Line 266
	xor	ebx, ebx
	npad	10
$LL19@display:
; Line 268
	mov	eax, ebx
	shl	eax, 6
	mov	DWORD PTR _i$119356[ebp], 0
	mov	DWORD PTR tv743[ebp], eax
	mov	DWORD PTR tv995[ebp], 200		; 000000c8H
$LL16@display:
; Line 270
	mov	edx, DWORD PTR [esi+28]
	mov	ecx, DWORD PTR _i$119356[ebp]
	add	edx, eax
	cmp	BYTE PTR [edx+ecx+304], 0
	je	SHORT $LN15@display
; Line 272
	sub	esp, 16					; 00000010H
	mov	DWORD PTR [esp+12], 1045220557		; 3e4ccccdH
	mov	DWORD PTR [esp+8], 1061997773		; 3f4ccccdH
	mov	DWORD PTR [esp+4], 1063675494		; 3f666666H
	mov	DWORD PTR [esp], 1060320051		; 3f333333H
	call	DWORD PTR __imp__glColor4f@16
; Line 273
	push	7
	call	DWORD PTR __imp__glBegin@4
; Line 274
	mov	edx, DWORD PTR tv995[ebp]
	lea	esi, DWORD PTR [ebx+ebx*2]
	add	esi, esi
	add	esi, esi
	push	esi
	push	edx
	call	edi
; Line 275
	mov	eax, DWORD PTR tv995[ebp]
	add	eax, 12					; 0000000cH
	push	esi
	push	eax
	call	edi
; Line 276
	mov	eax, DWORD PTR tv995[ebp]
	lea	esi, DWORD PTR [ebx+ebx*2+3]
	add	esi, esi
	add	esi, esi
	push	esi
	add	eax, 12					; 0000000cH
	push	eax
	call	edi
; Line 277
	mov	eax, DWORD PTR tv995[ebp]
	push	esi
	push	eax
	call	edi
; Line 278
	call	DWORD PTR __imp__glEnd@0
	mov	esi, DWORD PTR _this$[ebp]
	mov	eax, DWORD PTR tv743[ebp]
$LN15@display:
; Line 268
	mov	ecx, DWORD PTR tv995[ebp]
	inc	DWORD PTR _i$119356[ebp]
	add	ecx, 12					; 0000000cH
	mov	DWORD PTR tv995[ebp], ecx
	cmp	ecx, 968				; 000003c8H
	jl	$LL16@display
; Line 266
	inc	ebx
	cmp	ebx, 64					; 00000040H
	jl	$LL19@display
; Line 282
	push	3553					; 00000de1H
	call	DWORD PTR __imp__glEnable@4
; Line 284
	sub	esp, 16					; 00000010H
	mov	DWORD PTR [esp+12], 1065353216		; 3f800000H
	mov	DWORD PTR [esp+8], 1065353216		; 3f800000H
	mov	DWORD PTR [esp+4], 1065353216		; 3f800000H
	mov	DWORD PTR [esp], 1065353216		; 3f800000H
	call	DWORD PTR __imp__glColor4f@16
; Line 285
	mov	ecx, DWORD PTR [esi+28]
	cmp	DWORD PTR [ecx+20824], 0
	jne	SHORT $LN12@display
; Line 287
	mov	edx, DWORD PTR ?f16@@3PAVFont@@A	; f16
	push	OFFSET $SG119362
	push	360					; 00000168H
	push	400					; 00000190H
	push	edx
	call	?shprint@Font@@QAAXHHPBDZZ		; Font::shprint
	add	esp, 16					; 00000010H
; Line 288
	jmp	$LN95@display
$LN12@display:
; Line 289
	mov	eax, DWORD PTR ?f16@@3PAVFont@@A	; f16
	push	OFFSET $SG119364
	push	0
	push	400					; 00000190H
	push	eax
	call	?shprint@Font@@QAAXHHPBDZZ		; Font::shprint
	add	esp, 16					; 00000010H
; Line 290
	jmp	$LN95@display
$LN21@display:
; Line 295
	sub	esp, 16					; 00000010H
	mov	DWORD PTR [esp+12], 1065353216		; 3f800000H
	mov	DWORD PTR [esp+8], 1065353216		; 3f800000H
	mov	DWORD PTR [esp+4], 1065353216		; 3f800000H
	mov	DWORD PTR [esp], 1065353216		; 3f800000H
	call	DWORD PTR __imp__glColor4f@16
; Line 300
	push	OFFSET $SG119367
	push	OFFSET ?morpheus@@3Ufont_data@freetype@@A ; morpheus
	call	?width@freetype@@YAHABUfont_data@1@PBDZZ ; freetype::width
	mov	DWORD PTR _w$119366[ebp], eax
; Line 301
	fild	DWORD PTR _w$119366[ebp]
	add	esp, 8
	fld	QWORD PTR __real@3fe0000000000000
	push	OFFSET $SG119368
	sub	esp, 8
	fmul	ST(1), ST(0)
	mov	DWORD PTR [esp+4], 1065353216		; 3f800000H
	fxch	ST(1)
	fst	QWORD PTR tv771[ebp]
	fild	DWORD PTR ?video@@3VVideo@@A+52
	fmulp	ST(2), ST(0)
	fsubp	ST(1), ST(0)
	fstp	DWORD PTR tv935[ebp]
	fld	DWORD PTR tv935[ebp]
	fstp	DWORD PTR [esp]
	push	OFFSET ?morpheus@@3Ufont_data@freetype@@A ; morpheus
	call	?shprint@freetype@@YAXABUfont_data@1@MMPBDZZ ; freetype::shprint
; Line 302
	fild	DWORD PTR ?video@@3VVideo@@A+52
	add	esp, 16					; 00000010H
	push	OFFSET $SG119369
	fmul	QWORD PTR __real@3fe0000000000000
	sub	esp, 8
	mov	DWORD PTR [esp+4], 1065353216		; 3f800000H
	fsub	QWORD PTR tv771[ebp]
	fstp	DWORD PTR tv928[ebp]
	fld	DWORD PTR tv928[ebp]
	fstp	DWORD PTR [esp]
	push	OFFSET ?morpheus@@3Ufont_data@freetype@@A ; morpheus
	call	?shprint@freetype@@YAXABUfont_data@1@MMPBDZZ ; freetype::shprint
; Line 304
	mov	ecx, DWORD PTR ?f16@@3PAVFont@@A	; f16
	add	esp, 16					; 00000010H
	push	OFFSET $SG119370
	push	10					; 0000000aH
	push	OFFSET $SG119371
	call	?textwidth@Font@@QAEHPBD@Z		; Font::textwidth
	mov	ecx, DWORD PTR ?video@@3VVideo@@A+52
	mov	edx, DWORD PTR ?f16@@3PAVFont@@A	; f16
	sub	ecx, eax
	sub	ecx, 20					; 00000014H
	push	ecx
	push	edx
	call	?shprint@Font@@QAAXHHPBDZZ		; Font::shprint
; Line 306
	mov	eax, DWORD PTR ?f24@@3PAVFont@@A	; f24
	push	OFFSET $SG119372
	push	74					; 0000004aH
	push	680					; 000002a8H
	push	eax
	call	?shprint@Font@@QAAXHHPBDZZ		; Font::shprint
; Line 344
	mov	ecx, DWORD PTR ?f16@@3PAVFont@@A	; f16
	push	OFFSET $SG119373
	push	110					; 0000006eH
	push	620					; 0000026cH
	push	ecx
	call	?shprint@Font@@QAAXHHPBDZZ		; Font::shprint
; Line 351
	mov	edx, DWORD PTR ?video@@3VVideo@@A+56
	mov	eax, DWORD PTR ?f16@@3PAVFont@@A	; f16
	push	OFFSET $SG119374
	add	edx, -20				; ffffffecH
	push	edx
	push	300					; 0000012cH
	push	eax
	call	?shprint@Font@@QAAXHHPBDZZ		; Font::shprint
; Line 354
	mov	ecx, DWORD PTR ?f24@@3PAVFont@@A	; f24
	add	esp, 64					; 00000040H
	push	OFFSET $SG119375
	push	74					; 0000004aH
	push	360					; 00000168H
	push	ecx
	call	?shprint@Font@@QAAXHHPBDZZ		; Font::shprint
	add	esp, 16					; 00000010H
; Line 355
	xor	edi, edi
	mov	ecx, DWORD PTR [esi+52]
	sub	ecx, DWORD PTR [esi+48]
	mov	eax, -2004318071			; 88888889H
	imul	ecx
	add	edx, ecx
	sar	edx, 6
	mov	eax, edx
	shr	eax, 31					; 0000001fH
	add	eax, edx
	je	SHORT $LN95@display
; Line 295
	xor	ebx, ebx
$LL9@display:
; Line 357
	mov	ecx, DWORD PTR [esi+48]
	lea	eax, DWORD PTR [ebx+ecx]
	cmp	DWORD PTR [eax+92], 16			; 00000010H
	lea	ecx, DWORD PTR [eax+72]
	jb	SHORT $LN44@display
	mov	ecx, DWORD PTR [ecx]
$LN44@display:
	mov	edx, DWORD PTR [eax+4]
	mov	eax, DWORD PTR [eax]
	push	ecx
	mov	ecx, DWORD PTR ?f16@@3PAVFont@@A	; f16
	push	edx
	push	eax
	call	?shdrawtext@Font@@QAEXHHPBD@Z		; Font::shdrawtext
	mov	ecx, DWORD PTR [esi+52]
	sub	ecx, DWORD PTR [esi+48]
	mov	eax, -2004318071			; 88888889H
	imul	ecx
	add	edx, ecx
	sar	edx, 6
	mov	ecx, edx
	shr	ecx, 31					; 0000001fH
	inc	edi
	add	ecx, edx
	add	ebx, 120				; 00000078H
	cmp	edi, ecx
	jb	SHORT $LL9@display
$LN95@display:
; Line 362
	mov	ecx, DWORD PTR [esi+36]
	sub	ecx, DWORD PTR [esi+32]
	mov	eax, 1808407283				; 6bca1af3H
	imul	ecx
	sar	edx, 5
	mov	eax, edx
	shr	eax, 31					; 0000001fH
	xor	edi, edi
	add	eax, edx
	je	$LN4@display
	xor	ebx, ebx
	npad	6
$LL6@display:
; Line 364
	sub	esp, 16					; 00000010H
	mov	DWORD PTR [esp+12], 1065353216		; 3f800000H
	mov	DWORD PTR [esp+8], 1065353216		; 3f800000H
	mov	DWORD PTR [esp+4], 1065353216		; 3f800000H
	cmp	edi, DWORD PTR [esi+4]
	jne	SHORT $LN3@display
	mov	DWORD PTR [esp], 0
	jmp	SHORT $LN98@display
$LN3@display:
; Line 365
	mov	DWORD PTR [esp], 1065353216		; 3f800000H
$LN98@display:
	call	DWORD PTR __imp__glColor4f@16
; Line 369
	mov	ecx, DWORD PTR [esi+32]
	lea	eax, DWORD PTR [ebx+ecx]
	cmp	DWORD PTR [eax+36], 16			; 00000010H
	lea	ecx, DWORD PTR [eax+16]
	jb	SHORT $LN58@display
	mov	ecx, DWORD PTR [ecx]
$LN58@display:
	mov	edx, DWORD PTR [eax+4]
	push	ecx
	mov	ecx, DWORD PTR [eax]
	push	edx
	mov	edx, DWORD PTR [eax+72]
	push	ecx
	push	edx
	call	?shprint@Font@@QAAXHHPBDZZ		; Font::shprint
	mov	ecx, DWORD PTR [esi+36]
	sub	ecx, DWORD PTR [esi+32]
	mov	eax, 1808407283				; 6bca1af3H
	imul	ecx
	sar	edx, 5
	mov	eax, edx
	shr	eax, 31					; 0000001fH
	inc	edi
	add	eax, edx
	add	esp, 16					; 00000010H
	add	ebx, 76					; 0000004cH
	cmp	edi, eax
	jb	SHORT $LL6@display
$LN4@display:
; Line 373
	sub	esp, 16					; 00000010H
	mov	DWORD PTR [esp+12], 1065353216		; 3f800000H
	mov	DWORD PTR [esp+8], 1065353216		; 3f800000H
	mov	DWORD PTR [esp+4], 1065353216		; 3f800000H
	mov	DWORD PTR [esp], 1065353216		; 3f800000H
	call	DWORD PTR __imp__glColor4f@16
; Line 374
	mov	eax, DWORD PTR [esi+4]
	cmp	eax, -1
	je	SHORT $LN1@display
; Line 376
	mov	ecx, DWORD PTR [esi+32]
	imul	eax, 76					; 0000004cH
	lea	eax, DWORD PTR [eax+ecx+44]
	mov	edx, 16					; 00000010H
	cmp	DWORD PTR [eax+20], edx
	jb	SHORT $LN72@display
	mov	ecx, DWORD PTR [eax]
	jmp	SHORT $LN73@display
$LN72@display:
	mov	ecx, eax
$LN73@display:
	cmp	DWORD PTR [eax+20], edx
	jb	SHORT $LN80@display
	mov	eax, DWORD PTR [eax]
$LN80@display:
	mov	edx, DWORD PTR ?video@@3VVideo@@A+56
	push	ecx
	mov	ecx, DWORD PTR ?f32@@3PAVFont@@A	; f32
	add	edx, -40				; ffffffd8H
	push	edx
	push	eax
	call	?textwidth@Font@@QAEHPBD@Z		; Font::textwidth
	cdq
	sub	eax, edx
	mov	ecx, eax
	mov	eax, DWORD PTR ?video@@3VVideo@@A+52
	cdq
	sub	eax, edx
	mov	edx, DWORD PTR ?f32@@3PAVFont@@A	; f32
	sar	ecx, 1
	sar	eax, 1
	sub	eax, ecx
	push	eax
	push	edx
	call	?shprint@Font@@QAAXHHPBDZZ		; Font::shprint
	add	esp, 16					; 00000010H
$LN1@display:
	pop	edi
	pop	esi
	pop	ebx
; Line 379
	mov	esp, ebp
	pop	ebp
	ret	8
?display@Menu@@UAEXMM@Z ENDP				; Menu::display
_TEXT	ENDS
PUBLIC	__real@4080aaaaa0000000
PUBLIC	?mouseclick@Menu@@UAEXPAUSDL_MouseButtonEvent@@@Z ; Menu::mouseclick
EXTRN	??0World@@QAE@PBD@Z:PROC			; World::World
EXTRN	__ftol2_sse_excpt:PROC
;	COMDAT __real@4080aaaaa0000000
CONST	SEGMENT
__real@4080aaaaa0000000 DQ 04080aaaaa0000000r	; 533.333
CONST	ENDS
xdata$x	SEGMENT
__unwindtable$?mouseclick@Menu@@UAEXPAUSDL_MouseButtonEvent@@@Z DD 0ffffffffH
	DD	FLAT:__unwindfunclet$?mouseclick@Menu@@UAEXPAUSDL_MouseButtonEvent@@@Z$0
	DD	0ffffffffH
	DD	FLAT:__unwindfunclet$?mouseclick@Menu@@UAEXPAUSDL_MouseButtonEvent@@@Z$1
__ehfuncinfo$?mouseclick@Menu@@UAEXPAUSDL_MouseButtonEvent@@@Z DD 019930522H
	DD	02H
	DD	FLAT:__unwindtable$?mouseclick@Menu@@UAEXPAUSDL_MouseButtonEvent@@@Z
	DD	2 DUP(00H)
	DD	2 DUP(00H)
	DD	00H
	DD	01H
; Function compile flags: /Ogtp
xdata$x	ENDS
_TEXT	SEGMENT
tv486 = -20						; size = 4
$T136148 = -20						; size = 4
_found$119455 = -13					; size = 1
__$EHRec$ = -12						; size = 12
$T136147 = 8						; size = 4
$T136123 = 8						; size = 4
$T136115 = 8						; size = 4
_e$ = 8							; size = 4
?mouseclick@Menu@@UAEXPAUSDL_MouseButtonEvent@@@Z PROC	; Menu::mouseclick
; _this$ = ecx
; Line 404
	push	ebp
	mov	ebp, esp
	push	-1
	push	__ehhandler$?mouseclick@Menu@@UAEXPAUSDL_MouseButtonEvent@@@Z
	mov	eax, DWORD PTR fs:0
	push	eax
	sub	esp, 8
	push	ebx
	push	esi
	push	edi
	mov	eax, DWORD PTR ___security_cookie
	xor	eax, ebp
	push	eax
	lea	eax, DWORD PTR __$EHRec$[ebp]
	mov	DWORD PTR fs:0, eax
	mov	esi, ecx
; Line 409
	cmp	DWORD PTR [esi+8], 0
	jne	$LN2@mouseclick
; Line 413
	mov	ecx, DWORD PTR _e$[ebp]
	movzx	eax, WORD PTR [ecx+4]
	mov	edx, DWORD PTR [esi+4]
	mov	edi, 200				; 000000c8H
	mov	DWORD PTR tv486[ebp], edx
	cmp	ax, di
	jb	$LN17@mouseclick
	mov	edi, 968				; 000003c8H
	cmp	ax, di
	jae	$LN17@mouseclick
; Line 415
	cmp	edx, -1
	je	SHORT $LN96@mouseclick
	cmp	DWORD PTR [esi+28], 0
	je	SHORT $LN16@mouseclick
	mov	edi, 768				; 00000300H
	cmp	WORD PTR [ecx+6], di
	jae	SHORT $LN16@mouseclick
; Line 417
	add	eax, -200				; ffffff38H
	mov	DWORD PTR [esi+12], eax
; Line 418
	movzx	eax, WORD PTR [ecx+6]
	mov	DWORD PTR [esi+16], eax
; Line 419
	mov	DWORD PTR [esi+8], 1
$LN16@mouseclick:
; Line 422
	cmp	edx, -1
	jne	$LN2@mouseclick
$LN96@mouseclick:
; Line 424
	mov	edi, DWORD PTR [esi+52]
	sub	edi, DWORD PTR [esi+48]
	mov	eax, -2004318071			; 88888889H
	imul	edi
	add	edx, edi
	sar	edx, 6
	mov	edi, edx
	shr	edi, 31					; 0000001fH
	xor	ebx, ebx
	add	edi, edx
	je	$LN2@mouseclick
; Line 426
	movzx	edx, WORD PTR [ecx+6]
	movzx	ecx, WORD PTR [ecx+4]
	mov	DWORD PTR $T136147[ebp], ecx
	mov	ecx, DWORD PTR [esi+48]
	mov	DWORD PTR $T136148[ebp], edx
	mov	eax, ecx
$LL14@mouseclick:
	cmp	edx, DWORD PTR [eax+4]
	jl	SHORT $LN37@mouseclick
	cmp	edx, DWORD PTR [eax+12]
	jge	SHORT $LN37@mouseclick
	mov	edx, DWORD PTR $T136147[ebp]
	cmp	edx, DWORD PTR [eax]
	jl	SHORT $LN93@mouseclick
	cmp	edx, DWORD PTR [eax+8]
	jl	SHORT $LN83@mouseclick
$LN93@mouseclick:
	mov	edx, DWORD PTR $T136148[ebp]
$LN37@mouseclick:
; Line 424
	inc	ebx
	add	eax, 120				; 00000078H
	cmp	ebx, edi
	jb	SHORT $LL14@mouseclick
; Line 475
	mov	ecx, DWORD PTR __$EHRec$[ebp]
	mov	DWORD PTR fs:0, ecx
	pop	ecx
	pop	edi
	pop	esi
	pop	ebx
	mov	esp, ebp
	pop	ebp
	ret	4
$LN83@mouseclick:
; Line 431
	mov	edi, ebx
	shl	edi, 4
	sub	edi, ebx
	add	edi, edi
	add	edi, edi
	mov	DWORD PTR [esi+8], 1
	mov	BYTE PTR [esi+64], 0
	add	edi, edi
	mov	edx, DWORD PTR [ecx+edi+112]
	mov	DWORD PTR [esi+68], edx
; Line 432
	mov	eax, DWORD PTR [ecx+edi+116]
; Line 434
	push	21268					; 00005314H
	mov	DWORD PTR [esi+72], eax
	call	??2@YAPAXI@Z				; operator new
	add	esp, 4
	mov	DWORD PTR $T136115[ebp], eax
	mov	DWORD PTR __$EHRec$[ebp+8], 0
	test	eax, eax
	je	SHORT $LN21@mouseclick
	mov	ecx, DWORD PTR [esi+48]
	cmp	DWORD PTR [edi+ecx+36], 16		; 00000010H
	lea	ecx, DWORD PTR [edi+ecx+16]
	jb	SHORT $LN49@mouseclick
	mov	ecx, DWORD PTR [ecx]
$LN49@mouseclick:
	push	ecx
	mov	ecx, eax
	call	??0World@@QAE@PBD@Z			; World::World
	jmp	SHORT $LN22@mouseclick
$LN21@mouseclick:
	xor	eax, eax
$LN22@mouseclick:
; Line 435
	mov	edx, DWORD PTR [esi+48]
	lea	ecx, DWORD PTR [edi+edx+100]
	mov	DWORD PTR [esi+28], eax
	mov	edx, DWORD PTR [ecx]
	mov	DWORD PTR [eax+20928], edx
	mov	edx, DWORD PTR [ecx+4]
	mov	DWORD PTR [eax+20932], edx
	mov	ecx, DWORD PTR [ecx+8]
	mov	DWORD PTR [eax+20936], ecx
; Line 437
	add	edi, DWORD PTR [esi+48]
	fld	DWORD PTR [edi+100]
	fld	QWORD PTR __real@4080aaaaa0000000
	fdiv	ST(1), ST(0)
	fxch	ST(1)
	call	__ftol2_sse_excpt
	mov	DWORD PTR [esi+24], eax
; Line 438
	fdivr	DWORD PTR [edi+108]
	call	__ftol2_sse_excpt
	mov	DWORD PTR [esi+20], eax
; Line 475
	mov	ecx, DWORD PTR __$EHRec$[ebp]
	mov	DWORD PTR fs:0, ecx
	pop	ecx
	pop	edi
	pop	esi
	pop	ebx
	mov	esp, ebp
	pop	ebp
	ret	4
$LN17@mouseclick:
; Line 451
	mov	edx, DWORD PTR [esi+36]
	sub	edx, DWORD PTR [esi+32]
	mov	eax, 1808407283				; 6bca1af3H
	imul	edx
	sar	edx, 5
	mov	eax, edx
	shr	eax, 31					; 0000001fH
	xor	edi, edi
	add	eax, edx
	mov	BYTE PTR _found$119455[ebp], 0
	je	$LN5@mouseclick
; Line 449
	mov	ebx, DWORD PTR [esi+32]
	jmp	SHORT $LN9@mouseclick
	npad	5
$LL91@mouseclick:
	mov	ecx, DWORD PTR _e$[ebp]
$LN9@mouseclick:
; Line 453
	movzx	eax, WORD PTR [ecx+6]
	movzx	ecx, WORD PTR [ecx+4]
	cmp	eax, DWORD PTR [ebx+4]
	jl	SHORT $LN8@mouseclick
	cmp	eax, DWORD PTR [ebx+12]
	jge	SHORT $LN8@mouseclick
	cmp	ecx, DWORD PTR [ebx]
	jl	SHORT $LN8@mouseclick
	cmp	ecx, DWORD PTR [ebx+8]
	jge	SHORT $LN8@mouseclick
; Line 455
	mov	DWORD PTR [esi+4], edi
; Line 456
	mov	BYTE PTR _found$119455[ebp], 1
$LN8@mouseclick:
; Line 451
	mov	ecx, DWORD PTR [esi+36]
	sub	ecx, DWORD PTR [esi+32]
	mov	eax, 1808407283				; 6bca1af3H
	imul	ecx
	sar	edx, 5
	mov	ecx, edx
	shr	ecx, 31					; 0000001fH
	inc	edi
	add	ecx, edx
	add	ebx, 76					; 0000004cH
	cmp	edi, ecx
	jb	SHORT $LL91@mouseclick
; Line 460
	cmp	BYTE PTR _found$119455[ebp], 0
	je	$LN5@mouseclick
; Line 462
	mov	edx, DWORD PTR tv486[ebp]
	cmp	DWORD PTR [esi+4], edx
	je	$LN2@mouseclick
; Line 464
	mov	edi, DWORD PTR [esi+28]
	test	edi, edi
	je	SHORT $LN67@mouseclick
	mov	ecx, edi
	call	??1World@@QAE@XZ			; World::~World
	push	edi
	call	??3@YAXPAX@Z				; operator delete
	add	esp, 4
$LN67@mouseclick:
; Line 465
	push	21268					; 00005314H
	call	??2@YAPAXI@Z				; operator new
	add	esp, 4
	mov	DWORD PTR $T136123[ebp], eax
	mov	DWORD PTR __$EHRec$[ebp+8], 1
	test	eax, eax
	je	SHORT $LN25@mouseclick
	mov	ecx, DWORD PTR [esi+4]
	mov	edx, DWORD PTR [esi+32]
	imul	ecx, 76					; 0000004cH
	cmp	DWORD PTR [ecx+edx+36], 16		; 00000010H
	lea	edx, DWORD PTR [ecx+edx+16]
	jb	SHORT $LN76@mouseclick
	mov	edx, DWORD PTR [edx]
$LN76@mouseclick:
	push	edx
	mov	ecx, eax
	call	??0World@@QAE@PBD@Z			; World::World
	mov	DWORD PTR [esi+28], eax
; Line 475
	mov	ecx, DWORD PTR __$EHRec$[ebp]
	mov	DWORD PTR fs:0, ecx
	pop	ecx
	pop	edi
	pop	esi
	pop	ebx
	mov	esp, ebp
	pop	ebp
	ret	4
$LN25@mouseclick:
; Line 465
	xor	eax, eax
	mov	DWORD PTR [esi+28], eax
; Line 475
	mov	ecx, DWORD PTR __$EHRec$[ebp]
	mov	DWORD PTR fs:0, ecx
	pop	ecx
	pop	edi
	pop	esi
	pop	ebx
	mov	esp, ebp
	pop	ebp
	ret	4
$LN5@mouseclick:
; Line 470
	mov	edi, DWORD PTR [esi+28]
	test	edi, edi
	je	SHORT $LN78@mouseclick
	mov	ecx, edi
	call	??1World@@QAE@XZ			; World::~World
	push	edi
	call	??3@YAXPAX@Z				; operator delete
	add	esp, 4
$LN78@mouseclick:
; Line 471
	mov	DWORD PTR [esi+4], -1
; Line 472
	mov	DWORD PTR [esi+28], 0
$LN2@mouseclick:
; Line 475
	mov	ecx, DWORD PTR __$EHRec$[ebp]
	mov	DWORD PTR fs:0, ecx
	pop	ecx
	pop	edi
	pop	esi
	pop	ebx
	mov	esp, ebp
	pop	ebp
	ret	4
_TEXT	ENDS
text$x	SEGMENT
__unwindfunclet$?mouseclick@Menu@@UAEXPAUSDL_MouseButtonEvent@@@Z$0:
	mov	eax, DWORD PTR $T136115[ebp]
	push	eax
	call	??3@YAXPAX@Z				; operator delete
	pop	ecx
	ret	0
__unwindfunclet$?mouseclick@Menu@@UAEXPAUSDL_MouseButtonEvent@@@Z$1:
	mov	eax, DWORD PTR $T136123[ebp]
	push	eax
	call	??3@YAXPAX@Z				; operator delete
	pop	ecx
	ret	0
__ehhandler$?mouseclick@Menu@@UAEXPAUSDL_MouseButtonEvent@@@Z:
	mov	edx, DWORD PTR [esp+8]
	lea	eax, DWORD PTR [edx+12]
	mov	ecx, DWORD PTR [edx-24]
	xor	ecx, eax
	call	@__security_check_cookie@4
	mov	eax, OFFSET __ehfuncinfo$?mouseclick@Menu@@UAEXPAUSDL_MouseButtonEvent@@@Z
	jmp	___CxxFrameHandler3
text$x	ENDS
?mouseclick@Menu@@UAEXPAUSDL_MouseButtonEvent@@@Z ENDP	; Menu::mouseclick
PUBLIC	?compare@?$basic_string@DU?$char_traits@D@std@@V?$allocator@D@2@@std@@QBEHABV12@@Z ; std::basic_string<char,std::char_traits<char>,std::allocator<char> >::compare
; Function compile flags: /Ogtp
;	COMDAT ?compare@?$basic_string@DU?$char_traits@D@std@@V?$allocator@D@2@@std@@QBEHABV12@@Z
_TEXT	SEGMENT
__Right$ = 8						; size = 4
?compare@?$basic_string@DU?$char_traits@D@std@@V?$allocator@D@2@@std@@QBEHABV12@@Z PROC ; std::basic_string<char,std::char_traits<char>,std::allocator<char> >::compare, COMDAT
; _this$ = ecx
; File c:\program files (x86)\microsoft visual studio 10.0\vc\include\xstring
; Line 1852
	push	ebp
	mov	ebp, esp
; Line 1853
	mov	eax, DWORD PTR __Right$[ebp]
	cmp	DWORD PTR [eax+20], 16			; 00000010H
	mov	edx, DWORD PTR [eax+16]
	jb	SHORT $LN7@compare@3
	mov	eax, DWORD PTR [eax]
$LN7@compare@3:
	push	edx
	push	eax
	mov	eax, DWORD PTR [ecx+16]
	push	eax
	push	0
	call	?compare@?$basic_string@DU?$char_traits@D@std@@V?$allocator@D@2@@std@@QBEHIIPBDI@Z ; std::basic_string<char,std::char_traits<char>,std::allocator<char> >::compare
; Line 1854
	pop	ebp
	ret	4
?compare@?$basic_string@DU?$char_traits@D@std@@V?$allocator@D@2@@std@@QBEHABV12@@Z ENDP ; std::basic_string<char,std::char_traits<char>,std::allocator<char> >::compare
_TEXT	ENDS
PUBLIC	?compare@?$basic_string@DU?$char_traits@D@std@@V?$allocator@D@2@@std@@QBEHPBD@Z ; std::basic_string<char,std::char_traits<char>,std::allocator<char> >::compare
; Function compile flags: /Ogtp
;	COMDAT ?compare@?$basic_string@DU?$char_traits@D@std@@V?$allocator@D@2@@std@@QBEHPBD@Z
_TEXT	SEGMENT
__Ptr$ = 8						; size = 4
?compare@?$basic_string@DU?$char_traits@D@std@@V?$allocator@D@2@@std@@QBEHPBD@Z PROC ; std::basic_string<char,std::char_traits<char>,std::allocator<char> >::compare, COMDAT
; _this$ = ecx
; Line 1874
	push	ebp
	mov	ebp, esp
	push	esi
; Line 1876
	mov	esi, DWORD PTR __Ptr$[ebp]
	mov	eax, esi
	push	edi
	lea	edi, DWORD PTR [eax+1]
	npad	3
$LL5@compare@4:
	mov	dl, BYTE PTR [eax]
	inc	eax
	test	dl, dl
	jne	SHORT $LL5@compare@4
	sub	eax, edi
	push	eax
	mov	eax, DWORD PTR [ecx+16]
	push	esi
	push	eax
	push	0
	call	?compare@?$basic_string@DU?$char_traits@D@std@@V?$allocator@D@2@@std@@QBEHIIPBDI@Z ; std::basic_string<char,std::char_traits<char>,std::allocator<char> >::compare
	pop	edi
	pop	esi
; Line 1877
	pop	ebp
	ret	4
?compare@?$basic_string@DU?$char_traits@D@std@@V?$allocator@D@2@@std@@QBEHPBD@Z ENDP ; std::basic_string<char,std::char_traits<char>,std::allocator<char> >::compare
_TEXT	ENDS
PUBLIC	??0?$vector@UMapEntry@@V?$allocator@UMapEntry@@@std@@@std@@QAE@XZ ; std::vector<MapEntry,std::allocator<MapEntry> >::vector<MapEntry,std::allocator<MapEntry> >
; Function compile flags: /Ogtp
;	COMDAT ??0?$vector@UMapEntry@@V?$allocator@UMapEntry@@@std@@@std@@QAE@XZ
_TEXT	SEGMENT
??0?$vector@UMapEntry@@V?$allocator@UMapEntry@@@std@@@std@@QAE@XZ PROC ; std::vector<MapEntry,std::allocator<MapEntry> >::vector<MapEntry,std::allocator<MapEntry> >, COMDAT
; _this$ = ecx
; File c:\program files (x86)\microsoft visual studio 10.0\vc\include\vector
; Line 507
	mov	eax, ecx
	xor	ecx, ecx
	mov	DWORD PTR [eax], ecx
	mov	DWORD PTR [eax+4], ecx
	mov	DWORD PTR [eax+8], ecx
; Line 508
	ret	0
??0?$vector@UMapEntry@@V?$allocator@UMapEntry@@@std@@@std@@QAE@XZ ENDP ; std::vector<MapEntry,std::allocator<MapEntry> >::vector<MapEntry,std::allocator<MapEntry> >
_TEXT	ENDS
PUBLIC	??0?$vector@UBookmark@@V?$allocator@UBookmark@@@std@@@std@@QAE@XZ ; std::vector<Bookmark,std::allocator<Bookmark> >::vector<Bookmark,std::allocator<Bookmark> >
; Function compile flags: /Ogtp
;	COMDAT ??0?$vector@UBookmark@@V?$allocator@UBookmark@@@std@@@std@@QAE@XZ
_TEXT	SEGMENT
??0?$vector@UBookmark@@V?$allocator@UBookmark@@@std@@@std@@QAE@XZ PROC ; std::vector<Bookmark,std::allocator<Bookmark> >::vector<Bookmark,std::allocator<Bookmark> >, COMDAT
; _this$ = ecx
; Line 507
	mov	eax, ecx
	xor	ecx, ecx
	mov	DWORD PTR [eax], ecx
	mov	DWORD PTR [eax+4], ecx
	mov	DWORD PTR [eax+8], ecx
; Line 508
	ret	0
??0?$vector@UBookmark@@V?$allocator@UBookmark@@@std@@@std@@QAE@XZ ENDP ; std::vector<Bookmark,std::allocator<Bookmark> >::vector<Bookmark,std::allocator<Bookmark> >
_TEXT	ENDS
PUBLIC	?erase@?$basic_string@DU?$char_traits@D@std@@V?$allocator@D@2@@std@@QAEAAV12@II@Z ; std::basic_string<char,std::char_traits<char>,std::allocator<char> >::erase
; Function compile flags: /Ogtp
;	COMDAT ?erase@?$basic_string@DU?$char_traits@D@std@@V?$allocator@D@2@@std@@QAEAAV12@II@Z
_TEXT	SEGMENT
__Off$ = 8						; size = 4
__Count$ = 12						; size = 4
?erase@?$basic_string@DU?$char_traits@D@std@@V?$allocator@D@2@@std@@QAEAAV12@II@Z PROC ; std::basic_string<char,std::char_traits<char>,std::allocator<char> >::erase, COMDAT
; _this$ = ecx
; File c:\program files (x86)\microsoft visual studio 10.0\vc\include\xstring
; Line 1108
	push	ebp
	mov	ebp, esp
	push	esi
	mov	esi, ecx
; Line 1109
	mov	eax, DWORD PTR [esi+16]
	mov	ecx, DWORD PTR __Off$[ebp]
	push	edi
	cmp	eax, ecx
	jae	SHORT $LN3@erase
; Line 1110
	push	OFFSET ??_C@_0BI@CFPLBAOH@invalid?5string?5position?$AA@
	call	DWORD PTR __imp_?_Xout_of_range@std@@YAXPBD@Z
$LN28@erase:
$LN3@erase:
; Line 1111
	mov	edi, DWORD PTR __Count$[ebp]
	sub	eax, ecx
	cmp	eax, edi
	jae	SHORT $LN2@erase
; Line 1112
	mov	edi, eax
$LN2@erase:
; Line 1113
	test	edi, edi
	je	SHORT $LN25@erase
; Line 1116
	mov	edx, DWORD PTR [esi+20]
	push	ebx
	cmp	edx, 16					; 00000010H
	jb	SHORT $LN11@erase
	mov	ebx, DWORD PTR [esi]
	jmp	SHORT $LN12@erase
$LN11@erase:
	mov	ebx, esi
$LN12@erase:
	cmp	edx, 16					; 00000010H
	jb	SHORT $LN15@erase
	mov	edx, DWORD PTR [esi]
	jmp	SHORT $LN16@erase
$LN15@erase:
	mov	edx, esi
$LN16@erase:
	sub	eax, edi
	add	ebx, ecx
	push	eax
	add	ebx, edi
	add	edx, ecx
	push	ebx
	push	edx
	call	DWORD PTR __imp__memmove
; Line 1117
	mov	eax, DWORD PTR [esi+16]
	add	esp, 12					; 0000000cH
	sub	eax, edi
; Line 1118
	cmp	DWORD PTR [esi+20], 16			; 00000010H
	mov	DWORD PTR [esi+16], eax
	pop	ebx
	jb	SHORT $LN23@erase
	mov	ecx, DWORD PTR [esi]
	mov	BYTE PTR [ecx+eax], 0
	pop	edi
; Line 1120
	mov	eax, esi
	pop	esi
; Line 1121
	pop	ebp
	ret	8
; Line 1118
$LN23@erase:
	mov	ecx, esi
	mov	BYTE PTR [ecx+eax], 0
$LN25@erase:
; Line 1120
	pop	edi
	mov	eax, esi
	pop	esi
; Line 1121
	pop	ebp
	ret	8
$LN27@erase:
?erase@?$basic_string@DU?$char_traits@D@std@@V?$allocator@D@2@@std@@QAEAAV12@II@Z ENDP ; std::basic_string<char,std::char_traits<char>,std::allocator<char> >::erase
_TEXT	ENDS
PUBLIC	?begin@?$basic_string@DU?$char_traits@D@std@@V?$allocator@D@2@@std@@QAE?AV?$_String_iterator@DU?$char_traits@D@std@@V?$allocator@D@2@@2@XZ ; std::basic_string<char,std::char_traits<char>,std::allocator<char> >::begin
; Function compile flags: /Ogtp
;	COMDAT ?begin@?$basic_string@DU?$char_traits@D@std@@V?$allocator@D@2@@std@@QAE?AV?$_String_iterator@DU?$char_traits@D@std@@V?$allocator@D@2@@2@XZ
_TEXT	SEGMENT
___$ReturnUdt$ = 8					; size = 4
?begin@?$basic_string@DU?$char_traits@D@std@@V?$allocator@D@2@@std@@QAE?AV?$_String_iterator@DU?$char_traits@D@std@@V?$allocator@D@2@@2@XZ PROC ; std::basic_string<char,std::char_traits<char>,std::allocator<char> >::begin, COMDAT
; _this$ = ecx
; Line 1350
	push	ebp
	mov	ebp, esp
; Line 1351
	cmp	DWORD PTR [ecx+20], 16			; 00000010H
	mov	eax, DWORD PTR ___$ReturnUdt$[ebp]
	jb	SHORT $LN5@begin
	mov	ecx, DWORD PTR [ecx]
$LN5@begin:
	mov	DWORD PTR [eax], ecx
; Line 1352
	pop	ebp
	ret	4
?begin@?$basic_string@DU?$char_traits@D@std@@V?$allocator@D@2@@std@@QAE?AV?$_String_iterator@DU?$char_traits@D@std@@V?$allocator@D@2@@2@XZ ENDP ; std::basic_string<char,std::char_traits<char>,std::allocator<char> >::begin
_TEXT	ENDS
PUBLIC	?_Tidy@?$basic_string@DU?$char_traits@D@std@@V?$allocator@D@2@@std@@QAEX_NI@Z ; std::basic_string<char,std::char_traits<char>,std::allocator<char> >::_Tidy
; Function compile flags: /Ogtp
;	COMDAT ?_Tidy@?$basic_string@DU?$char_traits@D@std@@V?$allocator@D@2@@std@@QAEX_NI@Z
_TEXT	SEGMENT
__Built$ = 8						; size = 1
__Newsize$ = 12						; size = 4
?_Tidy@?$basic_string@DU?$char_traits@D@std@@V?$allocator@D@2@@std@@QAEX_NI@Z PROC ; std::basic_string<char,std::char_traits<char>,std::allocator<char> >::_Tidy, COMDAT
; _this$ = ecx
; Line 1987
	push	ebp
	mov	ebp, esp
; Line 1988
	cmp	BYTE PTR __Built$[ebp], 0
	push	esi
	push	edi
	mov	edi, DWORD PTR __Newsize$[ebp]
	mov	esi, ecx
	je	SHORT $LN9@Tidy
; Line 1990
	cmp	DWORD PTR [esi+20], 16			; 00000010H
	jb	SHORT $LN9@Tidy
; Line 1992
	push	ebx
	mov	ebx, DWORD PTR [esi]
; Line 1993
	test	edi, edi
	je	SHORT $LN7@Tidy
; Line 1994
	push	edi
	push	ebx
	push	esi
	call	_memcpy
	add	esp, 12					; 0000000cH
$LN7@Tidy:
; Line 1995
	push	ebx
	call	??3@YAXPAX@Z				; operator delete
	add	esp, 4
	pop	ebx
$LN9@Tidy:
; Line 1998
	mov	DWORD PTR [esi+16], edi
	mov	DWORD PTR [esi+20], 15			; 0000000fH
	mov	BYTE PTR [edi+esi], 0
	pop	edi
	pop	esi
; Line 1999
	pop	ebp
	ret	8
?_Tidy@?$basic_string@DU?$char_traits@D@std@@V?$allocator@D@2@@std@@QAEX_NI@Z ENDP ; std::basic_string<char,std::char_traits<char>,std::allocator<char> >::_Tidy
_TEXT	ENDS
PUBLIC	?begin@?$vector@UBookmark@@V?$allocator@UBookmark@@@std@@@std@@QAE?AV?$_Vector_iterator@V?$_Vector_val@UBookmark@@V?$allocator@UBookmark@@@std@@@std@@@2@XZ ; std::vector<Bookmark,std::allocator<Bookmark> >::begin
; Function compile flags: /Ogtp
;	COMDAT ?begin@?$vector@UBookmark@@V?$allocator@UBookmark@@@std@@@std@@QAE?AV?$_Vector_iterator@V?$_Vector_val@UBookmark@@V?$allocator@UBookmark@@@std@@@std@@@2@XZ
_TEXT	SEGMENT
___$ReturnUdt$ = 8					; size = 4
?begin@?$vector@UBookmark@@V?$allocator@UBookmark@@@std@@@std@@QAE?AV?$_Vector_iterator@V?$_Vector_val@UBookmark@@V?$allocator@UBookmark@@@std@@@std@@@2@XZ PROC ; std::vector<Bookmark,std::allocator<Bookmark> >::begin, COMDAT
; _this$ = ecx
; File c:\program files (x86)\microsoft visual studio 10.0\vc\include\vector
; Line 781
	push	ebp
	mov	ebp, esp
; Line 782
	mov	ecx, DWORD PTR [ecx]
	mov	eax, DWORD PTR ___$ReturnUdt$[ebp]
	mov	DWORD PTR [eax], ecx
; Line 783
	pop	ebp
	ret	4
?begin@?$vector@UBookmark@@V?$allocator@UBookmark@@@std@@@std@@QAE?AV?$_Vector_iterator@V?$_Vector_val@UBookmark@@V?$allocator@UBookmark@@@std@@@std@@@2@XZ ENDP ; std::vector<Bookmark,std::allocator<Bookmark> >::begin
_TEXT	ENDS
PUBLIC	?end@?$vector@UBookmark@@V?$allocator@UBookmark@@@std@@@std@@QAE?AV?$_Vector_iterator@V?$_Vector_val@UBookmark@@V?$allocator@UBookmark@@@std@@@std@@@2@XZ ; std::vector<Bookmark,std::allocator<Bookmark> >::end
; Function compile flags: /Ogtp
;	COMDAT ?end@?$vector@UBookmark@@V?$allocator@UBookmark@@@std@@@std@@QAE?AV?$_Vector_iterator@V?$_Vector_val@UBookmark@@V?$allocator@UBookmark@@@std@@@std@@@2@XZ
_TEXT	SEGMENT
___$ReturnUdt$ = 8					; size = 4
?end@?$vector@UBookmark@@V?$allocator@UBookmark@@@std@@@std@@QAE?AV?$_Vector_iterator@V?$_Vector_val@UBookmark@@V?$allocator@UBookmark@@@std@@@std@@@2@XZ PROC ; std::vector<Bookmark,std::allocator<Bookmark> >::end, COMDAT
; _this$ = ecx
; Line 791
	push	ebp
	mov	ebp, esp
; Line 792
	mov	ecx, DWORD PTR [ecx+4]
	mov	eax, DWORD PTR ___$ReturnUdt$[ebp]
	mov	DWORD PTR [eax], ecx
; Line 793
	pop	ebp
	ret	4
?end@?$vector@UBookmark@@V?$allocator@UBookmark@@@std@@@std@@QAE?AV?$_Vector_iterator@V?$_Vector_val@UBookmark@@V?$allocator@UBookmark@@@std@@@std@@@2@XZ ENDP ; std::vector<Bookmark,std::allocator<Bookmark> >::end
_TEXT	ENDS
PUBLIC	?_Make_iter@?$vector@UBookmark@@V?$allocator@UBookmark@@@std@@@std@@QBE?AV?$_Vector_iterator@V?$_Vector_val@UBookmark@@V?$allocator@UBookmark@@@std@@@std@@@2@V?$_Vector_const_iterator@V?$_Vector_val@UBookmark@@V?$allocator@UBookmark@@@std@@@std@@@2@@Z ; std::vector<Bookmark,std::allocator<Bookmark> >::_Make_iter
; Function compile flags: /Ogtp
;	COMDAT ?_Make_iter@?$vector@UBookmark@@V?$allocator@UBookmark@@@std@@@std@@QBE?AV?$_Vector_iterator@V?$_Vector_val@UBookmark@@V?$allocator@UBookmark@@@std@@@std@@@2@V?$_Vector_const_iterator@V?$_Vector_val@UBookmark@@V?$allocator@UBookmark@@@std@@@std@@@2@@Z
_TEXT	SEGMENT
___$ReturnUdt$ = 8					; size = 4
__Where$ = 12						; size = 4
?_Make_iter@?$vector@UBookmark@@V?$allocator@UBookmark@@@std@@@std@@QBE?AV?$_Vector_iterator@V?$_Vector_val@UBookmark@@V?$allocator@UBookmark@@@std@@@std@@@2@V?$_Vector_const_iterator@V?$_Vector_val@UBookmark@@V?$allocator@UBookmark@@@std@@@std@@@2@@Z PROC ; std::vector<Bookmark,std::allocator<Bookmark> >::_Make_iter, COMDAT
; _this$ = ecx
; Line 801
	push	ebp
	mov	ebp, esp
; Line 802
	mov	eax, DWORD PTR ___$ReturnUdt$[ebp]
	mov	ecx, DWORD PTR __Where$[ebp]
	mov	DWORD PTR [eax], ecx
; Line 803
	pop	ebp
	ret	8
?_Make_iter@?$vector@UBookmark@@V?$allocator@UBookmark@@@std@@@std@@QBE?AV?$_Vector_iterator@V?$_Vector_val@UBookmark@@V?$allocator@UBookmark@@@std@@@std@@@2@V?$_Vector_const_iterator@V?$_Vector_val@UBookmark@@V?$allocator@UBookmark@@@std@@@std@@@2@@Z ENDP ; std::vector<Bookmark,std::allocator<Bookmark> >::_Make_iter
_TEXT	ENDS
PUBLIC	??9?$_Vector_const_iterator@V?$_Vector_val@UBookmark@@V?$allocator@UBookmark@@@std@@@std@@@std@@QBE_NABV01@@Z ; std::_Vector_const_iterator<std::_Vector_val<Bookmark,std::allocator<Bookmark> > >::operator!=
; Function compile flags: /Ogtp
;	COMDAT ??9?$_Vector_const_iterator@V?$_Vector_val@UBookmark@@V?$allocator@UBookmark@@@std@@@std@@@std@@QBE_NABV01@@Z
_TEXT	SEGMENT
__Right$ = 8						; size = 4
??9?$_Vector_const_iterator@V?$_Vector_val@UBookmark@@V?$allocator@UBookmark@@@std@@@std@@@std@@QBE_NABV01@@Z PROC ; std::_Vector_const_iterator<std::_Vector_val<Bookmark,std::allocator<Bookmark> > >::operator!=, COMDAT
; _this$ = ecx
; Line 207
	push	ebp
	mov	ebp, esp
; Line 208
	mov	eax, DWORD PTR [ecx]
	mov	edx, DWORD PTR __Right$[ebp]
	xor	ecx, ecx
	cmp	eax, DWORD PTR [edx]
	setne	al
; Line 209
	pop	ebp
	ret	4
??9?$_Vector_const_iterator@V?$_Vector_val@UBookmark@@V?$allocator@UBookmark@@@std@@@std@@@std@@QBE_NABV01@@Z ENDP ; std::_Vector_const_iterator<std::_Vector_val<Bookmark,std::allocator<Bookmark> > >::operator!=
_TEXT	ENDS
PUBLIC	?_Copy@?$basic_string@DU?$char_traits@D@std@@V?$allocator@D@2@@std@@QAEXII@Z ; std::basic_string<char,std::char_traits<char>,std::allocator<char> >::_Copy
;	COMDAT xdata$x
; File c:\program files (x86)\microsoft visual studio 10.0\vc\include\iosfwd
xdata$x	SEGMENT
__catchsym$?_Copy@?$basic_string@DU?$char_traits@D@std@@V?$allocator@D@2@@std@@QAEXII@Z$5 DD 040H
	DD	00H
	DD	00H
	DD	FLAT:__catch$?_Copy@?$basic_string@DU?$char_traits@D@std@@V?$allocator@D@2@@std@@QAEXII@Z$0
__catchsym$?_Copy@?$basic_string@DU?$char_traits@D@std@@V?$allocator@D@2@@std@@QAEXII@Z$4 DD 040H
	DD	00H
	DD	00H
	DD	FLAT:__catch$?_Copy@?$basic_string@DU?$char_traits@D@std@@V?$allocator@D@2@@std@@QAEXII@Z$1
__unwindtable$?_Copy@?$basic_string@DU?$char_traits@D@std@@V?$allocator@D@2@@std@@QAEXII@Z DD 0ffffffffH
	DD	00H
	DD	0ffffffffH
	DD	00H
	DD	01H
	DD	00H
	DD	01H
	DD	00H
__ehfuncinfo$?_Copy@?$basic_string@DU?$char_traits@D@std@@V?$allocator@D@2@@std@@QAEXII@Z DD 019930522H
	DD	04H
	DD	FLAT:__unwindtable$?_Copy@?$basic_string@DU?$char_traits@D@std@@V?$allocator@D@2@@std@@QAEXII@Z
	DD	02H
	DD	FLAT:__tryblocktable$?_Copy@?$basic_string@DU?$char_traits@D@std@@V?$allocator@D@2@@std@@QAEXII@Z
	DD	2 DUP(00H)
	DD	00H
	DD	01H
__tryblocktable$?_Copy@?$basic_string@DU?$char_traits@D@std@@V?$allocator@D@2@@std@@QAEXII@Z DD 02H
	DD	02H
	DD	03H
	DD	01H
	DD	FLAT:__catchsym$?_Copy@?$basic_string@DU?$char_traits@D@std@@V?$allocator@D@2@@std@@QAEXII@Z$4
	DD	00H
	DD	00H
	DD	03H
	DD	01H
	DD	FLAT:__catchsym$?_Copy@?$basic_string@DU?$char_traits@D@std@@V?$allocator@D@2@@std@@QAEXII@Z$5
; Function compile flags: /Ogtp
xdata$x	ENDS
;	COMDAT ?_Copy@?$basic_string@DU?$char_traits@D@std@@V?$allocator@D@2@@std@@QAEXII@Z
_TEXT	SEGMENT
$T136566 = -40						; size = 12
__Newres$ = -28						; size = 4
$T136550 = -24						; size = 4
_this$ = -20						; size = 4
__$EHRec$ = -16						; size = 16
__Ptr$ = 8						; size = 4
__Newsize$ = 8						; size = 4
__Oldlen$ = 12						; size = 4
?_Copy@?$basic_string@DU?$char_traits@D@std@@V?$allocator@D@2@@std@@QAEXII@Z PROC ; std::basic_string<char,std::char_traits<char>,std::allocator<char> >::_Copy, COMDAT
; _this$ = ecx
; File c:\program files (x86)\microsoft visual studio 10.0\vc\include\xstring
; Line 1918
	push	ebp
	mov	ebp, esp
	push	-1
	push	__ehhandler$?_Copy@?$basic_string@DU?$char_traits@D@std@@V?$allocator@D@2@@std@@QAEXII@Z
	mov	eax, DWORD PTR fs:0
	push	eax
	sub	esp, 28					; 0000001cH
	push	ebx
	push	esi
	push	edi
	mov	eax, DWORD PTR ___security_cookie
	xor	eax, ebp
	push	eax
	lea	eax, DWORD PTR __$EHRec$[ebp+4]
	mov	DWORD PTR fs:0, eax
	mov	DWORD PTR __$EHRec$[ebp], esp
	mov	edi, ecx
	mov	DWORD PTR _this$[ebp], edi
; Line 1919
	mov	eax, DWORD PTR __Newsize$[ebp]
	mov	esi, eax
	or	esi, 15					; 0000000fH
; Line 1920
	cmp	esi, -2					; fffffffeH
	jbe	SHORT $LN9@Copy
; Line 1921
	mov	esi, eax
	jmp	SHORT $LN39@Copy
$LN9@Copy:
; Line 1922
	mov	ebx, DWORD PTR [edi+20]
	mov	eax, -1431655765			; aaaaaaabH
	mul	esi
	mov	ecx, ebx
	shr	ecx, 1
	shr	edx, 1
	cmp	ecx, edx
	jbe	SHORT $LN39@Copy
; Line 1924
	mov	eax, -2					; fffffffeH
	sub	eax, ecx
; Line 1926
	lea	esi, DWORD PTR [ecx+ebx]
	cmp	ebx, eax
	jbe	SHORT $LN39@Copy
; Line 1928
	mov	esi, -2					; fffffffeH
$LN39@Copy:
; Line 1931
	xor	eax, eax
; Line 1932
	lea	ecx, DWORD PTR [esi+1]
	mov	DWORD PTR __$EHRec$[ebp+12], eax
	cmp	ecx, eax
	jbe	SHORT $LN47@Copy
	cmp	ecx, -1
	ja	SHORT $LN46@Copy
	push	ecx
	call	??2@YAPAXI@Z				; operator new
	add	esp, 4
	test	eax, eax
	je	SHORT $LN46@Copy
$LN47@Copy:
	mov	DWORD PTR __Ptr$[ebp], eax
	jmp	SHORT $LN19@Copy
$LN46@Copy:
	lea	ecx, DWORD PTR $T136550[ebp]
	push	ecx
	lea	ecx, DWORD PTR $T136566[ebp]
	mov	DWORD PTR $T136550[ebp], 0
	call	DWORD PTR __imp_??0exception@std@@QAE@ABQBD@Z
	push	OFFSET __TI2?AVbad_alloc@std@@
	lea	edx, DWORD PTR $T136566[ebp]
	push	edx
	mov	DWORD PTR $T136566[ebp], OFFSET ??_7bad_alloc@std@@6B@
	call	__CxxThrowException@8
$LN112@Copy:
__catch$?_Copy@?$basic_string@DU?$char_traits@D@std@@V?$allocator@D@2@@std@@QAEXII@Z$0:
; Line 1934
	mov	eax, DWORD PTR __Newsize$[ebp]
; Line 1936
	mov	ecx, DWORD PTR _this$[ebp]
	mov	DWORD PTR __Newres$[ebp], eax
	inc	eax
	mov	DWORD PTR __$EHRec$[ebp], esp
	push	eax
	add	ecx, 24					; 00000018H
	mov	BYTE PTR __$EHRec$[ebp+12], 2
	call	?allocate@?$allocator@D@std@@QAEPADI@Z	; std::allocator<char>::allocate
	mov	DWORD PTR __Ptr$[ebp], eax
; Line 1941
	mov	eax, $LN107@Copy
	ret	0
$LN107@Copy:
	mov	edi, DWORD PTR _this$[ebp]
	mov	esi, DWORD PTR __Newres$[ebp]
$LN19@Copy:
; Line 1943
	mov	ebx, DWORD PTR __Oldlen$[ebp]
	test	ebx, ebx
	je	SHORT $LN78@Copy
; Line 1944
	cmp	DWORD PTR [edi+20], 16			; 00000010H
	jb	SHORT $LN76@Copy
	mov	eax, DWORD PTR [edi]
	jmp	SHORT $LN77@Copy
$LN76@Copy:
	mov	eax, edi
$LN77@Copy:
	push	ebx
	push	eax
	mov	eax, DWORD PTR __Ptr$[ebp]
	push	eax
	call	_memcpy
	add	esp, 12					; 0000000cH
$LN78@Copy:
; Line 1945
	cmp	DWORD PTR [edi+20], 16			; 00000010H
	jb	SHORT $LN88@Copy
	mov	ecx, DWORD PTR [edi]
	push	ecx
	call	??3@YAXPAX@Z				; operator delete
	add	esp, 4
$LN88@Copy:
; Line 1946
	mov	eax, DWORD PTR __Ptr$[ebp]
	mov	BYTE PTR [edi], 0
	mov	DWORD PTR [edi], eax
; Line 1947
	mov	DWORD PTR [edi+20], esi
; Line 1948
	mov	DWORD PTR [edi+16], ebx
	cmp	esi, 16					; 00000010H
	jb	SHORT $LN102@Copy
	mov	edi, eax
$LN102@Copy:
	mov	BYTE PTR [edi+ebx], 0
; Line 1949
	mov	ecx, DWORD PTR __$EHRec$[ebp+4]
	mov	DWORD PTR fs:0, ecx
	pop	ecx
	pop	edi
	pop	esi
	pop	ebx
	mov	esp, ebp
	pop	ebp
	ret	8
__catch$?_Copy@?$basic_string@DU?$char_traits@D@std@@V?$allocator@D@2@@std@@QAEXII@Z$1:
; Line 1938
	mov	esi, DWORD PTR _this$[ebp]
	cmp	DWORD PTR [esi+20], 16			; 00000010H
	jb	SHORT $LN64@Copy
	mov	edx, DWORD PTR [esi]
	push	edx
	call	??3@YAXPAX@Z				; operator delete
	add	esp, 4
$LN64@Copy:
; Line 1939
	push	0
	mov	DWORD PTR [esi+20], 15			; 0000000fH
	mov	DWORD PTR [esi+16], 0
	push	0
	mov	BYTE PTR [esi], 0
	call	__CxxThrowException@8
$LN113@Copy:
$LN111@Copy:
	int	3
_TEXT	ENDS
;	COMDAT text$x
text$x	SEGMENT
__ehhandler$?_Copy@?$basic_string@DU?$char_traits@D@std@@V?$allocator@D@2@@std@@QAEXII@Z:
	mov	edx, DWORD PTR [esp+8]
	lea	eax, DWORD PTR [edx+12]
	mov	ecx, DWORD PTR [edx-44]
	xor	ecx, eax
	call	@__security_check_cookie@4
	mov	eax, OFFSET __ehfuncinfo$?_Copy@?$basic_string@DU?$char_traits@D@std@@V?$allocator@D@2@@std@@QAEXII@Z
	jmp	___CxxFrameHandler3
text$x	ENDS
?_Copy@?$basic_string@DU?$char_traits@D@std@@V?$allocator@D@2@@std@@QAEXII@Z ENDP ; std::basic_string<char,std::char_traits<char>,std::allocator<char> >::_Copy
PUBLIC	?_Destroy@?$vector@PAVAppState@@V?$allocator@PAVAppState@@@std@@@std@@IAEXPAPAVAppState@@0@Z ; std::vector<AppState *,std::allocator<AppState *> >::_Destroy
; Function compile flags: /Ogtp
;	COMDAT ?_Destroy@?$vector@PAVAppState@@V?$allocator@PAVAppState@@@std@@@std@@IAEXPAPAVAppState@@0@Z
_TEXT	SEGMENT
__First$ = 8						; size = 4
__Last$ = 12						; size = 4
?_Destroy@?$vector@PAVAppState@@V?$allocator@PAVAppState@@@std@@@std@@IAEXPAPAVAppState@@0@Z PROC ; std::vector<AppState *,std::allocator<AppState *> >::_Destroy, COMDAT
; _this$ = ecx
; File c:\program files (x86)\microsoft visual studio 10.0\vc\include\vector
; Line 1271
	ret	8
?_Destroy@?$vector@PAVAppState@@V?$allocator@PAVAppState@@@std@@@std@@IAEXPAPAVAppState@@0@Z ENDP ; std::vector<AppState *,std::allocator<AppState *> >::_Destroy
_TEXT	ENDS
PUBLIC	??$?8DU?$char_traits@D@std@@V?$allocator@D@1@@std@@YA_NABV?$basic_string@DU?$char_traits@D@std@@V?$allocator@D@2@@0@PBD@Z ; std::operator==<char,std::char_traits<char>,std::allocator<char> >
; Function compile flags: /Ogtp
;	COMDAT ??$?8DU?$char_traits@D@std@@V?$allocator@D@1@@std@@YA_NABV?$basic_string@DU?$char_traits@D@std@@V?$allocator@D@2@@0@PBD@Z
_TEXT	SEGMENT
__Left$ = 8						; size = 4
__Right$ = 12						; size = 4
??$?8DU?$char_traits@D@std@@V?$allocator@D@1@@std@@YA_NABV?$basic_string@DU?$char_traits@D@std@@V?$allocator@D@2@@0@PBD@Z PROC ; std::operator==<char,std::char_traits<char>,std::allocator<char> >, COMDAT
; File c:\program files (x86)\microsoft visual studio 10.0\vc\include\string
; Line 186
	push	ebp
	mov	ebp, esp
; Line 187
	mov	edx, DWORD PTR __Right$[ebp]
	mov	eax, edx
	push	esi
	lea	esi, DWORD PTR [eax+1]
	npad	4
$LL7@operator@2:
	mov	cl, BYTE PTR [eax]
	inc	eax
	test	cl, cl
	jne	SHORT $LL7@operator@2
	mov	ecx, DWORD PTR __Left$[ebp]
	sub	eax, esi
	push	eax
	mov	eax, DWORD PTR [ecx+16]
	push	edx
	push	eax
	push	0
	call	?compare@?$basic_string@DU?$char_traits@D@std@@V?$allocator@D@2@@std@@QBEHIIPBDI@Z ; std::basic_string<char,std::char_traits<char>,std::allocator<char> >::compare
	neg	eax
	sbb	eax, eax
	inc	eax
	pop	esi
; Line 188
	pop	ebp
	ret	0
??$?8DU?$char_traits@D@std@@V?$allocator@D@1@@std@@YA_NABV?$basic_string@DU?$char_traits@D@std@@V?$allocator@D@2@@0@PBD@Z ENDP ; std::operator==<char,std::char_traits<char>,std::allocator<char> >
_TEXT	ENDS
PUBLIC	??$?5DU?$char_traits@D@std@@@std@@YAAAV?$basic_istream@DU?$char_traits@D@std@@@0@AAV10@AAD@Z ; std::operator>><char,std::char_traits<char> >
; Function compile flags: /Ogtp
;	COMDAT ??$?5DU?$char_traits@D@std@@@std@@YAAAV?$basic_istream@DU?$char_traits@D@std@@@0@AAV10@AAD@Z
_TEXT	SEGMENT
__Istr$ = 8						; size = 4
__Ch$ = 12						; size = 4
??$?5DU?$char_traits@D@std@@@std@@YAAAV?$basic_istream@DU?$char_traits@D@std@@@0@AAV10@AAD@Z PROC ; std::operator>><char,std::char_traits<char> >, COMDAT
; File c:\program files (x86)\microsoft visual studio 10.0\vc\include\istream
; Line 1092
	push	ebp
	mov	ebp, esp
; Line 1094
	pop	ebp
; Line 1093
	jmp	??$?5DU?$char_traits@D@std@@@std@@YAAAV?$basic_istream@DU?$char_traits@D@std@@@0@$$QAV10@AAD@Z ; std::operator>><char,std::char_traits<char> >
??$?5DU?$char_traits@D@std@@@std@@YAAAV?$basic_istream@DU?$char_traits@D@std@@@0@AAV10@AAD@Z ENDP ; std::operator>><char,std::char_traits<char> >
_TEXT	ENDS
PUBLIC	??$?8DU?$char_traits@D@std@@V?$allocator@D@1@@std@@YA_NABV?$basic_string@DU?$char_traits@D@std@@V?$allocator@D@2@@0@0@Z ; std::operator==<char,std::char_traits<char>,std::allocator<char> >
; Function compile flags: /Ogtp
;	COMDAT ??$?8DU?$char_traits@D@std@@V?$allocator@D@1@@std@@YA_NABV?$basic_string@DU?$char_traits@D@std@@V?$allocator@D@2@@0@0@Z
_TEXT	SEGMENT
__Left$ = 8						; size = 4
__Right$ = 12						; size = 4
??$?8DU?$char_traits@D@std@@V?$allocator@D@1@@std@@YA_NABV?$basic_string@DU?$char_traits@D@std@@V?$allocator@D@2@@0@0@Z PROC ; std::operator==<char,std::char_traits<char>,std::allocator<char> >, COMDAT
; File c:\program files (x86)\microsoft visual studio 10.0\vc\include\string
; Line 166
	push	ebp
	mov	ebp, esp
; Line 167
	mov	eax, DWORD PTR __Right$[ebp]
	cmp	DWORD PTR [eax+20], 16			; 00000010H
	mov	ecx, DWORD PTR [eax+16]
	jb	SHORT $LN9@operator@3
	mov	eax, DWORD PTR [eax]
$LN9@operator@3:
	push	ecx
	mov	ecx, DWORD PTR __Left$[ebp]
	push	eax
	mov	eax, DWORD PTR [ecx+16]
	push	eax
	push	0
	call	?compare@?$basic_string@DU?$char_traits@D@std@@V?$allocator@D@2@@std@@QBEHIIPBDI@Z ; std::basic_string<char,std::char_traits<char>,std::allocator<char> >::compare
	neg	eax
	sbb	eax, eax
	inc	eax
; Line 168
	pop	ebp
	ret	0
??$?8DU?$char_traits@D@std@@V?$allocator@D@1@@std@@YA_NABV?$basic_string@DU?$char_traits@D@std@@V?$allocator@D@2@@0@0@Z ENDP ; std::operator==<char,std::char_traits<char>,std::allocator<char> >
_TEXT	ENDS
PUBLIC	??$_Cons_val@V?$allocator@PAVAppState@@@std@@PAVAppState@@ABQAV3@@std@@YAXAAV?$allocator@PAVAppState@@@0@PAPAVAppState@@ABQAV2@@Z ; std::_Cons_val<std::allocator<AppState *>,AppState *,AppState * const &>
; Function compile flags: /Ogtp
;	COMDAT ??$_Cons_val@V?$allocator@PAVAppState@@@std@@PAVAppState@@ABQAV3@@std@@YAXAAV?$allocator@PAVAppState@@@0@PAPAVAppState@@ABQAV2@@Z
_TEXT	SEGMENT
__Alval$ = 8						; size = 4
__Pdest$ = 12						; size = 4
__Src$ = 16						; size = 4
??$_Cons_val@V?$allocator@PAVAppState@@@std@@PAVAppState@@ABQAV3@@std@@YAXAAV?$allocator@PAVAppState@@@0@PAPAVAppState@@ABQAV2@@Z PROC ; std::_Cons_val<std::allocator<AppState *>,AppState *,AppState * const &>, COMDAT
; File c:\program files (x86)\microsoft visual studio 10.0\vc\include\xmemory
; Line 279
	push	ebp
	mov	ebp, esp
; Line 280
	mov	eax, DWORD PTR __Pdest$[ebp]
	test	eax, eax
	je	SHORT $LN9@Cons_val@2
	mov	ecx, DWORD PTR __Src$[ebp]
	mov	edx, DWORD PTR [ecx]
	mov	DWORD PTR [eax], edx
$LN9@Cons_val@2:
; Line 281
	pop	ebp
	ret	0
