; Listing generated by Microsoft (R) Optimizing Compiler Version 16.00.40219.01 

	TITLE	C:\programovani\WoW Editor\Test\src\Editor\Model.cpp
	.686P
	.XMM
	include listing.inc
	.model	flat

INCLUDELIB MSVCRT
INCLUDELIB OLDNAMES

PUBLIC	?HColor@@3HA					; HColor
PUBLIC	?modelTimes@@3PAHA				; modelTimes
PUBLIC	?Uniques@@3HA					; Uniques
PUBLIC	?UniqueUsed@@3PAIA				; UniqueUsed
PUBLIC	?value@?$integral_constant@_N$0A@@tr1@std@@2_NB	; std::tr1::integral_constant<bool,0>::value
PUBLIC	?value@?$integral_constant@_N$00@tr1@std@@2_NB	; std::tr1::integral_constant<bool,1>::value
PUBLIC	?value@?$integral_constant@I$0A@@tr1@std@@2IB	; std::tr1::integral_constant<unsigned int,0>::value
PUBLIC	?_Rank@?$_Arithmetic_traits@_N@std@@2HB		; std::_Arithmetic_traits<bool>::_Rank
PUBLIC	?_Rank@?$_Arithmetic_traits@D@std@@2HB		; std::_Arithmetic_traits<char>::_Rank
PUBLIC	?_Rank@?$_Arithmetic_traits@C@std@@2HB		; std::_Arithmetic_traits<signed char>::_Rank
PUBLIC	?_Rank@?$_Arithmetic_traits@E@std@@2HB		; std::_Arithmetic_traits<unsigned char>::_Rank
PUBLIC	?_Rank@?$_Arithmetic_traits@F@std@@2HB		; std::_Arithmetic_traits<short>::_Rank
PUBLIC	?_Rank@?$_Arithmetic_traits@G@std@@2HB		; std::_Arithmetic_traits<unsigned short>::_Rank
PUBLIC	?_Rank@?$_Arithmetic_traits@H@std@@2HB		; std::_Arithmetic_traits<int>::_Rank
PUBLIC	?_Rank@?$_Arithmetic_traits@I@std@@2HB		; std::_Arithmetic_traits<unsigned int>::_Rank
PUBLIC	?_Rank@?$_Arithmetic_traits@J@std@@2HB		; std::_Arithmetic_traits<long>::_Rank
PUBLIC	?_Rank@?$_Arithmetic_traits@K@std@@2HB		; std::_Arithmetic_traits<unsigned long>::_Rank
PUBLIC	?_Rank@?$_Arithmetic_traits@_J@std@@2HB		; std::_Arithmetic_traits<__int64>::_Rank
PUBLIC	?_Rank@?$_Arithmetic_traits@_K@std@@2HB		; std::_Arithmetic_traits<unsigned __int64>::_Rank
PUBLIC	?_Rank@?$_Arithmetic_traits@M@std@@2HB		; std::_Arithmetic_traits<float>::_Rank
PUBLIC	?_Rank@?$_Arithmetic_traits@N@std@@2HB		; std::_Arithmetic_traits<double>::_Rank
PUBLIC	?_Rank@?$_Arithmetic_traits@O@std@@2HB		; std::_Arithmetic_traits<long double>::_Rank
PUBLIC	?collate@?$_Locbase@H@std@@2HB			; std::_Locbase<int>::collate
PUBLIC	?ctype@?$_Locbase@H@std@@2HB			; std::_Locbase<int>::ctype
PUBLIC	?monetary@?$_Locbase@H@std@@2HB			; std::_Locbase<int>::monetary
PUBLIC	?numeric@?$_Locbase@H@std@@2HB			; std::_Locbase<int>::numeric
PUBLIC	?time@?$_Locbase@H@std@@2HB			; std::_Locbase<int>::time
PUBLIC	?messages@?$_Locbase@H@std@@2HB			; std::_Locbase<int>::messages
PUBLIC	?all@?$_Locbase@H@std@@2HB			; std::_Locbase<int>::all
PUBLIC	?none@?$_Locbase@H@std@@2HB			; std::_Locbase<int>::none
PUBLIC	?skipws@?$_Iosb@H@std@@2W4_Fmtflags@12@B	; std::_Iosb<int>::skipws
PUBLIC	?unitbuf@?$_Iosb@H@std@@2W4_Fmtflags@12@B	; std::_Iosb<int>::unitbuf
PUBLIC	?uppercase@?$_Iosb@H@std@@2W4_Fmtflags@12@B	; std::_Iosb<int>::uppercase
PUBLIC	?showbase@?$_Iosb@H@std@@2W4_Fmtflags@12@B	; std::_Iosb<int>::showbase
PUBLIC	?showpoint@?$_Iosb@H@std@@2W4_Fmtflags@12@B	; std::_Iosb<int>::showpoint
PUBLIC	?showpos@?$_Iosb@H@std@@2W4_Fmtflags@12@B	; std::_Iosb<int>::showpos
PUBLIC	?left@?$_Iosb@H@std@@2W4_Fmtflags@12@B		; std::_Iosb<int>::left
PUBLIC	?right@?$_Iosb@H@std@@2W4_Fmtflags@12@B		; std::_Iosb<int>::right
PUBLIC	?internal@?$_Iosb@H@std@@2W4_Fmtflags@12@B	; std::_Iosb<int>::internal
PUBLIC	?dec@?$_Iosb@H@std@@2W4_Fmtflags@12@B		; std::_Iosb<int>::dec
PUBLIC	?oct@?$_Iosb@H@std@@2W4_Fmtflags@12@B		; std::_Iosb<int>::oct
PUBLIC	?hex@?$_Iosb@H@std@@2W4_Fmtflags@12@B		; std::_Iosb<int>::hex
PUBLIC	?scientific@?$_Iosb@H@std@@2W4_Fmtflags@12@B	; std::_Iosb<int>::scientific
PUBLIC	?fixed@?$_Iosb@H@std@@2W4_Fmtflags@12@B		; std::_Iosb<int>::fixed
PUBLIC	?hexfloat@?$_Iosb@H@std@@2W4_Fmtflags@12@B	; std::_Iosb<int>::hexfloat
PUBLIC	?boolalpha@?$_Iosb@H@std@@2W4_Fmtflags@12@B	; std::_Iosb<int>::boolalpha
PUBLIC	?_Stdio@?$_Iosb@H@std@@2W4_Fmtflags@12@B	; std::_Iosb<int>::_Stdio
PUBLIC	?adjustfield@?$_Iosb@H@std@@2W4_Fmtflags@12@B	; std::_Iosb<int>::adjustfield
PUBLIC	?basefield@?$_Iosb@H@std@@2W4_Fmtflags@12@B	; std::_Iosb<int>::basefield
PUBLIC	?floatfield@?$_Iosb@H@std@@2W4_Fmtflags@12@B	; std::_Iosb<int>::floatfield
PUBLIC	?goodbit@?$_Iosb@H@std@@2W4_Iostate@12@B	; std::_Iosb<int>::goodbit
PUBLIC	?eofbit@?$_Iosb@H@std@@2W4_Iostate@12@B		; std::_Iosb<int>::eofbit
PUBLIC	?failbit@?$_Iosb@H@std@@2W4_Iostate@12@B	; std::_Iosb<int>::failbit
PUBLIC	?badbit@?$_Iosb@H@std@@2W4_Iostate@12@B		; std::_Iosb<int>::badbit
PUBLIC	?_Hardfail@?$_Iosb@H@std@@2W4_Iostate@12@B	; std::_Iosb<int>::_Hardfail
PUBLIC	?in@?$_Iosb@H@std@@2W4_Openmode@12@B		; std::_Iosb<int>::in
PUBLIC	?out@?$_Iosb@H@std@@2W4_Openmode@12@B		; std::_Iosb<int>::out
PUBLIC	?ate@?$_Iosb@H@std@@2W4_Openmode@12@B		; std::_Iosb<int>::ate
PUBLIC	?app@?$_Iosb@H@std@@2W4_Openmode@12@B		; std::_Iosb<int>::app
PUBLIC	?trunc@?$_Iosb@H@std@@2W4_Openmode@12@B		; std::_Iosb<int>::trunc
PUBLIC	?_Nocreate@?$_Iosb@H@std@@2W4_Openmode@12@B	; std::_Iosb<int>::_Nocreate
PUBLIC	?_Noreplace@?$_Iosb@H@std@@2W4_Openmode@12@B	; std::_Iosb<int>::_Noreplace
PUBLIC	?binary@?$_Iosb@H@std@@2W4_Openmode@12@B	; std::_Iosb<int>::binary
PUBLIC	?beg@?$_Iosb@H@std@@2W4_Seekdir@12@B		; std::_Iosb<int>::beg
PUBLIC	?cur@?$_Iosb@H@std@@2W4_Seekdir@12@B		; std::_Iosb<int>::cur
PUBLIC	?end@?$_Iosb@H@std@@2W4_Seekdir@12@B		; std::_Iosb<int>::end
PUBLIC	?globalTime@@3HA				; globalTime
_BSS	SEGMENT
?HColor@@3HA DD	01H DUP (?)				; HColor
?modelTimes@@3PAHA DD 0fH DUP (?)			; modelTimes
?Uniques@@3HA DD 01H DUP (?)				; Uniques
?UniqueUsed@@3PAIA DD 01000H DUP (?)			; UniqueUsed
?globalTime@@3HA DD 01H DUP (?)				; globalTime
_BSS	ENDS
CONST	SEGMENT
$SG82497 DB	'[World of Warcraft Studio - Editor] - Error loading mode'
	DB	'l [%s]', 0aH, 00H
$SG82527 DB	'World\Kalimdor\Orgrimmar\Passivedoodads\Orgrimmarbonfire'
	DB	'\Orgrimmarsmokeemitter.Mdx', 00H
$SG82530 DB	00H
$SG82529 DB	' (animated)', 00H
$SG82531 DB	'[World of Warcraft Studio - Editor] - Loading model from'
	DB	' MPQ %s%s', 0aH, 00H
$SG82534 DB	00H
$SG82533 DB	' (animated)', 00H
$SG82535 DB	'[World of Warcraft Studio - Editor] - Loading model from'
	DB	' File %s%s', 0aH, 00H
$SG82536 DB	'Test Model.cpp 1 - Start', 00H
	ORG $+3
$SG82537 DB	'Test Model.cpp 1 - Success', 00H
	ORG $+1
$SG82538 DB	'Test Model.cpp 2 - Start', 00H
	ORG $+3
$SG82540 DB	'Test Model.cpp 2(1) - Start', 00H
$SG82543 DB	'Test Model.cpp 2(1) - Success', 00H
	ORG $+2
$SG82544 DB	'Test Model.cpp 2(2) - Start', 00H
$SG82545 DB	'Test Model.cpp 2(2) - Success', 00H
	ORG $+2
$SG82546 DB	'Test Model.cpp 2 - Success', 00H
	ORG $+1
$SG82547 DB	'Test Model.cpp 3 - Start', 00H
	ORG $+3
$SG82550 DB	'Test Model.cpp 3 - Success', 00H
	ORG $+1
$SG82551 DB	'Test Model.cpp 4 - Start', 00H
	ORG $+3
$SG82552 DB	'Test Model.cpp 4 - Success', 00H
	ORG $+1
$SG83252 DB	'Ghostlandsweb', 00H
	ORG $+2
$SG83556 DB	'[World of Warcraft Studio - Editor] - Total Model Time %'
	DB	'd ms', 0aH, 00H
	ORG $+2
$SG83557 DB	'[World of Warcraft Studio - Editor] - Reload Time %d ms', 0aH
	DB	00H
	ORG $+3
$SG83558 DB	'[World of Warcraft Studio - Editor] - Total Model Drawin'
	DB	'g Time %d ms', 0aH, 00H
	ORG $+2
$SG83559 DB	'[World of Warcraft Studio - Editor] - Calling Display Li'
	DB	'sts Time %d ms', 0aH, 00H
$SG83560 DB	'[World of Warcraft Studio - Editor] - Model Drawing Time'
	DB	' %d ms', 0aH, 00H
$SG83561 DB	'[World of Warcraft Studio - Editor] - Particle Time %d m'
	DB	's', 0aH, 00H
	ORG $+1
$SG83562 DB	'[World of Warcraft Studio - Editor] - Ribbon Time %d ms', 0aH
	DB	00H
	ORG $+3
$SG83563 DB	'[World of Warcraft Studio - Editor] - Reinit Time %d ms', 0aH
	DB	00H
	ORG $+3
$SG83779 DB	'[World of Warcraft Studio - Editor] - Reloading Models', 0aH
	DB	00H
CONST	ENDS
;	COMDAT ?end@?$_Iosb@H@std@@2W4_Seekdir@12@B
CONST	SEGMENT
?end@?$_Iosb@H@std@@2W4_Seekdir@12@B DD 02H		; std::_Iosb<int>::end
CONST	ENDS
;	COMDAT ?cur@?$_Iosb@H@std@@2W4_Seekdir@12@B
CONST	SEGMENT
?cur@?$_Iosb@H@std@@2W4_Seekdir@12@B DD 01H		; std::_Iosb<int>::cur
CONST	ENDS
;	COMDAT ?beg@?$_Iosb@H@std@@2W4_Seekdir@12@B
CONST	SEGMENT
?beg@?$_Iosb@H@std@@2W4_Seekdir@12@B DD 00H		; std::_Iosb<int>::beg
CONST	ENDS
;	COMDAT ?binary@?$_Iosb@H@std@@2W4_Openmode@12@B
CONST	SEGMENT
?binary@?$_Iosb@H@std@@2W4_Openmode@12@B DD 020H	; std::_Iosb<int>::binary
CONST	ENDS
;	COMDAT ?_Noreplace@?$_Iosb@H@std@@2W4_Openmode@12@B
CONST	SEGMENT
?_Noreplace@?$_Iosb@H@std@@2W4_Openmode@12@B DD 080H	; std::_Iosb<int>::_Noreplace
CONST	ENDS
;	COMDAT ?_Nocreate@?$_Iosb@H@std@@2W4_Openmode@12@B
CONST	SEGMENT
?_Nocreate@?$_Iosb@H@std@@2W4_Openmode@12@B DD 040H	; std::_Iosb<int>::_Nocreate
CONST	ENDS
;	COMDAT ?trunc@?$_Iosb@H@std@@2W4_Openmode@12@B
CONST	SEGMENT
?trunc@?$_Iosb@H@std@@2W4_Openmode@12@B DD 010H		; std::_Iosb<int>::trunc
CONST	ENDS
;	COMDAT ?app@?$_Iosb@H@std@@2W4_Openmode@12@B
CONST	SEGMENT
?app@?$_Iosb@H@std@@2W4_Openmode@12@B DD 08H		; std::_Iosb<int>::app
CONST	ENDS
;	COMDAT ?ate@?$_Iosb@H@std@@2W4_Openmode@12@B
CONST	SEGMENT
?ate@?$_Iosb@H@std@@2W4_Openmode@12@B DD 04H		; std::_Iosb<int>::ate
CONST	ENDS
;	COMDAT ?out@?$_Iosb@H@std@@2W4_Openmode@12@B
CONST	SEGMENT
?out@?$_Iosb@H@std@@2W4_Openmode@12@B DD 02H		; std::_Iosb<int>::out
CONST	ENDS
;	COMDAT ?in@?$_Iosb@H@std@@2W4_Openmode@12@B
CONST	SEGMENT
?in@?$_Iosb@H@std@@2W4_Openmode@12@B DD 01H		; std::_Iosb<int>::in
CONST	ENDS
;	COMDAT ?_Hardfail@?$_Iosb@H@std@@2W4_Iostate@12@B
CONST	SEGMENT
?_Hardfail@?$_Iosb@H@std@@2W4_Iostate@12@B DD 010H	; std::_Iosb<int>::_Hardfail
CONST	ENDS
;	COMDAT ?badbit@?$_Iosb@H@std@@2W4_Iostate@12@B
CONST	SEGMENT
?badbit@?$_Iosb@H@std@@2W4_Iostate@12@B DD 04H		; std::_Iosb<int>::badbit
CONST	ENDS
;	COMDAT ?failbit@?$_Iosb@H@std@@2W4_Iostate@12@B
CONST	SEGMENT
?failbit@?$_Iosb@H@std@@2W4_Iostate@12@B DD 02H		; std::_Iosb<int>::failbit
CONST	ENDS
;	COMDAT ?eofbit@?$_Iosb@H@std@@2W4_Iostate@12@B
CONST	SEGMENT
?eofbit@?$_Iosb@H@std@@2W4_Iostate@12@B DD 01H		; std::_Iosb<int>::eofbit
CONST	ENDS
;	COMDAT ?goodbit@?$_Iosb@H@std@@2W4_Iostate@12@B
CONST	SEGMENT
?goodbit@?$_Iosb@H@std@@2W4_Iostate@12@B DD 00H		; std::_Iosb<int>::goodbit
CONST	ENDS
;	COMDAT ?floatfield@?$_Iosb@H@std@@2W4_Fmtflags@12@B
CONST	SEGMENT
?floatfield@?$_Iosb@H@std@@2W4_Fmtflags@12@B DD 03000H	; std::_Iosb<int>::floatfield
CONST	ENDS
;	COMDAT ?basefield@?$_Iosb@H@std@@2W4_Fmtflags@12@B
CONST	SEGMENT
?basefield@?$_Iosb@H@std@@2W4_Fmtflags@12@B DD 0e00H	; std::_Iosb<int>::basefield
CONST	ENDS
;	COMDAT ?adjustfield@?$_Iosb@H@std@@2W4_Fmtflags@12@B
CONST	SEGMENT
?adjustfield@?$_Iosb@H@std@@2W4_Fmtflags@12@B DD 01c0H	; std::_Iosb<int>::adjustfield
CONST	ENDS
;	COMDAT ?_Stdio@?$_Iosb@H@std@@2W4_Fmtflags@12@B
CONST	SEGMENT
?_Stdio@?$_Iosb@H@std@@2W4_Fmtflags@12@B DD 08000H	; std::_Iosb<int>::_Stdio
CONST	ENDS
;	COMDAT ?boolalpha@?$_Iosb@H@std@@2W4_Fmtflags@12@B
CONST	SEGMENT
?boolalpha@?$_Iosb@H@std@@2W4_Fmtflags@12@B DD 04000H	; std::_Iosb<int>::boolalpha
CONST	ENDS
;	COMDAT ?hexfloat@?$_Iosb@H@std@@2W4_Fmtflags@12@B
CONST	SEGMENT
?hexfloat@?$_Iosb@H@std@@2W4_Fmtflags@12@B DD 03000H	; std::_Iosb<int>::hexfloat
CONST	ENDS
;	COMDAT ?fixed@?$_Iosb@H@std@@2W4_Fmtflags@12@B
CONST	SEGMENT
?fixed@?$_Iosb@H@std@@2W4_Fmtflags@12@B DD 02000H	; std::_Iosb<int>::fixed
CONST	ENDS
;	COMDAT ?scientific@?$_Iosb@H@std@@2W4_Fmtflags@12@B
CONST	SEGMENT
?scientific@?$_Iosb@H@std@@2W4_Fmtflags@12@B DD 01000H	; std::_Iosb<int>::scientific
CONST	ENDS
;	COMDAT ?hex@?$_Iosb@H@std@@2W4_Fmtflags@12@B
CONST	SEGMENT
?hex@?$_Iosb@H@std@@2W4_Fmtflags@12@B DD 0800H		; std::_Iosb<int>::hex
CONST	ENDS
;	COMDAT ?oct@?$_Iosb@H@std@@2W4_Fmtflags@12@B
CONST	SEGMENT
?oct@?$_Iosb@H@std@@2W4_Fmtflags@12@B DD 0400H		; std::_Iosb<int>::oct
CONST	ENDS
;	COMDAT ?dec@?$_Iosb@H@std@@2W4_Fmtflags@12@B
CONST	SEGMENT
?dec@?$_Iosb@H@std@@2W4_Fmtflags@12@B DD 0200H		; std::_Iosb<int>::dec
CONST	ENDS
;	COMDAT ?internal@?$_Iosb@H@std@@2W4_Fmtflags@12@B
CONST	SEGMENT
?internal@?$_Iosb@H@std@@2W4_Fmtflags@12@B DD 0100H	; std::_Iosb<int>::internal
CONST	ENDS
;	COMDAT ?right@?$_Iosb@H@std@@2W4_Fmtflags@12@B
CONST	SEGMENT
?right@?$_Iosb@H@std@@2W4_Fmtflags@12@B DD 080H		; std::_Iosb<int>::right
CONST	ENDS
;	COMDAT ?left@?$_Iosb@H@std@@2W4_Fmtflags@12@B
CONST	SEGMENT
?left@?$_Iosb@H@std@@2W4_Fmtflags@12@B DD 040H		; std::_Iosb<int>::left
CONST	ENDS
;	COMDAT ?showpos@?$_Iosb@H@std@@2W4_Fmtflags@12@B
CONST	SEGMENT
?showpos@?$_Iosb@H@std@@2W4_Fmtflags@12@B DD 020H	; std::_Iosb<int>::showpos
CONST	ENDS
;	COMDAT ?showpoint@?$_Iosb@H@std@@2W4_Fmtflags@12@B
CONST	SEGMENT
?showpoint@?$_Iosb@H@std@@2W4_Fmtflags@12@B DD 010H	; std::_Iosb<int>::showpoint
CONST	ENDS
;	COMDAT ?showbase@?$_Iosb@H@std@@2W4_Fmtflags@12@B
CONST	SEGMENT
?showbase@?$_Iosb@H@std@@2W4_Fmtflags@12@B DD 08H	; std::_Iosb<int>::showbase
CONST	ENDS
;	COMDAT ?uppercase@?$_Iosb@H@std@@2W4_Fmtflags@12@B
CONST	SEGMENT
?uppercase@?$_Iosb@H@std@@2W4_Fmtflags@12@B DD 04H	; std::_Iosb<int>::uppercase
CONST	ENDS
;	COMDAT ?unitbuf@?$_Iosb@H@std@@2W4_Fmtflags@12@B
CONST	SEGMENT
?unitbuf@?$_Iosb@H@std@@2W4_Fmtflags@12@B DD 02H	; std::_Iosb<int>::unitbuf
CONST	ENDS
;	COMDAT ?skipws@?$_Iosb@H@std@@2W4_Fmtflags@12@B
CONST	SEGMENT
?skipws@?$_Iosb@H@std@@2W4_Fmtflags@12@B DD 01H		; std::_Iosb<int>::skipws
CONST	ENDS
;	COMDAT ?none@?$_Locbase@H@std@@2HB
CONST	SEGMENT
?none@?$_Locbase@H@std@@2HB DD 00H			; std::_Locbase<int>::none
CONST	ENDS
;	COMDAT ?all@?$_Locbase@H@std@@2HB
CONST	SEGMENT
?all@?$_Locbase@H@std@@2HB DD 03fH			; std::_Locbase<int>::all
CONST	ENDS
;	COMDAT ?messages@?$_Locbase@H@std@@2HB
CONST	SEGMENT
?messages@?$_Locbase@H@std@@2HB DD 020H			; std::_Locbase<int>::messages
CONST	ENDS
;	COMDAT ?time@?$_Locbase@H@std@@2HB
CONST	SEGMENT
?time@?$_Locbase@H@std@@2HB DD 010H			; std::_Locbase<int>::time
CONST	ENDS
;	COMDAT ?numeric@?$_Locbase@H@std@@2HB
CONST	SEGMENT
?numeric@?$_Locbase@H@std@@2HB DD 08H			; std::_Locbase<int>::numeric
CONST	ENDS
;	COMDAT ?monetary@?$_Locbase@H@std@@2HB
CONST	SEGMENT
?monetary@?$_Locbase@H@std@@2HB DD 04H			; std::_Locbase<int>::monetary
CONST	ENDS
;	COMDAT ?ctype@?$_Locbase@H@std@@2HB
CONST	SEGMENT
?ctype@?$_Locbase@H@std@@2HB DD 02H			; std::_Locbase<int>::ctype
CONST	ENDS
;	COMDAT ?collate@?$_Locbase@H@std@@2HB
CONST	SEGMENT
?collate@?$_Locbase@H@std@@2HB DD 01H			; std::_Locbase<int>::collate
CONST	ENDS
;	COMDAT ?_Rank@?$_Arithmetic_traits@O@std@@2HB
CONST	SEGMENT
?_Rank@?$_Arithmetic_traits@O@std@@2HB DD 09H		; std::_Arithmetic_traits<long double>::_Rank
CONST	ENDS
;	COMDAT ?_Rank@?$_Arithmetic_traits@N@std@@2HB
CONST	SEGMENT
?_Rank@?$_Arithmetic_traits@N@std@@2HB DD 08H		; std::_Arithmetic_traits<double>::_Rank
CONST	ENDS
;	COMDAT ?_Rank@?$_Arithmetic_traits@M@std@@2HB
CONST	SEGMENT
?_Rank@?$_Arithmetic_traits@M@std@@2HB DD 07H		; std::_Arithmetic_traits<float>::_Rank
CONST	ENDS
;	COMDAT ?_Rank@?$_Arithmetic_traits@_K@std@@2HB
CONST	SEGMENT
?_Rank@?$_Arithmetic_traits@_K@std@@2HB DD 06H		; std::_Arithmetic_traits<unsigned __int64>::_Rank
CONST	ENDS
;	COMDAT ?_Rank@?$_Arithmetic_traits@_J@std@@2HB
CONST	SEGMENT
?_Rank@?$_Arithmetic_traits@_J@std@@2HB DD 06H		; std::_Arithmetic_traits<__int64>::_Rank
CONST	ENDS
;	COMDAT ?_Rank@?$_Arithmetic_traits@K@std@@2HB
CONST	SEGMENT
?_Rank@?$_Arithmetic_traits@K@std@@2HB DD 05H		; std::_Arithmetic_traits<unsigned long>::_Rank
CONST	ENDS
;	COMDAT ?_Rank@?$_Arithmetic_traits@J@std@@2HB
CONST	SEGMENT
?_Rank@?$_Arithmetic_traits@J@std@@2HB DD 05H		; std::_Arithmetic_traits<long>::_Rank
CONST	ENDS
;	COMDAT ?_Rank@?$_Arithmetic_traits@I@std@@2HB
CONST	SEGMENT
?_Rank@?$_Arithmetic_traits@I@std@@2HB DD 04H		; std::_Arithmetic_traits<unsigned int>::_Rank
CONST	ENDS
;	COMDAT ?_Rank@?$_Arithmetic_traits@H@std@@2HB
CONST	SEGMENT
?_Rank@?$_Arithmetic_traits@H@std@@2HB DD 04H		; std::_Arithmetic_traits<int>::_Rank
CONST	ENDS
;	COMDAT ?_Rank@?$_Arithmetic_traits@G@std@@2HB
CONST	SEGMENT
?_Rank@?$_Arithmetic_traits@G@std@@2HB DD 03H		; std::_Arithmetic_traits<unsigned short>::_Rank
CONST	ENDS
;	COMDAT ?_Rank@?$_Arithmetic_traits@F@std@@2HB
CONST	SEGMENT
?_Rank@?$_Arithmetic_traits@F@std@@2HB DD 03H		; std::_Arithmetic_traits<short>::_Rank
CONST	ENDS
;	COMDAT ?_Rank@?$_Arithmetic_traits@E@std@@2HB
CONST	SEGMENT
?_Rank@?$_Arithmetic_traits@E@std@@2HB DD 02H		; std::_Arithmetic_traits<unsigned char>::_Rank
CONST	ENDS
;	COMDAT ?_Rank@?$_Arithmetic_traits@C@std@@2HB
CONST	SEGMENT
?_Rank@?$_Arithmetic_traits@C@std@@2HB DD 02H		; std::_Arithmetic_traits<signed char>::_Rank
CONST	ENDS
;	COMDAT ?_Rank@?$_Arithmetic_traits@D@std@@2HB
CONST	SEGMENT
?_Rank@?$_Arithmetic_traits@D@std@@2HB DD 02H		; std::_Arithmetic_traits<char>::_Rank
CONST	ENDS
;	COMDAT ?_Rank@?$_Arithmetic_traits@_N@std@@2HB
CONST	SEGMENT
?_Rank@?$_Arithmetic_traits@_N@std@@2HB DD 01H		; std::_Arithmetic_traits<bool>::_Rank
CONST	ENDS
;	COMDAT ?value@?$integral_constant@I$0A@@tr1@std@@2IB
CONST	SEGMENT
?value@?$integral_constant@I$0A@@tr1@std@@2IB DD 00H	; std::tr1::integral_constant<unsigned int,0>::value
CONST	ENDS
;	COMDAT ?value@?$integral_constant@_N$00@tr1@std@@2_NB
CONST	SEGMENT
?value@?$integral_constant@_N$00@tr1@std@@2_NB DB 01H	; std::tr1::integral_constant<bool,1>::value
CONST	ENDS
;	COMDAT ?value@?$integral_constant@_N$0A@@tr1@std@@2_NB
CONST	SEGMENT
?value@?$integral_constant@_N$0A@@tr1@std@@2_NB DB 00H	; std::tr1::integral_constant<bool,0>::value
CONST	ENDS
PUBLIC	_fabsf
EXTRN	__fltused:DWORD
; Function compile flags: /Ogtp
;	COMDAT _fabsf
_TEXT	SEGMENT
tv129 = 8						; size = 4
__X$ = 8						; size = 4
_fabsf	PROC						; COMDAT
; File c:\program files (x86)\microsoft visual studio 10.0\vc\include\math.h
; Line 395
	push	ebp
	mov	ebp, esp
	fld	DWORD PTR __X$[ebp]
	fabs
	fstp	DWORD PTR tv129[ebp]
	fld	DWORD PTR tv129[ebp]
	pop	ebp
	ret	0
_fabsf	ENDP
_TEXT	ENDS
PUBLIC	_acosf
EXTRN	__CIacos:PROC
; Function compile flags: /Ogtp
;	COMDAT _acosf
_TEXT	SEGMENT
tv69 = 8						; size = 4
__X$ = 8						; size = 4
_acosf	PROC						; COMDAT
; Line 400
	push	ebp
	mov	ebp, esp
	fld	DWORD PTR __X$[ebp]
	call	__CIacos
	fstp	DWORD PTR tv69[ebp]
	fld	DWORD PTR tv69[ebp]
	pop	ebp
	ret	0
_acosf	ENDP
_TEXT	ENDS
PUBLIC	_cosf
EXTRN	__CIcos:PROC
; Function compile flags: /Ogtp
;	COMDAT _cosf
_TEXT	SEGMENT
tv69 = 8						; size = 4
__X$ = 8						; size = 4
_cosf	PROC						; COMDAT
; Line 410
	push	ebp
	mov	ebp, esp
	fld	DWORD PTR __X$[ebp]
	call	__CIcos
	fstp	DWORD PTR tv69[ebp]
	fld	DWORD PTR tv69[ebp]
	pop	ebp
	ret	0
_cosf	ENDP
_TEXT	ENDS
PUBLIC	_sinf
EXTRN	__CIsin:PROC
; Function compile flags: /Ogtp
;	COMDAT _sinf
_TEXT	SEGMENT
tv69 = 8						; size = 4
__X$ = 8						; size = 4
_sinf	PROC						; COMDAT
; Line 430
	push	ebp
	mov	ebp, esp
	fld	DWORD PTR __X$[ebp]
	call	__CIsin
	fstp	DWORD PTR tv69[ebp]
	fld	DWORD PTR tv69[ebp]
	pop	ebp
	ret	0
_sinf	ENDP
_TEXT	ENDS
PUBLIC	_sqrtf
EXTRN	__CIsqrt:PROC
; Function compile flags: /Ogtp
;	COMDAT _sqrtf
_TEXT	SEGMENT
tv69 = 8						; size = 4
__X$ = 8						; size = 4
_sqrtf	PROC						; COMDAT
; Line 434
	push	ebp
	mov	ebp, esp
	fld	DWORD PTR __X$[ebp]
	call	__CIsqrt
	fstp	DWORD PTR tv69[ebp]
	fld	DWORD PTR tv69[ebp]
	pop	ebp
	ret	0
_sqrtf	ENDP
_TEXT	ENDS
PUBLIC	?fabs@@YAMM@Z					; fabs
; Function compile flags: /Ogtp
;	COMDAT ?fabs@@YAMM@Z
_TEXT	SEGMENT
tv131 = 8						; size = 4
__X$ = 8						; size = 4
?fabs@@YAMM@Z PROC					; fabs, COMDAT
; Line 518
	push	ebp
	mov	ebp, esp
	fld	DWORD PTR __X$[ebp]
	fabs
	fstp	DWORD PTR tv131[ebp]
	fld	DWORD PTR tv131[ebp]
	pop	ebp
	ret	0
?fabs@@YAMM@Z ENDP					; fabs
_TEXT	ENDS
PUBLIC	?sqrt@@YAMM@Z					; sqrt
; Function compile flags: /Ogtp
;	COMDAT ?sqrt@@YAMM@Z
_TEXT	SEGMENT
tv73 = 8						; size = 4
__X$ = 8						; size = 4
?sqrt@@YAMM@Z PROC					; sqrt, COMDAT
; Line 542
	push	ebp
	mov	ebp, esp
	fld	DWORD PTR __X$[ebp]
	call	__CIsqrt
	fstp	DWORD PTR tv73[ebp]
	fld	DWORD PTR tv73[ebp]
	pop	ebp
	ret	0
?sqrt@@YAMM@Z ENDP					; sqrt
_TEXT	ENDS
PUBLIC	??_7bad_alloc@std@@6B@				; std::bad_alloc::`vftable'
PUBLIC	??0bad_alloc@std@@QAE@PBD@Z			; std::bad_alloc::bad_alloc
PUBLIC	??_R4bad_alloc@std@@6B@				; std::bad_alloc::`RTTI Complete Object Locator'
PUBLIC	??_R0?AVbad_alloc@std@@@8			; std::bad_alloc `RTTI Type Descriptor'
PUBLIC	??_R3bad_alloc@std@@8				; std::bad_alloc::`RTTI Class Hierarchy Descriptor'
PUBLIC	??_R2bad_alloc@std@@8				; std::bad_alloc::`RTTI Base Class Array'
PUBLIC	??_R1A@?0A@EA@bad_alloc@std@@8			; std::bad_alloc::`RTTI Base Class Descriptor at (0,-1,0,64)'
PUBLIC	??_R1A@?0A@EA@exception@std@@8			; std::exception::`RTTI Base Class Descriptor at (0,-1,0,64)'
PUBLIC	??_R0?AVexception@std@@@8			; std::exception `RTTI Type Descriptor'
PUBLIC	??_R3exception@std@@8				; std::exception::`RTTI Class Hierarchy Descriptor'
PUBLIC	??_R2exception@std@@8				; std::exception::`RTTI Base Class Array'
EXTRN	__imp_??0exception@std@@QAE@ABQBD@Z:PROC
EXTRN	??_7type_info@@6B@:QWORD			; type_info::`vftable'
EXTRN	??_Ebad_alloc@std@@UAEPAXI@Z:PROC		; std::bad_alloc::`vector deleting destructor'
EXTRN	?what@exception@std@@UBEPBDXZ:PROC		; std::exception::what
;	COMDAT ??_R2exception@std@@8
; File c:\program files (x86)\microsoft visual studio 10.0\vc\include\exception
rdata$r	SEGMENT
??_R2exception@std@@8 DD FLAT:??_R1A@?0A@EA@exception@std@@8 ; std::exception::`RTTI Base Class Array'
rdata$r	ENDS
;	COMDAT ??_R3exception@std@@8
rdata$r	SEGMENT
??_R3exception@std@@8 DD 00H				; std::exception::`RTTI Class Hierarchy Descriptor'
	DD	00H
	DD	01H
	DD	FLAT:??_R2exception@std@@8
rdata$r	ENDS
;	COMDAT ??_R0?AVexception@std@@@8
_DATA	SEGMENT
??_R0?AVexception@std@@@8 DD FLAT:??_7type_info@@6B@	; std::exception `RTTI Type Descriptor'
	DD	00H
	DB	'.?AVexception@std@@', 00H
_DATA	ENDS
;	COMDAT ??_R1A@?0A@EA@exception@std@@8
rdata$r	SEGMENT
??_R1A@?0A@EA@exception@std@@8 DD FLAT:??_R0?AVexception@std@@@8 ; std::exception::`RTTI Base Class Descriptor at (0,-1,0,64)'
	DD	00H
	DD	00H
	DD	0ffffffffH
	DD	00H
	DD	040H
	DD	FLAT:??_R3exception@std@@8
rdata$r	ENDS
;	COMDAT ??_R1A@?0A@EA@bad_alloc@std@@8
rdata$r	SEGMENT
??_R1A@?0A@EA@bad_alloc@std@@8 DD FLAT:??_R0?AVbad_alloc@std@@@8 ; std::bad_alloc::`RTTI Base Class Descriptor at (0,-1,0,64)'
	DD	01H
	DD	00H
	DD	0ffffffffH
	DD	00H
	DD	040H
	DD	FLAT:??_R3bad_alloc@std@@8
rdata$r	ENDS
;	COMDAT ??_R2bad_alloc@std@@8
rdata$r	SEGMENT
??_R2bad_alloc@std@@8 DD FLAT:??_R1A@?0A@EA@bad_alloc@std@@8 ; std::bad_alloc::`RTTI Base Class Array'
	DD	FLAT:??_R1A@?0A@EA@exception@std@@8
rdata$r	ENDS
;	COMDAT ??_R3bad_alloc@std@@8
rdata$r	SEGMENT
??_R3bad_alloc@std@@8 DD 00H				; std::bad_alloc::`RTTI Class Hierarchy Descriptor'
	DD	00H
	DD	02H
	DD	FLAT:??_R2bad_alloc@std@@8
rdata$r	ENDS
;	COMDAT ??_R0?AVbad_alloc@std@@@8
_DATA	SEGMENT
??_R0?AVbad_alloc@std@@@8 DD FLAT:??_7type_info@@6B@	; std::bad_alloc `RTTI Type Descriptor'
	DD	00H
	DB	'.?AVbad_alloc@std@@', 00H
_DATA	ENDS
;	COMDAT ??_R4bad_alloc@std@@6B@
rdata$r	SEGMENT
??_R4bad_alloc@std@@6B@ DD 00H				; std::bad_alloc::`RTTI Complete Object Locator'
	DD	00H
	DD	00H
	DD	FLAT:??_R0?AVbad_alloc@std@@@8
	DD	FLAT:??_R3bad_alloc@std@@8
rdata$r	ENDS
;	COMDAT ??_7bad_alloc@std@@6B@
CONST	SEGMENT
??_7bad_alloc@std@@6B@ DD FLAT:??_R4bad_alloc@std@@6B@	; std::bad_alloc::`vftable'
	DD	FLAT:??_Ebad_alloc@std@@UAEPAXI@Z
	DD	FLAT:?what@exception@std@@UBEPBDXZ
; Function compile flags: /Ogtp
CONST	ENDS
;	COMDAT ??0bad_alloc@std@@QAE@PBD@Z
_TEXT	SEGMENT
__Message$ = 8						; size = 4
??0bad_alloc@std@@QAE@PBD@Z PROC			; std::bad_alloc::bad_alloc, COMDAT
; _this$ = ecx
; Line 345
	push	ebp
	mov	ebp, esp
	push	esi
	lea	eax, DWORD PTR __Message$[ebp]
	push	eax
	mov	esi, ecx
	call	DWORD PTR __imp_??0exception@std@@QAE@ABQBD@Z
	mov	DWORD PTR [esi], OFFSET ??_7bad_alloc@std@@6B@
; Line 346
	mov	eax, esi
	pop	esi
	pop	ebp
	ret	4
??0bad_alloc@std@@QAE@PBD@Z ENDP			; std::bad_alloc::bad_alloc
_TEXT	ENDS
PUBLIC	??1bad_alloc@std@@UAE@XZ			; std::bad_alloc::~bad_alloc
EXTRN	__imp_??1exception@std@@UAE@XZ:PROC
; Function compile flags: /Ogtp
;	COMDAT ??1bad_alloc@std@@UAE@XZ
_TEXT	SEGMENT
??1bad_alloc@std@@UAE@XZ PROC				; std::bad_alloc::~bad_alloc, COMDAT
; _this$ = ecx
; Line 354
	mov	DWORD PTR [ecx], OFFSET ??_7bad_alloc@std@@6B@
; Line 355
	jmp	DWORD PTR __imp_??1exception@std@@UAE@XZ
??1bad_alloc@std@@UAE@XZ ENDP				; std::bad_alloc::~bad_alloc
_TEXT	ENDS
EXTRN	??3@YAXPAX@Z:PROC				; operator delete
; Function compile flags: /Ogtp
;	COMDAT ??_Gbad_alloc@std@@UAEPAXI@Z
_TEXT	SEGMENT
___flags$ = 8						; size = 4
??_Gbad_alloc@std@@UAEPAXI@Z PROC			; std::bad_alloc::`scalar deleting destructor', COMDAT
; _this$ = ecx
	push	ebp
	mov	ebp, esp
	push	esi
	mov	esi, ecx
	mov	DWORD PTR [esi], OFFSET ??_7bad_alloc@std@@6B@
	call	DWORD PTR __imp_??1exception@std@@UAE@XZ
	test	BYTE PTR ___flags$[ebp], 1
	je	SHORT $LN6@scalar
	push	esi
	call	??3@YAXPAX@Z				; operator delete
	add	esp, 4
$LN6@scalar:
	mov	eax, esi
	pop	esi
	pop	ebp
	ret	4
??_Gbad_alloc@std@@UAEPAXI@Z ENDP			; std::bad_alloc::`scalar deleting destructor'
_TEXT	ENDS
PUBLIC	??2@YAPAXIPAX@Z					; operator new
; Function compile flags: /Ogtp
;	COMDAT ??2@YAPAXIPAX@Z
_TEXT	SEGMENT
___formal$ = 8						; size = 4
__Where$ = 12						; size = 4
??2@YAPAXIPAX@Z PROC					; operator new, COMDAT
; File c:\program files (x86)\microsoft visual studio 10.0\vc\include\new
; Line 56
	push	ebp
	mov	ebp, esp
; Line 57
	mov	eax, DWORD PTR __Where$[ebp]
; Line 58
	pop	ebp
	ret	0
??2@YAPAXIPAX@Z ENDP					; operator new
_TEXT	ENDS
PUBLIC	??3@YAXPAX0@Z					; operator delete
; Function compile flags: /Ogtp
;	COMDAT ??3@YAXPAX0@Z
_TEXT	SEGMENT
___formal$ = 8						; size = 4
___formal$ = 12						; size = 4
??3@YAXPAX0@Z PROC					; operator delete, COMDAT
; Line 62
	ret	0
??3@YAXPAX0@Z ENDP					; operator delete
_TEXT	ENDS
PUBLIC	?compare@?$char_traits@D@std@@SAHPBD0I@Z	; std::char_traits<char>::compare
; Function compile flags: /Ogtp
;	COMDAT ?compare@?$char_traits@D@std@@SAHPBD0I@Z
_TEXT	SEGMENT
__First1$ = 8						; size = 4
__First2$ = 12						; size = 4
__Count$ = 16						; size = 4
?compare@?$char_traits@D@std@@SAHPBD0I@Z PROC		; std::char_traits<char>::compare, COMDAT
; File c:\program files (x86)\microsoft visual studio 10.0\vc\include\iosfwd
; Line 485
	push	ebp
	mov	ebp, esp
; Line 486
	mov	ecx, DWORD PTR __First2$[ebp]
	mov	edx, DWORD PTR __First1$[ebp]
	push	esi
	mov	esi, DWORD PTR __Count$[ebp]
	push	edi
	cmp	esi, 4
	jb	SHORT $LN11@compare
$LL4@compare:
	mov	eax, DWORD PTR [edx]
	cmp	eax, DWORD PTR [ecx]
	jne	SHORT $LN5@compare
	sub	esi, 4
	add	ecx, 4
	add	edx, 4
	cmp	esi, 4
	jae	SHORT $LL4@compare
$LN11@compare:
	test	esi, esi
	je	SHORT $LN6@compare
$LN5@compare:
	movzx	eax, BYTE PTR [edx]
	movzx	edi, BYTE PTR [ecx]
	sub	eax, edi
	jne	SHORT $LN7@compare
	cmp	esi, 1
	jbe	SHORT $LN6@compare
	movzx	eax, BYTE PTR [edx+1]
	movzx	edi, BYTE PTR [ecx+1]
	sub	eax, edi
	jne	SHORT $LN7@compare
	cmp	esi, 2
	jbe	SHORT $LN6@compare
	movzx	eax, BYTE PTR [edx+2]
	movzx	edi, BYTE PTR [ecx+2]
	sub	eax, edi
	jne	SHORT $LN7@compare
	cmp	esi, 3
	jbe	SHORT $LN6@compare
	movzx	eax, BYTE PTR [edx+3]
	movzx	ecx, BYTE PTR [ecx+3]
	sub	eax, ecx
$LN7@compare:
	sar	eax, 31					; 0000001fH
	pop	edi
	or	eax, 1
	pop	esi
; Line 487
	pop	ebp
	ret	0
$LN6@compare:
	pop	edi
; Line 486
	xor	eax, eax
	pop	esi
; Line 487
	pop	ebp
	ret	0
?compare@?$char_traits@D@std@@SAHPBD0I@Z ENDP		; std::char_traits<char>::compare
_TEXT	ENDS
PUBLIC	?length@?$char_traits@D@std@@SAIPBD@Z		; std::char_traits<char>::length
; Function compile flags: /Ogtp
;	COMDAT ?length@?$char_traits@D@std@@SAIPBD@Z
_TEXT	SEGMENT
__First$ = 8						; size = 4
?length@?$char_traits@D@std@@SAIPBD@Z PROC		; std::char_traits<char>::length, COMDAT
; Line 490
	push	ebp
	mov	ebp, esp
; Line 491
	mov	eax, DWORD PTR __First$[ebp]
	lea	edx, DWORD PTR [eax+1]
	npad	7
$LL3@length:
	mov	cl, BYTE PTR [eax]
	inc	eax
	test	cl, cl
	jne	SHORT $LL3@length
	sub	eax, edx
; Line 492
	pop	ebp
	ret	0
?length@?$char_traits@D@std@@SAIPBD@Z ENDP		; std::char_traits<char>::length
_TEXT	ENDS
PUBLIC	?copy@?$char_traits@D@std@@SAPADPADPBDI@Z	; std::char_traits<char>::copy
EXTRN	_memcpy:PROC
; Function compile flags: /Ogtp
;	COMDAT ?copy@?$char_traits@D@std@@SAPADPADPBDI@Z
_TEXT	SEGMENT
__First1$ = 8						; size = 4
__First2$ = 12						; size = 4
__Count$ = 16						; size = 4
?copy@?$char_traits@D@std@@SAPADPADPBDI@Z PROC		; std::char_traits<char>::copy, COMDAT
; Line 496
	push	ebp
	mov	ebp, esp
; Line 498
	pop	ebp
; Line 497
	jmp	_memcpy
?copy@?$char_traits@D@std@@SAPADPADPBDI@Z ENDP		; std::char_traits<char>::copy
_TEXT	ENDS
PUBLIC	?move@?$char_traits@D@std@@SAPADPADPBDI@Z	; std::char_traits<char>::move
EXTRN	__imp__memmove:PROC
; Function compile flags: /Ogtp
;	COMDAT ?move@?$char_traits@D@std@@SAPADPADPBDI@Z
_TEXT	SEGMENT
__First1$ = 8						; size = 4
__First2$ = 12						; size = 4
__Count$ = 16						; size = 4
?move@?$char_traits@D@std@@SAPADPADPBDI@Z PROC		; std::char_traits<char>::move, COMDAT
; Line 516
	push	ebp
	mov	ebp, esp
; Line 518
	pop	ebp
; Line 517
	jmp	DWORD PTR __imp__memmove
?move@?$char_traits@D@std@@SAPADPADPBDI@Z ENDP		; std::char_traits<char>::move
_TEXT	ENDS
PUBLIC	?assign@?$char_traits@D@std@@SAXAADABD@Z	; std::char_traits<char>::assign
; Function compile flags: /Ogtp
;	COMDAT ?assign@?$char_traits@D@std@@SAXAADABD@Z
_TEXT	SEGMENT
__Left$ = 8						; size = 4
__Right$ = 12						; size = 4
?assign@?$char_traits@D@std@@SAXAADABD@Z PROC		; std::char_traits<char>::assign, COMDAT
; Line 526
	push	ebp
	mov	ebp, esp
; Line 527
	mov	eax, DWORD PTR __Right$[ebp]
	mov	cl, BYTE PTR [eax]
	mov	edx, DWORD PTR __Left$[ebp]
	mov	BYTE PTR [edx], cl
; Line 528
	pop	ebp
	ret	0
?assign@?$char_traits@D@std@@SAXAADABD@Z ENDP		; std::char_traits<char>::assign
_TEXT	ENDS
PUBLIC	?_Adopt@_Iterator_base0@std@@QAEXPBX@Z		; std::_Iterator_base0::_Adopt
; Function compile flags: /Ogtp
;	COMDAT ?_Adopt@_Iterator_base0@std@@QAEXPBX@Z
_TEXT	SEGMENT
___formal$ = 8						; size = 4
?_Adopt@_Iterator_base0@std@@QAEXPBX@Z PROC		; std::_Iterator_base0::_Adopt, COMDAT
; _this$ = ecx
; File c:\program files (x86)\microsoft visual studio 10.0\vc\include\xutility
; Line 49
	ret	4
?_Adopt@_Iterator_base0@std@@QAEXPBX@Z ENDP		; std::_Iterator_base0::_Adopt
_TEXT	ENDS
PUBLIC	??0Vec3D@@QAE@MMM@Z				; Vec3D::Vec3D
; Function compile flags: /Ogtp
;	COMDAT ??0Vec3D@@QAE@MMM@Z
_TEXT	SEGMENT
_x0$ = 8						; size = 4
_y0$ = 12						; size = 4
_z0$ = 16						; size = 4
??0Vec3D@@QAE@MMM@Z PROC				; Vec3D::Vec3D, COMDAT
; _this$ = ecx
; File c:\programovani\wow editor\test\src\editor\vec3d.h
; Line 12
	push	ebp
	mov	ebp, esp
	mov	edx, DWORD PTR _y0$[ebp]
	mov	eax, ecx
	mov	ecx, DWORD PTR _x0$[ebp]
	mov	DWORD PTR [eax], ecx
	mov	ecx, DWORD PTR _z0$[ebp]
	mov	DWORD PTR [eax+4], edx
	mov	DWORD PTR [eax+8], ecx
	pop	ebp
	ret	12					; 0000000cH
??0Vec3D@@QAE@MMM@Z ENDP				; Vec3D::Vec3D
_TEXT	ENDS
PUBLIC	??0Vec3D@@QAE@ABV0@@Z				; Vec3D::Vec3D
; Function compile flags: /Ogtp
;	COMDAT ??0Vec3D@@QAE@ABV0@@Z
_TEXT	SEGMENT
_v$ = 8							; size = 4
??0Vec3D@@QAE@ABV0@@Z PROC				; Vec3D::Vec3D, COMDAT
; _this$ = ecx
; Line 14
	push	ebp
	mov	ebp, esp
	mov	eax, ecx
	mov	ecx, DWORD PTR _v$[ebp]
	mov	edx, DWORD PTR [ecx]
	mov	DWORD PTR [eax], edx
	mov	edx, DWORD PTR [ecx+4]
	mov	DWORD PTR [eax+4], edx
	mov	ecx, DWORD PTR [ecx+8]
	mov	DWORD PTR [eax+8], ecx
	pop	ebp
	ret	4
??0Vec3D@@QAE@ABV0@@Z ENDP				; Vec3D::Vec3D
_TEXT	ENDS
PUBLIC	??4Vec3D@@QAEAAV0@ABV0@@Z			; Vec3D::operator=
; Function compile flags: /Ogtp
;	COMDAT ??4Vec3D@@QAEAAV0@ABV0@@Z
_TEXT	SEGMENT
_v$ = 8							; size = 4
??4Vec3D@@QAEAAV0@ABV0@@Z PROC				; Vec3D::operator=, COMDAT
; _this$ = ecx
; Line 17
	push	ebp
	mov	ebp, esp
	mov	eax, ecx
; Line 18
	mov	ecx, DWORD PTR _v$[ebp]
	mov	edx, DWORD PTR [ecx]
	mov	DWORD PTR [eax], edx
; Line 19
	mov	edx, DWORD PTR [ecx+4]
	mov	DWORD PTR [eax+4], edx
; Line 20
	mov	ecx, DWORD PTR [ecx+8]
	mov	DWORD PTR [eax+8], ecx
; Line 22
	pop	ebp
	ret	4
??4Vec3D@@QAEAAV0@ABV0@@Z ENDP				; Vec3D::operator=
_TEXT	ENDS
PUBLIC	??HVec3D@@QBE?AV0@ABV0@@Z			; Vec3D::operator+
; Function compile flags: /Ogtp
;	COMDAT ??HVec3D@@QBE?AV0@ABV0@@Z
_TEXT	SEGMENT
___$ReturnUdt$ = 8					; size = 4
_v$ = 12						; size = 4
??HVec3D@@QBE?AV0@ABV0@@Z PROC				; Vec3D::operator+, COMDAT
; _this$ = ecx
; Line 25
	push	ebp
	mov	ebp, esp
; Line 26
	mov	edx, DWORD PTR _v$[ebp]
	fld	DWORD PTR [edx]
	mov	eax, DWORD PTR ___$ReturnUdt$[ebp]
	fadd	DWORD PTR [ecx]
	fstp	DWORD PTR [eax]
	fld	DWORD PTR [edx+4]
	fadd	DWORD PTR [ecx+4]
	fstp	DWORD PTR [eax+4]
	fld	DWORD PTR [edx+8]
	fadd	DWORD PTR [ecx+8]
	fstp	DWORD PTR [eax+8]
; Line 28
	pop	ebp
	ret	8
??HVec3D@@QBE?AV0@ABV0@@Z ENDP				; Vec3D::operator+
_TEXT	ENDS
PUBLIC	??GVec3D@@QBE?AV0@ABV0@@Z			; Vec3D::operator-
; Function compile flags: /Ogtp
;	COMDAT ??GVec3D@@QBE?AV0@ABV0@@Z
_TEXT	SEGMENT
___$ReturnUdt$ = 8					; size = 4
_v$ = 12						; size = 4
??GVec3D@@QBE?AV0@ABV0@@Z PROC				; Vec3D::operator-, COMDAT
; _this$ = ecx
; Line 31
	push	ebp
	mov	ebp, esp
; Line 32
	mov	edx, DWORD PTR _v$[ebp]
	fld	DWORD PTR [ecx]
	fsub	DWORD PTR [edx]
	mov	eax, DWORD PTR ___$ReturnUdt$[ebp]
	fstp	DWORD PTR [eax]
	fld	DWORD PTR [ecx+4]
	fsub	DWORD PTR [edx+4]
	fstp	DWORD PTR [eax+4]
	fld	DWORD PTR [ecx+8]
	fsub	DWORD PTR [edx+8]
	fstp	DWORD PTR [eax+8]
; Line 34
	pop	ebp
	ret	8
??GVec3D@@QBE?AV0@ABV0@@Z ENDP				; Vec3D::operator-
_TEXT	ENDS
PUBLIC	??DVec3D@@QBE?AV0@M@Z				; Vec3D::operator*
; Function compile flags: /Ogtp
;	COMDAT ??DVec3D@@QBE?AV0@M@Z
_TEXT	SEGMENT
___$ReturnUdt$ = 8					; size = 4
_d$ = 12						; size = 4
??DVec3D@@QBE?AV0@M@Z PROC				; Vec3D::operator*, COMDAT
; _this$ = ecx
; Line 42
	push	ebp
	mov	ebp, esp
; Line 43
	fld	DWORD PTR [ecx]
	mov	eax, DWORD PTR ___$ReturnUdt$[ebp]
	fld	DWORD PTR _d$[ebp]
	fld	ST(0)
	fmulp	ST(2), ST(0)
	fxch	ST(1)
	fstp	DWORD PTR [eax]
	fld	DWORD PTR [ecx+4]
	fmul	ST(0), ST(1)
	fstp	DWORD PTR [eax+4]
	fmul	DWORD PTR [ecx+8]
	fstp	DWORD PTR [eax+8]
; Line 45
	pop	ebp
	ret	8
??DVec3D@@QBE?AV0@M@Z ENDP				; Vec3D::operator*
_TEXT	ENDS
PUBLIC	??LVec3D@@QBE?AV0@ABV0@@Z			; Vec3D::operator%
; Function compile flags: /Ogtp
;	COMDAT ??LVec3D@@QBE?AV0@ABV0@@Z
_TEXT	SEGMENT
___$ReturnUdt$ = 8					; size = 4
_v$ = 12						; size = 4
??LVec3D@@QBE?AV0@ABV0@@Z PROC				; Vec3D::operator%, COMDAT
; _this$ = ecx
; Line 53
	push	ebp
	mov	ebp, esp
; Line 54
	mov	edx, DWORD PTR _v$[ebp]
	fld	DWORD PTR [edx+8]
	mov	eax, DWORD PTR ___$ReturnUdt$[ebp]
	fmul	DWORD PTR [ecx+4]
	fld	DWORD PTR [edx+4]
	fmul	DWORD PTR [ecx+8]
	fsubp	ST(1), ST(0)
	fstp	DWORD PTR [eax]
	fld	DWORD PTR [ecx+8]
	fmul	DWORD PTR [edx]
	fld	DWORD PTR [ecx]
	fmul	DWORD PTR [edx+8]
	fsubp	ST(1), ST(0)
	fstp	DWORD PTR [eax+4]
	fld	DWORD PTR [edx+4]
	fmul	DWORD PTR [ecx]
	fld	DWORD PTR [edx]
	fmul	DWORD PTR [ecx+4]
	fsubp	ST(1), ST(0)
	fstp	DWORD PTR [eax+8]
; Line 56
	pop	ebp
	ret	8
??LVec3D@@QBE?AV0@ABV0@@Z ENDP				; Vec3D::operator%
_TEXT	ENDS
PUBLIC	??YVec3D@@QAEAAV0@ABV0@@Z			; Vec3D::operator+=
; Function compile flags: /Ogtp
;	COMDAT ??YVec3D@@QAEAAV0@ABV0@@Z
_TEXT	SEGMENT
_v$ = 8							; size = 4
??YVec3D@@QAEAAV0@ABV0@@Z PROC				; Vec3D::operator+=, COMDAT
; _this$ = ecx
; Line 59
	push	ebp
	mov	ebp, esp
	mov	eax, ecx
; Line 60
	mov	ecx, DWORD PTR _v$[ebp]
	fld	DWORD PTR [ecx]
	fadd	DWORD PTR [eax]
	fstp	DWORD PTR [eax]
; Line 61
	fld	DWORD PTR [ecx+4]
	fadd	DWORD PTR [eax+4]
	fstp	DWORD PTR [eax+4]
; Line 62
	fld	DWORD PTR [ecx+8]
	fadd	DWORD PTR [eax+8]
	fstp	DWORD PTR [eax+8]
; Line 64
	pop	ebp
	ret	4
??YVec3D@@QAEAAV0@ABV0@@Z ENDP				; Vec3D::operator+=
_TEXT	ENDS
PUBLIC	??XVec3D@@QAEAAV0@M@Z				; Vec3D::operator*=
; Function compile flags: /Ogtp
;	COMDAT ??XVec3D@@QAEAAV0@M@Z
_TEXT	SEGMENT
_d$ = 8							; size = 4
??XVec3D@@QAEAAV0@M@Z PROC				; Vec3D::operator*=, COMDAT
; _this$ = ecx
; Line 75
	push	ebp
	mov	ebp, esp
	mov	eax, ecx
; Line 76
	fld	DWORD PTR [eax]
	fld	DWORD PTR _d$[ebp]
	fld	ST(0)
	fmulp	ST(2), ST(0)
	fxch	ST(1)
	fstp	DWORD PTR [eax]
; Line 77
	fld	DWORD PTR [eax+4]
	fmul	ST(0), ST(1)
	fstp	DWORD PTR [eax+4]
; Line 78
	fmul	DWORD PTR [eax+8]
	fstp	DWORD PTR [eax+8]
; Line 80
	pop	ebp
	ret	4
??XVec3D@@QAEAAV0@M@Z ENDP				; Vec3D::operator*=
_TEXT	ENDS
PUBLIC	?lengthSquared@Vec3D@@QBEMXZ			; Vec3D::lengthSquared
; Function compile flags: /Ogtp
;	COMDAT ?lengthSquared@Vec3D@@QBEMXZ
_TEXT	SEGMENT
tv133 = -4						; size = 4
?lengthSquared@Vec3D@@QBEMXZ PROC			; Vec3D::lengthSquared, COMDAT
; _this$ = ecx
; Line 83
	push	ebp
	mov	ebp, esp
	push	ecx
; Line 84
	fld	DWORD PTR [ecx+4]
	fld	DWORD PTR [ecx]
	fld	DWORD PTR [ecx+8]
	fld	ST(1)
	fmulp	ST(2), ST(0)
	fld	ST(2)
	fmulp	ST(3), ST(0)
	fxch	ST(1)
	faddp	ST(2), ST(0)
	fmul	ST(0), ST(0)
	faddp	ST(1), ST(0)
	fstp	DWORD PTR tv133[ebp]
	fld	DWORD PTR tv133[ebp]
; Line 85
	mov	esp, ebp
	pop	ebp
	ret	0
?lengthSquared@Vec3D@@QBEMXZ ENDP			; Vec3D::lengthSquared
_TEXT	ENDS
PUBLIC	?length@Vec3D@@QBEMXZ				; Vec3D::length
; Function compile flags: /Ogtp
;	COMDAT ?length@Vec3D@@QBEMXZ
_TEXT	SEGMENT
tv170 = -4						; size = 4
tv161 = -4						; size = 4
?length@Vec3D@@QBEMXZ PROC				; Vec3D::length, COMDAT
; _this$ = ecx
; Line 88
	push	ebp
	mov	ebp, esp
	push	ecx
; Line 89
	fld	DWORD PTR [ecx+4]
	fld	DWORD PTR [ecx]
	fld	DWORD PTR [ecx+8]
	fld	ST(1)
	fmulp	ST(2), ST(0)
	fld	ST(2)
	fmulp	ST(3), ST(0)
	fxch	ST(1)
	faddp	ST(2), ST(0)
	fmul	ST(0), ST(0)
	faddp	ST(1), ST(0)
	fstp	DWORD PTR tv170[ebp]
	fld	DWORD PTR tv170[ebp]
	call	__CIsqrt
	fstp	DWORD PTR tv161[ebp]
	fld	DWORD PTR tv161[ebp]
; Line 90
	mov	esp, ebp
	pop	ebp
	ret	0
?length@Vec3D@@QBEMXZ ENDP				; Vec3D::length
_TEXT	ENDS
PUBLIC	__real@3ff0000000000000
PUBLIC	?normalize@Vec3D@@QAEAAV1@XZ			; Vec3D::normalize
;	COMDAT __real@3ff0000000000000
CONST	SEGMENT
__real@3ff0000000000000 DQ 03ff0000000000000r	; 1
; Function compile flags: /Ogtp
CONST	ENDS
;	COMDAT ?normalize@Vec3D@@QAEAAV1@XZ
_TEXT	SEGMENT
tv206 = -4						; size = 4
tv196 = -4						; size = 4
$T101922 = -4						; size = 4
?normalize@Vec3D@@QAEAAV1@XZ PROC			; Vec3D::normalize, COMDAT
; _this$ = ecx
; Line 93
	push	ebp
	mov	ebp, esp
	push	ecx
	push	esi
	mov	esi, ecx
; Line 94
	fld	DWORD PTR [esi+4]
	fld	DWORD PTR [esi]
	fld	DWORD PTR [esi+8]
	fld	ST(1)
	fmulp	ST(2), ST(0)
	fld	ST(2)
	fmulp	ST(3), ST(0)
	fxch	ST(1)
	faddp	ST(2), ST(0)
	fmul	ST(0), ST(0)
	faddp	ST(1), ST(0)
	fstp	DWORD PTR tv206[ebp]
	fld	DWORD PTR tv206[ebp]
	call	__CIsqrt
	fstp	DWORD PTR tv196[ebp]
	fld	DWORD PTR tv196[ebp]
; Line 95
	mov	eax, esi
	fld1
	fdivrp	ST(1), ST(0)
	fstp	DWORD PTR $T101922[ebp]
	fld	DWORD PTR [esi]
	fld	DWORD PTR $T101922[ebp]
	fld	ST(0)
	fmulp	ST(2), ST(0)
	fxch	ST(1)
	fstp	DWORD PTR [esi]
	fld	ST(0)
	fmul	DWORD PTR [esi+4]
	fstp	DWORD PTR [esi+4]
	fmul	DWORD PTR [esi+8]
	fstp	DWORD PTR [esi+8]
	pop	esi
; Line 96
	mov	esp, ebp
	pop	ebp
	ret	0
?normalize@Vec3D@@QAEAAV1@XZ ENDP			; Vec3D::normalize
_TEXT	ENDS
PUBLIC	??BVec3D@@QAEPAMXZ				; Vec3D::operator float *
; Function compile flags: /Ogtp
;	COMDAT ??BVec3D@@QAEPAMXZ
_TEXT	SEGMENT
??BVec3D@@QAEPAMXZ PROC					; Vec3D::operator float *, COMDAT
; _this$ = ecx
; Line 112
	mov	eax, ecx
; Line 114
	ret	0
??BVec3D@@QAEPAMXZ ENDP					; Vec3D::operator float *
_TEXT	ENDS
PUBLIC	??0Vec2D@@QAE@MM@Z				; Vec2D::Vec2D
; Function compile flags: /Ogtp
;	COMDAT ??0Vec2D@@QAE@MM@Z
_TEXT	SEGMENT
_x0$ = 8						; size = 4
_y0$ = 12						; size = 4
??0Vec2D@@QAE@MM@Z PROC					; Vec2D::Vec2D, COMDAT
; _this$ = ecx
; Line 122
	push	ebp
	mov	ebp, esp
	mov	edx, DWORD PTR _y0$[ebp]
	mov	eax, ecx
	mov	ecx, DWORD PTR _x0$[ebp]
	mov	DWORD PTR [eax], ecx
	mov	DWORD PTR [eax+4], edx
	pop	ebp
	ret	8
??0Vec2D@@QAE@MM@Z ENDP					; Vec2D::Vec2D
_TEXT	ENDS
PUBLIC	??4Vec2D@@QAEAAV0@ABV0@@Z			; Vec2D::operator=
; Function compile flags: /Ogtp
;	COMDAT ??4Vec2D@@QAEAAV0@ABV0@@Z
_TEXT	SEGMENT
_v$ = 8							; size = 4
??4Vec2D@@QAEAAV0@ABV0@@Z PROC				; Vec2D::operator=, COMDAT
; _this$ = ecx
; Line 127
	push	ebp
	mov	ebp, esp
	mov	eax, ecx
; Line 128
	mov	ecx, DWORD PTR _v$[ebp]
	mov	edx, DWORD PTR [ecx]
	mov	DWORD PTR [eax], edx
; Line 129
	mov	ecx, DWORD PTR [ecx+4]
	mov	DWORD PTR [eax+4], ecx
; Line 131
	pop	ebp
	ret	4
??4Vec2D@@QAEAAV0@ABV0@@Z ENDP				; Vec2D::operator=
_TEXT	ENDS
PUBLIC	??BVec2D@@QAEPAMXZ				; Vec2D::operator float *
; Function compile flags: /Ogtp
;	COMDAT ??BVec2D@@QAEPAMXZ
_TEXT	SEGMENT
??BVec2D@@QAEPAMXZ PROC					; Vec2D::operator float *, COMDAT
; _this$ = ecx
; Line 212
	mov	eax, ecx
; Line 214
	ret	0
??BVec2D@@QAEPAMXZ ENDP					; Vec2D::operator float *
_TEXT	ENDS
PUBLIC	?rotate@@YAXMMPAM0M@Z				; rotate
; Function compile flags: /Ogtp
;	COMDAT ?rotate@@YAXMMPAM0M@Z
_TEXT	SEGMENT
_xa$ = -4						; size = 4
_x0$ = 8						; size = 4
_y0$ = 12						; size = 4
tv206 = 16						; size = 4
_x$ = 16						; size = 4
_ya$ = 20						; size = 4
_y$ = 20						; size = 4
tv213 = 24						; size = 4
_angle$ = 24						; size = 4
?rotate@@YAXMMPAM0M@Z PROC				; rotate, COMDAT
; Line 218
	push	ebp
	mov	ebp, esp
	push	ecx
	push	esi
; Line 219
	mov	esi, DWORD PTR _x$[ebp]
	fld	DWORD PTR [esi]
	push	edi
	fsub	DWORD PTR _x0$[ebp]
	mov	edi, DWORD PTR _y$[ebp]
	fstp	DWORD PTR _xa$[ebp]
	fld	DWORD PTR [edi]
	fsub	DWORD PTR _y0$[ebp]
	fstp	DWORD PTR _ya$[ebp]
; Line 220
	fld	DWORD PTR _angle$[ebp]
	call	__CIcos
	fstp	DWORD PTR tv206[ebp]
	fld	DWORD PTR _angle$[ebp]
	call	__CIsin
	fstp	DWORD PTR tv213[ebp]
	fld	DWORD PTR tv206[ebp]
	fld	ST(0)
	fld	DWORD PTR _xa$[ebp]
	fld	ST(0)
	fmulp	ST(2), ST(0)
	fld	DWORD PTR tv213[ebp]
	fld	ST(0)
	fld	DWORD PTR _ya$[ebp]
	fld	ST(0)
	fmulp	ST(2), ST(0)
	fxch	ST(4)
	fsubrp	ST(1), ST(0)
	fadd	DWORD PTR _x0$[ebp]
	fstp	DWORD PTR [esi]
; Line 221
	fmulp	ST(1), ST(0)
	fxch	ST(2)
	fmulp	ST(1), ST(0)
	faddp	ST(1), ST(0)
	fadd	DWORD PTR _y0$[ebp]
	fstp	DWORD PTR [edi]
	pop	edi
	pop	esi
; Line 222
	mov	esp, ebp
	pop	ebp
	ret	0
?rotate@@YAXMMPAM0M@Z ENDP				; rotate
_TEXT	ENDS
PUBLIC	?addref@ManagedItem@@QAEXXZ			; ManagedItem::addref
; Function compile flags: /Ogtp
;	COMDAT ?addref@ManagedItem@@QAEXXZ
_TEXT	SEGMENT
?addref@ManagedItem@@QAEXXZ PROC			; ManagedItem::addref, COMDAT
; _this$ = ecx
; File c:\programovani\wow editor\test\src\editor\manager.h
; Line 19
	inc	DWORD PTR [ecx+4]
; Line 20
	ret	0
?addref@ManagedItem@@QAEXXZ ENDP			; ManagedItem::addref
_TEXT	ENDS
PUBLIC	?delref@ManagedItem@@QAE_NXZ			; ManagedItem::delref
; Function compile flags: /Ogtp
;	COMDAT ?delref@ManagedItem@@QAE_NXZ
_TEXT	SEGMENT
?delref@ManagedItem@@QAE_NXZ PROC			; ManagedItem::delref, COMDAT
; _this$ = ecx
; Line 24
	dec	DWORD PTR [ecx+4]
	mov	eax, 0
	sete	al
; Line 25
	ret	0
?delref@ManagedItem@@QAE_NXZ ENDP			; ManagedItem::delref
_TEXT	ENDS
PUBLIC	?nextID@SimpleManager@@IAEHXZ			; SimpleManager::nextID
; Function compile flags: /Ogtp
;	COMDAT ?nextID@SimpleManager@@IAEHXZ
_TEXT	SEGMENT
?nextID@SimpleManager@@IAEHXZ PROC			; SimpleManager::nextID, COMDAT
; _this$ = ecx
; Line 90
	mov	eax, DWORD PTR [ecx+36]
	lea	edx, DWORD PTR [eax+1]
	mov	DWORD PTR [ecx+36], edx
; Line 91
	ret	0
?nextID@SimpleManager@@IAEHXZ ENDP			; SimpleManager::nextID
_TEXT	ENDS
PUBLIC	?getBuffer@MPQFile@@QAEPADXZ			; MPQFile::getBuffer
; Function compile flags: /Ogtp
;	COMDAT ?getBuffer@MPQFile@@QAEPADXZ
_TEXT	SEGMENT
?getBuffer@MPQFile@@QAEPADXZ PROC			; MPQFile::getBuffer, COMDAT
; _this$ = ecx
; File c:\programovani\wow editor\test\src\editor\mpq.h
; Line 48
	mov	eax, DWORD PTR [ecx+1028]
	ret	0
?getBuffer@MPQFile@@QAEPADXZ ENDP			; MPQFile::getBuffer
_TEXT	ENDS
PUBLIC	?isEof@MPQFile@@QAE_NXZ				; MPQFile::isEof
; Function compile flags: /Ogtp
;	COMDAT ?isEof@MPQFile@@QAE_NXZ
_TEXT	SEGMENT
?isEof@MPQFile@@QAE_NXZ PROC				; MPQFile::isEof, COMDAT
; _this$ = ecx
; Line 50
	mov	al, BYTE PTR [ecx+1024]
	ret	0
?isEof@MPQFile@@QAE_NXZ ENDP				; MPQFile::isEof
_TEXT	ENDS
PUBLIC	?isExternal@MPQFile@@QAE_NXZ			; MPQFile::isExternal
; Function compile flags: /Ogtp
;	COMDAT ?isExternal@MPQFile@@QAE_NXZ
_TEXT	SEGMENT
?isExternal@MPQFile@@QAE_NXZ PROC			; MPQFile::isExternal, COMDAT
; _this$ = ecx
; Line 54
	mov	al, BYTE PTR [ecx+1048]
	ret	0
?isExternal@MPQFile@@QAE_NXZ ENDP			; MPQFile::isExternal
_TEXT	ENDS
PUBLIC	??0Vec4D@@QAE@MMMM@Z				; Vec4D::Vec4D
; Function compile flags: /Ogtp
;	COMDAT ??0Vec4D@@QAE@MMMM@Z
_TEXT	SEGMENT
_x0$ = 8						; size = 4
_y0$ = 12						; size = 4
_z0$ = 16						; size = 4
_w0$ = 20						; size = 4
??0Vec4D@@QAE@MMMM@Z PROC				; Vec4D::Vec4D, COMDAT
; _this$ = ecx
; File c:\programovani\wow editor\test\src\editor\quaternion.h
; Line 12
	push	ebp
	mov	ebp, esp
	mov	edx, DWORD PTR _y0$[ebp]
	mov	eax, ecx
	mov	ecx, DWORD PTR _x0$[ebp]
	mov	DWORD PTR [eax], ecx
	mov	ecx, DWORD PTR _z0$[ebp]
	mov	DWORD PTR [eax+4], edx
	mov	edx, DWORD PTR _w0$[ebp]
	mov	DWORD PTR [eax+8], ecx
	mov	DWORD PTR [eax+12], edx
	pop	ebp
	ret	16					; 00000010H
??0Vec4D@@QAE@MMMM@Z ENDP				; Vec4D::Vec4D
_TEXT	ENDS
PUBLIC	??0Vec4D@@QAE@ABV0@@Z				; Vec4D::Vec4D
; Function compile flags: /Ogtp
;	COMDAT ??0Vec4D@@QAE@ABV0@@Z
_TEXT	SEGMENT
_v$ = 8							; size = 4
??0Vec4D@@QAE@ABV0@@Z PROC				; Vec4D::Vec4D, COMDAT
; _this$ = ecx
; Line 14
	push	ebp
	mov	ebp, esp
	mov	eax, ecx
	mov	ecx, DWORD PTR _v$[ebp]
	mov	edx, DWORD PTR [ecx]
	mov	DWORD PTR [eax], edx
	mov	edx, DWORD PTR [ecx+4]
	mov	DWORD PTR [eax+4], edx
	mov	edx, DWORD PTR [ecx+8]
	mov	DWORD PTR [eax+8], edx
	mov	ecx, DWORD PTR [ecx+12]
	mov	DWORD PTR [eax+12], ecx
	pop	ebp
	ret	4
??0Vec4D@@QAE@ABV0@@Z ENDP				; Vec4D::Vec4D
_TEXT	ENDS
PUBLIC	??0Vec4D@@QAE@ABVVec3D@@M@Z			; Vec4D::Vec4D
; Function compile flags: /Ogtp
;	COMDAT ??0Vec4D@@QAE@ABVVec3D@@M@Z
_TEXT	SEGMENT
_v$ = 8							; size = 4
_w0$ = 12						; size = 4
??0Vec4D@@QAE@ABVVec3D@@M@Z PROC			; Vec4D::Vec4D, COMDAT
; _this$ = ecx
; Line 16
	push	ebp
	mov	ebp, esp
	mov	eax, ecx
	mov	ecx, DWORD PTR _v$[ebp]
	mov	edx, DWORD PTR [ecx]
	mov	DWORD PTR [eax], edx
	mov	edx, DWORD PTR [ecx+4]
	mov	DWORD PTR [eax+4], edx
	mov	ecx, DWORD PTR [ecx+8]
	mov	edx, DWORD PTR _w0$[ebp]
	mov	DWORD PTR [eax+8], ecx
	mov	DWORD PTR [eax+12], edx
	pop	ebp
	ret	8
??0Vec4D@@QAE@ABVVec3D@@M@Z ENDP			; Vec4D::Vec4D
_TEXT	ENDS
PUBLIC	??4Vec4D@@QAEAAV0@ABV0@@Z			; Vec4D::operator=
; Function compile flags: /Ogtp
;	COMDAT ??4Vec4D@@QAEAAV0@ABV0@@Z
_TEXT	SEGMENT
_v$ = 8							; size = 4
??4Vec4D@@QAEAAV0@ABV0@@Z PROC				; Vec4D::operator=, COMDAT
; _this$ = ecx
; Line 19
	push	ebp
	mov	ebp, esp
	mov	eax, ecx
; Line 20
	mov	ecx, DWORD PTR _v$[ebp]
	mov	edx, DWORD PTR [ecx]
	mov	DWORD PTR [eax], edx
; Line 21
	mov	edx, DWORD PTR [ecx+4]
	mov	DWORD PTR [eax+4], edx
; Line 22
	mov	edx, DWORD PTR [ecx+8]
	mov	DWORD PTR [eax+8], edx
; Line 23
	mov	ecx, DWORD PTR [ecx+12]
	mov	DWORD PTR [eax+12], ecx
; Line 25
	pop	ebp
	ret	4
??4Vec4D@@QAEAAV0@ABV0@@Z ENDP				; Vec4D::operator=
_TEXT	ENDS
PUBLIC	??HVec4D@@QBE?BV0@ABV0@@Z			; Vec4D::operator+
; Function compile flags: /Ogtp
;	COMDAT ??HVec4D@@QBE?BV0@ABV0@@Z
_TEXT	SEGMENT
___$ReturnUdt$ = 8					; size = 4
_v$ = 12						; size = 4
??HVec4D@@QBE?BV0@ABV0@@Z PROC				; Vec4D::operator+, COMDAT
; _this$ = ecx
; Line 28
	push	ebp
	mov	ebp, esp
; Line 29
	mov	edx, DWORD PTR _v$[ebp]
	fld	DWORD PTR [edx]
	mov	eax, DWORD PTR ___$ReturnUdt$[ebp]
	fadd	DWORD PTR [ecx]
	fstp	DWORD PTR [eax]
	fld	DWORD PTR [edx+4]
	fadd	DWORD PTR [ecx+4]
	fstp	DWORD PTR [eax+4]
	fld	DWORD PTR [edx+8]
	fadd	DWORD PTR [ecx+8]
	fstp	DWORD PTR [eax+8]
	fld	DWORD PTR [edx+12]
	fadd	DWORD PTR [ecx+12]
	fstp	DWORD PTR [eax+12]
; Line 31
	pop	ebp
	ret	8
??HVec4D@@QBE?BV0@ABV0@@Z ENDP				; Vec4D::operator+
_TEXT	ENDS
PUBLIC	??GVec4D@@QBE?BV0@ABV0@@Z			; Vec4D::operator-
; Function compile flags: /Ogtp
;	COMDAT ??GVec4D@@QBE?BV0@ABV0@@Z
_TEXT	SEGMENT
___$ReturnUdt$ = 8					; size = 4
_v$ = 12						; size = 4
??GVec4D@@QBE?BV0@ABV0@@Z PROC				; Vec4D::operator-, COMDAT
; _this$ = ecx
; Line 34
	push	ebp
	mov	ebp, esp
; Line 35
	mov	edx, DWORD PTR _v$[ebp]
	fld	DWORD PTR [ecx]
	fsub	DWORD PTR [edx]
	mov	eax, DWORD PTR ___$ReturnUdt$[ebp]
	fstp	DWORD PTR [eax]
	fld	DWORD PTR [ecx+4]
	fsub	DWORD PTR [edx+4]
	fstp	DWORD PTR [eax+4]
	fld	DWORD PTR [ecx+8]
	fsub	DWORD PTR [edx+8]
	fstp	DWORD PTR [eax+8]
	fld	DWORD PTR [ecx+12]
	fsub	DWORD PTR [edx+12]
	fstp	DWORD PTR [eax+12]
; Line 37
	pop	ebp
	ret	8
??GVec4D@@QBE?BV0@ABV0@@Z ENDP				; Vec4D::operator-
_TEXT	ENDS
PUBLIC	??DVec4D@@QBE?BV0@M@Z				; Vec4D::operator*
; Function compile flags: /Ogtp
;	COMDAT ??DVec4D@@QBE?BV0@M@Z
_TEXT	SEGMENT
___$ReturnUdt$ = 8					; size = 4
_d$ = 12						; size = 4
??DVec4D@@QBE?BV0@M@Z PROC				; Vec4D::operator*, COMDAT
; _this$ = ecx
; Line 40
	push	ebp
	mov	ebp, esp
; Line 41
	fld	DWORD PTR [ecx]
	mov	eax, DWORD PTR ___$ReturnUdt$[ebp]
	fld	DWORD PTR _d$[ebp]
	fld	ST(0)
	fmulp	ST(2), ST(0)
	fxch	ST(1)
	fstp	DWORD PTR [eax]
	fld	DWORD PTR [ecx+4]
	fmul	ST(0), ST(1)
	fstp	DWORD PTR [eax+4]
	fld	DWORD PTR [ecx+8]
	fmul	ST(0), ST(1)
	fstp	DWORD PTR [eax+8]
	fmul	DWORD PTR [ecx+12]
	fstp	DWORD PTR [eax+12]
; Line 43
	pop	ebp
	ret	8
??DVec4D@@QBE?BV0@M@Z ENDP				; Vec4D::operator*
_TEXT	ENDS
PUBLIC	??XVec4D@@QAEAAV0@M@Z				; Vec4D::operator*=
; Function compile flags: /Ogtp
;	COMDAT ??XVec4D@@QAEAAV0@M@Z
_TEXT	SEGMENT
_d$ = 8							; size = 4
??XVec4D@@QAEAAV0@M@Z PROC				; Vec4D::operator*=, COMDAT
; _this$ = ecx
; Line 69
	push	ebp
	mov	ebp, esp
	mov	eax, ecx
; Line 70
	fld	DWORD PTR [eax]
	fld	DWORD PTR _d$[ebp]
	fld	ST(0)
	fmulp	ST(2), ST(0)
	fxch	ST(1)
	fstp	DWORD PTR [eax]
; Line 71
	fld	DWORD PTR [eax+4]
	fmul	ST(0), ST(1)
	fstp	DWORD PTR [eax+4]
; Line 72
	fld	ST(0)
	fmul	DWORD PTR [eax+8]
	fstp	DWORD PTR [eax+8]
; Line 73
	fmul	DWORD PTR [eax+12]
	fstp	DWORD PTR [eax+12]
; Line 75
	pop	ebp
	ret	4
??XVec4D@@QAEAAV0@M@Z ENDP				; Vec4D::operator*=
_TEXT	ENDS
PUBLIC	??DVec4D@@QBEMABV0@@Z				; Vec4D::operator*
; Function compile flags: /Ogtp
;	COMDAT ??DVec4D@@QBEMABV0@@Z
_TEXT	SEGMENT
tv198 = 8						; size = 4
_v$ = 8							; size = 4
??DVec4D@@QBEMABV0@@Z PROC				; Vec4D::operator*, COMDAT
; _this$ = ecx
; Line 78
	push	ebp
	mov	ebp, esp
; Line 79
	mov	eax, DWORD PTR _v$[ebp]
	fld	DWORD PTR [eax+4]
	fmul	DWORD PTR [ecx+4]
	fld	DWORD PTR [eax]
	fmul	DWORD PTR [ecx]
	faddp	ST(1), ST(0)
	fld	DWORD PTR [eax+8]
	fmul	DWORD PTR [ecx+8]
	faddp	ST(1), ST(0)
	fld	DWORD PTR [eax+12]
	fmul	DWORD PTR [ecx+12]
	faddp	ST(1), ST(0)
	fstp	DWORD PTR tv198[ebp]
	fld	DWORD PTR tv198[ebp]
; Line 80
	pop	ebp
	ret	4
??DVec4D@@QBEMABV0@@Z ENDP				; Vec4D::operator*
_TEXT	ENDS
PUBLIC	?lengthSquared@Vec4D@@QBEMXZ			; Vec4D::lengthSquared
; Function compile flags: /Ogtp
;	COMDAT ?lengthSquared@Vec4D@@QBEMXZ
_TEXT	SEGMENT
tv168 = -4						; size = 4
?lengthSquared@Vec4D@@QBEMXZ PROC			; Vec4D::lengthSquared, COMDAT
; _this$ = ecx
; Line 83
	push	ebp
	mov	ebp, esp
	push	ecx
; Line 84
	fld	DWORD PTR [ecx+4]
	fld	DWORD PTR [ecx]
	fld	DWORD PTR [ecx+8]
	fld	DWORD PTR [ecx+12]
	fld	ST(2)
	fmulp	ST(3), ST(0)
	fld	ST(3)
	fmulp	ST(4), ST(0)
	fxch	ST(2)
	faddp	ST(3), ST(0)
	fmul	ST(0), ST(0)
	faddp	ST(2), ST(0)
	fmul	ST(0), ST(0)
	faddp	ST(1), ST(0)
	fstp	DWORD PTR tv168[ebp]
	fld	DWORD PTR tv168[ebp]
; Line 85
	mov	esp, ebp
	pop	ebp
	ret	0
?lengthSquared@Vec4D@@QBEMXZ ENDP			; Vec4D::lengthSquared
_TEXT	ENDS
PUBLIC	?length@Vec4D@@QBEMXZ				; Vec4D::length
; Function compile flags: /Ogtp
;	COMDAT ?length@Vec4D@@QBEMXZ
_TEXT	SEGMENT
tv172 = -4						; size = 4
tv164 = -4						; size = 4
?length@Vec4D@@QBEMXZ PROC				; Vec4D::length, COMDAT
; _this$ = ecx
; Line 88
	push	ebp
	mov	ebp, esp
	push	ecx
; Line 89
	fld	DWORD PTR [ecx+4]
	fld	DWORD PTR [ecx]
	fld	DWORD PTR [ecx+8]
	fld	DWORD PTR [ecx+12]
	fld	ST(2)
	fmulp	ST(3), ST(0)
	fld	ST(3)
	fmulp	ST(4), ST(0)
	fxch	ST(2)
	faddp	ST(3), ST(0)
	fmul	ST(0), ST(0)
	faddp	ST(2), ST(0)
	fmul	ST(0), ST(0)
	faddp	ST(1), ST(0)
	fstp	DWORD PTR tv172[ebp]
	fld	DWORD PTR tv172[ebp]
	call	__CIsqrt
	fstp	DWORD PTR tv164[ebp]
	fld	DWORD PTR tv164[ebp]
; Line 90
	mov	esp, ebp
	pop	ebp
	ret	0
?length@Vec4D@@QBEMXZ ENDP				; Vec4D::length
_TEXT	ENDS
PUBLIC	?normalize@Vec4D@@QAEAAV1@XZ			; Vec4D::normalize
; Function compile flags: /Ogtp
;	COMDAT ?normalize@Vec4D@@QAEAAV1@XZ
_TEXT	SEGMENT
tv207 = -4						; size = 4
tv197 = -4						; size = 4
$T102042 = -4						; size = 4
?normalize@Vec4D@@QAEAAV1@XZ PROC			; Vec4D::normalize, COMDAT
; _this$ = ecx
; Line 93
	push	ebp
	mov	ebp, esp
	push	ecx
	push	esi
	mov	esi, ecx
; Line 94
	fld	DWORD PTR [esi+4]
	fld	DWORD PTR [esi]
	fld	DWORD PTR [esi+8]
	fld	DWORD PTR [esi+12]
	fld	ST(2)
	fmulp	ST(3), ST(0)
	fld	ST(3)
	fmulp	ST(4), ST(0)
	fxch	ST(2)
	faddp	ST(3), ST(0)
	fmul	ST(0), ST(0)
	faddp	ST(2), ST(0)
	fmul	ST(0), ST(0)
	faddp	ST(1), ST(0)
	fstp	DWORD PTR tv207[ebp]
	fld	DWORD PTR tv207[ebp]
	call	__CIsqrt
	fstp	DWORD PTR tv197[ebp]
	fld	DWORD PTR tv197[ebp]
; Line 95
	mov	eax, esi
	fld1
	fdivrp	ST(1), ST(0)
	fstp	DWORD PTR $T102042[ebp]
	fld	DWORD PTR [esi]
	fld	DWORD PTR $T102042[ebp]
	fld	ST(0)
	fmulp	ST(2), ST(0)
	fxch	ST(1)
	fstp	DWORD PTR [esi]
	fld	ST(0)
	fmul	DWORD PTR [esi+4]
	fstp	DWORD PTR [esi+4]
	fld	DWORD PTR [esi+8]
	fmul	ST(0), ST(1)
	fstp	DWORD PTR [esi+8]
	fmul	DWORD PTR [esi+12]
	fstp	DWORD PTR [esi+12]
	pop	esi
; Line 96
	mov	esp, ebp
	pop	ebp
	ret	0
?normalize@Vec4D@@QAEAAV1@XZ ENDP			; Vec4D::normalize
_TEXT	ENDS
PUBLIC	??BVec4D@@QAEPAMXZ				; Vec4D::operator float *
; Function compile flags: /Ogtp
;	COMDAT ??BVec4D@@QAEPAMXZ
_TEXT	SEGMENT
??BVec4D@@QAEPAMXZ PROC					; Vec4D::operator float *, COMDAT
; _this$ = ecx
; Line 99
	mov	eax, ecx
; Line 101
	ret	0
??BVec4D@@QAEPAMXZ ENDP					; Vec4D::operator float *
_TEXT	ENDS
PUBLIC	??0Quaternion@@QAE@MMMM@Z			; Quaternion::Quaternion
; Function compile flags: /Ogtp
;	COMDAT ??0Quaternion@@QAE@MMMM@Z
_TEXT	SEGMENT
_x0$ = 8						; size = 4
_y0$ = 12						; size = 4
_z0$ = 16						; size = 4
_w0$ = 20						; size = 4
??0Quaternion@@QAE@MMMM@Z PROC				; Quaternion::Quaternion, COMDAT
; _this$ = ecx
; Line 112
	push	ebp
	mov	ebp, esp
	mov	edx, DWORD PTR _y0$[ebp]
	mov	eax, ecx
	mov	ecx, DWORD PTR _x0$[ebp]
	mov	DWORD PTR [eax], ecx
	mov	ecx, DWORD PTR _z0$[ebp]
	mov	DWORD PTR [eax+4], edx
	mov	edx, DWORD PTR _w0$[ebp]
	mov	DWORD PTR [eax+8], ecx
	mov	DWORD PTR [eax+12], edx
	pop	ebp
	ret	16					; 00000010H
??0Quaternion@@QAE@MMMM@Z ENDP				; Quaternion::Quaternion
_TEXT	ENDS
PUBLIC	??0Quaternion@@QAE@ABVVec4D@@@Z			; Quaternion::Quaternion
; Function compile flags: /Ogtp
;	COMDAT ??0Quaternion@@QAE@ABVVec4D@@@Z
_TEXT	SEGMENT
_v$ = 8							; size = 4
??0Quaternion@@QAE@ABVVec4D@@@Z PROC			; Quaternion::Quaternion, COMDAT
; _this$ = ecx
; Line 114
	push	ebp
	mov	ebp, esp
	mov	eax, ecx
	mov	ecx, DWORD PTR _v$[ebp]
	mov	edx, DWORD PTR [ecx]
	mov	DWORD PTR [eax], edx
	mov	edx, DWORD PTR [ecx+4]
	mov	DWORD PTR [eax+4], edx
	mov	edx, DWORD PTR [ecx+8]
	mov	DWORD PTR [eax+8], edx
	mov	ecx, DWORD PTR [ecx+12]
	mov	DWORD PTR [eax+12], ecx
	pop	ebp
	ret	4
??0Quaternion@@QAE@ABVVec4D@@@Z ENDP			; Quaternion::Quaternion
_TEXT	ENDS
PUBLIC	??0Quaternion@@QAE@ABVVec3D@@M@Z		; Quaternion::Quaternion
; Function compile flags: /Ogtp
;	COMDAT ??0Quaternion@@QAE@ABVVec3D@@M@Z
_TEXT	SEGMENT
_v$ = 8							; size = 4
_w0$ = 12						; size = 4
??0Quaternion@@QAE@ABVVec3D@@M@Z PROC			; Quaternion::Quaternion, COMDAT
; _this$ = ecx
; Line 116
	push	ebp
	mov	ebp, esp
	mov	eax, ecx
	mov	ecx, DWORD PTR _v$[ebp]
	mov	edx, DWORD PTR [ecx]
	mov	DWORD PTR [eax], edx
	mov	edx, DWORD PTR [ecx+4]
	mov	DWORD PTR [eax+4], edx
	mov	ecx, DWORD PTR [ecx+8]
	mov	edx, DWORD PTR _w0$[ebp]
	mov	DWORD PTR [eax+8], ecx
	mov	DWORD PTR [eax+12], edx
	pop	ebp
	ret	8
??0Quaternion@@QAE@ABVVec3D@@M@Z ENDP			; Quaternion::Quaternion
_TEXT	ENDS
PUBLIC	?lerp@Quaternion@@SA?BV1@MABV1@0@Z		; Quaternion::lerp
; Function compile flags: /Ogtp
;	COMDAT ?lerp@Quaternion@@SA?BV1@MABV1@0@Z
_TEXT	SEGMENT
$T102065 = -48						; size = 16
$T102064 = -32						; size = 16
$T102063 = -16						; size = 16
___$ReturnUdt$ = 8					; size = 4
_r$ = 12						; size = 4
_v1$ = 16						; size = 4
$T102092 = 20						; size = 4
_v2$ = 20						; size = 4
?lerp@Quaternion@@SA?BV1@MABV1@0@Z PROC			; Quaternion::lerp, COMDAT
; Line 137
	push	ebp
	mov	ebp, esp
	sub	esp, 48					; 00000030H
; Line 138
	mov	eax, DWORD PTR _v2$[ebp]
	fld	DWORD PTR [eax]
	fld	DWORD PTR _r$[ebp]
	fld	ST(0)
	fmulp	ST(2), ST(0)
	fxch	ST(1)
	fstp	DWORD PTR $T102064[ebp]
	fld	DWORD PTR [eax+4]
	fmul	ST(0), ST(1)
	fstp	DWORD PTR $T102064[ebp+4]
	fld	DWORD PTR [eax+8]
	fmul	ST(0), ST(1)
	fstp	DWORD PTR $T102064[ebp+8]
	fld	DWORD PTR [eax+12]
	mov	eax, DWORD PTR _v1$[ebp]
	fmul	ST(0), ST(1)
	fstp	DWORD PTR $T102064[ebp+12]
	fld1
	fsubrp	ST(1), ST(0)
	fstp	DWORD PTR $T102092[ebp]
	fld	DWORD PTR [eax]
	fld	DWORD PTR $T102092[ebp]
	fld	ST(0)
	fmulp	ST(2), ST(0)
	fxch	ST(1)
	fstp	DWORD PTR $T102063[ebp]
	fld	DWORD PTR [eax+4]
	fmul	ST(0), ST(1)
	fstp	DWORD PTR $T102063[ebp+4]
	fld	DWORD PTR [eax+8]
	fmul	ST(0), ST(1)
	fstp	DWORD PTR $T102063[ebp+8]
	fmul	DWORD PTR [eax+12]
	mov	eax, DWORD PTR ___$ReturnUdt$[ebp]
	fstp	DWORD PTR $T102063[ebp+12]
	fld	DWORD PTR $T102063[ebp]
	fadd	DWORD PTR $T102064[ebp]
	fstp	DWORD PTR $T102065[ebp]
	fld	DWORD PTR $T102064[ebp+4]
	mov	ecx, DWORD PTR $T102065[ebp]
	fadd	DWORD PTR $T102063[ebp+4]
	mov	DWORD PTR [eax], ecx
	fstp	DWORD PTR $T102065[ebp+4]
	fld	DWORD PTR $T102063[ebp+8]
	mov	edx, DWORD PTR $T102065[ebp+4]
	fadd	DWORD PTR $T102064[ebp+8]
	mov	DWORD PTR [eax+4], edx
	fstp	DWORD PTR $T102065[ebp+8]
	fld	DWORD PTR $T102063[ebp+12]
	mov	ecx, DWORD PTR $T102065[ebp+8]
	fadd	DWORD PTR $T102064[ebp+12]
	mov	DWORD PTR [eax+8], ecx
	fstp	DWORD PTR $T102065[ebp+12]
	mov	edx, DWORD PTR $T102065[ebp+12]
	mov	DWORD PTR [eax+12], edx
; Line 139
	mov	esp, ebp
	pop	ebp
	ret	0
?lerp@Quaternion@@SA?BV1@MABV1@0@Z ENDP			; Quaternion::lerp
_TEXT	ENDS
PUBLIC	??0Matrix@@QAE@XZ				; Matrix::Matrix
; Function compile flags: /Ogtp
;	COMDAT ??0Matrix@@QAE@XZ
_TEXT	SEGMENT
??0Matrix@@QAE@XZ PROC					; Matrix::Matrix, COMDAT
; _this$ = ecx
; File c:\programovani\wow editor\test\src\editor\matrix.h
; Line 12
	mov	eax, ecx
; Line 14
	ret	0
??0Matrix@@QAE@XZ ENDP					; Matrix::Matrix
_TEXT	ENDS
PUBLIC	??0Matrix@@QAE@ABV0@@Z				; Matrix::Matrix
; Function compile flags: /Ogtp
;	COMDAT ??0Matrix@@QAE@ABV0@@Z
_TEXT	SEGMENT
_p$ = 8							; size = 4
??0Matrix@@QAE@ABV0@@Z PROC				; Matrix::Matrix, COMDAT
; _this$ = ecx
; Line 16
	push	ebp
	mov	ebp, esp
	mov	eax, ecx
; Line 22
	mov	ecx, DWORD PTR _p$[ebp]
	mov	edx, DWORD PTR [ecx]
	mov	DWORD PTR [eax], edx
	mov	edx, DWORD PTR [ecx+4]
	mov	DWORD PTR [eax+4], edx
	mov	edx, DWORD PTR [ecx+8]
	mov	DWORD PTR [eax+8], edx
	mov	edx, DWORD PTR [ecx+12]
	mov	DWORD PTR [eax+12], edx
	mov	edx, DWORD PTR [ecx+16]
	mov	DWORD PTR [eax+16], edx
	mov	edx, DWORD PTR [ecx+20]
	mov	DWORD PTR [eax+20], edx
	mov	edx, DWORD PTR [ecx+24]
	mov	DWORD PTR [eax+24], edx
	mov	edx, DWORD PTR [ecx+28]
	mov	DWORD PTR [eax+28], edx
	mov	edx, DWORD PTR [ecx+32]
	mov	DWORD PTR [eax+32], edx
	mov	edx, DWORD PTR [ecx+36]
	mov	DWORD PTR [eax+36], edx
	mov	edx, DWORD PTR [ecx+40]
	mov	DWORD PTR [eax+40], edx
	mov	edx, DWORD PTR [ecx+44]
	mov	DWORD PTR [eax+44], edx
	mov	edx, DWORD PTR [ecx+48]
	mov	DWORD PTR [eax+48], edx
	mov	edx, DWORD PTR [ecx+52]
	mov	DWORD PTR [eax+52], edx
	mov	edx, DWORD PTR [ecx+56]
	mov	DWORD PTR [eax+56], edx
	mov	ecx, DWORD PTR [ecx+60]
	mov	DWORD PTR [eax+60], ecx
; Line 25
	pop	ebp
	ret	4
??0Matrix@@QAE@ABV0@@Z ENDP				; Matrix::Matrix
_TEXT	ENDS
PUBLIC	??4Matrix@@QAEAAV0@ABV0@@Z			; Matrix::operator=
; Function compile flags: /Ogtp
;	COMDAT ??4Matrix@@QAEAAV0@ABV0@@Z
_TEXT	SEGMENT
_p$ = 8							; size = 4
??4Matrix@@QAEAAV0@ABV0@@Z PROC				; Matrix::operator=, COMDAT
; _this$ = ecx
; Line 28
	push	ebp
	mov	ebp, esp
	mov	eax, ecx
; Line 33
	mov	ecx, DWORD PTR _p$[ebp]
	mov	edx, DWORD PTR [ecx]
	mov	DWORD PTR [eax], edx
	mov	edx, DWORD PTR [ecx+4]
	mov	DWORD PTR [eax+4], edx
	mov	edx, DWORD PTR [ecx+8]
	mov	DWORD PTR [eax+8], edx
	mov	edx, DWORD PTR [ecx+12]
	mov	DWORD PTR [eax+12], edx
	mov	edx, DWORD PTR [ecx+16]
	mov	DWORD PTR [eax+16], edx
	mov	edx, DWORD PTR [ecx+20]
	mov	DWORD PTR [eax+20], edx
	mov	edx, DWORD PTR [ecx+24]
	mov	DWORD PTR [eax+24], edx
	mov	edx, DWORD PTR [ecx+28]
	mov	DWORD PTR [eax+28], edx
	mov	edx, DWORD PTR [ecx+32]
	mov	DWORD PTR [eax+32], edx
	mov	edx, DWORD PTR [ecx+36]
	mov	DWORD PTR [eax+36], edx
	mov	edx, DWORD PTR [ecx+40]
	mov	DWORD PTR [eax+40], edx
	mov	edx, DWORD PTR [ecx+44]
	mov	DWORD PTR [eax+44], edx
	mov	edx, DWORD PTR [ecx+48]
	mov	DWORD PTR [eax+48], edx
	mov	edx, DWORD PTR [ecx+52]
	mov	DWORD PTR [eax+52], edx
	mov	edx, DWORD PTR [ecx+56]
	mov	DWORD PTR [eax+56], edx
	mov	ecx, DWORD PTR [ecx+60]
	mov	DWORD PTR [eax+60], ecx
; Line 37
	pop	ebp
	ret	4
??4Matrix@@QAEAAV0@ABV0@@Z ENDP				; Matrix::operator=
_TEXT	ENDS
PUBLIC	?zero@Matrix@@QAEXXZ				; Matrix::zero
; Function compile flags: /Ogtp
;	COMDAT ?zero@Matrix@@QAEXXZ
_TEXT	SEGMENT
?zero@Matrix@@QAEXXZ PROC				; Matrix::zero, COMDAT
; _this$ = ecx
; Line 45
	xor	eax, eax
	mov	DWORD PTR [ecx], eax
	mov	DWORD PTR [ecx+4], eax
	mov	DWORD PTR [ecx+8], eax
	mov	DWORD PTR [ecx+12], eax
	mov	DWORD PTR [ecx+16], eax
	mov	DWORD PTR [ecx+20], eax
	mov	DWORD PTR [ecx+24], eax
	mov	DWORD PTR [ecx+28], eax
	mov	DWORD PTR [ecx+32], eax
	mov	DWORD PTR [ecx+36], eax
	mov	DWORD PTR [ecx+40], eax
	mov	DWORD PTR [ecx+44], eax
	mov	DWORD PTR [ecx+48], eax
	mov	DWORD PTR [ecx+52], eax
	mov	DWORD PTR [ecx+56], eax
	mov	DWORD PTR [ecx+60], eax
; Line 48
	ret	0
?zero@Matrix@@QAEXXZ ENDP				; Matrix::zero
_TEXT	ENDS
PUBLIC	?unit@Matrix@@QAEXXZ				; Matrix::unit
; Function compile flags: /Ogtp
;	COMDAT ?unit@Matrix@@QAEXXZ
_TEXT	SEGMENT
?unit@Matrix@@QAEXXZ PROC				; Matrix::unit, COMDAT
; _this$ = ecx
; Line 52
	xor	eax, eax
	mov	DWORD PTR [ecx+4], eax
	mov	DWORD PTR [ecx+8], eax
	mov	DWORD PTR [ecx+12], eax
	mov	DWORD PTR [ecx+16], eax
	mov	DWORD PTR [ecx+24], eax
	mov	DWORD PTR [ecx+28], eax
	mov	DWORD PTR [ecx+32], eax
	mov	DWORD PTR [ecx+36], eax
	mov	DWORD PTR [ecx+44], eax
	mov	DWORD PTR [ecx+48], eax
	mov	DWORD PTR [ecx+52], eax
	mov	DWORD PTR [ecx+56], eax
; Line 53
	mov	eax, 1065353216				; 3f800000H
	mov	DWORD PTR [ecx+60], eax
	mov	DWORD PTR [ecx+40], eax
	mov	DWORD PTR [ecx+20], eax
	mov	DWORD PTR [ecx], eax
; Line 54
	ret	0
?unit@Matrix@@QAEXXZ ENDP				; Matrix::unit
_TEXT	ENDS
PUBLIC	?translation@Matrix@@QAEXABVVec3D@@@Z		; Matrix::translation
; Function compile flags: /Ogtp
;	COMDAT ?translation@Matrix@@QAEXABVVec3D@@@Z
_TEXT	SEGMENT
_tr$ = 8						; size = 4
?translation@Matrix@@QAEXABVVec3D@@@Z PROC		; Matrix::translation, COMDAT
; _this$ = ecx
; Line 57
	push	ebp
	mov	ebp, esp
; Line 64
	xor	eax, eax
	mov	DWORD PTR [ecx+4], eax
	mov	DWORD PTR [ecx+8], eax
	mov	DWORD PTR [ecx+12], eax
	mov	DWORD PTR [ecx+16], eax
	mov	DWORD PTR [ecx+24], eax
	mov	DWORD PTR [ecx+28], eax
	mov	DWORD PTR [ecx+32], eax
	mov	DWORD PTR [ecx+36], eax
	mov	DWORD PTR [ecx+44], eax
	mov	DWORD PTR [ecx+48], eax
	mov	DWORD PTR [ecx+52], eax
	mov	DWORD PTR [ecx+56], eax
	mov	eax, 1065353216				; 3f800000H
	mov	DWORD PTR [ecx+60], eax
	mov	DWORD PTR [ecx+40], eax
	mov	DWORD PTR [ecx+20], eax
	mov	DWORD PTR [ecx], eax
; Line 65
	mov	eax, DWORD PTR _tr$[ebp]
	mov	edx, DWORD PTR [eax]
	mov	DWORD PTR [ecx+12], edx
; Line 66
	mov	edx, DWORD PTR [eax+4]
	mov	DWORD PTR [ecx+28], edx
; Line 67
	mov	eax, DWORD PTR [eax+8]
	mov	DWORD PTR [ecx+44], eax
; Line 68
	pop	ebp
	ret	4
?translation@Matrix@@QAEXABVVec3D@@@Z ENDP		; Matrix::translation
_TEXT	ENDS
PUBLIC	?newTranslation@Matrix@@SA?BV1@ABVVec3D@@@Z	; Matrix::newTranslation
; Function compile flags: /Ogtp
;	COMDAT ?newTranslation@Matrix@@SA?BV1@ABVVec3D@@@Z
_TEXT	SEGMENT
___$ReturnUdt$ = 8					; size = 4
_tr$ = 12						; size = 4
?newTranslation@Matrix@@SA?BV1@ABVVec3D@@@Z PROC	; Matrix::newTranslation, COMDAT
; Line 71
	push	ebp
	mov	ebp, esp
; Line 73
	mov	eax, DWORD PTR ___$ReturnUdt$[ebp]
	xor	ecx, ecx
	mov	DWORD PTR [eax+4], ecx
	mov	DWORD PTR [eax+8], ecx
	mov	DWORD PTR [eax+16], ecx
	mov	DWORD PTR [eax+24], ecx
	mov	DWORD PTR [eax+32], ecx
	mov	DWORD PTR [eax+36], ecx
	mov	DWORD PTR [eax+48], ecx
	mov	DWORD PTR [eax+52], ecx
	mov	DWORD PTR [eax+56], ecx
	mov	ecx, 1065353216				; 3f800000H
	mov	DWORD PTR [eax+60], ecx
	mov	DWORD PTR [eax+40], ecx
	mov	DWORD PTR [eax+20], ecx
	mov	DWORD PTR [eax], ecx
	mov	ecx, DWORD PTR _tr$[ebp]
	mov	edx, DWORD PTR [ecx]
	mov	DWORD PTR [eax+12], edx
	mov	edx, DWORD PTR [ecx+4]
	mov	ecx, DWORD PTR [ecx+8]
	mov	DWORD PTR [eax+28], edx
	mov	DWORD PTR [eax+44], ecx
; Line 75
	pop	ebp
	ret	0
?newTranslation@Matrix@@SA?BV1@ABVVec3D@@@Z ENDP	; Matrix::newTranslation
_TEXT	ENDS
PUBLIC	?scale@Matrix@@QAEXABVVec3D@@@Z			; Matrix::scale
; Function compile flags: /Ogtp
;	COMDAT ?scale@Matrix@@QAEXABVVec3D@@@Z
_TEXT	SEGMENT
_sc$ = 8						; size = 4
?scale@Matrix@@QAEXABVVec3D@@@Z PROC			; Matrix::scale, COMDAT
; _this$ = ecx
; Line 78
	push	ebp
	mov	ebp, esp
; Line 85
	xor	eax, eax
	mov	DWORD PTR [ecx], eax
	mov	DWORD PTR [ecx+4], eax
	mov	DWORD PTR [ecx+8], eax
	mov	DWORD PTR [ecx+12], eax
	mov	DWORD PTR [ecx+16], eax
	mov	DWORD PTR [ecx+20], eax
	mov	DWORD PTR [ecx+24], eax
	mov	DWORD PTR [ecx+28], eax
	mov	DWORD PTR [ecx+32], eax
	mov	DWORD PTR [ecx+36], eax
	mov	DWORD PTR [ecx+40], eax
	mov	DWORD PTR [ecx+44], eax
	mov	DWORD PTR [ecx+48], eax
	mov	DWORD PTR [ecx+52], eax
	mov	DWORD PTR [ecx+56], eax
	mov	DWORD PTR [ecx+60], eax
; Line 86
	mov	eax, DWORD PTR _sc$[ebp]
	mov	edx, DWORD PTR [eax]
	mov	DWORD PTR [ecx], edx
; Line 87
	mov	edx, DWORD PTR [eax+4]
	mov	DWORD PTR [ecx+20], edx
; Line 88
	mov	eax, DWORD PTR [eax+8]
	mov	DWORD PTR [ecx+40], eax
; Line 89
	mov	DWORD PTR [ecx+60], 1065353216		; 3f800000H
; Line 90
	pop	ebp
	ret	4
?scale@Matrix@@QAEXABVVec3D@@@Z ENDP			; Matrix::scale
_TEXT	ENDS
PUBLIC	?newScale@Matrix@@SA?BV1@ABVVec3D@@@Z		; Matrix::newScale
; Function compile flags: /Ogtp
;	COMDAT ?newScale@Matrix@@SA?BV1@ABVVec3D@@@Z
_TEXT	SEGMENT
___$ReturnUdt$ = 8					; size = 4
_sc$ = 12						; size = 4
?newScale@Matrix@@SA?BV1@ABVVec3D@@@Z PROC		; Matrix::newScale, COMDAT
; Line 93
	push	ebp
	mov	ebp, esp
; Line 95
	mov	eax, DWORD PTR ___$ReturnUdt$[ebp]
	xor	ecx, ecx
	mov	DWORD PTR [eax+4], ecx
	mov	DWORD PTR [eax+8], ecx
	mov	DWORD PTR [eax+12], ecx
	mov	DWORD PTR [eax+16], ecx
	mov	DWORD PTR [eax+24], ecx
	mov	DWORD PTR [eax+28], ecx
	mov	DWORD PTR [eax+32], ecx
	mov	DWORD PTR [eax+36], ecx
	mov	DWORD PTR [eax+44], ecx
	mov	DWORD PTR [eax+48], ecx
	mov	DWORD PTR [eax+52], ecx
	mov	DWORD PTR [eax+56], ecx
	mov	ecx, DWORD PTR _sc$[ebp]
	mov	edx, DWORD PTR [ecx]
	mov	DWORD PTR [eax], edx
	mov	edx, DWORD PTR [ecx+4]
	mov	ecx, DWORD PTR [ecx+8]
	mov	DWORD PTR [eax+20], edx
	mov	DWORD PTR [eax+40], ecx
	mov	DWORD PTR [eax+60], 1065353216		; 3f800000H
; Line 97
	pop	ebp
	ret	0
?newScale@Matrix@@SA?BV1@ABVVec3D@@@Z ENDP		; Matrix::newScale
_TEXT	ENDS
PUBLIC	__real@4000000000000000
PUBLIC	?quaternionRotate@Matrix@@QAEXABVQuaternion@@@Z	; Matrix::quaternionRotate
;	COMDAT __real@4000000000000000
CONST	SEGMENT
__real@4000000000000000 DQ 04000000000000000r	; 2
; Function compile flags: /Ogtp
CONST	ENDS
;	COMDAT ?quaternionRotate@Matrix@@QAEXABVQuaternion@@@Z
_TEXT	SEGMENT
_q$ = 8							; size = 4
?quaternionRotate@Matrix@@QAEXABVQuaternion@@@Z PROC	; Matrix::quaternionRotate, COMDAT
; _this$ = ecx
; Line 100
	push	ebp
	mov	ebp, esp
; Line 107
	mov	eax, DWORD PTR _q$[ebp]
	fld	DWORD PTR [eax+4]
	fld	QWORD PTR __real@4000000000000000
	fmul	ST(1), ST(0)
	fld	DWORD PTR [eax+4]
	fmulp	ST(2), ST(0)
	fld1
	fld	ST(0)
	fsubrp	ST(3), ST(0)
	fld	DWORD PTR [eax+8]
	fmul	ST(0), ST(2)
	fmul	DWORD PTR [eax+8]
	fsubp	ST(3), ST(0)
	fxch	ST(2)
	fstp	DWORD PTR [ecx]
; Line 108
	fld	DWORD PTR [eax+12]
	fmul	ST(0), ST(1)
	fmul	DWORD PTR [eax+8]
	fld	DWORD PTR [eax]
	fmul	ST(0), ST(2)
	fmul	DWORD PTR [eax+4]
	faddp	ST(1), ST(0)
	fstp	DWORD PTR [ecx+4]
; Line 109
	fld	DWORD PTR [eax]
	fmul	ST(0), ST(1)
	fmul	DWORD PTR [eax+8]
	fld	DWORD PTR [eax+12]
	fmul	ST(0), ST(2)
	fmul	DWORD PTR [eax+4]
	fsubp	ST(1), ST(0)
	fstp	DWORD PTR [ecx+8]
; Line 110
	fld	DWORD PTR [eax]
	fmul	ST(0), ST(1)
	fmul	DWORD PTR [eax+4]
	fld	DWORD PTR [eax+12]
	fmul	ST(0), ST(2)
	fmul	DWORD PTR [eax+8]
	fsubp	ST(1), ST(0)
	fstp	DWORD PTR [ecx+16]
; Line 111
	fld	DWORD PTR [eax]
	fmul	ST(0), ST(1)
	fmul	DWORD PTR [eax]
	fsubr	ST(0), ST(2)
	fld	DWORD PTR [eax+8]
	fmul	ST(0), ST(2)
	fmul	DWORD PTR [eax+8]
	fsubp	ST(1), ST(0)
	fstp	DWORD PTR [ecx+20]
; Line 112
	fld	DWORD PTR [eax+4]
	fmul	ST(0), ST(1)
	fmul	DWORD PTR [eax+8]
	fld	DWORD PTR [eax+12]
	fmul	ST(0), ST(2)
	fmul	DWORD PTR [eax]
	faddp	ST(1), ST(0)
	fstp	DWORD PTR [ecx+24]
; Line 113
	fld	DWORD PTR [eax]
	fmul	ST(0), ST(1)
	fmul	DWORD PTR [eax+8]
	fld	DWORD PTR [eax+12]
	fmul	ST(0), ST(2)
	fmul	DWORD PTR [eax+4]
	faddp	ST(1), ST(0)
	fstp	DWORD PTR [ecx+32]
; Line 114
	fld	DWORD PTR [eax+4]
	fmul	ST(0), ST(1)
	fmul	DWORD PTR [eax+8]
	fld	DWORD PTR [eax+12]
	fmul	ST(0), ST(2)
	fmul	DWORD PTR [eax]
	fsubp	ST(1), ST(0)
	fstp	DWORD PTR [ecx+36]
; Line 115
	fld	DWORD PTR [eax]
	fmul	ST(0), ST(1)
	fmul	DWORD PTR [eax]
	fsubp	ST(2), ST(0)
	fmul	DWORD PTR [eax+4]
	fmul	DWORD PTR [eax+4]
; Line 116
	xor	eax, eax
	fsubp	ST(1), ST(0)
	fstp	DWORD PTR [ecx+40]
	mov	DWORD PTR [ecx+56], eax
	mov	DWORD PTR [ecx+52], eax
	mov	DWORD PTR [ecx+48], eax
	mov	DWORD PTR [ecx+44], eax
	mov	DWORD PTR [ecx+28], eax
	mov	DWORD PTR [ecx+12], eax
; Line 117
	mov	DWORD PTR [ecx+60], 1065353216		; 3f800000H
; Line 118
	pop	ebp
	ret	4
?quaternionRotate@Matrix@@QAEXABVQuaternion@@@Z ENDP	; Matrix::quaternionRotate
_TEXT	ENDS
PUBLIC	?newQuatRotate@Matrix@@SA?BV1@ABVQuaternion@@@Z	; Matrix::newQuatRotate
; Function compile flags: /Ogtp
;	COMDAT ?newQuatRotate@Matrix@@SA?BV1@ABVQuaternion@@@Z
_TEXT	SEGMENT
___$ReturnUdt$ = 8					; size = 4
_qr$ = 12						; size = 4
?newQuatRotate@Matrix@@SA?BV1@ABVQuaternion@@@Z PROC	; Matrix::newQuatRotate, COMDAT
; Line 165
	push	ebp
	mov	ebp, esp
; Line 167
	mov	eax, DWORD PTR _qr$[ebp]
	push	esi
	mov	esi, DWORD PTR ___$ReturnUdt$[ebp]
	push	eax
	mov	ecx, esi
	call	?quaternionRotate@Matrix@@QAEXABVQuaternion@@@Z ; Matrix::quaternionRotate
; Line 168
	mov	eax, esi
	pop	esi
; Line 169
	pop	ebp
	ret	0
?newQuatRotate@Matrix@@SA?BV1@ABVQuaternion@@@Z ENDP	; Matrix::newQuatRotate
_TEXT	ENDS
PUBLIC	??DMatrix@@QBE?AVVec3D@@ABV1@@Z			; Matrix::operator*
; Function compile flags: /Ogtp
;	COMDAT ??DMatrix@@QBE?AVVec3D@@ABV1@@Z
_TEXT	SEGMENT
___$ReturnUdt$ = 8					; size = 4
_v$ = 12						; size = 4
??DMatrix@@QBE?AVVec3D@@ABV1@@Z PROC			; Matrix::operator*, COMDAT
; _this$ = ecx
; Line 179
	push	ebp
	mov	ebp, esp
; Line 181
	mov	edx, DWORD PTR _v$[ebp]
	fld	DWORD PTR [ecx+4]
	fmul	DWORD PTR [edx+4]
	mov	eax, DWORD PTR ___$ReturnUdt$[ebp]
	fld	DWORD PTR [edx]
	fmul	DWORD PTR [ecx]
	faddp	ST(1), ST(0)
	fld	DWORD PTR [ecx+8]
	fmul	DWORD PTR [edx+8]
	faddp	ST(1), ST(0)
	fadd	DWORD PTR [ecx+12]
	fstp	DWORD PTR [eax]
; Line 182
	fld	DWORD PTR [ecx+20]
	fmul	DWORD PTR [edx+4]
	fld	DWORD PTR [ecx+16]
	fmul	DWORD PTR [edx]
	faddp	ST(1), ST(0)
	fld	DWORD PTR [ecx+24]
	fmul	DWORD PTR [edx+8]
	faddp	ST(1), ST(0)
	fadd	DWORD PTR [ecx+28]
	fstp	DWORD PTR [eax+4]
; Line 183
	fld	DWORD PTR [ecx+36]
	fmul	DWORD PTR [edx+4]
	fld	DWORD PTR [ecx+32]
	fmul	DWORD PTR [edx]
	faddp	ST(1), ST(0)
	fld	DWORD PTR [ecx+40]
	fmul	DWORD PTR [edx+8]
	faddp	ST(1), ST(0)
	fadd	DWORD PTR [ecx+44]
	fstp	DWORD PTR [eax+8]
; Line 185
	pop	ebp
	ret	8
??DMatrix@@QBE?AVVec3D@@ABV1@@Z ENDP			; Matrix::operator*
_TEXT	ENDS
PUBLIC	??DMatrix@@QBE?AV0@ABV0@@Z			; Matrix::operator*
; Function compile flags: /Ogtp
;	COMDAT ??DMatrix@@QBE?AV0@ABV0@@Z
_TEXT	SEGMENT
___$ReturnUdt$ = 8					; size = 4
_p$ = 12						; size = 4
??DMatrix@@QBE?AV0@ABV0@@Z PROC				; Matrix::operator*, COMDAT
; _this$ = ecx
; Line 188
	push	ebp
	mov	ebp, esp
; Line 190
	mov	edx, DWORD PTR _p$[ebp]
	fld	DWORD PTR [edx]
	mov	eax, DWORD PTR ___$ReturnUdt$[ebp]
	fmul	DWORD PTR [ecx]
	fld	DWORD PTR [edx+16]
	fmul	DWORD PTR [ecx+4]
	faddp	ST(1), ST(0)
	fld	DWORD PTR [edx+32]
	fmul	DWORD PTR [ecx+8]
	faddp	ST(1), ST(0)
	fld	DWORD PTR [edx+48]
	fmul	DWORD PTR [ecx+12]
	faddp	ST(1), ST(0)
	fstp	DWORD PTR [eax]
; Line 191
	fld	DWORD PTR [edx+20]
	fmul	DWORD PTR [ecx+4]
	fld	DWORD PTR [ecx]
	fmul	DWORD PTR [edx+4]
	faddp	ST(1), ST(0)
	fld	DWORD PTR [edx+36]
	fmul	DWORD PTR [ecx+8]
	faddp	ST(1), ST(0)
	fld	DWORD PTR [ecx+12]
	fmul	DWORD PTR [edx+52]
	faddp	ST(1), ST(0)
	fstp	DWORD PTR [eax+4]
; Line 192
	fld	DWORD PTR [edx+24]
	fmul	DWORD PTR [ecx+4]
	fld	DWORD PTR [edx+8]
	fmul	DWORD PTR [ecx]
	faddp	ST(1), ST(0)
	fld	DWORD PTR [ecx+8]
	fmul	DWORD PTR [edx+40]
	faddp	ST(1), ST(0)
	fld	DWORD PTR [ecx+12]
	fmul	DWORD PTR [edx+56]
	faddp	ST(1), ST(0)
	fstp	DWORD PTR [eax+8]
; Line 193
	fld	DWORD PTR [edx+28]
	fmul	DWORD PTR [ecx+4]
	fld	DWORD PTR [ecx]
	fmul	DWORD PTR [edx+12]
	faddp	ST(1), ST(0)
	fld	DWORD PTR [edx+44]
	fmul	DWORD PTR [ecx+8]
	faddp	ST(1), ST(0)
	fld	DWORD PTR [ecx+12]
	fmul	DWORD PTR [edx+60]
	faddp	ST(1), ST(0)
	fstp	DWORD PTR [eax+12]
; Line 195
	fld	DWORD PTR [ecx+20]
	fmul	DWORD PTR [edx+16]
	fld	DWORD PTR [ecx+16]
	fmul	DWORD PTR [edx]
	faddp	ST(1), ST(0)
	fld	DWORD PTR [edx+32]
	fmul	DWORD PTR [ecx+24]
	faddp	ST(1), ST(0)
	fld	DWORD PTR [edx+48]
	fmul	DWORD PTR [ecx+28]
	faddp	ST(1), ST(0)
	fstp	DWORD PTR [eax+16]
; Line 196
	fld	DWORD PTR [ecx+16]
	fmul	DWORD PTR [edx+4]
	fld	DWORD PTR [edx+20]
	fmul	DWORD PTR [ecx+20]
	faddp	ST(1), ST(0)
	fld	DWORD PTR [edx+36]
	fmul	DWORD PTR [ecx+24]
	faddp	ST(1), ST(0)
	fld	DWORD PTR [ecx+28]
	fmul	DWORD PTR [edx+52]
	faddp	ST(1), ST(0)
	fstp	DWORD PTR [eax+20]
; Line 197
	fld	DWORD PTR [edx+24]
	fmul	DWORD PTR [ecx+20]
	fld	DWORD PTR [edx+8]
	fmul	DWORD PTR [ecx+16]
	faddp	ST(1), ST(0)
	fld	DWORD PTR [edx+40]
	fmul	DWORD PTR [ecx+24]
	faddp	ST(1), ST(0)
	fld	DWORD PTR [edx+56]
	fmul	DWORD PTR [ecx+28]
	faddp	ST(1), ST(0)
	fstp	DWORD PTR [eax+24]
; Line 198
	fld	DWORD PTR [ecx+16]
	fmul	DWORD PTR [edx+12]
	fld	DWORD PTR [edx+28]
	fmul	DWORD PTR [ecx+20]
	faddp	ST(1), ST(0)
	fld	DWORD PTR [edx+44]
	fmul	DWORD PTR [ecx+24]
	faddp	ST(1), ST(0)
	fld	DWORD PTR [ecx+28]
	fmul	DWORD PTR [edx+60]
	faddp	ST(1), ST(0)
	fstp	DWORD PTR [eax+28]
; Line 200
	fld	DWORD PTR [ecx+36]
	fmul	DWORD PTR [edx+16]
	fld	DWORD PTR [ecx+32]
	fmul	DWORD PTR [edx]
	faddp	ST(1), ST(0)
	fld	DWORD PTR [edx+32]
	fmul	DWORD PTR [ecx+40]
	faddp	ST(1), ST(0)
	fld	DWORD PTR [edx+48]
	fmul	DWORD PTR [ecx+44]
	faddp	ST(1), ST(0)
	fstp	DWORD PTR [eax+32]
; Line 201
	fld	DWORD PTR [ecx+32]
	fmul	DWORD PTR [edx+4]
	fld	DWORD PTR [edx+20]
	fmul	DWORD PTR [ecx+36]
	faddp	ST(1), ST(0)
	fld	DWORD PTR [edx+36]
	fmul	DWORD PTR [ecx+40]
	faddp	ST(1), ST(0)
	fld	DWORD PTR [ecx+44]
	fmul	DWORD PTR [edx+52]
	faddp	ST(1), ST(0)
	fstp	DWORD PTR [eax+36]
; Line 202
	fld	DWORD PTR [edx+24]
	fmul	DWORD PTR [ecx+36]
	fld	DWORD PTR [ecx+32]
	fmul	DWORD PTR [edx+8]
	faddp	ST(1), ST(0)
	fld	DWORD PTR [edx+40]
	fmul	DWORD PTR [ecx+40]
	faddp	ST(1), ST(0)
	fld	DWORD PTR [edx+56]
	fmul	DWORD PTR [ecx+44]
	faddp	ST(1), ST(0)
	fstp	DWORD PTR [eax+40]
; Line 203
	fld	DWORD PTR [ecx+32]
	fmul	DWORD PTR [edx+12]
	fld	DWORD PTR [edx+28]
	fmul	DWORD PTR [ecx+36]
	faddp	ST(1), ST(0)
	fld	DWORD PTR [edx+44]
	fmul	DWORD PTR [ecx+40]
	faddp	ST(1), ST(0)
	fld	DWORD PTR [ecx+44]
	fmul	DWORD PTR [edx+60]
	faddp	ST(1), ST(0)
	fstp	DWORD PTR [eax+44]
; Line 205
	fld	DWORD PTR [ecx+52]
	fmul	DWORD PTR [edx+16]
	fld	DWORD PTR [ecx+48]
	fmul	DWORD PTR [edx]
	faddp	ST(1), ST(0)
	fld	DWORD PTR [edx+32]
	fmul	DWORD PTR [ecx+56]
	faddp	ST(1), ST(0)
	fld	DWORD PTR [edx+48]
	fmul	DWORD PTR [ecx+60]
	faddp	ST(1), ST(0)
	fstp	DWORD PTR [eax+48]
; Line 206
	fld	DWORD PTR [ecx+48]
	fmul	DWORD PTR [edx+4]
	fld	DWORD PTR [edx+20]
	fmul	DWORD PTR [ecx+52]
	faddp	ST(1), ST(0)
	fld	DWORD PTR [edx+36]
	fmul	DWORD PTR [ecx+56]
	faddp	ST(1), ST(0)
	fld	DWORD PTR [ecx+60]
	fmul	DWORD PTR [edx+52]
	faddp	ST(1), ST(0)
	fstp	DWORD PTR [eax+52]
; Line 207
	fld	DWORD PTR [ecx+52]
	fmul	DWORD PTR [edx+24]
	fld	DWORD PTR [ecx+48]
	fmul	DWORD PTR [edx+8]
	faddp	ST(1), ST(0)
	fld	DWORD PTR [ecx+56]
	fmul	DWORD PTR [edx+40]
	faddp	ST(1), ST(0)
	fld	DWORD PTR [edx+56]
	fmul	DWORD PTR [ecx+60]
	faddp	ST(1), ST(0)
	fstp	DWORD PTR [eax+56]
; Line 208
	fld	DWORD PTR [ecx+48]
	fmul	DWORD PTR [edx+12]
	fld	DWORD PTR [edx+28]
	fmul	DWORD PTR [ecx+52]
	faddp	ST(1), ST(0)
	fld	DWORD PTR [edx+44]
	fmul	DWORD PTR [ecx+56]
	faddp	ST(1), ST(0)
	fld	DWORD PTR [ecx+60]
	fmul	DWORD PTR [edx+60]
	faddp	ST(1), ST(0)
	fstp	DWORD PTR [eax+60]
; Line 211
	pop	ebp
	ret	8
??DMatrix@@QBE?AV0@ABV0@@Z ENDP				; Matrix::operator*
_TEXT	ENDS
PUBLIC	?determinant@Matrix@@QBEMXZ			; Matrix::determinant
; Function compile flags: /Ogtp
;	COMDAT ?determinant@Matrix@@QBEMXZ
_TEXT	SEGMENT
tv455 = -4						; size = 4
?determinant@Matrix@@QBEMXZ PROC			; Matrix::determinant, COMDAT
; _this$ = ecx
; Line 214
	push	ebp
	mov	ebp, esp
	push	ecx
; Line 220
	fld	DWORD PTR [ecx+60]
	fmul	DWORD PTR [ecx+40]
	fld	DWORD PTR [ecx+56]
	fmul	DWORD PTR [ecx+44]
	fsubp	ST(1), ST(0)
	fld	DWORD PTR [ecx+36]
	fmul	DWORD PTR [ecx+60]
	fld	DWORD PTR [ecx+52]
	fmul	DWORD PTR [ecx+44]
	fsubp	ST(1), ST(0)
	fld	DWORD PTR [ecx+56]
	fmul	DWORD PTR [ecx+36]
	fld	DWORD PTR [ecx+52]
	fmul	DWORD PTR [ecx+40]
	fsubp	ST(1), ST(0)
	fld	DWORD PTR [ecx+32]
	fmul	DWORD PTR [ecx+60]
	fld	DWORD PTR [ecx+44]
	fmul	DWORD PTR [ecx+48]
	fsubp	ST(1), ST(0)
	fld	DWORD PTR [ecx+32]
	fmul	DWORD PTR [ecx+56]
	fld	DWORD PTR [ecx+48]
	fmul	DWORD PTR [ecx+40]
	fsubp	ST(1), ST(0)
	fld	DWORD PTR [ecx+32]
	fmul	DWORD PTR [ecx+52]
	fld	DWORD PTR [ecx+36]
	fmul	DWORD PTR [ecx+48]
	fsubp	ST(1), ST(0)
	fld	DWORD PTR [ecx+20]
	fmul	ST(0), ST(6)
	fld	DWORD PTR [ecx+24]
	fmul	ST(0), ST(6)
	fsubp	ST(1), ST(0)
	fld	DWORD PTR [ecx+28]
	fmul	ST(0), ST(5)
	faddp	ST(1), ST(0)
	fmul	DWORD PTR [ecx]
	fld	DWORD PTR [ecx+16]
	fmulp	ST(7), ST(0)
	fld	DWORD PTR [ecx+24]
	fmul	ST(0), ST(4)
	fsubp	ST(7), ST(0)
	fld	DWORD PTR [ecx+28]
	fmul	ST(0), ST(3)
	faddp	ST(7), ST(0)
	fld	DWORD PTR [ecx+4]
	fmulp	ST(7), ST(0)
	fsubrp	ST(6), ST(0)
	fld	DWORD PTR [ecx+16]
	fmulp	ST(5), ST(0)
	fld	DWORD PTR [ecx+20]
	fmulp	ST(3), ST(0)
	fxch	ST(4)
	fsubrp	ST(2), ST(0)
	fld	DWORD PTR [ecx+28]
	fmul	ST(0), ST(4)
	faddp	ST(2), ST(0)
	fld	DWORD PTR [ecx+8]
	fmulp	ST(2), ST(0)
	fxch	ST(4)
	faddp	ST(1), ST(0)
	fld	DWORD PTR [ecx+16]
	fmulp	ST(2), ST(0)
	fld	DWORD PTR [ecx+20]
	fmulp	ST(4), ST(0)
	fxch	ST(1)
	fsubrp	ST(3), ST(0)
	fld	DWORD PTR [ecx+24]
	fmulp	ST(2), ST(0)
	fxch	ST(2)
	faddp	ST(1), ST(0)
	fmul	DWORD PTR [ecx+12]
	fsubp	ST(1), ST(0)
	fstp	DWORD PTR tv455[ebp]
	fld	DWORD PTR tv455[ebp]
; Line 222
	mov	esp, ebp
	pop	ebp
	ret	0
?determinant@Matrix@@QBEMXZ ENDP			; Matrix::determinant
_TEXT	ENDS
PUBLIC	__$ArrayPad$
PUBLIC	?minor@Matrix@@QBE?BMII@Z			; Matrix::minor
EXTRN	___security_cookie:DWORD
EXTRN	@__security_check_cookie@4:PROC
; Function compile flags: /Ogtp
;	COMDAT ?minor@Matrix@@QBE?BMII@Z
_TEXT	SEGMENT
tv790 = -44						; size = 4
_s$ = -40						; size = 36
__$ArrayPad$ = -4					; size = 4
_x$ = 8							; size = 4
_y$ = 12						; size = 4
?minor@Matrix@@QBE?BMII@Z PROC				; Matrix::minor, COMDAT
; _this$ = ecx
; Line 225
	push	ebp
	mov	ebp, esp
	sub	esp, 44					; 0000002cH
	mov	eax, DWORD PTR ___security_cookie
	xor	eax, ebp
	mov	DWORD PTR __$ArrayPad$[ebp], eax
; Line 229
	mov	edx, DWORD PTR _y$[ebp]
	push	ebx
	push	esi
	mov	esi, DWORD PTR _x$[ebp]
	xor	eax, eax
	push	edi
	test	edx, edx
	je	SHORT $LN7@minor
; Line 232
	test	esi, esi
	je	SHORT $LN3@minor
; Line 234
	mov	eax, DWORD PTR [ecx]
	mov	DWORD PTR _s$[ebp], eax
	mov	eax, 1
$LN3@minor:
; Line 232
	cmp	esi, 1
	je	SHORT $LN19@minor
; Line 234
	mov	edi, DWORD PTR [ecx+4]
	mov	DWORD PTR _s$[ebp+eax*4], edi
	inc	eax
$LN19@minor:
; Line 232
	cmp	esi, 2
	je	SHORT $LN21@minor
; Line 234
	mov	edi, DWORD PTR [ecx+8]
	mov	DWORD PTR _s$[ebp+eax*4], edi
	inc	eax
$LN21@minor:
; Line 232
	cmp	esi, 3
	je	SHORT $LN23@minor
; Line 234
	mov	edi, DWORD PTR [ecx+12]
	mov	DWORD PTR _s$[ebp+eax*4], edi
$LN23@minor:
; Line 237
	mov	eax, 1
$LN7@minor:
; Line 229
	cmp	edx, 1
	je	SHORT $LN48@minor
; Line 230
	xor	edx, edx
; Line 232
	test	esi, esi
	je	SHORT $LN39@minor
; Line 234
	mov	edi, DWORD PTR [ecx+16]
	lea	edx, DWORD PTR [eax+eax*2]
	mov	DWORD PTR _s$[ebp+edx*4], edi
	mov	edx, 1
$LN39@minor:
; Line 232
	cmp	esi, 1
	je	SHORT $LN41@minor
; Line 234
	mov	ebx, DWORD PTR [ecx+20]
	lea	edi, DWORD PTR [edx+eax*2]
	add	edi, eax
	mov	DWORD PTR _s$[ebp+edi*4], ebx
	inc	edx
$LN41@minor:
; Line 232
	cmp	esi, 2
	je	SHORT $LN43@minor
; Line 234
	mov	ebx, DWORD PTR [ecx+24]
	lea	edi, DWORD PTR [edx+eax*2]
	add	edi, eax
	mov	DWORD PTR _s$[ebp+edi*4], ebx
	inc	edx
$LN43@minor:
; Line 232
	cmp	esi, 3
	je	SHORT $LN45@minor
; Line 234
	mov	edi, DWORD PTR [ecx+28]
	lea	edx, DWORD PTR [edx+eax*2]
	add	edx, eax
	mov	DWORD PTR _s$[ebp+edx*4], edi
$LN45@minor:
; Line 237
	mov	edx, DWORD PTR _y$[ebp]
	inc	eax
$LN48@minor:
; Line 229
	cmp	edx, 2
	je	SHORT $LN60@minor
; Line 230
	xor	edx, edx
; Line 232
	test	esi, esi
	je	SHORT $LN51@minor
; Line 234
	mov	edi, DWORD PTR [ecx+32]
	lea	edx, DWORD PTR [eax+eax*2]
	mov	DWORD PTR _s$[ebp+edx*4], edi
	mov	edx, 1
$LN51@minor:
; Line 232
	cmp	esi, 1
	je	SHORT $LN53@minor
; Line 234
	mov	ebx, DWORD PTR [ecx+36]
	lea	edi, DWORD PTR [edx+eax*2]
	add	edi, eax
	mov	DWORD PTR _s$[ebp+edi*4], ebx
	inc	edx
$LN53@minor:
; Line 232
	cmp	esi, 2
	je	SHORT $LN55@minor
; Line 234
	mov	ebx, DWORD PTR [ecx+40]
	lea	edi, DWORD PTR [edx+eax*2]
	add	edi, eax
	mov	DWORD PTR _s$[ebp+edi*4], ebx
	inc	edx
$LN55@minor:
; Line 232
	cmp	esi, 3
	je	SHORT $LN57@minor
; Line 234
	mov	edi, DWORD PTR [ecx+44]
	lea	edx, DWORD PTR [edx+eax*2]
	add	edx, eax
	mov	DWORD PTR _s$[ebp+edx*4], edi
$LN57@minor:
; Line 237
	mov	edx, DWORD PTR _y$[ebp]
	inc	eax
$LN60@minor:
; Line 229
	cmp	edx, 3
	je	SHORT $LN69@minor
; Line 230
	xor	edx, edx
; Line 232
	test	esi, esi
	je	SHORT $LN63@minor
; Line 234
	mov	edi, DWORD PTR [ecx+48]
	lea	edx, DWORD PTR [eax+eax*2]
	mov	DWORD PTR _s$[ebp+edx*4], edi
	mov	edx, 1
$LN63@minor:
; Line 232
	cmp	esi, 1
	je	SHORT $LN65@minor
; Line 234
	mov	ebx, DWORD PTR [ecx+52]
	lea	edi, DWORD PTR [edx+eax*2]
	add	edi, eax
	mov	DWORD PTR _s$[ebp+edi*4], ebx
	inc	edx
$LN65@minor:
; Line 232
	cmp	esi, 2
	je	SHORT $LN67@minor
; Line 234
	mov	ebx, DWORD PTR [ecx+56]
	lea	edi, DWORD PTR [edx+eax*2]
	add	edi, eax
	mov	DWORD PTR _s$[ebp+edi*4], ebx
	inc	edx
$LN67@minor:
; Line 232
	cmp	esi, 3
	je	SHORT $LN69@minor
; Line 234
	lea	edx, DWORD PTR [edx+eax*2]
	add	edx, eax
	mov	eax, DWORD PTR [ecx+60]
	mov	DWORD PTR _s$[ebp+edx*4], eax
$LN69@minor:
; Line 240
	fld	DWORD PTR _s$[ebp+32]
; Line 242
	mov	ecx, DWORD PTR __$ArrayPad$[ebp]
	fld	ST(0)
	pop	edi
	fld	DWORD PTR _s$[ebp+16]
	pop	esi
	fld	ST(0)
	xor	ecx, ebp
	fmulp	ST(2), ST(0)
	pop	ebx
	fld	DWORD PTR _s$[ebp+20]
	fld	ST(0)
	fld	DWORD PTR _s$[ebp+28]
	fld	ST(0)
	fmulp	ST(2), ST(0)
	fxch	ST(4)
	fsubrp	ST(1), ST(0)
	fmul	DWORD PTR _s$[ebp]
	fld	DWORD PTR _s$[ebp+12]
	fld	ST(0)
	fmulp	ST(6), ST(0)
	fld	DWORD PTR _s$[ebp+24]
	fld	ST(0)
	fmulp	ST(4), ST(0)
	fxch	ST(6)
	fsubrp	ST(3), ST(0)
	fld	DWORD PTR _s$[ebp+4]
	fmulp	ST(3), ST(0)
	fxch	ST(1)
	fsubrp	ST(2), ST(0)
	fmulp	ST(3), ST(0)
	fxch	ST(3)
	fmulp	ST(1), ST(0)
	fsubp	ST(1), ST(0)
	fmul	DWORD PTR _s$[ebp+8]
	faddp	ST(1), ST(0)
	fstp	DWORD PTR tv790[ebp]
	fld	DWORD PTR tv790[ebp]
	call	@__security_check_cookie@4
	mov	esp, ebp
	pop	ebp
	ret	8
?minor@Matrix@@QBE?BMII@Z ENDP				; Matrix::minor
_TEXT	ENDS
PUBLIC	__real@3f800000
PUBLIC	__real@bf800000
PUBLIC	?adjoint@Matrix@@QBE?BV1@XZ			; Matrix::adjoint
;	COMDAT __real@3f800000
CONST	SEGMENT
__real@3f800000 DD 03f800000r			; 1
CONST	ENDS
;	COMDAT __real@bf800000
CONST	SEGMENT
__real@bf800000 DD 0bf800000r			; -1
; Function compile flags: /Ogtp
CONST	ENDS
;	COMDAT ?adjoint@Matrix@@QBE?BV1@XZ
_TEXT	SEGMENT
_this$ = -12						; size = 4
tv76 = -8						; size = 4
tv238 = -4						; size = 4
___$ReturnUdt$ = 8					; size = 4
?adjoint@Matrix@@QBE?BV1@XZ PROC			; Matrix::adjoint, COMDAT
; _this$ = ecx
; Line 245
	push	ebp
	mov	ebp, esp
	sub	esp, 12					; 0000000cH
; Line 247
	mov	eax, DWORD PTR ___$ReturnUdt$[ebp]
	push	ebx
	push	esi
	push	edi
	mov	DWORD PTR _this$[ebp], ecx
	xor	ebx, ebx
	mov	DWORD PTR tv238[ebp], eax
$LL17@adjoint:
; Line 249
	mov	edi, DWORD PTR tv238[ebp]
	xor	esi, esi
	npad	7
$LL18@adjoint:
; Line 251
	lea	ecx, DWORD PTR [esi+ebx]
	test	cl, 1
	je	SHORT $LN9@adjoint
	fld	DWORD PTR __real@bf800000
	jmp	SHORT $LN19@adjoint
$LN9@adjoint:
	fld1
$LN19@adjoint:
	mov	ecx, DWORD PTR _this$[ebp]
	fstp	DWORD PTR tv76[ebp]
	push	ebx
	push	esi
	call	?minor@Matrix@@QBE?BMII@Z		; Matrix::minor
	fmul	DWORD PTR tv76[ebp]
	inc	esi
	add	edi, 16					; 00000010H
	fstp	DWORD PTR [edi-16]
	cmp	esi, 4
	jb	SHORT $LL18@adjoint
; Line 247
	add	DWORD PTR tv238[ebp], 4
	inc	ebx
	cmp	ebx, 4
	jb	SHORT $LL17@adjoint
; Line 254
	mov	eax, DWORD PTR ___$ReturnUdt$[ebp]
	pop	edi
	pop	esi
	pop	ebx
; Line 255
	mov	esp, ebp
	pop	ebp
	ret	4
?adjoint@Matrix@@QBE?BV1@XZ ENDP			; Matrix::adjoint
_TEXT	ENDS
PUBLIC	__$ArrayPad$
PUBLIC	?invert@Matrix@@QAEXXZ				; Matrix::invert
; Function compile flags: /Ogtp
;	COMDAT ?invert@Matrix@@QAEXXZ
_TEXT	SEGMENT
_invdet$ = -72						; size = 4
_adj$ = -68						; size = 64
__$ArrayPad$ = -4					; size = 4
?invert@Matrix@@QAEXXZ PROC				; Matrix::invert, COMDAT
; _this$ = ecx
; Line 258
	push	ebp
	mov	ebp, esp
	sub	esp, 72					; 00000048H
	mov	eax, DWORD PTR ___security_cookie
	xor	eax, ebp
	mov	DWORD PTR __$ArrayPad$[ebp], eax
	push	esi
; Line 259
	lea	eax, DWORD PTR _adj$[ebp]
	push	eax
	mov	esi, ecx
	call	?adjoint@Matrix@@QBE?BV1@XZ		; Matrix::adjoint
; Line 260
	mov	ecx, esi
	call	?determinant@Matrix@@QBEMXZ		; Matrix::determinant
	fld1
	fdivrp	ST(1), ST(0)
; Line 267
	mov	ecx, DWORD PTR __$ArrayPad$[ebp]
	xor	ecx, ebp
	fstp	DWORD PTR _invdet$[ebp]
	fld	DWORD PTR _adj$[ebp]
	fld	DWORD PTR _invdet$[ebp]
	fld	ST(0)
	fmulp	ST(2), ST(0)
	fxch	ST(1)
	fstp	DWORD PTR [esi]
	fld	DWORD PTR _adj$[ebp+4]
	fmul	ST(0), ST(1)
	fstp	DWORD PTR [esi+4]
	fld	DWORD PTR _adj$[ebp+8]
	fmul	ST(0), ST(1)
	fstp	DWORD PTR [esi+8]
	fld	DWORD PTR _adj$[ebp+12]
	fmul	ST(0), ST(1)
	fstp	DWORD PTR [esi+12]
	fld	DWORD PTR _adj$[ebp+16]
	fmul	ST(0), ST(1)
	fstp	DWORD PTR [esi+16]
	fld	DWORD PTR _adj$[ebp+20]
	fmul	ST(0), ST(1)
	fstp	DWORD PTR [esi+20]
	fld	DWORD PTR _adj$[ebp+24]
	fmul	ST(0), ST(1)
	fstp	DWORD PTR [esi+24]
	fld	DWORD PTR _adj$[ebp+28]
	fmul	ST(0), ST(1)
	fstp	DWORD PTR [esi+28]
	fld	DWORD PTR _adj$[ebp+32]
	fmul	ST(0), ST(1)
	fstp	DWORD PTR [esi+32]
	fld	DWORD PTR _adj$[ebp+36]
	fmul	ST(0), ST(1)
	fstp	DWORD PTR [esi+36]
	fld	DWORD PTR _adj$[ebp+40]
	fmul	ST(0), ST(1)
	fstp	DWORD PTR [esi+40]
	fld	DWORD PTR _adj$[ebp+44]
	fmul	ST(0), ST(1)
	fstp	DWORD PTR [esi+44]
	fld	DWORD PTR _adj$[ebp+48]
	fmul	ST(0), ST(1)
	fstp	DWORD PTR [esi+48]
	fld	DWORD PTR _adj$[ebp+52]
	fmul	ST(0), ST(1)
	fstp	DWORD PTR [esi+52]
	fld	DWORD PTR _adj$[ebp+56]
	fmul	ST(0), ST(1)
	fstp	DWORD PTR [esi+56]
	fmul	DWORD PTR _adj$[ebp+60]
	fstp	DWORD PTR [esi+60]
	pop	esi
	call	@__security_check_cookie@4
	mov	esp, ebp
	pop	ebp
	ret	0
?invert@Matrix@@QAEXXZ ENDP				; Matrix::invert
_TEXT	ENDS
PUBLIC	?transpose@Matrix@@QAEXXZ			; Matrix::transpose
; Function compile flags: /Ogtp
;	COMDAT ?transpose@Matrix@@QAEXXZ
_TEXT	SEGMENT
_i$68925 = -12						; size = 4
tv1369 = -8						; size = 4
_this$ = -4						; size = 4
?transpose@Matrix@@QAEXXZ PROC				; Matrix::transpose, COMDAT
; _this$ = ecx
; Line 270
	push	ebp
	mov	ebp, esp
	sub	esp, 12					; 0000000cH
	push	ebx
	mov	eax, ecx
	push	esi
; Line 271
	lea	edx, DWORD PTR [eax+16]
	push	edi
	mov	DWORD PTR _this$[ebp], eax
	mov	ebx, 1
	mov	DWORD PTR tv1369[ebp], edx
	npad	7
$LL6@transpose:
; Line 273
	xor	edi, edi
	cmp	ebx, 4
	jl	SHORT $LC14@transpose
	lea	esi, DWORD PTR [ebx-4]
	shr	esi, 2
	inc	esi
	lea	ecx, DWORD PTR [esi*4]
	lea	eax, DWORD PTR [eax+ebx*4+32]
	mov	DWORD PTR _i$68925[ebp], ecx
	npad	4
$LL15@transpose:
; Line 276
	mov	ecx, DWORD PTR [eax-32]
	mov	edi, DWORD PTR [edx]
	mov	DWORD PTR [edx], ecx
	mov	ecx, DWORD PTR [eax-16]
; Line 277
	mov	DWORD PTR [eax-32], edi
	mov	edi, DWORD PTR [edx+4]
	mov	DWORD PTR [edx+4], ecx
	mov	ecx, DWORD PTR [eax]
	mov	DWORD PTR [eax-16], edi
	mov	edi, DWORD PTR [edx+8]
	mov	DWORD PTR [edx+8], ecx
	mov	ecx, DWORD PTR [eax+16]
	mov	DWORD PTR [eax], edi
	mov	edi, DWORD PTR [edx+12]
	mov	DWORD PTR [edx+12], ecx
	mov	DWORD PTR [eax+16], edi
	add	eax, 64					; 00000040H
	add	edx, 16					; 00000010H
	dec	esi
	jne	SHORT $LL15@transpose
; Line 273
	mov	edi, DWORD PTR _i$68925[ebp]
	mov	eax, DWORD PTR _this$[ebp]
$LC14@transpose:
	cmp	edi, ebx
	jae	SHORT $LN5@transpose
	lea	edx, DWORD PTR [edi+ebx*4]
	lea	ecx, DWORD PTR [ebx+edi*4]
	mov	esi, ebx
	lea	edx, DWORD PTR [eax+edx*4]
	lea	eax, DWORD PTR [eax+ecx*4]
	sub	esi, edi
	npad	1
$LC3@transpose:
; Line 276
	mov	ecx, DWORD PTR [eax]
	mov	edi, DWORD PTR [edx]
	mov	DWORD PTR [edx], ecx
; Line 277
	mov	DWORD PTR [eax], edi
	add	eax, 16					; 00000010H
	add	edx, 4
	dec	esi
	jne	SHORT $LC3@transpose
; Line 273
	mov	eax, DWORD PTR _this$[ebp]
$LN5@transpose:
; Line 271
	mov	edx, DWORD PTR tv1369[ebp]
	inc	ebx
	add	edx, 16					; 00000010H
	mov	DWORD PTR tv1369[ebp], edx
	cmp	ebx, 4
	jb	$LL6@transpose
	pop	edi
	pop	esi
	pop	ebx
; Line 280
	mov	esp, ebp
	pop	ebp
	ret	0
?transpose@Matrix@@QAEXXZ ENDP				; Matrix::transpose
_TEXT	ENDS
PUBLIC	__$ArrayPad$
PUBLIC	??XMatrix@@QAEAAV0@ABV0@@Z			; Matrix::operator*=
; Function compile flags: /Ogtp
;	COMDAT ??XMatrix@@QAEAAV0@ABV0@@Z
_TEXT	SEGMENT
$T68932 = -68						; size = 64
__$ArrayPad$ = -4					; size = 4
_p$ = 8							; size = 4
??XMatrix@@QAEAAV0@ABV0@@Z PROC				; Matrix::operator*=, COMDAT
; _this$ = ecx
; Line 283
	push	ebp
	mov	ebp, esp
	sub	esp, 68					; 00000044H
	mov	eax, DWORD PTR ___security_cookie
	xor	eax, ebp
	mov	DWORD PTR __$ArrayPad$[ebp], eax
	mov	eax, DWORD PTR _p$[ebp]
	push	esi
; Line 284
	push	eax
	lea	eax, DWORD PTR $T68932[ebp]
	push	eax
	mov	esi, ecx
	call	??DMatrix@@QBE?AV0@ABV0@@Z		; Matrix::operator*
	push	eax
	mov	ecx, esi
	call	??4Matrix@@QAEAAV0@ABV0@@Z		; Matrix::operator=
; Line 285
	mov	ecx, DWORD PTR __$ArrayPad$[ebp]
	xor	ecx, ebp
	pop	esi
	call	@__security_check_cookie@4
	mov	esp, ebp
	pop	ebp
	ret	4
??XMatrix@@QAEAAV0@ABV0@@Z ENDP				; Matrix::operator*=
_TEXT	ENDS
PUBLIC	??BMatrix@@QAEPAMXZ				; Matrix::operator float *
; Function compile flags: /Ogtp
;	COMDAT ??BMatrix@@QAEPAMXZ
_TEXT	SEGMENT
??BMatrix@@QAEPAMXZ PROC				; Matrix::operator float *, COMDAT
; _this$ = ecx
; Line 288
	mov	eax, ecx
; Line 290
	ret	0
??BMatrix@@QAEPAMXZ ENDP				; Matrix::operator float *
_TEXT	ENDS
PUBLIC	__real@40dfffc000000000
PUBLIC	?conv@ShortToFloat@@SA?BMF@Z			; ShortToFloat::conv
;	COMDAT __real@40dfffc000000000
; File c:\programovani\wow editor\test\src\editor\animated.h
CONST	SEGMENT
__real@40dfffc000000000 DQ 040dfffc000000000r	; 32767
; Function compile flags: /Ogtp
CONST	ENDS
;	COMDAT ?conv@ShortToFloat@@SA?BMF@Z
_TEXT	SEGMENT
tv128 = 8						; size = 4
tv70 = 8						; size = 4
_t$ = 8							; size = 2
?conv@ShortToFloat@@SA?BMF@Z PROC			; ShortToFloat::conv, COMDAT
; Line 72
	push	ebp
	mov	ebp, esp
; Line 73
	movsx	eax, WORD PTR _t$[ebp]
	mov	DWORD PTR tv70[ebp], eax
	fild	DWORD PTR tv70[ebp]
	fdiv	QWORD PTR __real@40dfffc000000000
	fstp	DWORD PTR tv128[ebp]
	fld	DWORD PTR tv128[ebp]
; Line 74
	pop	ebp
	ret	0
?conv@ShortToFloat@@SA?BMF@Z ENDP			; ShortToFloat::conv
_TEXT	ENDS
PUBLIC	??_FVec4D@@QAEXXZ				; Vec4D::`default constructor closure'
; Function compile flags: /Ogtp
;	COMDAT ??_FVec4D@@QAEXXZ
_TEXT	SEGMENT
??_FVec4D@@QAEXXZ PROC					; Vec4D::`default constructor closure', COMDAT
; _this$ = ecx
	xor	eax, eax
	mov	DWORD PTR [ecx], eax
	mov	DWORD PTR [ecx+4], eax
	mov	DWORD PTR [ecx+8], eax
	mov	DWORD PTR [ecx+12], eax
	ret	0
??_FVec4D@@QAEXXZ ENDP					; Vec4D::`default constructor closure'
_TEXT	ENDS
PUBLIC	??_H@YGXPAXIHP6EPAX0@Z@Z			; `vector constructor iterator'
; Function compile flags: /Ogtp
;	COMDAT ??_H@YGXPAXIHP6EPAX0@Z@Z
_TEXT	SEGMENT
___t$ = 8						; size = 4
___s$ = 12						; size = 4
___n$ = 16						; size = 4
___f$ = 20						; size = 4
??_H@YGXPAXIHP6EPAX0@Z@Z PROC				; `vector constructor iterator', COMDAT
	push	ebp
	mov	ebp, esp
	push	edi
	mov	edi, DWORD PTR ___n$[ebp]
	dec	edi
	js	SHORT $LN1@vector
	push	ebx
	mov	ebx, DWORD PTR ___f$[ebp]
	push	esi
	mov	esi, DWORD PTR ___t$[ebp]
$LL2@vector:
	mov	ecx, esi
	call	ebx
	add	esi, DWORD PTR ___s$[ebp]
	dec	edi
	jns	SHORT $LL2@vector
	pop	esi
	pop	ebx
$LN1@vector:
	pop	edi
	pop	ebp
	ret	16					; 00000010H
??_H@YGXPAXIHP6EPAX0@Z@Z ENDP				; `vector constructor iterator'
_TEXT	ENDS
PUBLIC	??MModelRenderPass@@QBE_NABU0@@Z		; ModelRenderPass::operator<
; Function compile flags: /Ogtp
;	COMDAT ??MModelRenderPass@@QBE_NABU0@@Z
_TEXT	SEGMENT
_m$ = 8							; size = 4
??MModelRenderPass@@QBE_NABU0@@Z PROC			; ModelRenderPass::operator<, COMDAT
; _this$ = ecx
; File c:\programovani\wow editor\test\src\editor\model.h
; Line 95
	push	ebp
	mov	ebp, esp
; Line 97
	movzx	eax, WORD PTR [ecx+36]
	push	edi
	mov	edi, DWORD PTR _m$[ebp]
	movzx	edx, WORD PTR [edi+36]
	cmp	ax, dx
	jge	SHORT $LN11@operator
; Line 98
	mov	al, 1
	pop	edi
; Line 103
	pop	ebp
	ret	4
$LN11@operator:
; Line 99
	jle	SHORT $LN2@operator
; Line 100
	xor	al, al
	pop	edi
; Line 103
	pop	ebp
	ret	4
$LN2@operator:
; Line 102
	movzx	edx, WORD PTR [ecx+34]
	push	esi
	movzx	esi, WORD PTR [edi+34]
	cmp	dx, si
	jne	SHORT $LN9@operator
	fld	DWORD PTR [ecx+24]
	fld	DWORD PTR [edi+24]
	fcompp
	fnstsw	ax
	test	ah, 65					; 00000041H
	jne	SHORT $LN7@operator
	pop	esi
	mov	eax, 1
	pop	edi
; Line 103
	pop	ebp
	ret	4
$LN7@operator:
	pop	esi
; Line 102
	xor	eax, eax
	pop	edi
; Line 103
	pop	ebp
	ret	4
$LN9@operator:
; Line 102
	xor	eax, eax
	cmp	dx, si
	pop	esi
	setl	al
	pop	edi
; Line 103
	pop	ebp
	ret	4
??MModelRenderPass@@QBE_NABU0@@Z ENDP			; ModelRenderPass::operator<
_TEXT	ENDS
PUBLIC	??_FVec3D@@QAEXXZ				; Vec3D::`default constructor closure'
; Function compile flags: /Ogtp
;	COMDAT ??_FVec3D@@QAEXXZ
_TEXT	SEGMENT
??_FVec3D@@QAEXXZ PROC					; Vec3D::`default constructor closure', COMDAT
; _this$ = ecx
	xor	eax, eax
	mov	DWORD PTR [ecx], eax
	mov	DWORD PTR [ecx+4], eax
	mov	DWORD PTR [ecx+8], eax
	ret	0
??_FVec3D@@QAEXXZ ENDP					; Vec3D::`default constructor closure'
_TEXT	ENDS
PUBLIC	?CheckUniques@@YA_NI@Z				; CheckUniques
; Function compile flags: /Ogtp
_TEXT	SEGMENT
_Num$ = 8						; size = 4
?CheckUniques@@YA_NI@Z PROC				; CheckUniques
; File c:\programovani\wow editor\test\src\editor\model.cpp
; Line 15
	push	ebp
	mov	ebp, esp
; Line 16
	mov	ecx, DWORD PTR ?Uniques@@3HA		; Uniques
	mov	edx, DWORD PTR _Num$[ebp]
	xor	eax, eax
	test	ecx, ecx
	jle	SHORT $LN3@CheckUniqu
$LL5@CheckUniqu:
; Line 17
	cmp	edx, DWORD PTR ?UniqueUsed@@3PAIA[eax*4]
	je	SHORT $LN9@CheckUniqu
; Line 16
	inc	eax
	cmp	eax, ecx
	jl	SHORT $LL5@CheckUniqu
$LN3@CheckUniqu:
; Line 19
	cmp	ecx, 4096				; 00001000H
; Line 20
	je	SHORT $LN11@CheckUniqu
; Line 21
	mov	DWORD PTR ?UniqueUsed@@3PAIA[ecx*4], edx
; Line 22
	inc	ecx
	mov	DWORD PTR ?Uniques@@3HA, ecx		; Uniques
$LN11@CheckUniqu:
; Line 23
	xor	al, al
; Line 24
	pop	ebp
	ret	0
$LN9@CheckUniqu:
; Line 18
	mov	al, 1
; Line 24
	pop	ebp
	ret	0
?CheckUniques@@YA_NI@Z ENDP				; CheckUniques
_TEXT	ENDS
PUBLIC	?ResetUniques@@YAXXZ				; ResetUniques
; Function compile flags: /Ogtp
_TEXT	SEGMENT
?ResetUniques@@YAXXZ PROC				; ResetUniques
; Line 28
	mov	DWORD PTR ?Uniques@@3HA, 0		; Uniques
; Line 29
	ret	0
?ResetUniques@@YAXXZ ENDP				; ResetUniques
_TEXT	ENDS
PUBLIC	?GetUniques@@YAHXZ				; GetUniques
; Function compile flags: /Ogtp
_TEXT	SEGMENT
?GetUniques@@YAHXZ PROC					; GetUniques
; Line 33
	mov	eax, DWORD PTR ?Uniques@@3HA		; Uniques
; Line 34
	ret	0
?GetUniques@@YAHXZ ENDP					; GetUniques
_TEXT	ENDS
PUBLIC	?isAnimated@Model@@AAE_NAAVMPQFile@@@Z		; Model::isAnimated
; Function compile flags: /Ogtp
_TEXT	SEGMENT
tv376 = -2						; size = 1
tv309 = -1						; size = 1
_f$ = 8							; size = 4
?isAnimated@Model@@AAE_NAAVMPQFile@@@Z PROC		; Model::isAnimated
; _this$ = ecx
; Line 171
	push	ebp
	mov	ebp, esp
	push	ecx
; Line 173
	mov	edx, DWORD PTR _f$[ebp]
; Line 179
	mov	eax, DWORD PTR [ecx+564]
	push	ebx
	push	esi
	push	edi
	mov	edi, DWORD PTR [ecx+548]
	add	edi, DWORD PTR [edx+1028]
	mov	BYTE PTR [ecx+73], 0
	mov	BYTE PTR [ecx+75], 0
	mov	BYTE PTR [ecx+817], 0
	add	eax, DWORD PTR [edx+1028]
; Line 180
	xor	ebx, ebx
	cmp	DWORD PTR [ecx+560], ebx
	jbe	SHORT $LN27@isAnimated
; Line 173
	lea	esi, DWORD PTR [eax+12]
	npad	2
$LL61@isAnimated:
; Line 180
	cmp	BYTE PTR [ecx+73], 0
	jne	SHORT $LN27@isAnimated
; Line 182
	xor	edx, edx
$LL26@isAnimated:
; Line 184
	cmp	BYTE PTR [esi+edx], 0
	jbe	SHORT $LN25@isAnimated
; Line 186
	movzx	eax, BYTE PTR [esi+edx+4]
	imul	eax, 108				; 0000006cH
	add	eax, edi
; Line 187
	cmp	WORD PTR [eax+12], 0
	jne	SHORT $LN21@isAnimated
	cmp	WORD PTR [eax+40], 0
	jne	SHORT $LN21@isAnimated
	cmp	WORD PTR [eax+68], 0
	jne	SHORT $LN21@isAnimated
	test	BYTE PTR [eax+4], 8
	jne	SHORT $LN64@isAnimated
$LN25@isAnimated:
; Line 182
	inc	edx
	cmp	edx, 4
	jb	SHORT $LL26@isAnimated
; Line 245
	jmp	SHORT $LN28@isAnimated
$LN21@isAnimated:
; Line 189
	test	BYTE PTR [eax+4], 8
	je	SHORT $LN20@isAnimated
$LN64@isAnimated:
; Line 192
	mov	BYTE PTR [ecx+817], 1
$LN20@isAnimated:
; Line 194
	mov	BYTE PTR [ecx+73], 1
$LN28@isAnimated:
; Line 180
	inc	ebx
	add	esi, 48					; 00000030H
	cmp	ebx, DWORD PTR [ecx+560]
	jb	SHORT $LL61@isAnimated
$LN27@isAnimated:
; Line 201
	mov	al, BYTE PTR [ecx+73]
	mov	BYTE PTR tv309[ebp], al
	test	al, al
; Line 203
	jne	SHORT $LN49@isAnimated
; Line 205
	xor	edx, edx
	cmp	DWORD PTR [ecx+544], edx
	jbe	SHORT $LN62@isAnimated
	lea	eax, DWORD PTR [edi+40]
	npad	1
$LL17@isAnimated:
; Line 208
	cmp	WORD PTR [eax-28], 0
	jne	SHORT $LN49@isAnimated
	cmp	WORD PTR [eax], 0
	jne	SHORT $LN49@isAnimated
	cmp	WORD PTR [eax+28], 0
	jne	SHORT $LN49@isAnimated
; Line 205
	inc	edx
	add	eax, 108				; 0000006cH
	cmp	edx, DWORD PTR [ecx+544]
	jb	SHORT $LL17@isAnimated
; Line 245
	jmp	SHORT $LN62@isAnimated
$LN49@isAnimated:
; Line 210
	mov	BYTE PTR [ecx+75], 1
$LN62@isAnimated:
; Line 216
	cmp	DWORD PTR [ecx+608], 0
	seta	al
; Line 221
	cmp	DWORD PTR [ecx+784], 0
	mov	BYTE PTR tv376[ebp], al
	mov	BYTE PTR [ecx+74], al
	ja	SHORT $LN32@isAnimated
	cmp	DWORD PTR [ecx+776], 0
	ja	SHORT $LN32@isAnimated
	cmp	DWORD PTR [ecx+808], 0
	ja	SHORT $LN32@isAnimated
	cmp	DWORD PTR [ecx+800], 0
	ja	SHORT $LN32@isAnimated
	xor	bl, bl
	jmp	SHORT $LN12@isAnimated
$LN32@isAnimated:
	mov	bl, 1
; Line 223
	mov	BYTE PTR [ecx+75], bl
$LN12@isAnimated:
; Line 226
	mov	esi, DWORD PTR [ecx+576]
	test	esi, esi
	je	SHORT $LN58@isAnimated
; Line 228
	mov	eax, DWORD PTR _f$[ebp]
	mov	edx, DWORD PTR [ecx+580]
	add	edx, DWORD PTR [eax+1028]
; Line 229
	xor	eax, eax
	test	esi, esi
	je	SHORT $LN58@isAnimated
$LL10@isAnimated:
; Line 231
	cmp	WORD PTR [edx], 0
	jne	SHORT $LN50@isAnimated
	cmp	WORD PTR [edx+28], 0
	jne	SHORT $LN50@isAnimated
; Line 229
	inc	eax
	add	edx, 56					; 00000038H
	cmp	eax, esi
	jb	SHORT $LL10@isAnimated
; Line 245
	jmp	SHORT $LN58@isAnimated
$LN50@isAnimated:
; Line 233
	mov	bl, 1
$LN58@isAnimated:
; Line 240
	mov	esi, DWORD PTR [ecx+592]
	test	esi, esi
	je	SHORT $LN60@isAnimated
	test	bl, bl
	jne	SHORT $LN60@isAnimated
; Line 242
	mov	eax, DWORD PTR _f$[ebp]
	mov	edx, DWORD PTR [ecx+596]
	add	edx, DWORD PTR [eax+1028]
; Line 243
	xor	eax, eax
	test	esi, esi
	je	SHORT $LN60@isAnimated
	npad	2
$LL4@isAnimated:
; Line 245
	cmp	WORD PTR [edx], 0
	jne	SHORT $LN51@isAnimated
; Line 243
	inc	eax
	add	edx, 28					; 0000001cH
	cmp	eax, esi
	jb	SHORT $LL4@isAnimated
; Line 245
	jmp	SHORT $LN60@isAnimated
$LN51@isAnimated:
; Line 247
	mov	bl, 1
$LN60@isAnimated:
; Line 254
	cmp	BYTE PTR tv309[ebp], 0
	jne	SHORT $LN34@isAnimated
	cmp	BYTE PTR tv376[ebp], 0
	jne	SHORT $LN34@isAnimated
	test	bl, bl
	jne	SHORT $LN34@isAnimated
	pop	edi
	pop	esi
	xor	eax, eax
	pop	ebx
; Line 255
	mov	esp, ebp
	pop	ebp
	ret	4
$LN34@isAnimated:
	pop	edi
	pop	esi
; Line 254
	mov	eax, 1
	pop	ebx
; Line 255
	mov	esp, ebp
	pop	ebp
	ret	4
?isAnimated@Model@@AAE_NAAVMPQFile@@@Z ENDP		; Model::isAnimated
_TEXT	ENDS
PUBLIC	?fixCoordSystem@@YA?AVVec3D@@V1@@Z		; fixCoordSystem
; Function compile flags: /Ogtp
_TEXT	SEGMENT
___$ReturnUdt$ = 8					; size = 4
_v$ = 12						; size = 12
?fixCoordSystem@@YA?AVVec3D@@V1@@Z PROC			; fixCoordSystem
; Line 258
	push	ebp
	mov	ebp, esp
; Line 259
	mov	eax, DWORD PTR ___$ReturnUdt$[ebp]
	fld	DWORD PTR _v$[ebp+4]
	mov	ecx, DWORD PTR _v$[ebp]
	fchs
	mov	edx, DWORD PTR _v$[ebp+8]
	fstp	DWORD PTR [eax+8]
	mov	DWORD PTR [eax], ecx
	mov	DWORD PTR [eax+4], edx
; Line 260
	pop	ebp
	ret	0
?fixCoordSystem@@YA?AVVec3D@@V1@@Z ENDP			; fixCoordSystem
_TEXT	ENDS
PUBLIC	?fixCoordSystem2@@YA?AVVec3D@@V1@@Z		; fixCoordSystem2
; Function compile flags: /Ogtp
_TEXT	SEGMENT
___$ReturnUdt$ = 8					; size = 4
_v$ = 12						; size = 12
?fixCoordSystem2@@YA?AVVec3D@@V1@@Z PROC		; fixCoordSystem2
; Line 263
	push	ebp
	mov	ebp, esp
; Line 264
	mov	eax, DWORD PTR ___$ReturnUdt$[ebp]
	mov	ecx, DWORD PTR _v$[ebp]
	mov	edx, DWORD PTR _v$[ebp+8]
	mov	DWORD PTR [eax], ecx
	mov	ecx, DWORD PTR _v$[ebp+4]
	mov	DWORD PTR [eax+4], edx
	mov	DWORD PTR [eax+8], ecx
; Line 265
	pop	ebp
	ret	0
?fixCoordSystem2@@YA?AVVec3D@@V1@@Z ENDP		; fixCoordSystem2
_TEXT	ENDS
PUBLIC	?fixCoordSystemQuat@@YA?AVQuaternion@@V1@@Z	; fixCoordSystemQuat
; Function compile flags: /Ogtp
_TEXT	SEGMENT
___$ReturnUdt$ = 8					; size = 4
_v$ = 12						; size = 16
?fixCoordSystemQuat@@YA?AVQuaternion@@V1@@Z PROC	; fixCoordSystemQuat
; Line 268
	push	ebp
	mov	ebp, esp
; Line 269
	mov	eax, DWORD PTR ___$ReturnUdt$[ebp]
	fld	DWORD PTR _v$[ebp]
	mov	ecx, DWORD PTR _v$[ebp+4]
	fchs
	mov	edx, DWORD PTR _v$[ebp+12]
	fstp	DWORD PTR [eax]
	fld	DWORD PTR _v$[ebp+8]
	mov	DWORD PTR [eax+8], ecx
	fchs
	mov	DWORD PTR [eax+12], edx
	fstp	DWORD PTR [eax+4]
; Line 270
	pop	ebp
	ret	0
?fixCoordSystemQuat@@YA?AVQuaternion@@V1@@Z ENDP	; fixCoordSystemQuat
_TEXT	ENDS
PUBLIC	??0ModelVertex@@QAE@XZ				; ModelVertex::ModelVertex
; Function compile flags: /Ogtp
;	COMDAT ??0ModelVertex@@QAE@XZ
_TEXT	SEGMENT
??0ModelVertex@@QAE@XZ PROC				; ModelVertex::ModelVertex, COMDAT
; _this$ = ecx
	mov	eax, ecx
	xor	ecx, ecx
	mov	DWORD PTR [eax], ecx
	mov	DWORD PTR [eax+4], ecx
	mov	DWORD PTR [eax+8], ecx
	mov	DWORD PTR [eax+20], ecx
	mov	DWORD PTR [eax+24], ecx
	mov	DWORD PTR [eax+28], ecx
	mov	DWORD PTR [eax+32], ecx
	mov	DWORD PTR [eax+36], ecx
	ret	0
??0ModelVertex@@QAE@XZ ENDP				; ModelVertex::ModelVertex
_TEXT	ENDS
PUBLIC	??_FVec2D@@QAEXXZ				; Vec2D::`default constructor closure'
; Function compile flags: /Ogtp
;	COMDAT ??_FVec2D@@QAEXXZ
_TEXT	SEGMENT
??_FVec2D@@QAEXXZ PROC					; Vec2D::`default constructor closure', COMDAT
; _this$ = ecx
	mov	DWORD PTR [ecx], 0
	mov	DWORD PTR [ecx+4], 0
	ret	0
??_FVec2D@@QAEXXZ ENDP					; Vec2D::`default constructor closure'
_TEXT	ENDS
PUBLIC	??0ModelAnimation@@QAE@XZ			; ModelAnimation::ModelAnimation
; Function compile flags: /Ogtp
;	COMDAT ??0ModelAnimation@@QAE@XZ
_TEXT	SEGMENT
??0ModelAnimation@@QAE@XZ PROC				; ModelAnimation::ModelAnimation, COMDAT
; _this$ = ecx
	mov	eax, ecx
	xor	ecx, ecx
	mov	DWORD PTR [eax+36], ecx
	mov	DWORD PTR [eax+40], ecx
	mov	DWORD PTR [eax+44], ecx
	mov	DWORD PTR [eax+48], ecx
	mov	DWORD PTR [eax+52], ecx
	mov	DWORD PTR [eax+56], ecx
	ret	0
??0ModelAnimation@@QAE@XZ ENDP				; ModelAnimation::ModelAnimation
_TEXT	ENDS
PUBLIC	?deinit@ModelRenderPass@@QAEXXZ			; ModelRenderPass::deinit
EXTRN	__imp__glPopName@0:PROC
EXTRN	?glActiveTextureARB@@3P6GXI@ZA:DWORD		; glActiveTextureARB
EXTRN	__imp__glDisable@4:PROC
EXTRN	__imp__glEnable@4:PROC
EXTRN	__imp__glPopMatrix@0:PROC
EXTRN	__imp__glMatrixMode@4:PROC
EXTRN	__imp__glDepthMask@4:PROC
EXTRN	__imp__glBlendFunc@8:PROC
; Function compile flags: /Ogtp
_TEXT	SEGMENT
?deinit@ModelRenderPass@@QAEXXZ PROC			; ModelRenderPass::deinit
; _this$ = ecx
; Line 861
	push	esi
	mov	esi, ecx
; Line 862
	movsx	eax, WORD PTR [esi+34]
	sub	eax, 0
	push	edi
	je	SHORT $LN9@deinit
	dec	eax
	je	SHORT $LN9@deinit
	dec	eax
	je	SHORT $LN9@deinit
; Line 872
	push	771					; 00000303H
	push	770					; 00000302H
	call	DWORD PTR __imp__glBlendFunc@8
$LN9@deinit:
; Line 874
	cmp	BYTE PTR [esi+21], 0
	je	SHORT $LN7@deinit
; Line 876
	push	1
	call	DWORD PTR __imp__glDepthMask@4
$LN7@deinit:
; Line 878
	cmp	WORD PTR [esi+28], -1
	je	SHORT $LN6@deinit
; Line 880
	mov	edi, DWORD PTR __imp__glMatrixMode@4
	push	5890					; 00001702H
	call	edi
; Line 881
	call	DWORD PTR __imp__glPopMatrix@0
; Line 882
	push	5888					; 00001700H
	call	edi
$LN6@deinit:
; Line 884
	cmp	BYTE PTR [esi+20], 0
	je	SHORT $LN4@deinit
; Line 886
	mov	edi, DWORD PTR __imp__glEnable@4
	push	2896					; 00000b50H
	call	edi
; Line 888
	movzx	eax, WORD PTR [esi+34]
	cmp	ax, 3
	je	SHORT $LN3@deinit
	cmp	ax, 4
	jne	SHORT $LN4@deinit
$LN3@deinit:
; Line 889
	push	2912					; 00000b60H
	call	edi
$LN4@deinit:
; Line 891
	cmp	BYTE PTR [esi+17], 0
	mov	edi, DWORD PTR __imp__glDisable@4
	je	SHORT $LN2@deinit
; Line 893
	push	3168					; 00000c60H
	call	edi
; Line 894
	push	3169					; 00000c61H
	call	edi
$LN2@deinit:
; Line 896
	cmp	BYTE PTR [esi+16], 0
	je	SHORT $LN1@deinit
; Line 898
	push	33985					; 000084c1H
	call	DWORD PTR ?glActiveTextureARB@@3P6GXI@ZA ; glActiveTextureARB
; Line 899
	push	3553					; 00000de1H
	call	edi
; Line 900
	push	33984					; 000084c0H
	call	DWORD PTR ?glActiveTextureARB@@3P6GXI@ZA ; glActiveTextureARB
$LN1@deinit:
	pop	edi
	pop	esi
; Line 902
	jmp	DWORD PTR __imp__glPopName@0
?deinit@ModelRenderPass@@QAEXXZ ENDP			; ModelRenderPass::deinit
_TEXT	ENDS
PUBLIC	?ModelHighlight@@YAXXZ				; ModelHighlight
EXTRN	__imp__glMaterialfv@12:PROC
EXTRN	__imp__glColor4fv@4:PROC
; Function compile flags: /Ogtp
_TEXT	SEGMENT
_RedColor$ = -32					; size = 16
_GreenColor$ = -16					; size = 16
?ModelHighlight@@YAXXZ PROC				; ModelHighlight
; Line 1058
	push	ebp
	mov	ebp, esp
	sub	esp, 32					; 00000020H
; Line 1059
	mov	eax, 1048576000				; 3e800000H
	push	esi
; Line 1063
	mov	esi, DWORD PTR __imp__glDisable@4
	mov	edx, 1065353216				; 3f800000H
	mov	ecx, 1056964608				; 3f000000H
	push	3008					; 00000bc0H
	mov	DWORD PTR _RedColor$[ebp], edx
	mov	DWORD PTR _RedColor$[ebp+4], eax
	mov	DWORD PTR _RedColor$[ebp+8], eax
	mov	DWORD PTR _RedColor$[ebp+12], ecx
	mov	DWORD PTR _GreenColor$[ebp], eax
	mov	DWORD PTR _GreenColor$[ebp+4], edx
	mov	DWORD PTR _GreenColor$[ebp+8], eax
	mov	DWORD PTR _GreenColor$[ebp+12], ecx
	call	esi
; Line 1064
	push	3042					; 00000be2H
	call	DWORD PTR __imp__glEnable@4
; Line 1065
	push	771					; 00000303H
	push	770					; 00000302H
	call	DWORD PTR __imp__glBlendFunc@8
; Line 1066
	push	2884					; 00000b44H
	call	esi
; Line 1067
	push	33984					; 000084c0H
	call	DWORD PTR ?glActiveTextureARB@@3P6GXI@ZA ; glActiveTextureARB
; Line 1068
	push	3553					; 00000de1H
	call	esi
; Line 1069
	push	33985					; 000084c1H
	call	DWORD PTR ?glActiveTextureARB@@3P6GXI@ZA ; glActiveTextureARB
; Line 1070
	push	3553					; 00000de1H
	call	esi
; Line 1072
	cmp	DWORD PTR ?HColor@@3HA, 0		; HColor
	pop	esi
	jne	SHORT $LN2@ModelHighl
; Line 1074
	lea	eax, DWORD PTR _GreenColor$[ebp]
	push	eax
	call	DWORD PTR __imp__glColor4fv@4
; Line 1075
	lea	ecx, DWORD PTR _GreenColor$[ebp]
	push	ecx
; Line 1077
	jmp	SHORT $LN17@ModelHighl
$LN2@ModelHighl:
; Line 1079
	lea	edx, DWORD PTR _RedColor$[ebp]
	push	edx
	call	DWORD PTR __imp__glColor4fv@4
; Line 1080
	lea	eax, DWORD PTR _RedColor$[ebp]
	push	eax
$LN17@ModelHighl:
	push	5632					; 00001600H
	push	1028					; 00000404H
	call	DWORD PTR __imp__glMaterialfv@12
; Line 1084
	push	0
	call	DWORD PTR __imp__glDepthMask@4
; Line 1085
	mov	esp, ebp
	pop	ebp
	ret	0
?ModelHighlight@@YAXXZ ENDP				; ModelHighlight
_TEXT	ENDS
PUBLIC	?ModelUnhighlight@@YAXXZ			; ModelUnhighlight
; Function compile flags: /Ogtp
_TEXT	SEGMENT
_ocol$ = -16						; size = 16
?ModelUnhighlight@@YAXXZ PROC				; ModelUnhighlight
; Line 1088
	push	ebp
	mov	ebp, esp
	sub	esp, 16					; 00000010H
	push	esi
; Line 1091
	mov	esi, DWORD PTR __imp__glEnable@4
	push	3008					; 00000bc0H
	call	esi
; Line 1092
	push	3042					; 00000be2H
	call	DWORD PTR __imp__glDisable@4
; Line 1093
	push	2884					; 00000b44H
	call	esi
; Line 1094
	push	33984					; 000084c0H
	call	DWORD PTR ?glActiveTextureARB@@3P6GXI@ZA ; glActiveTextureARB
; Line 1095
	push	3553					; 00000de1H
	call	esi
; Line 1097
	mov	eax, 1065353216				; 3f800000H
	mov	DWORD PTR _ocol$[ebp], eax
	mov	DWORD PTR _ocol$[ebp+4], eax
	mov	DWORD PTR _ocol$[ebp+8], eax
	mov	DWORD PTR _ocol$[ebp+12], eax
; Line 1099
	lea	eax, DWORD PTR _ocol$[ebp]
	push	eax
	call	DWORD PTR __imp__glColor4fv@4
; Line 1101
	push	1
	call	DWORD PTR __imp__glDepthMask@4
	pop	esi
; Line 1102
	mov	esp, ebp
	pop	ebp
	ret	0
?ModelUnhighlight@@YAXXZ ENDP				; ModelUnhighlight
_TEXT	ENDS
PUBLIC	?setup@TextureAnim@@QAEXXZ			; TextureAnim::setup
EXTRN	__imp__glScalef@12:PROC
EXTRN	__imp__glRotatef@16:PROC
EXTRN	__imp__glTranslatef@12:PROC
EXTRN	__imp__glLoadIdentity@0:PROC
; Function compile flags: /Ogtp
_TEXT	SEGMENT
?setup@TextureAnim@@QAEXXZ PROC				; TextureAnim::setup
; _this$ = ecx
; Line 1245
	push	esi
	mov	esi, ecx
; Line 1246
	call	DWORD PTR __imp__glLoadIdentity@0
; Line 1247
	cmp	BYTE PTR [esi], 0
	je	SHORT $LN3@setup
; Line 1249
	mov	eax, DWORD PTR [esi+296]
	mov	ecx, DWORD PTR [esi+292]
	mov	edx, DWORD PTR [esi+288]
	sub	esp, 12					; 0000000cH
	mov	DWORD PTR [esp+8], eax
	mov	DWORD PTR [esp+4], ecx
	mov	DWORD PTR [esp], edx
	call	DWORD PTR __imp__glTranslatef@12
$LN3@setup:
; Line 1251
	cmp	BYTE PTR [esi+96], 0
	je	SHORT $LN2@setup
; Line 1253
	mov	eax, DWORD PTR [esi+300]
	sub	esp, 16					; 00000010H
	mov	DWORD PTR [esp+12], 1065353216		; 3f800000H
	mov	DWORD PTR [esp+8], 0
	mov	DWORD PTR [esp+4], 0
	mov	DWORD PTR [esp], eax
	call	DWORD PTR __imp__glRotatef@16
$LN2@setup:
; Line 1255
	cmp	BYTE PTR [esi+192], 0
	je	SHORT $LN1@setup
; Line 1257
	mov	ecx, DWORD PTR [esi+320]
	mov	edx, DWORD PTR [esi+316]
	mov	eax, DWORD PTR [esi+312]
	sub	esp, 12					; 0000000cH
	mov	DWORD PTR [esp+8], ecx
	mov	DWORD PTR [esp+4], edx
	mov	DWORD PTR [esp], eax
	call	DWORD PTR __imp__glScalef@12
$LN1@setup:
	pop	esi
; Line 1259
	ret	0
?setup@TextureAnim@@QAEXXZ ENDP				; TextureAnim::setup
_TEXT	ENDS
PUBLIC	??4Quaternion@@QAEAAV0@ABV0@@Z			; Quaternion::operator=
; Function compile flags: /Ogtp
;	COMDAT ??4Quaternion@@QAEAAV0@ABV0@@Z
_TEXT	SEGMENT
___that$ = 8						; size = 4
??4Quaternion@@QAEAAV0@ABV0@@Z PROC			; Quaternion::operator=, COMDAT
; _this$ = ecx
	push	ebp
	mov	ebp, esp
	mov	eax, ecx
	mov	ecx, DWORD PTR ___that$[ebp]
	mov	edx, DWORD PTR [ecx]
	mov	DWORD PTR [eax], edx
	mov	edx, DWORD PTR [ecx+4]
	mov	DWORD PTR [eax+4], edx
	mov	edx, DWORD PTR [ecx+8]
	mov	DWORD PTR [eax+8], edx
	mov	ecx, DWORD PTR [ecx+12]
	mov	DWORD PTR [eax+12], ecx
	pop	ebp
	ret	4
??4Quaternion@@QAEAAV0@ABV0@@Z ENDP			; Quaternion::operator=
_TEXT	ENDS
PUBLIC	?initModelTimer@@YAXXZ				; initModelTimer
; Function compile flags: /Ogtp
_TEXT	SEGMENT
?initModelTimer@@YAXXZ PROC				; initModelTimer
; Line 1614
	xor	eax, eax
	mov	DWORD PTR ?modelTimes@@3PAHA, eax
	mov	DWORD PTR ?modelTimes@@3PAHA+4, eax
	mov	DWORD PTR ?modelTimes@@3PAHA+8, eax
	mov	DWORD PTR ?modelTimes@@3PAHA+12, eax
	mov	DWORD PTR ?modelTimes@@3PAHA+16, eax
	mov	DWORD PTR ?modelTimes@@3PAHA+20, eax
	mov	DWORD PTR ?modelTimes@@3PAHA+24, eax
	mov	DWORD PTR ?modelTimes@@3PAHA+28, eax
	mov	DWORD PTR ?modelTimes@@3PAHA+32, eax
	mov	DWORD PTR ?modelTimes@@3PAHA+36, eax
	mov	DWORD PTR ?modelTimes@@3PAHA+40, eax
	mov	DWORD PTR ?modelTimes@@3PAHA+44, eax
	mov	DWORD PTR ?modelTimes@@3PAHA+48, eax
	mov	DWORD PTR ?modelTimes@@3PAHA+52, eax
	mov	DWORD PTR ?modelTimes@@3PAHA+56, eax
; Line 1615
	ret	0
?initModelTimer@@YAXXZ ENDP				; initModelTimer
_TEXT	ENDS
PUBLIC	?stopModelTimer@@YAXH@Z				; stopModelTimer
EXTRN	?stopTimer2@@YAHXZ:PROC				; stopTimer2
; Function compile flags: /Ogtp
_TEXT	SEGMENT
_i$ = 8							; size = 4
?stopModelTimer@@YAXH@Z PROC				; stopModelTimer
; Line 1618
	push	ebp
	mov	ebp, esp
	push	esi
; Line 1619
	mov	esi, DWORD PTR _i$[ebp]
	call	?stopTimer2@@YAHXZ			; stopTimer2
	add	DWORD PTR ?modelTimes@@3PAHA[esi*4], eax
	pop	esi
; Line 1620
	pop	ebp
	ret	0
?stopModelTimer@@YAXH@Z ENDP				; stopModelTimer
_TEXT	ENDS
PUBLIC	?reportModelTimes@@YAXXZ			; reportModelTimes
EXTRN	?gLog@@YAXPADZZ:PROC				; gLog
; Function compile flags: /Ogtp
_TEXT	SEGMENT
?reportModelTimes@@YAXXZ PROC				; reportModelTimes
; Line 1624
	mov	eax, DWORD PTR ?modelTimes@@3PAHA
	push	eax
	push	OFFSET $SG83556
	call	?gLog@@YAXPADZZ				; gLog
; Line 1625
	mov	ecx, DWORD PTR ?modelTimes@@3PAHA+4
	push	ecx
	push	OFFSET $SG83557
	call	?gLog@@YAXPADZZ				; gLog
; Line 1626
	mov	edx, DWORD PTR ?modelTimes@@3PAHA+8
	push	edx
	push	OFFSET $SG83558
	call	?gLog@@YAXPADZZ				; gLog
; Line 1627
	mov	eax, DWORD PTR ?modelTimes@@3PAHA+12
	push	eax
	push	OFFSET $SG83559
	call	?gLog@@YAXPADZZ				; gLog
; Line 1628
	mov	ecx, DWORD PTR ?modelTimes@@3PAHA+16
	push	ecx
	push	OFFSET $SG83560
	call	?gLog@@YAXPADZZ				; gLog
; Line 1629
	mov	edx, DWORD PTR ?modelTimes@@3PAHA+24
	push	edx
	push	OFFSET $SG83561
	call	?gLog@@YAXPADZZ				; gLog
; Line 1630
	mov	eax, DWORD PTR ?modelTimes@@3PAHA+28
	push	eax
	push	OFFSET $SG83562
	call	?gLog@@YAXPADZZ				; gLog
; Line 1631
	mov	ecx, DWORD PTR ?modelTimes@@3PAHA+20
	push	ecx
	push	OFFSET $SG83563
	call	?gLog@@YAXPADZZ				; gLog
; Line 1632
	xor	eax, eax
	add	esp, 64					; 00000040H
	mov	DWORD PTR ?modelTimes@@3PAHA, eax
	mov	DWORD PTR ?modelTimes@@3PAHA+4, eax
	mov	DWORD PTR ?modelTimes@@3PAHA+8, eax
	mov	DWORD PTR ?modelTimes@@3PAHA+12, eax
	mov	DWORD PTR ?modelTimes@@3PAHA+16, eax
	mov	DWORD PTR ?modelTimes@@3PAHA+20, eax
	mov	DWORD PTR ?modelTimes@@3PAHA+24, eax
	mov	DWORD PTR ?modelTimes@@3PAHA+28, eax
	mov	DWORD PTR ?modelTimes@@3PAHA+32, eax
	mov	DWORD PTR ?modelTimes@@3PAHA+36, eax
	mov	DWORD PTR ?modelTimes@@3PAHA+40, eax
	mov	DWORD PTR ?modelTimes@@3PAHA+44, eax
	mov	DWORD PTR ?modelTimes@@3PAHA+48, eax
	mov	DWORD PTR ?modelTimes@@3PAHA+52, eax
	mov	DWORD PTR ?modelTimes@@3PAHA+56, eax
; Line 1633
	ret	0
?reportModelTimes@@YAXXZ ENDP				; reportModelTimes
_TEXT	ENDS
PUBLIC	?lightsOff@Model@@AAEXI@Z			; Model::lightsOff
; Function compile flags: /Ogtp
_TEXT	SEGMENT
_lbase$ = 8						; size = 4
?lightsOff@Model@@AAEXI@Z PROC				; Model::lightsOff
; _this$ = ecx
; Line 1708
	push	ebp
	mov	ebp, esp
	push	esi
	push	edi
	mov	edi, ecx
; Line 1709
	xor	esi, esi
	cmp	DWORD PTR [edi+776], esi
	jbe	SHORT $LN1@lightsOff
	push	ebx
	mov	ebx, DWORD PTR _lbase$[ebp]
$LL3@lightsOff:
	lea	eax, DWORD PTR [esi+ebx]
	push	eax
	call	DWORD PTR __imp__glDisable@4
	inc	esi
	cmp	esi, DWORD PTR [edi+776]
	jb	SHORT $LL3@lightsOff
	pop	ebx
$LN1@lightsOff:
	pop	edi
	pop	esi
; Line 1710
	pop	ebp
	ret	4
?lightsOff@Model@@AAEXI@Z ENDP				; Model::lightsOff
_TEXT	ENDS
PUBLIC	?updateEmitters@Model@@QAEXM@Z			; Model::updateEmitters
EXTRN	?update@ParticleSystem@@QAEXM@Z:PROC		; ParticleSystem::update
; Function compile flags: /Ogtp
_TEXT	SEGMENT
_dt$ = 8						; size = 4
?updateEmitters@Model@@QAEXM@Z PROC			; Model::updateEmitters
; _this$ = ecx
; Line 1713
	push	ebp
	mov	ebp, esp
	push	esi
	mov	esi, ecx
; Line 1714
	cmp	BYTE PTR [esi+148], 0
	je	SHORT $LN5@updateEmit
	npad	1
$LL8@updateEmit:
; Line 1716
	mov	esi, DWORD PTR [esi+152]
	cmp	BYTE PTR [esi+148], 0
	jne	SHORT $LL8@updateEmit
$LN5@updateEmit:
; Line 1719
	cmp	BYTE PTR [esi+816], 0
	je	SHORT $LN1@updateEmit
; Line 1720
	push	edi
	xor	edi, edi
	cmp	DWORD PTR [esi+808], edi
	jbe	SHORT $LN13@updateEmit
	push	ebx
	xor	ebx, ebx
$LL3@updateEmit:
; Line 1722
	mov	eax, DWORD PTR _dt$[ebp]
	push	ecx
	mov	ecx, DWORD PTR [esi+104]
	add	ecx, ebx
	mov	DWORD PTR [esp], eax
	call	?update@ParticleSystem@@QAEXM@Z		; ParticleSystem::update
	inc	edi
	add	ebx, 1128				; 00000468H
	cmp	edi, DWORD PTR [esi+808]
	jb	SHORT $LL3@updateEmit
	pop	ebx
$LN13@updateEmit:
	pop	edi
$LN1@updateEmit:
	pop	esi
; Line 1724
	pop	ebp
	ret	4
?updateEmitters@Model@@QAEXM@Z ENDP			; Model::updateEmitters
_TEXT	ENDS
PUBLIC	??0ModelInstance@@QAE@XZ			; ModelInstance::ModelInstance
; Function compile flags: /Ogtp
_TEXT	SEGMENT
??0ModelInstance@@QAE@XZ PROC				; ModelInstance::ModelInstance
; _this$ = ecx
; Line 1768
	mov	eax, ecx
	xor	ecx, ecx
	mov	DWORD PTR [eax+16], ecx
	mov	DWORD PTR [eax+20], ecx
	mov	DWORD PTR [eax+24], ecx
	mov	DWORD PTR [eax+28], ecx
	mov	DWORD PTR [eax+32], ecx
	mov	DWORD PTR [eax+36], ecx
	mov	DWORD PTR [eax+64], ecx
	mov	DWORD PTR [eax+68], ecx
	mov	DWORD PTR [eax+72], ecx
	mov	DWORD PTR [eax+76], ecx
	mov	DWORD PTR [eax+80], ecx
	mov	DWORD PTR [eax+84], ecx
; Line 1770
	ret	0
??0ModelInstance@@QAE@XZ ENDP				; ModelInstance::ModelInstance
_TEXT	ENDS
PUBLIC	__real@3f50000000000000
PUBLIC	__real@4f800000
PUBLIC	__$ArrayPad$
PUBLIC	??0ModelInstance@@QAE@PAVModel@@AAVMPQFile@@@Z	; ModelInstance::ModelInstance
EXTRN	?read@MPQFile@@QAEIPAXI@Z:PROC			; MPQFile::read
;	COMDAT __real@3f50000000000000
; File c:\programovani\wow editor\test\src\editor\vec3d.h
CONST	SEGMENT
__real@3f50000000000000 DQ 03f50000000000000r	; 0.000976563
CONST	ENDS
;	COMDAT __real@4f800000
CONST	SEGMENT
__real@4f800000 DD 04f800000r			; 4.29497e+009
; Function compile flags: /Ogtp
CONST	ENDS
_TEXT	SEGMENT
tv314 = -20						; size = 4
_ff$ = -16						; size = 12
__$ArrayPad$ = -4					; size = 4
_m$ = 8							; size = 4
_f$ = 12						; size = 4
??0ModelInstance@@QAE@PAVModel@@AAVMPQFile@@@Z PROC	; ModelInstance::ModelInstance
; _this$ = ecx
; File c:\programovani\wow editor\test\src\editor\model.cpp
; Line 1773
	push	ebp
	mov	ebp, esp
	sub	esp, 20					; 00000014H
	mov	eax, DWORD PTR ___security_cookie
	xor	eax, ebp
	mov	DWORD PTR __$ArrayPad$[ebp], eax
	mov	eax, DWORD PTR _m$[ebp]
	push	ebx
	push	esi
	mov	esi, ecx
	mov	DWORD PTR [esi], eax
	xor	eax, eax
	mov	DWORD PTR [esi+16], eax
	mov	DWORD PTR [esi+20], eax
	mov	DWORD PTR [esi+24], eax
	push	edi
	mov	edi, DWORD PTR _f$[ebp]
	mov	DWORD PTR [esi+28], eax
	mov	DWORD PTR [esi+32], eax
	mov	DWORD PTR [esi+36], eax
	mov	DWORD PTR [esi+64], eax
	mov	DWORD PTR [esi+68], eax
	mov	DWORD PTR [esi+72], eax
; Line 1776
	push	4
	lea	ebx, DWORD PTR [esi+40]
	push	ebx
	mov	ecx, edi
	mov	DWORD PTR [esi+76], eax
	mov	DWORD PTR [esi+80], eax
	mov	DWORD PTR [esi+84], eax
	call	?read@MPQFile@@QAEIPAXI@Z		; MPQFile::read
; Line 1777
	push	12					; 0000000cH
	lea	ecx, DWORD PTR _ff$[ebp]
	push	ecx
	mov	ecx, edi
	call	?read@MPQFile@@QAEIPAXI@Z		; MPQFile::read
; Line 1778
	mov	edx, DWORD PTR _ff$[ebp]
	mov	ecx, DWORD PTR _ff$[ebp+8]
	mov	eax, DWORD PTR _ff$[ebp+4]
	mov	DWORD PTR [esi+16], edx
; Line 1779
	push	12					; 0000000cH
	lea	edx, DWORD PTR _ff$[ebp]
	mov	DWORD PTR [esi+24], ecx
	push	edx
	mov	ecx, edi
	mov	DWORD PTR [esi+20], eax
	call	?read@MPQFile@@QAEIPAXI@Z		; MPQFile::read
; Line 1780
	mov	eax, DWORD PTR _ff$[ebp]
	mov	ecx, DWORD PTR _ff$[ebp+4]
	mov	edx, DWORD PTR _ff$[ebp+8]
	mov	DWORD PTR [esi+28], eax
; Line 1781
	lea	eax, DWORD PTR [esi+44]
	push	4
	mov	DWORD PTR [esi+32], ecx
	push	eax
	mov	ecx, edi
	mov	DWORD PTR [esi+36], edx
	call	?read@MPQFile@@QAEIPAXI@Z		; MPQFile::read
; Line 1783
	fild	DWORD PTR [esi+44]
	mov	eax, DWORD PTR [esi+44]
	test	eax, eax
	jns	SHORT $LN19@ModelInsta
	fadd	DWORD PTR __real@4f800000
$LN19@ModelInsta:
; Line 1785
	mov	ecx, DWORD PTR [ebx]
	fmul	QWORD PTR __real@3f50000000000000
	mov	DWORD PTR [esi+12], ecx
; Line 1786
	mov	ecx, DWORD PTR __$ArrayPad$[ebp]
	pop	edi
	fstp	DWORD PTR [esi+56]
	mov	DWORD PTR [esi+8], -1
	mov	eax, esi
	pop	esi
	xor	ecx, ebp
	pop	ebx
	call	@__security_check_cookie@4
	mov	esp, ebp
	pop	ebp
	ret	8
??0ModelInstance@@QAE@PAVModel@@AAVMPQFile@@@Z ENDP	; ModelInstance::ModelInstance
_TEXT	ENDS
PUBLIC	??0ModelInstance@@QAE@PAVModel@@PAUMDDF@@@Z	; ModelInstance::ModelInstance
; Function compile flags: /Ogtp
_TEXT	SEGMENT
tv313 = 8						; size = 4
_m$ = 8							; size = 4
_d$ = 12						; size = 4
??0ModelInstance@@QAE@PAVModel@@PAUMDDF@@@Z PROC	; ModelInstance::ModelInstance
; _this$ = ecx
; Line 1789
	push	ebp
	mov	ebp, esp
	mov	eax, ecx
	mov	ecx, DWORD PTR _m$[ebp]
	mov	DWORD PTR [eax], ecx
	xor	ecx, ecx
	mov	DWORD PTR [eax+16], ecx
	mov	DWORD PTR [eax+20], ecx
	mov	DWORD PTR [eax+24], ecx
	mov	DWORD PTR [eax+28], ecx
	mov	DWORD PTR [eax+32], ecx
	mov	DWORD PTR [eax+36], ecx
	mov	DWORD PTR [eax+64], ecx
	mov	DWORD PTR [eax+68], ecx
	mov	DWORD PTR [eax+72], ecx
	mov	DWORD PTR [eax+76], ecx
	mov	DWORD PTR [eax+80], ecx
	mov	DWORD PTR [eax+84], ecx
; Line 1790
	mov	ecx, DWORD PTR _d$[ebp]
	mov	edx, DWORD PTR [ecx+4]
	mov	DWORD PTR [eax+40], edx
; Line 1791
	mov	edx, DWORD PTR [ecx+8]
	push	esi
	mov	esi, DWORD PTR [ecx+12]
	push	edi
	mov	edi, DWORD PTR [ecx+16]
	mov	DWORD PTR [eax+16], edx
	mov	DWORD PTR [eax+20], esi
	mov	DWORD PTR [eax+24], edi
; Line 1792
	mov	edx, DWORD PTR [ecx+20]
	mov	esi, DWORD PTR [ecx+24]
	mov	edi, DWORD PTR [ecx+28]
	mov	DWORD PTR [eax+28], edx
	mov	DWORD PTR [eax+32], esi
	mov	DWORD PTR [eax+36], edi
; Line 1793
	mov	ecx, DWORD PTR [ecx+32]
; Line 1795
	mov	DWORD PTR tv313[ebp], ecx
	fild	DWORD PTR tv313[ebp]
	mov	DWORD PTR [eax+44], ecx
	test	ecx, ecx
	jns	SHORT $LN19@ModelInsta@2
	fadd	DWORD PTR __real@4f800000
$LN19@ModelInsta@2:
	fmul	QWORD PTR __real@3f50000000000000
; Line 1797
	mov	ecx, DWORD PTR [eax+40]
	pop	edi
	mov	DWORD PTR [eax+8], -1
	fstp	DWORD PTR [eax+56]
	mov	DWORD PTR [eax+12], ecx
	pop	esi
; Line 1798
	pop	ebp
	ret	8
??0ModelInstance@@QAE@PAVModel@@PAUMDDF@@@Z ENDP	; ModelInstance::ModelInstance
_TEXT	ENDS
PUBLIC	__real@406fe00000000000
PUBLIC	__$ArrayPad$
PUBLIC	?init2@ModelInstance@@QAEXPAVModel@@AAVMPQFile@@@Z ; ModelInstance::init2
EXTRN	?addNameModel@@YAIPAVModelInstance@@@Z:PROC	; addNameModel
;	COMDAT __real@406fe00000000000
; File c:\programovani\wow editor\test\src\editor\vec3d.h
CONST	SEGMENT
__real@406fe00000000000 DQ 0406fe00000000000r	; 255
; Function compile flags: /Ogtp
CONST	ENDS
_TEXT	SEGMENT
tv294 = -20						; size = 4
tv292 = -20						; size = 4
tv290 = -20						; size = 4
$T102814 = -16						; size = 12
_ff$ = -16						; size = 12
__$ArrayPad$ = -4					; size = 4
_m$ = 8							; size = 4
_f$ = 12						; size = 4
?init2@ModelInstance@@QAEXPAVModel@@AAVMPQFile@@@Z PROC	; ModelInstance::init2
; _this$ = ecx
; File c:\programovani\wow editor\test\src\editor\model.cpp
; Line 1801
	push	ebp
	mov	ebp, esp
	sub	esp, 20					; 00000014H
	mov	eax, DWORD PTR ___security_cookie
	xor	eax, ebp
	mov	DWORD PTR __$ArrayPad$[ebp], eax
; Line 1803
	mov	eax, DWORD PTR _m$[ebp]
	push	ebx
	push	esi
	mov	esi, ecx
	push	edi
	mov	edi, DWORD PTR _f$[ebp]
; Line 1804
	push	esi
	mov	DWORD PTR [esi+8], -1
	mov	DWORD PTR [esi], eax
	call	?addNameModel@@YAIPAVModelInstance@@@Z	; addNameModel
	add	esp, 4
; Line 1806
	push	12					; 0000000cH
	lea	ecx, DWORD PTR _ff$[ebp]
	push	ecx
	mov	ecx, edi
	call	?read@MPQFile@@QAEIPAXI@Z		; MPQFile::read
; Line 1807
	mov	ecx, DWORD PTR _ff$[ebp+8]
	mov	edx, DWORD PTR _ff$[ebp]
	mov	eax, DWORD PTR _ff$[ebp+4]
	mov	DWORD PTR [esi+16], edx
	mov	DWORD PTR [esi+20], eax
	mov	DWORD PTR [esi+24], ecx
; Line 1809
	fld	DWORD PTR [esi+20]
	mov	eax, ecx
	fchs
; Line 1811
	push	4
	fstp	DWORD PTR [esi+24]
	lea	edx, DWORD PTR [esi+52]
	push	edx
	mov	ecx, edi
	mov	DWORD PTR [esi+20], eax
	call	?read@MPQFile@@QAEIPAXI@Z		; MPQFile::read
; Line 1812
	push	12					; 0000000cH
	lea	eax, DWORD PTR _ff$[ebp]
	push	eax
	mov	ecx, edi
	call	?read@MPQFile@@QAEIPAXI@Z		; MPQFile::read
; Line 1813
	mov	ecx, DWORD PTR _ff$[ebp]
	mov	edx, DWORD PTR _ff$[ebp+4]
	mov	eax, DWORD PTR _ff$[ebp+8]
	mov	DWORD PTR [esi+28], ecx
; Line 1814
	push	4
	lea	ecx, DWORD PTR [esi+56]
	push	ecx
	mov	ecx, edi
	mov	DWORD PTR [esi+32], edx
	mov	DWORD PTR [esi+36], eax
	call	?read@MPQFile@@QAEIPAXI@Z		; MPQFile::read
; Line 1815
	push	4
	lea	ebx, DWORD PTR [esi+40]
	push	ebx
	mov	ecx, edi
	call	?read@MPQFile@@QAEIPAXI@Z		; MPQFile::read
; Line 1816
	movzx	edx, BYTE PTR [esi+42]
	mov	DWORD PTR tv294[ebp], edx
	movzx	eax, BYTE PTR [esi+41]
	fild	DWORD PTR tv294[ebp]
	fld	QWORD PTR __real@406fe00000000000
	mov	DWORD PTR tv292[ebp], eax
	movzx	ecx, BYTE PTR [ebx]
	fdiv	ST(1), ST(0)
	pop	edi
	fxch	ST(1)
	fstp	DWORD PTR $T102814[ebp]
	fild	DWORD PTR tv292[ebp]
	mov	edx, DWORD PTR $T102814[ebp]
	mov	DWORD PTR tv290[ebp], ecx
	mov	DWORD PTR [esi+76], edx
	fdiv	ST(0), ST(1)
	fstp	DWORD PTR $T102814[ebp+4]
	mov	eax, DWORD PTR $T102814[ebp+4]
	mov	DWORD PTR [esi+80], eax
	fidivr	DWORD PTR tv290[ebp]
	fstp	DWORD PTR $T102814[ebp+8]
	mov	ecx, DWORD PTR $T102814[ebp+8]
	mov	DWORD PTR [esi+84], ecx
; Line 1817
	mov	ecx, DWORD PTR __$ArrayPad$[ebp]
	pop	esi
	xor	ecx, ebp
	pop	ebx
	call	@__security_check_cookie@4
	mov	esp, ebp
	pop	ebp
	ret	8
?init2@ModelInstance@@QAEXPAVModel@@AAVMPQFile@@@Z ENDP	; ModelInstance::init2
_TEXT	ENDS
PUBLIC	??1ModelInstance@@QAE@XZ			; ModelInstance::~ModelInstance
EXTRN	?deleteName@@YAXI@Z:PROC			; deleteName
; Function compile flags: /Ogtp
_TEXT	SEGMENT
??1ModelInstance@@QAE@XZ PROC				; ModelInstance::~ModelInstance
; _this$ = ecx
; Line 1937
	push	esi
	mov	esi, ecx
; Line 1938
	mov	eax, DWORD PTR [esi+8]
	cmp	eax, -1
	je	SHORT $LN1@ModelInsta@3
; Line 1940
	push	eax
	call	?deleteName@@YAXI@Z			; deleteName
	add	esp, 4
; Line 1941
	mov	DWORD PTR [esi+8], -1
$LN1@ModelInsta@3:
	pop	esi
; Line 1943
	ret	0
??1ModelInstance@@QAE@XZ ENDP				; ModelInstance::~ModelInstance
_TEXT	ENDS
PUBLIC	__$ArrayPad$
PUBLIC	?glQuaternionRotate@@YAXABVVec3D@@M@Z		; glQuaternionRotate
EXTRN	__imp__glMultMatrixf@4:PROC
; Function compile flags: /Ogtp
_TEXT	SEGMENT
_q$ = -84						; size = 16
_m$ = -68						; size = 64
__$ArrayPad$ = -4					; size = 4
_vdir$ = 8						; size = 4
_w$ = 12						; size = 4
?glQuaternionRotate@@YAXABVVec3D@@M@Z PROC		; glQuaternionRotate
; Line 1946
	push	ebp
	mov	ebp, esp
	sub	esp, 84					; 00000054H
	mov	eax, DWORD PTR ___security_cookie
	xor	eax, ebp
	mov	DWORD PTR __$ArrayPad$[ebp], eax
	mov	eax, DWORD PTR _vdir$[ebp]
; Line 1948
	mov	ecx, DWORD PTR [eax]
	mov	edx, DWORD PTR [eax+4]
	mov	eax, DWORD PTR [eax+8]
	mov	DWORD PTR _q$[ebp], ecx
	mov	ecx, DWORD PTR _w$[ebp]
	mov	DWORD PTR _q$[ebp+4], edx
; Line 1949
	lea	edx, DWORD PTR _q$[ebp]
	mov	DWORD PTR _q$[ebp+12], ecx
	push	edx
	lea	ecx, DWORD PTR _m$[ebp]
	mov	DWORD PTR _q$[ebp+8], eax
	call	?quaternionRotate@Matrix@@QAEXABVQuaternion@@@Z ; Matrix::quaternionRotate
; Line 1950
	lea	eax, DWORD PTR _m$[ebp]
	push	eax
	call	DWORD PTR __imp__glMultMatrixf@4
; Line 1951
	mov	ecx, DWORD PTR __$ArrayPad$[ebp]
	xor	ecx, ebp
	call	@__security_check_cookie@4
	mov	esp, ebp
	pop	ebp
	ret	0
?glQuaternionRotate@@YAXABVVec3D@@M@Z ENDP		; glQuaternionRotate
_TEXT	ENDS
PUBLIC	??Rltint@@QBE_NHH@Z				; ltint::operator()
; Function compile flags: /Ogtp
;	COMDAT ??Rltint@@QBE_NHH@Z
_TEXT	SEGMENT
_i1$ = 8						; size = 4
_i2$ = 12						; size = 4
??Rltint@@QBE_NHH@Z PROC				; ltint::operator(), COMDAT
; _this$ = ecx
; Line 1995
	push	ebp
	mov	ebp, esp
; Line 1996
	mov	ecx, DWORD PTR _i1$[ebp]
	xor	eax, eax
	cmp	ecx, DWORD PTR _i2$[ebp]
	setl	al
; Line 1997
	pop	ebp
	ret	8
??Rltint@@QBE_NHH@Z ENDP				; ltint::operator()
_TEXT	ENDS
PUBLIC	?length@?$basic_string@DU?$char_traits@D@std@@V?$allocator@D@2@@std@@QBEIXZ ; std::basic_string<char,std::char_traits<char>,std::allocator<char> >::length
; Function compile flags: /Ogtp
;	COMDAT ?length@?$basic_string@DU?$char_traits@D@std@@V?$allocator@D@2@@std@@QBEIXZ
_TEXT	SEGMENT
?length@?$basic_string@DU?$char_traits@D@std@@V?$allocator@D@2@@std@@QBEIXZ PROC ; std::basic_string<char,std::char_traits<char>,std::allocator<char> >::length, COMDAT
; _this$ = ecx
; File c:\program files (x86)\microsoft visual studio 10.0\vc\include\xstring
; Line 1506
	mov	eax, DWORD PTR [ecx+16]
; Line 1507
	ret	0
?length@?$basic_string@DU?$char_traits@D@std@@V?$allocator@D@2@@std@@QBEIXZ ENDP ; std::basic_string<char,std::char_traits<char>,std::allocator<char> >::length
_TEXT	ENDS
PUBLIC	?size@?$basic_string@DU?$char_traits@D@std@@V?$allocator@D@2@@std@@QBEIXZ ; std::basic_string<char,std::char_traits<char>,std::allocator<char> >::size
; Function compile flags: /Ogtp
;	COMDAT ?size@?$basic_string@DU?$char_traits@D@std@@V?$allocator@D@2@@std@@QBEIXZ
_TEXT	SEGMENT
?size@?$basic_string@DU?$char_traits@D@std@@V?$allocator@D@2@@std@@QBEIXZ PROC ; std::basic_string<char,std::char_traits<char>,std::allocator<char> >::size, COMDAT
; _this$ = ecx
; Line 1511
	mov	eax, DWORD PTR [ecx+16]
; Line 1512
	ret	0
?size@?$basic_string@DU?$char_traits@D@std@@V?$allocator@D@2@@std@@QBEIXZ ENDP ; std::basic_string<char,std::char_traits<char>,std::allocator<char> >::size
_TEXT	ENDS
PUBLIC	?size@?$vector@UModelRenderPass@@V?$allocator@UModelRenderPass@@@std@@@std@@QBEIXZ ; std::vector<ModelRenderPass,std::allocator<ModelRenderPass> >::size
; Function compile flags: /Ogtp
;	COMDAT ?size@?$vector@UModelRenderPass@@V?$allocator@UModelRenderPass@@@std@@@std@@QBEIXZ
_TEXT	SEGMENT
?size@?$vector@UModelRenderPass@@V?$allocator@UModelRenderPass@@@std@@@std@@QBEIXZ PROC ; std::vector<ModelRenderPass,std::allocator<ModelRenderPass> >::size, COMDAT
; _this$ = ecx
; File c:\program files (x86)\microsoft visual studio 10.0\vc\include\vector
; Line 879
	mov	edx, DWORD PTR [ecx+4]
	sub	edx, DWORD PTR [ecx]
	mov	eax, 1717986919				; 66666667H
	imul	edx
	sar	edx, 4
	mov	eax, edx
	shr	eax, 31					; 0000001fH
	add	eax, edx
; Line 880
	ret	0
?size@?$vector@UModelRenderPass@@V?$allocator@UModelRenderPass@@@std@@@std@@QBEIXZ ENDP ; std::vector<ModelRenderPass,std::allocator<ModelRenderPass> >::size
_TEXT	ENDS
PUBLIC	??A?$vector@UModelRenderPass@@V?$allocator@UModelRenderPass@@@std@@@std@@QAEAAUModelRenderPass@@I@Z ; std::vector<ModelRenderPass,std::allocator<ModelRenderPass> >::operator[]
; Function compile flags: /Ogtp
;	COMDAT ??A?$vector@UModelRenderPass@@V?$allocator@UModelRenderPass@@@std@@@std@@QAEAAUModelRenderPass@@I@Z
_TEXT	SEGMENT
__Pos$ = 8						; size = 4
??A?$vector@UModelRenderPass@@V?$allocator@UModelRenderPass@@@std@@@std@@QAEAAUModelRenderPass@@I@Z PROC ; std::vector<ModelRenderPass,std::allocator<ModelRenderPass> >::operator[], COMDAT
; _this$ = ecx
; Line 928
	push	ebp
	mov	ebp, esp
; Line 940
	mov	eax, DWORD PTR __Pos$[ebp]
	mov	ecx, DWORD PTR [ecx]
	lea	eax, DWORD PTR [eax+eax*4]
	lea	eax, DWORD PTR [ecx+eax*8]
; Line 941
	pop	ebp
	ret	4
??A?$vector@UModelRenderPass@@V?$allocator@UModelRenderPass@@@std@@@std@@QAEAAUModelRenderPass@@I@Z ENDP ; std::vector<ModelRenderPass,std::allocator<ModelRenderPass> >::operator[]
_TEXT	ENDS
PUBLIC	??0Quaternion@@QAE@ABV0@@Z			; Quaternion::Quaternion
; Function compile flags: /Ogtp
;	COMDAT ??0Quaternion@@QAE@ABV0@@Z
_TEXT	SEGMENT
___that$ = 8						; size = 4
??0Quaternion@@QAE@ABV0@@Z PROC				; Quaternion::Quaternion, COMDAT
; _this$ = ecx
	push	ebp
	mov	ebp, esp
	mov	eax, ecx
	mov	ecx, DWORD PTR ___that$[ebp]
	mov	edx, DWORD PTR [ecx]
	mov	DWORD PTR [eax], edx
	mov	edx, DWORD PTR [ecx+4]
	mov	DWORD PTR [eax+4], edx
	mov	edx, DWORD PTR [ecx+8]
	mov	DWORD PTR [eax+8], edx
	mov	ecx, DWORD PTR [ecx+12]
	mov	DWORD PTR [eax+12], ecx
	pop	ebp
	ret	4
??0Quaternion@@QAE@ABV0@@Z ENDP				; Quaternion::Quaternion
_TEXT	ENDS
PUBLIC	?_Myptr@?$basic_string@DU?$char_traits@D@std@@V?$allocator@D@2@@std@@QBEPBDXZ ; std::basic_string<char,std::char_traits<char>,std::allocator<char> >::_Myptr
; Function compile flags: /Ogtp
;	COMDAT ?_Myptr@?$basic_string@DU?$char_traits@D@std@@V?$allocator@D@2@@std@@QBEPBDXZ
_TEXT	SEGMENT
?_Myptr@?$basic_string@DU?$char_traits@D@std@@V?$allocator@D@2@@std@@QBEPBDXZ PROC ; std::basic_string<char,std::char_traits<char>,std::allocator<char> >::_Myptr, COMDAT
; _this$ = ecx
; File c:\program files (x86)\microsoft visual studio 10.0\vc\include\xstring
; Line 2008
	mov	eax, ecx
; Line 2010
	cmp	DWORD PTR [eax+20], 16			; 00000010H
	jb	SHORT $LN4@Myptr
	mov	eax, DWORD PTR [eax]
$LN4@Myptr:
; Line 2011
	ret	0
?_Myptr@?$basic_string@DU?$char_traits@D@std@@V?$allocator@D@2@@std@@QBEPBDXZ ENDP ; std::basic_string<char,std::char_traits<char>,std::allocator<char> >::_Myptr
_TEXT	ENDS
PUBLIC	??1?$_String_val@DV?$allocator@D@std@@@std@@QAE@XZ ; std::_String_val<char,std::allocator<char> >::~_String_val<char,std::allocator<char> >
; Function compile flags: /Ogtp
;	COMDAT ??1?$_String_val@DV?$allocator@D@std@@@std@@QAE@XZ
_TEXT	SEGMENT
??1?$_String_val@DV?$allocator@D@std@@@std@@QAE@XZ PROC	; std::_String_val<char,std::allocator<char> >::~_String_val<char,std::allocator<char> >, COMDAT
; _this$ = ecx
; Line 459
	ret	0
??1?$_String_val@DV?$allocator@D@std@@@std@@QAE@XZ ENDP	; std::_String_val<char,std::allocator<char> >::~_String_val<char,std::allocator<char> >
_TEXT	ENDS
PUBLIC	??0?$allocator@D@std@@QAE@XZ			; std::allocator<char>::allocator<char>
; Function compile flags: /Ogtp
;	COMDAT ??0?$allocator@D@std@@QAE@XZ
_TEXT	SEGMENT
??0?$allocator@D@std@@QAE@XZ PROC			; std::allocator<char>::allocator<char>, COMDAT
; _this$ = ecx
; File c:\program files (x86)\microsoft visual studio 10.0\vc\include\xmemory
; Line 161
	mov	eax, ecx
; Line 163
	ret	0
??0?$allocator@D@std@@QAE@XZ ENDP			; std::allocator<char>::allocator<char>
_TEXT	ENDS
PUBLIC	??0?$allocator@D@std@@QAE@ABV01@@Z		; std::allocator<char>::allocator<char>
; Function compile flags: /Ogtp
;	COMDAT ??0?$allocator@D@std@@QAE@ABV01@@Z
_TEXT	SEGMENT
___formal$ = 8						; size = 4
??0?$allocator@D@std@@QAE@ABV01@@Z PROC			; std::allocator<char>::allocator<char>, COMDAT
; _this$ = ecx
; Line 165
	mov	eax, ecx
; Line 167
	ret	4
??0?$allocator@D@std@@QAE@ABV01@@Z ENDP			; std::allocator<char>::allocator<char>
_TEXT	ENDS
PUBLIC	??R?$less@H@std@@QBE_NABH0@Z			; std::less<int>::operator()
; Function compile flags: /Ogtp
;	COMDAT ??R?$less@H@std@@QBE_NABH0@Z
_TEXT	SEGMENT
__Left$ = 8						; size = 4
__Right$ = 12						; size = 4
??R?$less@H@std@@QBE_NABH0@Z PROC			; std::less<int>::operator(), COMDAT
; _this$ = ecx
; File c:\program files (x86)\microsoft visual studio 10.0\vc\include\xfunctional
; Line 124
	push	ebp
	mov	ebp, esp
; Line 125
	mov	eax, DWORD PTR __Left$[ebp]
	mov	ecx, DWORD PTR [eax]
	mov	edx, DWORD PTR __Right$[ebp]
	xor	eax, eax
	cmp	ecx, DWORD PTR [edx]
	setl	al
; Line 126
	pop	ebp
	ret	8
??R?$less@H@std@@QBE_NABH0@Z ENDP			; std::less<int>::operator()
_TEXT	ENDS
PUBLIC	??A?$vector@U?$pair@II@std@@V?$allocator@U?$pair@II@std@@@2@@std@@QAEAAU?$pair@II@1@I@Z ; std::vector<std::pair<unsigned int,unsigned int>,std::allocator<std::pair<unsigned int,unsigned int> > >::operator[]
; Function compile flags: /Ogtp
;	COMDAT ??A?$vector@U?$pair@II@std@@V?$allocator@U?$pair@II@std@@@2@@std@@QAEAAU?$pair@II@1@I@Z
_TEXT	SEGMENT
__Pos$ = 8						; size = 4
??A?$vector@U?$pair@II@std@@V?$allocator@U?$pair@II@std@@@2@@std@@QAEAAU?$pair@II@1@I@Z PROC ; std::vector<std::pair<unsigned int,unsigned int>,std::allocator<std::pair<unsigned int,unsigned int> > >::operator[], COMDAT
; _this$ = ecx
; File c:\program files (x86)\microsoft visual studio 10.0\vc\include\vector
; Line 928
	push	ebp
	mov	ebp, esp
; Line 940
	mov	eax, DWORD PTR [ecx]
	mov	ecx, DWORD PTR __Pos$[ebp]
	lea	eax, DWORD PTR [eax+ecx*8]
; Line 941
	pop	ebp
	ret	4
??A?$vector@U?$pair@II@std@@V?$allocator@U?$pair@II@std@@@2@@std@@QAEAAU?$pair@II@1@I@Z ENDP ; std::vector<std::pair<unsigned int,unsigned int>,std::allocator<std::pair<unsigned int,unsigned int> > >::operator[]
_TEXT	ENDS
PUBLIC	??1?$_Vector_val@U?$pair@II@std@@V?$allocator@U?$pair@II@std@@@2@@std@@QAE@XZ ; std::_Vector_val<std::pair<unsigned int,unsigned int>,std::allocator<std::pair<unsigned int,unsigned int> > >::~_Vector_val<std::pair<unsigned int,unsigned int>,std::allocator<std::pair<unsigned int,unsigned int> > >
; Function compile flags: /Ogtp
;	COMDAT ??1?$_Vector_val@U?$pair@II@std@@V?$allocator@U?$pair@II@std@@@2@@std@@QAE@XZ
_TEXT	SEGMENT
??1?$_Vector_val@U?$pair@II@std@@V?$allocator@U?$pair@II@std@@@2@@std@@QAE@XZ PROC ; std::_Vector_val<std::pair<unsigned int,unsigned int>,std::allocator<std::pair<unsigned int,unsigned int> > >::~_Vector_val<std::pair<unsigned int,unsigned int>,std::allocator<std::pair<unsigned int,unsigned int> > >, COMDAT
; _this$ = ecx
; Line 434
	ret	0
??1?$_Vector_val@U?$pair@II@std@@V?$allocator@U?$pair@II@std@@@2@@std@@QAE@XZ ENDP ; std::_Vector_val<std::pair<unsigned int,unsigned int>,std::allocator<std::pair<unsigned int,unsigned int> > >::~_Vector_val<std::pair<unsigned int,unsigned int>,std::allocator<std::pair<unsigned int,unsigned int> > >
_TEXT	ENDS
PUBLIC	??0?$allocator@U?$pair@II@std@@@std@@QAE@XZ	; std::allocator<std::pair<unsigned int,unsigned int> >::allocator<std::pair<unsigned int,unsigned int> >
; Function compile flags: /Ogtp
;	COMDAT ??0?$allocator@U?$pair@II@std@@@std@@QAE@XZ
_TEXT	SEGMENT
??0?$allocator@U?$pair@II@std@@@std@@QAE@XZ PROC	; std::allocator<std::pair<unsigned int,unsigned int> >::allocator<std::pair<unsigned int,unsigned int> >, COMDAT
; _this$ = ecx
; File c:\program files (x86)\microsoft visual studio 10.0\vc\include\xmemory
; Line 161
	mov	eax, ecx
; Line 163
	ret	0
??0?$allocator@U?$pair@II@std@@@std@@QAE@XZ ENDP	; std::allocator<std::pair<unsigned int,unsigned int> >::allocator<std::pair<unsigned int,unsigned int> >
_TEXT	ENDS
PUBLIC	?size@?$vector@HV?$allocator@H@std@@@std@@QBEIXZ ; std::vector<int,std::allocator<int> >::size
; Function compile flags: /Ogtp
;	COMDAT ?size@?$vector@HV?$allocator@H@std@@@std@@QBEIXZ
_TEXT	SEGMENT
?size@?$vector@HV?$allocator@H@std@@@std@@QBEIXZ PROC	; std::vector<int,std::allocator<int> >::size, COMDAT
; _this$ = ecx
; File c:\program files (x86)\microsoft visual studio 10.0\vc\include\vector
; Line 879
	mov	eax, DWORD PTR [ecx+4]
	sub	eax, DWORD PTR [ecx]
	sar	eax, 2
; Line 880
	ret	0
?size@?$vector@HV?$allocator@H@std@@@std@@QBEIXZ ENDP	; std::vector<int,std::allocator<int> >::size
_TEXT	ENDS
PUBLIC	??A?$vector@HV?$allocator@H@std@@@std@@QAEAAHI@Z ; std::vector<int,std::allocator<int> >::operator[]
; Function compile flags: /Ogtp
;	COMDAT ??A?$vector@HV?$allocator@H@std@@@std@@QAEAAHI@Z
_TEXT	SEGMENT
__Pos$ = 8						; size = 4
??A?$vector@HV?$allocator@H@std@@@std@@QAEAAHI@Z PROC	; std::vector<int,std::allocator<int> >::operator[], COMDAT
; _this$ = ecx
; Line 928
	push	ebp
	mov	ebp, esp
; Line 940
	mov	eax, DWORD PTR [ecx]
	mov	ecx, DWORD PTR __Pos$[ebp]
	lea	eax, DWORD PTR [eax+ecx*4]
; Line 941
	pop	ebp
	ret	4
??A?$vector@HV?$allocator@H@std@@@std@@QAEAAHI@Z ENDP	; std::vector<int,std::allocator<int> >::operator[]
_TEXT	ENDS
PUBLIC	??1?$_Vector_val@HV?$allocator@H@std@@@std@@QAE@XZ ; std::_Vector_val<int,std::allocator<int> >::~_Vector_val<int,std::allocator<int> >
; Function compile flags: /Ogtp
;	COMDAT ??1?$_Vector_val@HV?$allocator@H@std@@@std@@QAE@XZ
_TEXT	SEGMENT
??1?$_Vector_val@HV?$allocator@H@std@@@std@@QAE@XZ PROC	; std::_Vector_val<int,std::allocator<int> >::~_Vector_val<int,std::allocator<int> >, COMDAT
; _this$ = ecx
; Line 434
	ret	0
??1?$_Vector_val@HV?$allocator@H@std@@@std@@QAE@XZ ENDP	; std::_Vector_val<int,std::allocator<int> >::~_Vector_val<int,std::allocator<int> >
_TEXT	ENDS
PUBLIC	??0?$allocator@H@std@@QAE@XZ			; std::allocator<int>::allocator<int>
; Function compile flags: /Ogtp
;	COMDAT ??0?$allocator@H@std@@QAE@XZ
_TEXT	SEGMENT
??0?$allocator@H@std@@QAE@XZ PROC			; std::allocator<int>::allocator<int>, COMDAT
; _this$ = ecx
; File c:\program files (x86)\microsoft visual studio 10.0\vc\include\xmemory
; Line 161
	mov	eax, ecx
; Line 163
	ret	0
??0?$allocator@H@std@@QAE@XZ ENDP			; std::allocator<int>::allocator<int>
_TEXT	ENDS
PUBLIC	?size@?$vector@MV?$allocator@M@std@@@std@@QBEIXZ ; std::vector<float,std::allocator<float> >::size
; Function compile flags: /Ogtp
;	COMDAT ?size@?$vector@MV?$allocator@M@std@@@std@@QBEIXZ
_TEXT	SEGMENT
?size@?$vector@MV?$allocator@M@std@@@std@@QBEIXZ PROC	; std::vector<float,std::allocator<float> >::size, COMDAT
; _this$ = ecx
; File c:\program files (x86)\microsoft visual studio 10.0\vc\include\vector
; Line 879
	mov	eax, DWORD PTR [ecx+4]
	sub	eax, DWORD PTR [ecx]
	sar	eax, 2
; Line 880
	ret	0
?size@?$vector@MV?$allocator@M@std@@@std@@QBEIXZ ENDP	; std::vector<float,std::allocator<float> >::size
_TEXT	ENDS
PUBLIC	??A?$vector@MV?$allocator@M@std@@@std@@QAEAAMI@Z ; std::vector<float,std::allocator<float> >::operator[]
; Function compile flags: /Ogtp
;	COMDAT ??A?$vector@MV?$allocator@M@std@@@std@@QAEAAMI@Z
_TEXT	SEGMENT
__Pos$ = 8						; size = 4
??A?$vector@MV?$allocator@M@std@@@std@@QAEAAMI@Z PROC	; std::vector<float,std::allocator<float> >::operator[], COMDAT
; _this$ = ecx
; Line 928
	push	ebp
	mov	ebp, esp
; Line 940
	mov	eax, DWORD PTR [ecx]
	mov	ecx, DWORD PTR __Pos$[ebp]
	lea	eax, DWORD PTR [eax+ecx*4]
; Line 941
	pop	ebp
	ret	4
??A?$vector@MV?$allocator@M@std@@@std@@QAEAAMI@Z ENDP	; std::vector<float,std::allocator<float> >::operator[]
_TEXT	ENDS
PUBLIC	??1?$_Vector_val@MV?$allocator@M@std@@@std@@QAE@XZ ; std::_Vector_val<float,std::allocator<float> >::~_Vector_val<float,std::allocator<float> >
; Function compile flags: /Ogtp
;	COMDAT ??1?$_Vector_val@MV?$allocator@M@std@@@std@@QAE@XZ
_TEXT	SEGMENT
??1?$_Vector_val@MV?$allocator@M@std@@@std@@QAE@XZ PROC	; std::_Vector_val<float,std::allocator<float> >::~_Vector_val<float,std::allocator<float> >, COMDAT
; _this$ = ecx
; Line 434
	ret	0
??1?$_Vector_val@MV?$allocator@M@std@@@std@@QAE@XZ ENDP	; std::_Vector_val<float,std::allocator<float> >::~_Vector_val<float,std::allocator<float> >
_TEXT	ENDS
PUBLIC	??0?$allocator@M@std@@QAE@XZ			; std::allocator<float>::allocator<float>
; Function compile flags: /Ogtp
;	COMDAT ??0?$allocator@M@std@@QAE@XZ
_TEXT	SEGMENT
??0?$allocator@M@std@@QAE@XZ PROC			; std::allocator<float>::allocator<float>, COMDAT
; _this$ = ecx
; File c:\program files (x86)\microsoft visual studio 10.0\vc\include\xmemory
; Line 161
	mov	eax, ecx
; Line 163
	ret	0
??0?$allocator@M@std@@QAE@XZ ENDP			; std::allocator<float>::allocator<float>
_TEXT	ENDS
PUBLIC	??0?$allocator@UParticle@@@std@@QAE@XZ		; std::allocator<Particle>::allocator<Particle>
; Function compile flags: /Ogtp
;	COMDAT ??0?$allocator@UParticle@@@std@@QAE@XZ
_TEXT	SEGMENT
??0?$allocator@UParticle@@@std@@QAE@XZ PROC		; std::allocator<Particle>::allocator<Particle>, COMDAT
; _this$ = ecx
; Line 161
	mov	eax, ecx
; Line 163
	ret	0
??0?$allocator@UParticle@@@std@@QAE@XZ ENDP		; std::allocator<Particle>::allocator<Particle>
_TEXT	ENDS
PUBLIC	??1?$_Vector_val@UTexCoordSet@@V?$allocator@UTexCoordSet@@@std@@@std@@QAE@XZ ; std::_Vector_val<TexCoordSet,std::allocator<TexCoordSet> >::~_Vector_val<TexCoordSet,std::allocator<TexCoordSet> >
; Function compile flags: /Ogtp
;	COMDAT ??1?$_Vector_val@UTexCoordSet@@V?$allocator@UTexCoordSet@@@std@@@std@@QAE@XZ
_TEXT	SEGMENT
??1?$_Vector_val@UTexCoordSet@@V?$allocator@UTexCoordSet@@@std@@@std@@QAE@XZ PROC ; std::_Vector_val<TexCoordSet,std::allocator<TexCoordSet> >::~_Vector_val<TexCoordSet,std::allocator<TexCoordSet> >, COMDAT
; _this$ = ecx
; File c:\program files (x86)\microsoft visual studio 10.0\vc\include\vector
; Line 434
	ret	0
??1?$_Vector_val@UTexCoordSet@@V?$allocator@UTexCoordSet@@@std@@@std@@QAE@XZ ENDP ; std::_Vector_val<TexCoordSet,std::allocator<TexCoordSet> >::~_Vector_val<TexCoordSet,std::allocator<TexCoordSet> >
_TEXT	ENDS
PUBLIC	??0?$allocator@UTexCoordSet@@@std@@QAE@XZ	; std::allocator<TexCoordSet>::allocator<TexCoordSet>
; Function compile flags: /Ogtp
;	COMDAT ??0?$allocator@UTexCoordSet@@@std@@QAE@XZ
_TEXT	SEGMENT
??0?$allocator@UTexCoordSet@@@std@@QAE@XZ PROC		; std::allocator<TexCoordSet>::allocator<TexCoordSet>, COMDAT
; _this$ = ecx
; File c:\program files (x86)\microsoft visual studio 10.0\vc\include\xmemory
; Line 161
	mov	eax, ecx
; Line 163
	ret	0
??0?$allocator@UTexCoordSet@@@std@@QAE@XZ ENDP		; std::allocator<TexCoordSet>::allocator<TexCoordSet>
_TEXT	ENDS
PUBLIC	?size@?$vector@VVec3D@@V?$allocator@VVec3D@@@std@@@std@@QBEIXZ ; std::vector<Vec3D,std::allocator<Vec3D> >::size
; Function compile flags: /Ogtp
;	COMDAT ?size@?$vector@VVec3D@@V?$allocator@VVec3D@@@std@@@std@@QBEIXZ
_TEXT	SEGMENT
?size@?$vector@VVec3D@@V?$allocator@VVec3D@@@std@@@std@@QBEIXZ PROC ; std::vector<Vec3D,std::allocator<Vec3D> >::size, COMDAT
; _this$ = ecx
; File c:\program files (x86)\microsoft visual studio 10.0\vc\include\vector
; Line 879
	mov	edx, DWORD PTR [ecx+4]
	sub	edx, DWORD PTR [ecx]
	mov	eax, 715827883				; 2aaaaaabH
	imul	edx
	sar	edx, 1
	mov	eax, edx
	shr	eax, 31					; 0000001fH
	add	eax, edx
; Line 880
	ret	0
?size@?$vector@VVec3D@@V?$allocator@VVec3D@@@std@@@std@@QBEIXZ ENDP ; std::vector<Vec3D,std::allocator<Vec3D> >::size
_TEXT	ENDS
PUBLIC	??A?$vector@VVec3D@@V?$allocator@VVec3D@@@std@@@std@@QAEAAVVec3D@@I@Z ; std::vector<Vec3D,std::allocator<Vec3D> >::operator[]
; Function compile flags: /Ogtp
;	COMDAT ??A?$vector@VVec3D@@V?$allocator@VVec3D@@@std@@@std@@QAEAAVVec3D@@I@Z
_TEXT	SEGMENT
__Pos$ = 8						; size = 4
??A?$vector@VVec3D@@V?$allocator@VVec3D@@@std@@@std@@QAEAAVVec3D@@I@Z PROC ; std::vector<Vec3D,std::allocator<Vec3D> >::operator[], COMDAT
; _this$ = ecx
; Line 928
	push	ebp
	mov	ebp, esp
; Line 940
	mov	eax, DWORD PTR __Pos$[ebp]
	mov	ecx, DWORD PTR [ecx]
	lea	eax, DWORD PTR [eax+eax*2]
	lea	eax, DWORD PTR [ecx+eax*4]
; Line 941
	pop	ebp
	ret	4
??A?$vector@VVec3D@@V?$allocator@VVec3D@@@std@@@std@@QAEAAVVec3D@@I@Z ENDP ; std::vector<Vec3D,std::allocator<Vec3D> >::operator[]
_TEXT	ENDS
PUBLIC	??1?$_Vector_val@VVec3D@@V?$allocator@VVec3D@@@std@@@std@@QAE@XZ ; std::_Vector_val<Vec3D,std::allocator<Vec3D> >::~_Vector_val<Vec3D,std::allocator<Vec3D> >
; Function compile flags: /Ogtp
;	COMDAT ??1?$_Vector_val@VVec3D@@V?$allocator@VVec3D@@@std@@@std@@QAE@XZ
_TEXT	SEGMENT
??1?$_Vector_val@VVec3D@@V?$allocator@VVec3D@@@std@@@std@@QAE@XZ PROC ; std::_Vector_val<Vec3D,std::allocator<Vec3D> >::~_Vector_val<Vec3D,std::allocator<Vec3D> >, COMDAT
; _this$ = ecx
; Line 434
	ret	0
??1?$_Vector_val@VVec3D@@V?$allocator@VVec3D@@@std@@@std@@QAE@XZ ENDP ; std::_Vector_val<Vec3D,std::allocator<Vec3D> >::~_Vector_val<Vec3D,std::allocator<Vec3D> >
_TEXT	ENDS
PUBLIC	??0?$allocator@VVec3D@@@std@@QAE@XZ		; std::allocator<Vec3D>::allocator<Vec3D>
; Function compile flags: /Ogtp
;	COMDAT ??0?$allocator@VVec3D@@@std@@QAE@XZ
_TEXT	SEGMENT
??0?$allocator@VVec3D@@@std@@QAE@XZ PROC		; std::allocator<Vec3D>::allocator<Vec3D>, COMDAT
; _this$ = ecx
; File c:\program files (x86)\microsoft visual studio 10.0\vc\include\xmemory
; Line 161
	mov	eax, ecx
; Line 163
	ret	0
??0?$allocator@VVec3D@@@std@@QAE@XZ ENDP		; std::allocator<Vec3D>::allocator<Vec3D>
_TEXT	ENDS
PUBLIC	??0?$allocator@URibbonSegment@@@std@@QAE@XZ	; std::allocator<RibbonSegment>::allocator<RibbonSegment>
; Function compile flags: /Ogtp
;	COMDAT ??0?$allocator@URibbonSegment@@@std@@QAE@XZ
_TEXT	SEGMENT
??0?$allocator@URibbonSegment@@@std@@QAE@XZ PROC	; std::allocator<RibbonSegment>::allocator<RibbonSegment>, COMDAT
; _this$ = ecx
; Line 161
	mov	eax, ecx
; Line 163
	ret	0
??0?$allocator@URibbonSegment@@@std@@QAE@XZ ENDP	; std::allocator<RibbonSegment>::allocator<RibbonSegment>
_TEXT	ENDS
PUBLIC	?size@?$vector@VQuaternion@@V?$allocator@VQuaternion@@@std@@@std@@QBEIXZ ; std::vector<Quaternion,std::allocator<Quaternion> >::size
; Function compile flags: /Ogtp
;	COMDAT ?size@?$vector@VQuaternion@@V?$allocator@VQuaternion@@@std@@@std@@QBEIXZ
_TEXT	SEGMENT
?size@?$vector@VQuaternion@@V?$allocator@VQuaternion@@@std@@@std@@QBEIXZ PROC ; std::vector<Quaternion,std::allocator<Quaternion> >::size, COMDAT
; _this$ = ecx
; File c:\program files (x86)\microsoft visual studio 10.0\vc\include\vector
; Line 879
	mov	eax, DWORD PTR [ecx+4]
	sub	eax, DWORD PTR [ecx]
	sar	eax, 4
; Line 880
	ret	0
?size@?$vector@VQuaternion@@V?$allocator@VQuaternion@@@std@@@std@@QBEIXZ ENDP ; std::vector<Quaternion,std::allocator<Quaternion> >::size
_TEXT	ENDS
PUBLIC	??A?$vector@VQuaternion@@V?$allocator@VQuaternion@@@std@@@std@@QAEAAVQuaternion@@I@Z ; std::vector<Quaternion,std::allocator<Quaternion> >::operator[]
; Function compile flags: /Ogtp
;	COMDAT ??A?$vector@VQuaternion@@V?$allocator@VQuaternion@@@std@@@std@@QAEAAVQuaternion@@I@Z
_TEXT	SEGMENT
__Pos$ = 8						; size = 4
??A?$vector@VQuaternion@@V?$allocator@VQuaternion@@@std@@@std@@QAEAAVQuaternion@@I@Z PROC ; std::vector<Quaternion,std::allocator<Quaternion> >::operator[], COMDAT
; _this$ = ecx
; Line 928
	push	ebp
	mov	ebp, esp
; Line 940
	mov	eax, DWORD PTR __Pos$[ebp]
	shl	eax, 4
	add	eax, DWORD PTR [ecx]
; Line 941
	pop	ebp
	ret	4
??A?$vector@VQuaternion@@V?$allocator@VQuaternion@@@std@@@std@@QAEAAVQuaternion@@I@Z ENDP ; std::vector<Quaternion,std::allocator<Quaternion> >::operator[]
_TEXT	ENDS
PUBLIC	??1?$_Vector_val@VQuaternion@@V?$allocator@VQuaternion@@@std@@@std@@QAE@XZ ; std::_Vector_val<Quaternion,std::allocator<Quaternion> >::~_Vector_val<Quaternion,std::allocator<Quaternion> >
; Function compile flags: /Ogtp
;	COMDAT ??1?$_Vector_val@VQuaternion@@V?$allocator@VQuaternion@@@std@@@std@@QAE@XZ
_TEXT	SEGMENT
??1?$_Vector_val@VQuaternion@@V?$allocator@VQuaternion@@@std@@@std@@QAE@XZ PROC ; std::_Vector_val<Quaternion,std::allocator<Quaternion> >::~_Vector_val<Quaternion,std::allocator<Quaternion> >, COMDAT
; _this$ = ecx
; Line 434
	ret	0
??1?$_Vector_val@VQuaternion@@V?$allocator@VQuaternion@@@std@@@std@@QAE@XZ ENDP ; std::_Vector_val<Quaternion,std::allocator<Quaternion> >::~_Vector_val<Quaternion,std::allocator<Quaternion> >
_TEXT	ENDS
PUBLIC	??0?$allocator@VQuaternion@@@std@@QAE@XZ	; std::allocator<Quaternion>::allocator<Quaternion>
; Function compile flags: /Ogtp
;	COMDAT ??0?$allocator@VQuaternion@@@std@@QAE@XZ
_TEXT	SEGMENT
??0?$allocator@VQuaternion@@@std@@QAE@XZ PROC		; std::allocator<Quaternion>::allocator<Quaternion>, COMDAT
; _this$ = ecx
; File c:\program files (x86)\microsoft visual studio 10.0\vc\include\xmemory
; Line 161
	mov	eax, ecx
; Line 163
	ret	0
??0?$allocator@VQuaternion@@@std@@QAE@XZ ENDP		; std::allocator<Quaternion>::allocator<Quaternion>
_TEXT	ENDS
PUBLIC	?_Inside@?$vector@UModelRenderPass@@V?$allocator@UModelRenderPass@@@std@@@std@@IBE_NPBUModelRenderPass@@@Z ; std::vector<ModelRenderPass,std::allocator<ModelRenderPass> >::_Inside
; Function compile flags: /Ogtp
;	COMDAT ?_Inside@?$vector@UModelRenderPass@@V?$allocator@UModelRenderPass@@@std@@@std@@IBE_NPBUModelRenderPass@@@Z
_TEXT	SEGMENT
__Ptr$ = 8						; size = 4
?_Inside@?$vector@UModelRenderPass@@V?$allocator@UModelRenderPass@@@std@@@std@@IBE_NPBUModelRenderPass@@@Z PROC ; std::vector<ModelRenderPass,std::allocator<ModelRenderPass> >::_Inside, COMDAT
; _this$ = ecx
; File c:\program files (x86)\microsoft visual studio 10.0\vc\include\vector
; Line 1285
	push	ebp
	mov	ebp, esp
; Line 1286
	mov	eax, DWORD PTR __Ptr$[ebp]
	cmp	eax, DWORD PTR [ecx+4]
	jae	SHORT $LN3@Inside
	cmp	DWORD PTR [ecx], eax
	ja	SHORT $LN3@Inside
	mov	eax, 1
; Line 1287
	pop	ebp
	ret	4
$LN3@Inside:
; Line 1286
	xor	eax, eax
; Line 1287
	pop	ebp
	ret	4
?_Inside@?$vector@UModelRenderPass@@V?$allocator@UModelRenderPass@@@std@@@std@@IBE_NPBUModelRenderPass@@@Z ENDP ; std::vector<ModelRenderPass,std::allocator<ModelRenderPass> >::_Inside
_TEXT	ENDS
PUBLIC	?_Orphan_range@?$vector@UModelRenderPass@@V?$allocator@UModelRenderPass@@@std@@@std@@IBEXPAUModelRenderPass@@0@Z ; std::vector<ModelRenderPass,std::allocator<ModelRenderPass> >::_Orphan_range
; Function compile flags: /Ogtp
;	COMDAT ?_Orphan_range@?$vector@UModelRenderPass@@V?$allocator@UModelRenderPass@@@std@@@std@@IBEXPAUModelRenderPass@@0@Z
_TEXT	SEGMENT
___formal$ = 8						; size = 4
___formal$ = 12						; size = 4
?_Orphan_range@?$vector@UModelRenderPass@@V?$allocator@UModelRenderPass@@@std@@@std@@IBEXPAUModelRenderPass@@0@Z PROC ; std::vector<ModelRenderPass,std::allocator<ModelRenderPass> >::_Orphan_range, COMDAT
; _this$ = ecx
; Line 1454
	ret	8
?_Orphan_range@?$vector@UModelRenderPass@@V?$allocator@UModelRenderPass@@@std@@@std@@IBEXPAUModelRenderPass@@0@Z ENDP ; std::vector<ModelRenderPass,std::allocator<ModelRenderPass> >::_Orphan_range
_TEXT	ENDS
PUBLIC	??1?$_Vector_val@UModelRenderPass@@V?$allocator@UModelRenderPass@@@std@@@std@@QAE@XZ ; std::_Vector_val<ModelRenderPass,std::allocator<ModelRenderPass> >::~_Vector_val<ModelRenderPass,std::allocator<ModelRenderPass> >
; Function compile flags: /Ogtp
;	COMDAT ??1?$_Vector_val@UModelRenderPass@@V?$allocator@UModelRenderPass@@@std@@@std@@QAE@XZ
_TEXT	SEGMENT
??1?$_Vector_val@UModelRenderPass@@V?$allocator@UModelRenderPass@@@std@@@std@@QAE@XZ PROC ; std::_Vector_val<ModelRenderPass,std::allocator<ModelRenderPass> >::~_Vector_val<ModelRenderPass,std::allocator<ModelRenderPass> >, COMDAT
; _this$ = ecx
; Line 434
	ret	0
??1?$_Vector_val@UModelRenderPass@@V?$allocator@UModelRenderPass@@@std@@@std@@QAE@XZ ENDP ; std::_Vector_val<ModelRenderPass,std::allocator<ModelRenderPass> >::~_Vector_val<ModelRenderPass,std::allocator<ModelRenderPass> >
_TEXT	ENDS
PUBLIC	??0?$allocator@UModelRenderPass@@@std@@QAE@XZ	; std::allocator<ModelRenderPass>::allocator<ModelRenderPass>
; Function compile flags: /Ogtp
;	COMDAT ??0?$allocator@UModelRenderPass@@@std@@QAE@XZ
_TEXT	SEGMENT
??0?$allocator@UModelRenderPass@@@std@@QAE@XZ PROC	; std::allocator<ModelRenderPass>::allocator<ModelRenderPass>, COMDAT
; _this$ = ecx
; File c:\program files (x86)\microsoft visual studio 10.0\vc\include\xmemory
; Line 161
	mov	eax, ecx
; Line 163
	ret	0
??0?$allocator@UModelRenderPass@@@std@@QAE@XZ ENDP	; std::allocator<ModelRenderPass>::allocator<ModelRenderPass>
_TEXT	ENDS
PUBLIC	??8?$_Tree_const_iterator@V?$_Tree_val@V?$_Tmap_traits@V?$basic_string@DU?$char_traits@D@std@@V?$allocator@D@2@@std@@HU?$less@V?$basic_string@DU?$char_traits@D@std@@V?$allocator@D@2@@std@@@2@V?$allocator@U?$pair@$$CBV?$basic_string@DU?$char_traits@D@std@@V?$allocator@D@2@@std@@H@std@@@2@$0A@@std@@@std@@@std@@QBE_NABV01@@Z ; std::_Tree_const_iterator<std::_Tree_val<std::_Tmap_traits<std::basic_string<char,std::char_traits<char>,std::allocator<char> >,int,std::less<std::basic_string<char,std::char_traits<char>,std::allocator<char> > >,std::allocator<std::pair<std::basic_string<char,std::char_traits<char>,std::allocator<char> > const ,int> >,0> > >::operator==
; Function compile flags: /Ogtp
;	COMDAT ??8?$_Tree_const_iterator@V?$_Tree_val@V?$_Tmap_traits@V?$basic_string@DU?$char_traits@D@std@@V?$allocator@D@2@@std@@HU?$less@V?$basic_string@DU?$char_traits@D@std@@V?$allocator@D@2@@std@@@2@V?$allocator@U?$pair@$$CBV?$basic_string@DU?$char_traits@D@std@@V?$allocator@D@2@@std@@H@std@@@2@$0A@@std@@@std@@@std@@QBE_NABV01@@Z
_TEXT	SEGMENT
__Right$ = 8						; size = 4
??8?$_Tree_const_iterator@V?$_Tree_val@V?$_Tmap_traits@V?$basic_string@DU?$char_traits@D@std@@V?$allocator@D@2@@std@@HU?$less@V?$basic_string@DU?$char_traits@D@std@@V?$allocator@D@2@@std@@@2@V?$allocator@U?$pair@$$CBV?$basic_string@DU?$char_traits@D@std@@V?$allocator@D@2@@std@@H@std@@@2@$0A@@std@@@std@@@std@@QBE_NABV01@@Z PROC ; std::_Tree_const_iterator<std::_Tree_val<std::_Tmap_traits<std::basic_string<char,std::char_traits<char>,std::allocator<char> >,int,std::less<std::basic_string<char,std::char_traits<char>,std::allocator<char> > >,std::allocator<std::pair<std::basic_string<char,std::char_traits<char>,std::allocator<char> > const ,int> >,0> > >::operator==, COMDAT
; _this$ = ecx
; File c:\program files (x86)\microsoft visual studio 10.0\vc\include\xtree
; Line 316
	push	ebp
	mov	ebp, esp
; Line 330
	mov	eax, DWORD PTR [ecx]
	mov	edx, DWORD PTR __Right$[ebp]
	xor	ecx, ecx
	cmp	eax, DWORD PTR [edx]
	sete	al
; Line 331
	pop	ebp
	ret	4
??8?$_Tree_const_iterator@V?$_Tree_val@V?$_Tmap_traits@V?$basic_string@DU?$char_traits@D@std@@V?$allocator@D@2@@std@@HU?$less@V?$basic_string@DU?$char_traits@D@std@@V?$allocator@D@2@@std@@@2@V?$allocator@U?$pair@$$CBV?$basic_string@DU?$char_traits@D@std@@V?$allocator@D@2@@std@@H@std@@@2@$0A@@std@@@std@@@std@@QBE_NABV01@@Z ENDP ; std::_Tree_const_iterator<std::_Tree_val<std::_Tmap_traits<std::basic_string<char,std::char_traits<char>,std::allocator<char> >,int,std::less<std::basic_string<char,std::char_traits<char>,std::allocator<char> > >,std::allocator<std::pair<std::basic_string<char,std::char_traits<char>,std::allocator<char> > const ,int> >,0> > >::operator==
_TEXT	ENDS
PUBLIC	?_Mynode@?$_Tree_unchecked_const_iterator@V?$_Tree_val@V?$_Tmap_traits@V?$basic_string@DU?$char_traits@D@std@@V?$allocator@D@2@@std@@HU?$less@V?$basic_string@DU?$char_traits@D@std@@V?$allocator@D@2@@std@@@2@V?$allocator@U?$pair@$$CBV?$basic_string@DU?$char_traits@D@std@@V?$allocator@D@2@@std@@H@std@@@2@$0A@@std@@@std@@U_Iterator_base0@2@@std@@QBEPAU_Node@?$_Tree_nod@V?$_Tmap_traits@V?$basic_string@DU?$char_traits@D@std@@V?$allocator@D@2@@std@@HU?$less@V?$basic_string@DU?$char_traits@D@std@@V?$allocator@D@2@@std@@@2@V?$allocator@U?$pair@$$CBV?$basic_string@DU?$char_traits@D@std@@V?$allocator@D@2@@std@@H@std@@@2@$0A@@std@@@2@XZ ; std::_Tree_unchecked_const_iterator<std::_Tree_val<std::_Tmap_traits<std::basic_string<char,std::char_traits<char>,std::allocator<char> >,int,std::less<std::basic_string<char,std::char_traits<char>,std::allocator<char> > >,std::allocator<std::pair<std::basic_string<char,std::char_traits<char>,std::allocator<char> > const ,int> >,0> >,std::_Iterator_base0>::_Mynode
; Function compile flags: /Ogtp
;	COMDAT ?_Mynode@?$_Tree_unchecked_const_iterator@V?$_Tree_val@V?$_Tmap_traits@V?$basic_string@DU?$char_traits@D@std@@V?$allocator@D@2@@std@@HU?$less@V?$basic_string@DU?$char_traits@D@std@@V?$allocator@D@2@@std@@@2@V?$allocator@U?$pair@$$CBV?$basic_string@DU?$char_traits@D@std@@V?$allocator@D@2@@std@@H@std@@@2@$0A@@std@@@std@@U_Iterator_base0@2@@std@@QBEPAU_Node@?$_Tree_nod@V?$_Tmap_traits@V?$basic_string@DU?$char_traits@D@std@@V?$allocator@D@2@@std@@HU?$less@V?$basic_string@DU?$char_traits@D@std@@V?$allocator@D@2@@std@@@2@V?$allocator@U?$pair@$$CBV?$basic_string@DU?$char_traits@D@std@@V?$allocator@D@2@@std@@H@std@@@2@$0A@@std@@@2@XZ
_TEXT	SEGMENT
?_Mynode@?$_Tree_unchecked_const_iterator@V?$_Tree_val@V?$_Tmap_traits@V?$basic_string@DU?$char_traits@D@std@@V?$allocator@D@2@@std@@HU?$less@V?$basic_string@DU?$char_traits@D@std@@V?$allocator@D@2@@std@@@2@V?$allocator@U?$pair@$$CBV?$basic_string@DU?$char_traits@D@std@@V?$allocator@D@2@@std@@H@std@@@2@$0A@@std@@@std@@U_Iterator_base0@2@@std@@QBEPAU_Node@?$_Tree_nod@V?$_Tmap_traits@V?$basic_string@DU?$char_traits@D@std@@V?$allocator@D@2@@std@@HU?$less@V?$basic_string@DU?$char_traits@D@std@@V?$allocator@D@2@@std@@@2@V?$allocator@U?$pair@$$CBV?$basic_string@DU?$char_traits@D@std@@V?$allocator@D@2@@std@@H@std@@@2@$0A@@std@@@2@XZ PROC ; std::_Tree_unchecked_const_iterator<std::_Tree_val<std::_Tmap_traits<std::basic_string<char,std::char_traits<char>,std::allocator<char> >,int,std::less<std::basic_string<char,std::char_traits<char>,std::allocator<char> > >,std::allocator<std::pair<std::basic_string<char,std::char_traits<char>,std::allocator<char> > const ,int> >,0> >,std::_Iterator_base0>::_Mynode, COMDAT
; _this$ = ecx
; Line 122
	mov	eax, DWORD PTR [ecx]
; Line 123
	ret	0
?_Mynode@?$_Tree_unchecked_const_iterator@V?$_Tree_val@V?$_Tmap_traits@V?$basic_string@DU?$char_traits@D@std@@V?$allocator@D@2@@std@@HU?$less@V?$basic_string@DU?$char_traits@D@std@@V?$allocator@D@2@@std@@@2@V?$allocator@U?$pair@$$CBV?$basic_string@DU?$char_traits@D@std@@V?$allocator@D@2@@std@@H@std@@@2@$0A@@std@@@std@@U_Iterator_base0@2@@std@@QBEPAU_Node@?$_Tree_nod@V?$_Tmap_traits@V?$basic_string@DU?$char_traits@D@std@@V?$allocator@D@2@@std@@HU?$less@V?$basic_string@DU?$char_traits@D@std@@V?$allocator@D@2@@std@@@2@V?$allocator@U?$pair@$$CBV?$basic_string@DU?$char_traits@D@std@@V?$allocator@D@2@@std@@H@std@@@2@$0A@@std@@@2@XZ ENDP ; std::_Tree_unchecked_const_iterator<std::_Tree_val<std::_Tmap_traits<std::basic_string<char,std::char_traits<char>,std::allocator<char> >,int,std::less<std::basic_string<char,std::char_traits<char>,std::allocator<char> > >,std::allocator<std::pair<std::basic_string<char,std::char_traits<char>,std::allocator<char> > const ,int> >,0> >,std::_Iterator_base0>::_Mynode
_TEXT	ENDS
PUBLIC	??8?$_Tree_const_iterator@V?$_Tree_val@V?$_Tmap_traits@HPAVManagedItem@@U?$less@H@std@@V?$allocator@U?$pair@$$CBHPAVManagedItem@@@std@@@3@$0A@@std@@@std@@@std@@QBE_NABV01@@Z ; std::_Tree_const_iterator<std::_Tree_val<std::_Tmap_traits<int,ManagedItem *,std::less<int>,std::allocator<std::pair<int const ,ManagedItem *> >,0> > >::operator==
; Function compile flags: /Ogtp
;	COMDAT ??8?$_Tree_const_iterator@V?$_Tree_val@V?$_Tmap_traits@HPAVManagedItem@@U?$less@H@std@@V?$allocator@U?$pair@$$CBHPAVManagedItem@@@std@@@3@$0A@@std@@@std@@@std@@QBE_NABV01@@Z
_TEXT	SEGMENT
__Right$ = 8						; size = 4
??8?$_Tree_const_iterator@V?$_Tree_val@V?$_Tmap_traits@HPAVManagedItem@@U?$less@H@std@@V?$allocator@U?$pair@$$CBHPAVManagedItem@@@std@@@3@$0A@@std@@@std@@@std@@QBE_NABV01@@Z PROC ; std::_Tree_const_iterator<std::_Tree_val<std::_Tmap_traits<int,ManagedItem *,std::less<int>,std::allocator<std::pair<int const ,ManagedItem *> >,0> > >::operator==, COMDAT
; _this$ = ecx
; Line 316
	push	ebp
	mov	ebp, esp
; Line 330
	mov	eax, DWORD PTR [ecx]
	mov	edx, DWORD PTR __Right$[ebp]
	xor	ecx, ecx
	cmp	eax, DWORD PTR [edx]
	sete	al
; Line 331
	pop	ebp
	ret	4
??8?$_Tree_const_iterator@V?$_Tree_val@V?$_Tmap_traits@HPAVManagedItem@@U?$less@H@std@@V?$allocator@U?$pair@$$CBHPAVManagedItem@@@std@@@3@$0A@@std@@@std@@@std@@QBE_NABV01@@Z ENDP ; std::_Tree_const_iterator<std::_Tree_val<std::_Tmap_traits<int,ManagedItem *,std::less<int>,std::allocator<std::pair<int const ,ManagedItem *> >,0> > >::operator==
_TEXT	ENDS
PUBLIC	?_Mynode@?$_Tree_unchecked_const_iterator@V?$_Tree_val@V?$_Tmap_traits@HPAVManagedItem@@U?$less@H@std@@V?$allocator@U?$pair@$$CBHPAVManagedItem@@@std@@@3@$0A@@std@@@std@@U_Iterator_base0@2@@std@@QBEPAU_Node@?$_Tree_nod@V?$_Tmap_traits@HPAVManagedItem@@U?$less@H@std@@V?$allocator@U?$pair@$$CBHPAVManagedItem@@@std@@@3@$0A@@std@@@2@XZ ; std::_Tree_unchecked_const_iterator<std::_Tree_val<std::_Tmap_traits<int,ManagedItem *,std::less<int>,std::allocator<std::pair<int const ,ManagedItem *> >,0> >,std::_Iterator_base0>::_Mynode
; Function compile flags: /Ogtp
;	COMDAT ?_Mynode@?$_Tree_unchecked_const_iterator@V?$_Tree_val@V?$_Tmap_traits@HPAVManagedItem@@U?$less@H@std@@V?$allocator@U?$pair@$$CBHPAVManagedItem@@@std@@@3@$0A@@std@@@std@@U_Iterator_base0@2@@std@@QBEPAU_Node@?$_Tree_nod@V?$_Tmap_traits@HPAVManagedItem@@U?$less@H@std@@V?$allocator@U?$pair@$$CBHPAVManagedItem@@@std@@@3@$0A@@std@@@2@XZ
_TEXT	SEGMENT
?_Mynode@?$_Tree_unchecked_const_iterator@V?$_Tree_val@V?$_Tmap_traits@HPAVManagedItem@@U?$less@H@std@@V?$allocator@U?$pair@$$CBHPAVManagedItem@@@std@@@3@$0A@@std@@@std@@U_Iterator_base0@2@@std@@QBEPAU_Node@?$_Tree_nod@V?$_Tmap_traits@HPAVManagedItem@@U?$less@H@std@@V?$allocator@U?$pair@$$CBHPAVManagedItem@@@std@@@3@$0A@@std@@@2@XZ PROC ; std::_Tree_unchecked_const_iterator<std::_Tree_val<std::_Tmap_traits<int,ManagedItem *,std::less<int>,std::allocator<std::pair<int const ,ManagedItem *> >,0> >,std::_Iterator_base0>::_Mynode, COMDAT
; _this$ = ecx
; Line 122
	mov	eax, DWORD PTR [ecx]
; Line 123
	ret	0
?_Mynode@?$_Tree_unchecked_const_iterator@V?$_Tree_val@V?$_Tmap_traits@HPAVManagedItem@@U?$less@H@std@@V?$allocator@U?$pair@$$CBHPAVManagedItem@@@std@@@3@$0A@@std@@@std@@U_Iterator_base0@2@@std@@QBEPAU_Node@?$_Tree_nod@V?$_Tmap_traits@HPAVManagedItem@@U?$less@H@std@@V?$allocator@U?$pair@$$CBHPAVManagedItem@@@std@@@3@$0A@@std@@@2@XZ ENDP ; std::_Tree_unchecked_const_iterator<std::_Tree_val<std::_Tmap_traits<int,ManagedItem *,std::less<int>,std::allocator<std::pair<int const ,ManagedItem *> >,0> >,std::_Iterator_base0>::_Mynode
_TEXT	ENDS
PUBLIC	?_Color@?$_Tree_val@V?$_Tmap_traits@HUModelEntry@@Ultint@@V?$allocator@U?$pair@$$CBHUModelEntry@@@std@@@std@@$0A@@std@@@std@@SAAADPAU_Node@?$_Tree_nod@V?$_Tmap_traits@HUModelEntry@@Ultint@@V?$allocator@U?$pair@$$CBHUModelEntry@@@std@@@std@@$0A@@std@@@2@@Z ; std::_Tree_val<std::_Tmap_traits<int,ModelEntry,ltint,std::allocator<std::pair<int const ,ModelEntry> >,0> >::_Color
; Function compile flags: /Ogtp
;	COMDAT ?_Color@?$_Tree_val@V?$_Tmap_traits@HUModelEntry@@Ultint@@V?$allocator@U?$pair@$$CBHUModelEntry@@@std@@@std@@$0A@@std@@@std@@SAAADPAU_Node@?$_Tree_nod@V?$_Tmap_traits@HUModelEntry@@Ultint@@V?$allocator@U?$pair@$$CBHUModelEntry@@@std@@@std@@$0A@@std@@@2@@Z
_TEXT	SEGMENT
__Pnode$ = 8						; size = 4
?_Color@?$_Tree_val@V?$_Tmap_traits@HUModelEntry@@Ultint@@V?$allocator@U?$pair@$$CBHUModelEntry@@@std@@@std@@$0A@@std@@@std@@SAAADPAU_Node@?$_Tree_nod@V?$_Tmap_traits@HUModelEntry@@Ultint@@V?$allocator@U?$pair@$$CBHUModelEntry@@@std@@@std@@$0A@@std@@@2@@Z PROC ; std::_Tree_val<std::_Tmap_traits<int,ModelEntry,ltint,std::allocator<std::pair<int const ,ModelEntry> >,0> >::_Color, COMDAT
; Line 606
	push	ebp
	mov	ebp, esp
; Line 607
	mov	eax, DWORD PTR __Pnode$[ebp]
	add	eax, 24					; 00000018H
; Line 608
	pop	ebp
	ret	0
?_Color@?$_Tree_val@V?$_Tmap_traits@HUModelEntry@@Ultint@@V?$allocator@U?$pair@$$CBHUModelEntry@@@std@@@std@@$0A@@std@@@std@@SAAADPAU_Node@?$_Tree_nod@V?$_Tmap_traits@HUModelEntry@@Ultint@@V?$allocator@U?$pair@$$CBHUModelEntry@@@std@@@std@@$0A@@std@@@2@@Z ENDP ; std::_Tree_val<std::_Tmap_traits<int,ModelEntry,ltint,std::allocator<std::pair<int const ,ModelEntry> >,0> >::_Color
_TEXT	ENDS
PUBLIC	?_Isnil@?$_Tree_val@V?$_Tmap_traits@HUModelEntry@@Ultint@@V?$allocator@U?$pair@$$CBHUModelEntry@@@std@@@std@@$0A@@std@@@std@@SAAADPAU_Node@?$_Tree_nod@V?$_Tmap_traits@HUModelEntry@@Ultint@@V?$allocator@U?$pair@$$CBHUModelEntry@@@std@@@std@@$0A@@std@@@2@@Z ; std::_Tree_val<std::_Tmap_traits<int,ModelEntry,ltint,std::allocator<std::pair<int const ,ModelEntry> >,0> >::_Isnil
; Function compile flags: /Ogtp
;	COMDAT ?_Isnil@?$_Tree_val@V?$_Tmap_traits@HUModelEntry@@Ultint@@V?$allocator@U?$pair@$$CBHUModelEntry@@@std@@@std@@$0A@@std@@@std@@SAAADPAU_Node@?$_Tree_nod@V?$_Tmap_traits@HUModelEntry@@Ultint@@V?$allocator@U?$pair@$$CBHUModelEntry@@@std@@@std@@$0A@@std@@@2@@Z
_TEXT	SEGMENT
__Pnode$ = 8						; size = 4
?_Isnil@?$_Tree_val@V?$_Tmap_traits@HUModelEntry@@Ultint@@V?$allocator@U?$pair@$$CBHUModelEntry@@@std@@@std@@$0A@@std@@@std@@SAAADPAU_Node@?$_Tree_nod@V?$_Tmap_traits@HUModelEntry@@Ultint@@V?$allocator@U?$pair@$$CBHUModelEntry@@@std@@@std@@$0A@@std@@@2@@Z PROC ; std::_Tree_val<std::_Tmap_traits<int,ModelEntry,ltint,std::allocator<std::pair<int const ,ModelEntry> >,0> >::_Isnil, COMDAT
; Line 611
	push	ebp
	mov	ebp, esp
; Line 612
	mov	eax, DWORD PTR __Pnode$[ebp]
	add	eax, 25					; 00000019H
; Line 613
	pop	ebp
	ret	0
?_Isnil@?$_Tree_val@V?$_Tmap_traits@HUModelEntry@@Ultint@@V?$allocator@U?$pair@$$CBHUModelEntry@@@std@@@std@@$0A@@std@@@std@@SAAADPAU_Node@?$_Tree_nod@V?$_Tmap_traits@HUModelEntry@@Ultint@@V?$allocator@U?$pair@$$CBHUModelEntry@@@std@@@std@@$0A@@std@@@2@@Z ENDP ; std::_Tree_val<std::_Tmap_traits<int,ModelEntry,ltint,std::allocator<std::pair<int const ,ModelEntry> >,0> >::_Isnil
_TEXT	ENDS
PUBLIC	?_Left@?$_Tree_val@V?$_Tmap_traits@HUModelEntry@@Ultint@@V?$allocator@U?$pair@$$CBHUModelEntry@@@std@@@std@@$0A@@std@@@std@@SAAAPAU_Node@?$_Tree_nod@V?$_Tmap_traits@HUModelEntry@@Ultint@@V?$allocator@U?$pair@$$CBHUModelEntry@@@std@@@std@@$0A@@std@@@2@PAU342@@Z ; std::_Tree_val<std::_Tmap_traits<int,ModelEntry,ltint,std::allocator<std::pair<int const ,ModelEntry> >,0> >::_Left
; Function compile flags: /Ogtp
;	COMDAT ?_Left@?$_Tree_val@V?$_Tmap_traits@HUModelEntry@@Ultint@@V?$allocator@U?$pair@$$CBHUModelEntry@@@std@@@std@@$0A@@std@@@std@@SAAAPAU_Node@?$_Tree_nod@V?$_Tmap_traits@HUModelEntry@@Ultint@@V?$allocator@U?$pair@$$CBHUModelEntry@@@std@@@std@@$0A@@std@@@2@PAU342@@Z
_TEXT	SEGMENT
__Pnode$ = 8						; size = 4
?_Left@?$_Tree_val@V?$_Tmap_traits@HUModelEntry@@Ultint@@V?$allocator@U?$pair@$$CBHUModelEntry@@@std@@@std@@$0A@@std@@@std@@SAAAPAU_Node@?$_Tree_nod@V?$_Tmap_traits@HUModelEntry@@Ultint@@V?$allocator@U?$pair@$$CBHUModelEntry@@@std@@@std@@$0A@@std@@@2@PAU342@@Z PROC ; std::_Tree_val<std::_Tmap_traits<int,ModelEntry,ltint,std::allocator<std::pair<int const ,ModelEntry> >,0> >::_Left, COMDAT
; Line 621
	push	ebp
	mov	ebp, esp
; Line 622
	mov	eax, DWORD PTR __Pnode$[ebp]
; Line 623
	pop	ebp
	ret	0
?_Left@?$_Tree_val@V?$_Tmap_traits@HUModelEntry@@Ultint@@V?$allocator@U?$pair@$$CBHUModelEntry@@@std@@@std@@$0A@@std@@@std@@SAAAPAU_Node@?$_Tree_nod@V?$_Tmap_traits@HUModelEntry@@Ultint@@V?$allocator@U?$pair@$$CBHUModelEntry@@@std@@@std@@$0A@@std@@@2@PAU342@@Z ENDP ; std::_Tree_val<std::_Tmap_traits<int,ModelEntry,ltint,std::allocator<std::pair<int const ,ModelEntry> >,0> >::_Left
_TEXT	ENDS
PUBLIC	?_Parent@?$_Tree_val@V?$_Tmap_traits@HUModelEntry@@Ultint@@V?$allocator@U?$pair@$$CBHUModelEntry@@@std@@@std@@$0A@@std@@@std@@SAAAPAU_Node@?$_Tree_nod@V?$_Tmap_traits@HUModelEntry@@Ultint@@V?$allocator@U?$pair@$$CBHUModelEntry@@@std@@@std@@$0A@@std@@@2@PAU342@@Z ; std::_Tree_val<std::_Tmap_traits<int,ModelEntry,ltint,std::allocator<std::pair<int const ,ModelEntry> >,0> >::_Parent
; Function compile flags: /Ogtp
;	COMDAT ?_Parent@?$_Tree_val@V?$_Tmap_traits@HUModelEntry@@Ultint@@V?$allocator@U?$pair@$$CBHUModelEntry@@@std@@@std@@$0A@@std@@@std@@SAAAPAU_Node@?$_Tree_nod@V?$_Tmap_traits@HUModelEntry@@Ultint@@V?$allocator@U?$pair@$$CBHUModelEntry@@@std@@@std@@$0A@@std@@@2@PAU342@@Z
_TEXT	SEGMENT
__Pnode$ = 8						; size = 4
?_Parent@?$_Tree_val@V?$_Tmap_traits@HUModelEntry@@Ultint@@V?$allocator@U?$pair@$$CBHUModelEntry@@@std@@@std@@$0A@@std@@@std@@SAAAPAU_Node@?$_Tree_nod@V?$_Tmap_traits@HUModelEntry@@Ultint@@V?$allocator@U?$pair@$$CBHUModelEntry@@@std@@@std@@$0A@@std@@@2@PAU342@@Z PROC ; std::_Tree_val<std::_Tmap_traits<int,ModelEntry,ltint,std::allocator<std::pair<int const ,ModelEntry> >,0> >::_Parent, COMDAT
; Line 626
	push	ebp
	mov	ebp, esp
; Line 627
	mov	eax, DWORD PTR __Pnode$[ebp]
	add	eax, 4
; Line 628
	pop	ebp
	ret	0
?_Parent@?$_Tree_val@V?$_Tmap_traits@HUModelEntry@@Ultint@@V?$allocator@U?$pair@$$CBHUModelEntry@@@std@@@std@@$0A@@std@@@std@@SAAAPAU_Node@?$_Tree_nod@V?$_Tmap_traits@HUModelEntry@@Ultint@@V?$allocator@U?$pair@$$CBHUModelEntry@@@std@@@std@@$0A@@std@@@2@PAU342@@Z ENDP ; std::_Tree_val<std::_Tmap_traits<int,ModelEntry,ltint,std::allocator<std::pair<int const ,ModelEntry> >,0> >::_Parent
_TEXT	ENDS
PUBLIC	?_Right@?$_Tree_val@V?$_Tmap_traits@HUModelEntry@@Ultint@@V?$allocator@U?$pair@$$CBHUModelEntry@@@std@@@std@@$0A@@std@@@std@@SAAAPAU_Node@?$_Tree_nod@V?$_Tmap_traits@HUModelEntry@@Ultint@@V?$allocator@U?$pair@$$CBHUModelEntry@@@std@@@std@@$0A@@std@@@2@PAU342@@Z ; std::_Tree_val<std::_Tmap_traits<int,ModelEntry,ltint,std::allocator<std::pair<int const ,ModelEntry> >,0> >::_Right
; Function compile flags: /Ogtp
;	COMDAT ?_Right@?$_Tree_val@V?$_Tmap_traits@HUModelEntry@@Ultint@@V?$allocator@U?$pair@$$CBHUModelEntry@@@std@@@std@@$0A@@std@@@std@@SAAAPAU_Node@?$_Tree_nod@V?$_Tmap_traits@HUModelEntry@@Ultint@@V?$allocator@U?$pair@$$CBHUModelEntry@@@std@@@std@@$0A@@std@@@2@PAU342@@Z
_TEXT	SEGMENT
__Pnode$ = 8						; size = 4
?_Right@?$_Tree_val@V?$_Tmap_traits@HUModelEntry@@Ultint@@V?$allocator@U?$pair@$$CBHUModelEntry@@@std@@@std@@$0A@@std@@@std@@SAAAPAU_Node@?$_Tree_nod@V?$_Tmap_traits@HUModelEntry@@Ultint@@V?$allocator@U?$pair@$$CBHUModelEntry@@@std@@@std@@$0A@@std@@@2@PAU342@@Z PROC ; std::_Tree_val<std::_Tmap_traits<int,ModelEntry,ltint,std::allocator<std::pair<int const ,ModelEntry> >,0> >::_Right, COMDAT
; Line 631
	push	ebp
	mov	ebp, esp
; Line 632
	mov	eax, DWORD PTR __Pnode$[ebp]
	add	eax, 8
; Line 633
	pop	ebp
	ret	0
?_Right@?$_Tree_val@V?$_Tmap_traits@HUModelEntry@@Ultint@@V?$allocator@U?$pair@$$CBHUModelEntry@@@std@@@std@@$0A@@std@@@std@@SAAAPAU_Node@?$_Tree_nod@V?$_Tmap_traits@HUModelEntry@@Ultint@@V?$allocator@U?$pair@$$CBHUModelEntry@@@std@@@std@@$0A@@std@@@2@PAU342@@Z ENDP ; std::_Tree_val<std::_Tmap_traits<int,ModelEntry,ltint,std::allocator<std::pair<int const ,ModelEntry> >,0> >::_Right
_TEXT	ENDS
PUBLIC	?_Myval@?$_Tree_val@V?$_Tmap_traits@HUModelEntry@@Ultint@@V?$allocator@U?$pair@$$CBHUModelEntry@@@std@@@std@@$0A@@std@@@std@@SAAAU?$pair@$$CBHUModelEntry@@@2@PAU_Node@?$_Tree_nod@V?$_Tmap_traits@HUModelEntry@@Ultint@@V?$allocator@U?$pair@$$CBHUModelEntry@@@std@@@std@@$0A@@std@@@2@@Z ; std::_Tree_val<std::_Tmap_traits<int,ModelEntry,ltint,std::allocator<std::pair<int const ,ModelEntry> >,0> >::_Myval
; Function compile flags: /Ogtp
;	COMDAT ?_Myval@?$_Tree_val@V?$_Tmap_traits@HUModelEntry@@Ultint@@V?$allocator@U?$pair@$$CBHUModelEntry@@@std@@@std@@$0A@@std@@@std@@SAAAU?$pair@$$CBHUModelEntry@@@2@PAU_Node@?$_Tree_nod@V?$_Tmap_traits@HUModelEntry@@Ultint@@V?$allocator@U?$pair@$$CBHUModelEntry@@@std@@@std@@$0A@@std@@@2@@Z
_TEXT	SEGMENT
__Pnode$ = 8						; size = 4
?_Myval@?$_Tree_val@V?$_Tmap_traits@HUModelEntry@@Ultint@@V?$allocator@U?$pair@$$CBHUModelEntry@@@std@@@std@@$0A@@std@@@std@@SAAAU?$pair@$$CBHUModelEntry@@@2@PAU_Node@?$_Tree_nod@V?$_Tmap_traits@HUModelEntry@@Ultint@@V?$allocator@U?$pair@$$CBHUModelEntry@@@std@@@std@@$0A@@std@@@2@@Z PROC ; std::_Tree_val<std::_Tmap_traits<int,ModelEntry,ltint,std::allocator<std::pair<int const ,ModelEntry> >,0> >::_Myval, COMDAT
; Line 636
	push	ebp
	mov	ebp, esp
; Line 637
	mov	eax, DWORD PTR __Pnode$[ebp]
	add	eax, 12					; 0000000cH
; Line 638
	pop	ebp
	ret	0
?_Myval@?$_Tree_val@V?$_Tmap_traits@HUModelEntry@@Ultint@@V?$allocator@U?$pair@$$CBHUModelEntry@@@std@@@std@@$0A@@std@@@std@@SAAAU?$pair@$$CBHUModelEntry@@@2@PAU_Node@?$_Tree_nod@V?$_Tmap_traits@HUModelEntry@@Ultint@@V?$allocator@U?$pair@$$CBHUModelEntry@@@std@@@std@@$0A@@std@@@2@@Z ENDP ; std::_Tree_val<std::_Tmap_traits<int,ModelEntry,ltint,std::allocator<std::pair<int const ,ModelEntry> >,0> >::_Myval
_TEXT	ENDS
PUBLIC	?_Max@?$_Tree_val@V?$_Tmap_traits@HUModelEntry@@Ultint@@V?$allocator@U?$pair@$$CBHUModelEntry@@@std@@@std@@$0A@@std@@@std@@SAPAU_Node@?$_Tree_nod@V?$_Tmap_traits@HUModelEntry@@Ultint@@V?$allocator@U?$pair@$$CBHUModelEntry@@@std@@@std@@$0A@@std@@@2@PAU342@@Z ; std::_Tree_val<std::_Tmap_traits<int,ModelEntry,ltint,std::allocator<std::pair<int const ,ModelEntry> >,0> >::_Max
; Function compile flags: /Ogtp
;	COMDAT ?_Max@?$_Tree_val@V?$_Tmap_traits@HUModelEntry@@Ultint@@V?$allocator@U?$pair@$$CBHUModelEntry@@@std@@@std@@$0A@@std@@@std@@SAPAU_Node@?$_Tree_nod@V?$_Tmap_traits@HUModelEntry@@Ultint@@V?$allocator@U?$pair@$$CBHUModelEntry@@@std@@@std@@$0A@@std@@@2@PAU342@@Z
_TEXT	SEGMENT
__Pnode$ = 8						; size = 4
?_Max@?$_Tree_val@V?$_Tmap_traits@HUModelEntry@@Ultint@@V?$allocator@U?$pair@$$CBHUModelEntry@@@std@@@std@@$0A@@std@@@std@@SAPAU_Node@?$_Tree_nod@V?$_Tmap_traits@HUModelEntry@@Ultint@@V?$allocator@U?$pair@$$CBHUModelEntry@@@std@@@std@@$0A@@std@@@2@PAU342@@Z PROC ; std::_Tree_val<std::_Tmap_traits<int,ModelEntry,ltint,std::allocator<std::pair<int const ,ModelEntry> >,0> >::_Max, COMDAT
; Line 641
	push	ebp
	mov	ebp, esp
; Line 642
	mov	eax, DWORD PTR __Pnode$[ebp]
	mov	ecx, DWORD PTR [eax+8]
	cmp	BYTE PTR [ecx+25], 0
	jne	SHORT $LN1@Max
	npad	1
$LL2@Max:
; Line 643
	mov	eax, ecx
	mov	ecx, DWORD PTR [eax+8]
	cmp	BYTE PTR [ecx+25], 0
	je	SHORT $LL2@Max
$LN1@Max:
; Line 645
	pop	ebp
	ret	0
?_Max@?$_Tree_val@V?$_Tmap_traits@HUModelEntry@@Ultint@@V?$allocator@U?$pair@$$CBHUModelEntry@@@std@@@std@@$0A@@std@@@std@@SAPAU_Node@?$_Tree_nod@V?$_Tmap_traits@HUModelEntry@@Ultint@@V?$allocator@U?$pair@$$CBHUModelEntry@@@std@@@std@@$0A@@std@@@2@PAU342@@Z ENDP ; std::_Tree_val<std::_Tmap_traits<int,ModelEntry,ltint,std::allocator<std::pair<int const ,ModelEntry> >,0> >::_Max
_TEXT	ENDS
PUBLIC	?_Min@?$_Tree_val@V?$_Tmap_traits@HUModelEntry@@Ultint@@V?$allocator@U?$pair@$$CBHUModelEntry@@@std@@@std@@$0A@@std@@@std@@SAPAU_Node@?$_Tree_nod@V?$_Tmap_traits@HUModelEntry@@Ultint@@V?$allocator@U?$pair@$$CBHUModelEntry@@@std@@@std@@$0A@@std@@@2@PAU342@@Z ; std::_Tree_val<std::_Tmap_traits<int,ModelEntry,ltint,std::allocator<std::pair<int const ,ModelEntry> >,0> >::_Min
; Function compile flags: /Ogtp
;	COMDAT ?_Min@?$_Tree_val@V?$_Tmap_traits@HUModelEntry@@Ultint@@V?$allocator@U?$pair@$$CBHUModelEntry@@@std@@@std@@$0A@@std@@@std@@SAPAU_Node@?$_Tree_nod@V?$_Tmap_traits@HUModelEntry@@Ultint@@V?$allocator@U?$pair@$$CBHUModelEntry@@@std@@@std@@$0A@@std@@@2@PAU342@@Z
_TEXT	SEGMENT
__Pnode$ = 8						; size = 4
?_Min@?$_Tree_val@V?$_Tmap_traits@HUModelEntry@@Ultint@@V?$allocator@U?$pair@$$CBHUModelEntry@@@std@@@std@@$0A@@std@@@std@@SAPAU_Node@?$_Tree_nod@V?$_Tmap_traits@HUModelEntry@@Ultint@@V?$allocator@U?$pair@$$CBHUModelEntry@@@std@@@std@@$0A@@std@@@2@PAU342@@Z PROC ; std::_Tree_val<std::_Tmap_traits<int,ModelEntry,ltint,std::allocator<std::pair<int const ,ModelEntry> >,0> >::_Min, COMDAT
; Line 648
	push	ebp
	mov	ebp, esp
; Line 649
	mov	eax, DWORD PTR __Pnode$[ebp]
	mov	ecx, DWORD PTR [eax]
	cmp	BYTE PTR [ecx+25], 0
	jne	SHORT $LN1@Min
	npad	2
$LL2@Min:
; Line 650
	mov	eax, ecx
	mov	ecx, DWORD PTR [eax]
	cmp	BYTE PTR [ecx+25], 0
	je	SHORT $LL2@Min
$LN1@Min:
; Line 652
	pop	ebp
	ret	0
?_Min@?$_Tree_val@V?$_Tmap_traits@HUModelEntry@@Ultint@@V?$allocator@U?$pair@$$CBHUModelEntry@@@std@@@std@@$0A@@std@@@std@@SAPAU_Node@?$_Tree_nod@V?$_Tmap_traits@HUModelEntry@@Ultint@@V?$allocator@U?$pair@$$CBHUModelEntry@@@std@@@std@@$0A@@std@@@2@PAU342@@Z ENDP ; std::_Tree_val<std::_Tmap_traits<int,ModelEntry,ltint,std::allocator<std::pair<int const ,ModelEntry> >,0> >::_Min
_TEXT	ENDS
PUBLIC	??0?$allocator@U?$pair@$$CBHUModelEntry@@@std@@@std@@QAE@XZ ; std::allocator<std::pair<int const ,ModelEntry> >::allocator<std::pair<int const ,ModelEntry> >
; Function compile flags: /Ogtp
;	COMDAT ??0?$allocator@U?$pair@$$CBHUModelEntry@@@std@@@std@@QAE@XZ
_TEXT	SEGMENT
??0?$allocator@U?$pair@$$CBHUModelEntry@@@std@@@std@@QAE@XZ PROC ; std::allocator<std::pair<int const ,ModelEntry> >::allocator<std::pair<int const ,ModelEntry> >, COMDAT
; _this$ = ecx
; File c:\program files (x86)\microsoft visual studio 10.0\vc\include\xmemory
; Line 161
	mov	eax, ecx
; Line 163
	ret	0
??0?$allocator@U?$pair@$$CBHUModelEntry@@@std@@@std@@QAE@XZ ENDP ; std::allocator<std::pair<int const ,ModelEntry> >::allocator<std::pair<int const ,ModelEntry> >
_TEXT	ENDS
PUBLIC	?deallocate@?$allocator@U_Node@?$_Tree_nod@V?$_Tmap_traits@HUModelEntry@@Ultint@@V?$allocator@U?$pair@$$CBHUModelEntry@@@std@@@std@@$0A@@std@@@std@@@std@@QAEXPAU_Node@?$_Tree_nod@V?$_Tmap_traits@HUModelEntry@@Ultint@@V?$allocator@U?$pair@$$CBHUModelEntry@@@std@@@std@@$0A@@std@@@2@I@Z ; std::allocator<std::_Tree_nod<std::_Tmap_traits<int,ModelEntry,ltint,std::allocator<std::pair<int const ,ModelEntry> >,0> >::_Node>::deallocate
; Function compile flags: /Ogtp
;	COMDAT ?deallocate@?$allocator@U_Node@?$_Tree_nod@V?$_Tmap_traits@HUModelEntry@@Ultint@@V?$allocator@U?$pair@$$CBHUModelEntry@@@std@@@std@@$0A@@std@@@std@@@std@@QAEXPAU_Node@?$_Tree_nod@V?$_Tmap_traits@HUModelEntry@@Ultint@@V?$allocator@U?$pair@$$CBHUModelEntry@@@std@@@std@@$0A@@std@@@2@I@Z
_TEXT	SEGMENT
__Ptr$ = 8						; size = 4
___formal$ = 12						; size = 4
?deallocate@?$allocator@U_Node@?$_Tree_nod@V?$_Tmap_traits@HUModelEntry@@Ultint@@V?$allocator@U?$pair@$$CBHUModelEntry@@@std@@@std@@$0A@@std@@@std@@@std@@QAEXPAU_Node@?$_Tree_nod@V?$_Tmap_traits@HUModelEntry@@Ultint@@V?$allocator@U?$pair@$$CBHUModelEntry@@@std@@@std@@$0A@@std@@@2@I@Z PROC ; std::allocator<std::_Tree_nod<std::_Tmap_traits<int,ModelEntry,ltint,std::allocator<std::pair<int const ,ModelEntry> >,0> >::_Node>::deallocate, COMDAT
; _this$ = ecx
; Line 181
	push	ebp
	mov	ebp, esp
; Line 182
	mov	eax, DWORD PTR __Ptr$[ebp]
	push	eax
	call	??3@YAXPAX@Z				; operator delete
	add	esp, 4
; Line 183
	pop	ebp
	ret	8
?deallocate@?$allocator@U_Node@?$_Tree_nod@V?$_Tmap_traits@HUModelEntry@@Ultint@@V?$allocator@U?$pair@$$CBHUModelEntry@@@std@@@std@@$0A@@std@@@std@@@std@@QAEXPAU_Node@?$_Tree_nod@V?$_Tmap_traits@HUModelEntry@@Ultint@@V?$allocator@U?$pair@$$CBHUModelEntry@@@std@@@std@@$0A@@std@@@2@I@Z ENDP ; std::allocator<std::_Tree_nod<std::_Tmap_traits<int,ModelEntry,ltint,std::allocator<std::pair<int const ,ModelEntry> >,0> >::_Node>::deallocate
_TEXT	ENDS
PUBLIC	??D?$_Tree_const_iterator@V?$_Tree_val@V?$_Tmap_traits@HUModelEntry@@Ultint@@V?$allocator@U?$pair@$$CBHUModelEntry@@@std@@@std@@$0A@@std@@@std@@@std@@QBEABU?$pair@$$CBHUModelEntry@@@1@XZ ; std::_Tree_const_iterator<std::_Tree_val<std::_Tmap_traits<int,ModelEntry,ltint,std::allocator<std::pair<int const ,ModelEntry> >,0> > >::operator*
; Function compile flags: /Ogtp
;	COMDAT ??D?$_Tree_const_iterator@V?$_Tree_val@V?$_Tmap_traits@HUModelEntry@@Ultint@@V?$allocator@U?$pair@$$CBHUModelEntry@@@std@@@std@@$0A@@std@@@std@@@std@@QBEABU?$pair@$$CBHUModelEntry@@@1@XZ
_TEXT	SEGMENT
??D?$_Tree_const_iterator@V?$_Tree_val@V?$_Tmap_traits@HUModelEntry@@Ultint@@V?$allocator@U?$pair@$$CBHUModelEntry@@@std@@@std@@$0A@@std@@@std@@@std@@QBEABU?$pair@$$CBHUModelEntry@@@1@XZ PROC ; std::_Tree_const_iterator<std::_Tree_val<std::_Tmap_traits<int,ModelEntry,ltint,std::allocator<std::pair<int const ,ModelEntry> >,0> > >::operator*, COMDAT
; _this$ = ecx
; File c:\program files (x86)\microsoft visual studio 10.0\vc\include\xtree
; Line 246
	mov	eax, DWORD PTR [ecx]
	add	eax, 12					; 0000000cH
; Line 247
	ret	0
??D?$_Tree_const_iterator@V?$_Tree_val@V?$_Tmap_traits@HUModelEntry@@Ultint@@V?$allocator@U?$pair@$$CBHUModelEntry@@@std@@@std@@$0A@@std@@@std@@@std@@QBEABU?$pair@$$CBHUModelEntry@@@1@XZ ENDP ; std::_Tree_const_iterator<std::_Tree_val<std::_Tmap_traits<int,ModelEntry,ltint,std::allocator<std::pair<int const ,ModelEntry> >,0> > >::operator*
_TEXT	ENDS
PUBLIC	??8?$_Tree_const_iterator@V?$_Tree_val@V?$_Tmap_traits@HUModelEntry@@Ultint@@V?$allocator@U?$pair@$$CBHUModelEntry@@@std@@@std@@$0A@@std@@@std@@@std@@QBE_NABV01@@Z ; std::_Tree_const_iterator<std::_Tree_val<std::_Tmap_traits<int,ModelEntry,ltint,std::allocator<std::pair<int const ,ModelEntry> >,0> > >::operator==
; Function compile flags: /Ogtp
;	COMDAT ??8?$_Tree_const_iterator@V?$_Tree_val@V?$_Tmap_traits@HUModelEntry@@Ultint@@V?$allocator@U?$pair@$$CBHUModelEntry@@@std@@@std@@$0A@@std@@@std@@@std@@QBE_NABV01@@Z
_TEXT	SEGMENT
__Right$ = 8						; size = 4
??8?$_Tree_const_iterator@V?$_Tree_val@V?$_Tmap_traits@HUModelEntry@@Ultint@@V?$allocator@U?$pair@$$CBHUModelEntry@@@std@@@std@@$0A@@std@@@std@@@std@@QBE_NABV01@@Z PROC ; std::_Tree_const_iterator<std::_Tree_val<std::_Tmap_traits<int,ModelEntry,ltint,std::allocator<std::pair<int const ,ModelEntry> >,0> > >::operator==, COMDAT
; _this$ = ecx
; Line 316
	push	ebp
	mov	ebp, esp
; Line 330
	mov	eax, DWORD PTR [ecx]
	mov	edx, DWORD PTR __Right$[ebp]
	xor	ecx, ecx
	cmp	eax, DWORD PTR [edx]
	sete	al
; Line 331
	pop	ebp
	ret	4
??8?$_Tree_const_iterator@V?$_Tree_val@V?$_Tmap_traits@HUModelEntry@@Ultint@@V?$allocator@U?$pair@$$CBHUModelEntry@@@std@@@std@@$0A@@std@@@std@@@std@@QBE_NABV01@@Z ENDP ; std::_Tree_const_iterator<std::_Tree_val<std::_Tmap_traits<int,ModelEntry,ltint,std::allocator<std::pair<int const ,ModelEntry> >,0> > >::operator==
_TEXT	ENDS
PUBLIC	?_Mynode@?$_Tree_unchecked_const_iterator@V?$_Tree_val@V?$_Tmap_traits@HUModelEntry@@Ultint@@V?$allocator@U?$pair@$$CBHUModelEntry@@@std@@@std@@$0A@@std@@@std@@U_Iterator_base0@2@@std@@QBEPAU_Node@?$_Tree_nod@V?$_Tmap_traits@HUModelEntry@@Ultint@@V?$allocator@U?$pair@$$CBHUModelEntry@@@std@@@std@@$0A@@std@@@2@XZ ; std::_Tree_unchecked_const_iterator<std::_Tree_val<std::_Tmap_traits<int,ModelEntry,ltint,std::allocator<std::pair<int const ,ModelEntry> >,0> >,std::_Iterator_base0>::_Mynode
; Function compile flags: /Ogtp
;	COMDAT ?_Mynode@?$_Tree_unchecked_const_iterator@V?$_Tree_val@V?$_Tmap_traits@HUModelEntry@@Ultint@@V?$allocator@U?$pair@$$CBHUModelEntry@@@std@@@std@@$0A@@std@@@std@@U_Iterator_base0@2@@std@@QBEPAU_Node@?$_Tree_nod@V?$_Tmap_traits@HUModelEntry@@Ultint@@V?$allocator@U?$pair@$$CBHUModelEntry@@@std@@@std@@$0A@@std@@@2@XZ
_TEXT	SEGMENT
?_Mynode@?$_Tree_unchecked_const_iterator@V?$_Tree_val@V?$_Tmap_traits@HUModelEntry@@Ultint@@V?$allocator@U?$pair@$$CBHUModelEntry@@@std@@@std@@$0A@@std@@@std@@U_Iterator_base0@2@@std@@QBEPAU_Node@?$_Tree_nod@V?$_Tmap_traits@HUModelEntry@@Ultint@@V?$allocator@U?$pair@$$CBHUModelEntry@@@std@@@std@@$0A@@std@@@2@XZ PROC ; std::_Tree_unchecked_const_iterator<std::_Tree_val<std::_Tmap_traits<int,ModelEntry,ltint,std::allocator<std::pair<int const ,ModelEntry> >,0> >,std::_Iterator_base0>::_Mynode, COMDAT
; _this$ = ecx
; Line 122
	mov	eax, DWORD PTR [ecx]
; Line 123
	ret	0
?_Mynode@?$_Tree_unchecked_const_iterator@V?$_Tree_val@V?$_Tmap_traits@HUModelEntry@@Ultint@@V?$allocator@U?$pair@$$CBHUModelEntry@@@std@@@std@@$0A@@std@@@std@@U_Iterator_base0@2@@std@@QBEPAU_Node@?$_Tree_nod@V?$_Tmap_traits@HUModelEntry@@Ultint@@V?$allocator@U?$pair@$$CBHUModelEntry@@@std@@@std@@$0A@@std@@@2@XZ ENDP ; std::_Tree_unchecked_const_iterator<std::_Tree_val<std::_Tmap_traits<int,ModelEntry,ltint,std::allocator<std::pair<int const ,ModelEntry> >,0> >,std::_Iterator_base0>::_Mynode
_TEXT	ENDS
PUBLIC	??4?$pair@II@std@@QAEAAU01@ABU01@@Z		; std::pair<unsigned int,unsigned int>::operator=
; Function compile flags: /Ogtp
;	COMDAT ??4?$pair@II@std@@QAEAAU01@ABU01@@Z
_TEXT	SEGMENT
__Right$ = 8						; size = 4
??4?$pair@II@std@@QAEAAU01@ABU01@@Z PROC		; std::pair<unsigned int,unsigned int>::operator=, COMDAT
; _this$ = ecx
; File c:\program files (x86)\microsoft visual studio 10.0\vc\include\utility
; Line 215
	push	ebp
	mov	ebp, esp
	mov	eax, ecx
; Line 216
	mov	ecx, DWORD PTR __Right$[ebp]
	mov	edx, DWORD PTR [ecx]
	mov	DWORD PTR [eax], edx
; Line 217
	mov	ecx, DWORD PTR [ecx+4]
	mov	DWORD PTR [eax+4], ecx
; Line 219
	pop	ebp
	ret	4
??4?$pair@II@std@@QAEAAU01@ABU01@@Z ENDP		; std::pair<unsigned int,unsigned int>::operator=
_TEXT	ENDS
PUBLIC	?conv@?$Identity@M@@SAABMABM@Z			; Identity<float>::conv
; Function compile flags: /Ogtp
;	COMDAT ?conv@?$Identity@M@@SAABMABM@Z
_TEXT	SEGMENT
_t$ = 8							; size = 4
?conv@?$Identity@M@@SAABMABM@Z PROC			; Identity<float>::conv, COMDAT
; File c:\programovani\wow editor\test\src\editor\animated.h
; Line 61
	push	ebp
	mov	ebp, esp
; Line 62
	mov	eax, DWORD PTR _t$[ebp]
; Line 63
	pop	ebp
	ret	0
?conv@?$Identity@M@@SAABMABM@Z ENDP			; Identity<float>::conv
_TEXT	ENDS
PUBLIC	?conv@?$Identity@VVec3D@@@@SAABVVec3D@@ABV2@@Z	; Identity<Vec3D>::conv
; Function compile flags: /Ogtp
;	COMDAT ?conv@?$Identity@VVec3D@@@@SAABVVec3D@@ABV2@@Z
_TEXT	SEGMENT
_t$ = 8							; size = 4
?conv@?$Identity@VVec3D@@@@SAABVVec3D@@ABV2@@Z PROC	; Identity<Vec3D>::conv, COMDAT
; Line 61
	push	ebp
	mov	ebp, esp
; Line 62
	mov	eax, DWORD PTR _t$[ebp]
; Line 63
	pop	ebp
	ret	0
?conv@?$Identity@VVec3D@@@@SAABVVec3D@@ABV2@@Z ENDP	; Identity<Vec3D>::conv
_TEXT	ENDS
PUBLIC	?conv@?$Identity@VQuaternion@@@@SAABVQuaternion@@ABV2@@Z ; Identity<Quaternion>::conv
; Function compile flags: /Ogtp
;	COMDAT ?conv@?$Identity@VQuaternion@@@@SAABVQuaternion@@ABV2@@Z
_TEXT	SEGMENT
_t$ = 8							; size = 4
?conv@?$Identity@VQuaternion@@@@SAABVQuaternion@@ABV2@@Z PROC ; Identity<Quaternion>::conv, COMDAT
; Line 61
	push	ebp
	mov	ebp, esp
; Line 62
	mov	eax, DWORD PTR _t$[ebp]
; Line 63
	pop	ebp
	ret	0
?conv@?$Identity@VQuaternion@@@@SAABVQuaternion@@ABV2@@Z ENDP ; Identity<Quaternion>::conv
_TEXT	ENDS
PUBLIC	?_Myptr@?$basic_string@DU?$char_traits@D@std@@V?$allocator@D@2@@std@@QAEPADXZ ; std::basic_string<char,std::char_traits<char>,std::allocator<char> >::_Myptr
; Function compile flags: /Ogtp
;	COMDAT ?_Myptr@?$basic_string@DU?$char_traits@D@std@@V?$allocator@D@2@@std@@QAEPADXZ
_TEXT	SEGMENT
?_Myptr@?$basic_string@DU?$char_traits@D@std@@V?$allocator@D@2@@std@@QAEPADXZ PROC ; std::basic_string<char,std::char_traits<char>,std::allocator<char> >::_Myptr, COMDAT
; _this$ = ecx
; File c:\program files (x86)\microsoft visual studio 10.0\vc\include\xstring
; Line 2002
	mov	eax, ecx
; Line 2004
	cmp	DWORD PTR [eax+20], 16			; 00000010H
	jb	SHORT $LN4@Myptr@2
	mov	eax, DWORD PTR [eax]
$LN4@Myptr@2:
; Line 2005
	ret	0
?_Myptr@?$basic_string@DU?$char_traits@D@std@@V?$allocator@D@2@@std@@QAEPADXZ ENDP ; std::basic_string<char,std::char_traits<char>,std::allocator<char> >::_Myptr
_TEXT	ENDS
PUBLIC	??_C@_0BI@CFPLBAOH@invalid?5string?5position?$AA@ ; `string'
PUBLIC	?_Xran@?$basic_string@DU?$char_traits@D@std@@V?$allocator@D@2@@std@@QBEXXZ ; std::basic_string<char,std::char_traits<char>,std::allocator<char> >::_Xran
EXTRN	__imp_?_Xout_of_range@std@@YAXPBD@Z:PROC
;	COMDAT ??_C@_0BI@CFPLBAOH@invalid?5string?5position?$AA@
CONST	SEGMENT
??_C@_0BI@CFPLBAOH@invalid?5string?5position?$AA@ DB 'invalid string posi'
	DB	'tion', 00H					; `string'
; Function compile flags: /Ogtp
CONST	ENDS
;	COMDAT ?_Xran@?$basic_string@DU?$char_traits@D@std@@V?$allocator@D@2@@std@@QBEXXZ
_TEXT	SEGMENT
?_Xran@?$basic_string@DU?$char_traits@D@std@@V?$allocator@D@2@@std@@QBEXXZ PROC ; std::basic_string<char,std::char_traits<char>,std::allocator<char> >::_Xran, COMDAT
; _this$ = ecx
; Line 2020
	push	OFFSET ??_C@_0BI@CFPLBAOH@invalid?5string?5position?$AA@
	call	DWORD PTR __imp_?_Xout_of_range@std@@YAXPBD@Z
$LN4@Xran:
$LN3@Xran:
	int	3
?_Xran@?$basic_string@DU?$char_traits@D@std@@V?$allocator@D@2@@std@@QBEXXZ ENDP ; std::basic_string<char,std::char_traits<char>,std::allocator<char> >::_Xran
_TEXT	ENDS
PUBLIC	?deallocate@?$allocator@D@std@@QAEXPADI@Z	; std::allocator<char>::deallocate
; Function compile flags: /Ogtp
;	COMDAT ?deallocate@?$allocator@D@std@@QAEXPADI@Z
_TEXT	SEGMENT
__Ptr$ = 8						; size = 4
___formal$ = 12						; size = 4
?deallocate@?$allocator@D@std@@QAEXPADI@Z PROC		; std::allocator<char>::deallocate, COMDAT
; _this$ = ecx
; File c:\program files (x86)\microsoft visual studio 10.0\vc\include\xmemory
; Line 181
	push	ebp
	mov	ebp, esp
; Line 182
	mov	eax, DWORD PTR __Ptr$[ebp]
	push	eax
	call	??3@YAXPAX@Z				; operator delete
	add	esp, 4
; Line 183
	pop	ebp
	ret	8
?deallocate@?$allocator@D@std@@QAEXPADI@Z ENDP		; std::allocator<char>::deallocate
_TEXT	ENDS
PUBLIC	?_Color@?$_Tree_val@V?$_Tmap_traits@V?$basic_string@DU?$char_traits@D@std@@V?$allocator@D@2@@std@@HU?$less@V?$basic_string@DU?$char_traits@D@std@@V?$allocator@D@2@@std@@@2@V?$allocator@U?$pair@$$CBV?$basic_string@DU?$char_traits@D@std@@V?$allocator@D@2@@std@@H@std@@@2@$0A@@std@@@std@@SAAADPAU_Node@?$_Tree_nod@V?$_Tmap_traits@V?$basic_string@DU?$char_traits@D@std@@V?$allocator@D@2@@std@@HU?$less@V?$basic_string@DU?$char_traits@D@std@@V?$allocator@D@2@@std@@@2@V?$allocator@U?$pair@$$CBV?$basic_string@DU?$char_traits@D@std@@V?$allocator@D@2@@std@@H@std@@@2@$0A@@std@@@2@@Z ; std::_Tree_val<std::_Tmap_traits<std::basic_string<char,std::char_traits<char>,std::allocator<char> >,int,std::less<std::basic_string<char,std::char_traits<char>,std::allocator<char> > >,std::allocator<std::pair<std::basic_string<char,std::char_traits<char>,std::allocator<char> > const ,int> >,0> >::_Color
; Function compile flags: /Ogtp
;	COMDAT ?_Color@?$_Tree_val@V?$_Tmap_traits@V?$basic_string@DU?$char_traits@D@std@@V?$allocator@D@2@@std@@HU?$less@V?$basic_string@DU?$char_traits@D@std@@V?$allocator@D@2@@std@@@2@V?$allocator@U?$pair@$$CBV?$basic_string@DU?$char_traits@D@std@@V?$allocator@D@2@@std@@H@std@@@2@$0A@@std@@@std@@SAAADPAU_Node@?$_Tree_nod@V?$_Tmap_traits@V?$basic_string@DU?$char_traits@D@std@@V?$allocator@D@2@@std@@HU?$less@V?$basic_string@DU?$char_traits@D@std@@V?$allocator@D@2@@std@@@2@V?$allocator@U?$pair@$$CBV?$basic_string@DU?$char_traits@D@std@@V?$allocator@D@2@@std@@H@std@@@2@$0A@@std@@@2@@Z
_TEXT	SEGMENT
__Pnode$ = 8						; size = 4
?_Color@?$_Tree_val@V?$_Tmap_traits@V?$basic_string@DU?$char_traits@D@std@@V?$allocator@D@2@@std@@HU?$less@V?$basic_string@DU?$char_traits@D@std@@V?$allocator@D@2@@std@@@2@V?$allocator@U?$pair@$$CBV?$basic_string@DU?$char_traits@D@std@@V?$allocator@D@2@@std@@H@std@@@2@$0A@@std@@@std@@SAAADPAU_Node@?$_Tree_nod@V?$_Tmap_traits@V?$basic_string@DU?$char_traits@D@std@@V?$allocator@D@2@@std@@HU?$less@V?$basic_string@DU?$char_traits@D@std@@V?$allocator@D@2@@std@@@2@V?$allocator@U?$pair@$$CBV?$basic_string@DU?$char_traits@D@std@@V?$allocator@D@2@@std@@H@std@@@2@$0A@@std@@@2@@Z PROC ; std::_Tree_val<std::_Tmap_traits<std::basic_string<char,std::char_traits<char>,std::allocator<char> >,int,std::less<std::basic_string<char,std::char_traits<char>,std::allocator<char> > >,std::allocator<std::pair<std::basic_string<char,std::char_traits<char>,std::allocator<char> > const ,int> >,0> >::_Color, COMDAT
; File c:\program files (x86)\microsoft visual studio 10.0\vc\include\xtree
; Line 606
	push	ebp
	mov	ebp, esp
; Line 607
	mov	eax, DWORD PTR __Pnode$[ebp]
	add	eax, 44					; 0000002cH
; Line 608
	pop	ebp
	ret	0
?_Color@?$_Tree_val@V?$_Tmap_traits@V?$basic_string@DU?$char_traits@D@std@@V?$allocator@D@2@@std@@HU?$less@V?$basic_string@DU?$char_traits@D@std@@V?$allocator@D@2@@std@@@2@V?$allocator@U?$pair@$$CBV?$basic_string@DU?$char_traits@D@std@@V?$allocator@D@2@@std@@H@std@@@2@$0A@@std@@@std@@SAAADPAU_Node@?$_Tree_nod@V?$_Tmap_traits@V?$basic_string@DU?$char_traits@D@std@@V?$allocator@D@2@@std@@HU?$less@V?$basic_string@DU?$char_traits@D@std@@V?$allocator@D@2@@std@@@2@V?$allocator@U?$pair@$$CBV?$basic_string@DU?$char_traits@D@std@@V?$allocator@D@2@@std@@H@std@@@2@$0A@@std@@@2@@Z ENDP ; std::_Tree_val<std::_Tmap_traits<std::basic_string<char,std::char_traits<char>,std::allocator<char> >,int,std::less<std::basic_string<char,std::char_traits<char>,std::allocator<char> > >,std::allocator<std::pair<std::basic_string<char,std::char_traits<char>,std::allocator<char> > const ,int> >,0> >::_Color
_TEXT	ENDS
PUBLIC	?_Isnil@?$_Tree_val@V?$_Tmap_traits@V?$basic_string@DU?$char_traits@D@std@@V?$allocator@D@2@@std@@HU?$less@V?$basic_string@DU?$char_traits@D@std@@V?$allocator@D@2@@std@@@2@V?$allocator@U?$pair@$$CBV?$basic_string@DU?$char_traits@D@std@@V?$allocator@D@2@@std@@H@std@@@2@$0A@@std@@@std@@SAAADPAU_Node@?$_Tree_nod@V?$_Tmap_traits@V?$basic_string@DU?$char_traits@D@std@@V?$allocator@D@2@@std@@HU?$less@V?$basic_string@DU?$char_traits@D@std@@V?$allocator@D@2@@std@@@2@V?$allocator@U?$pair@$$CBV?$basic_string@DU?$char_traits@D@std@@V?$allocator@D@2@@std@@H@std@@@2@$0A@@std@@@2@@Z ; std::_Tree_val<std::_Tmap_traits<std::basic_string<char,std::char_traits<char>,std::allocator<char> >,int,std::less<std::basic_string<char,std::char_traits<char>,std::allocator<char> > >,std::allocator<std::pair<std::basic_string<char,std::char_traits<char>,std::allocator<char> > const ,int> >,0> >::_Isnil
; Function compile flags: /Ogtp
;	COMDAT ?_Isnil@?$_Tree_val@V?$_Tmap_traits@V?$basic_string@DU?$char_traits@D@std@@V?$allocator@D@2@@std@@HU?$less@V?$basic_string@DU?$char_traits@D@std@@V?$allocator@D@2@@std@@@2@V?$allocator@U?$pair@$$CBV?$basic_string@DU?$char_traits@D@std@@V?$allocator@D@2@@std@@H@std@@@2@$0A@@std@@@std@@SAAADPAU_Node@?$_Tree_nod@V?$_Tmap_traits@V?$basic_string@DU?$char_traits@D@std@@V?$allocator@D@2@@std@@HU?$less@V?$basic_string@DU?$char_traits@D@std@@V?$allocator@D@2@@std@@@2@V?$allocator@U?$pair@$$CBV?$basic_string@DU?$char_traits@D@std@@V?$allocator@D@2@@std@@H@std@@@2@$0A@@std@@@2@@Z
_TEXT	SEGMENT
__Pnode$ = 8						; size = 4
?_Isnil@?$_Tree_val@V?$_Tmap_traits@V?$basic_string@DU?$char_traits@D@std@@V?$allocator@D@2@@std@@HU?$less@V?$basic_string@DU?$char_traits@D@std@@V?$allocator@D@2@@std@@@2@V?$allocator@U?$pair@$$CBV?$basic_string@DU?$char_traits@D@std@@V?$allocator@D@2@@std@@H@std@@@2@$0A@@std@@@std@@SAAADPAU_Node@?$_Tree_nod@V?$_Tmap_traits@V?$basic_string@DU?$char_traits@D@std@@V?$allocator@D@2@@std@@HU?$less@V?$basic_string@DU?$char_traits@D@std@@V?$allocator@D@2@@std@@@2@V?$allocator@U?$pair@$$CBV?$basic_string@DU?$char_traits@D@std@@V?$allocator@D@2@@std@@H@std@@@2@$0A@@std@@@2@@Z PROC ; std::_Tree_val<std::_Tmap_traits<std::basic_string<char,std::char_traits<char>,std::allocator<char> >,int,std::less<std::basic_string<char,std::char_traits<char>,std::allocator<char> > >,std::allocator<std::pair<std::basic_string<char,std::char_traits<char>,std::allocator<char> > const ,int> >,0> >::_Isnil, COMDAT
; Line 611
	push	ebp
	mov	ebp, esp
; Line 612
	mov	eax, DWORD PTR __Pnode$[ebp]
	add	eax, 45					; 0000002dH
; Line 613
	pop	ebp
	ret	0
?_Isnil@?$_Tree_val@V?$_Tmap_traits@V?$basic_string@DU?$char_traits@D@std@@V?$allocator@D@2@@std@@HU?$less@V?$basic_string@DU?$char_traits@D@std@@V?$allocator@D@2@@std@@@2@V?$allocator@U?$pair@$$CBV?$basic_string@DU?$char_traits@D@std@@V?$allocator@D@2@@std@@H@std@@@2@$0A@@std@@@std@@SAAADPAU_Node@?$_Tree_nod@V?$_Tmap_traits@V?$basic_string@DU?$char_traits@D@std@@V?$allocator@D@2@@std@@HU?$less@V?$basic_string@DU?$char_traits@D@std@@V?$allocator@D@2@@std@@@2@V?$allocator@U?$pair@$$CBV?$basic_string@DU?$char_traits@D@std@@V?$allocator@D@2@@std@@H@std@@@2@$0A@@std@@@2@@Z ENDP ; std::_Tree_val<std::_Tmap_traits<std::basic_string<char,std::char_traits<char>,std::allocator<char> >,int,std::less<std::basic_string<char,std::char_traits<char>,std::allocator<char> > >,std::allocator<std::pair<std::basic_string<char,std::char_traits<char>,std::allocator<char> > const ,int> >,0> >::_Isnil
_TEXT	ENDS
PUBLIC	?_Left@?$_Tree_val@V?$_Tmap_traits@V?$basic_string@DU?$char_traits@D@std@@V?$allocator@D@2@@std@@HU?$less@V?$basic_string@DU?$char_traits@D@std@@V?$allocator@D@2@@std@@@2@V?$allocator@U?$pair@$$CBV?$basic_string@DU?$char_traits@D@std@@V?$allocator@D@2@@std@@H@std@@@2@$0A@@std@@@std@@SAAAPAU_Node@?$_Tree_nod@V?$_Tmap_traits@V?$basic_string@DU?$char_traits@D@std@@V?$allocator@D@2@@std@@HU?$less@V?$basic_string@DU?$char_traits@D@std@@V?$allocator@D@2@@std@@@2@V?$allocator@U?$pair@$$CBV?$basic_string@DU?$char_traits@D@std@@V?$allocator@D@2@@std@@H@std@@@2@$0A@@std@@@2@PAU342@@Z ; std::_Tree_val<std::_Tmap_traits<std::basic_string<char,std::char_traits<char>,std::allocator<char> >,int,std::less<std::basic_string<char,std::char_traits<char>,std::allocator<char> > >,std::allocator<std::pair<std::basic_string<char,std::char_traits<char>,std::allocator<char> > const ,int> >,0> >::_Left
; Function compile flags: /Ogtp
;	COMDAT ?_Left@?$_Tree_val@V?$_Tmap_traits@V?$basic_string@DU?$char_traits@D@std@@V?$allocator@D@2@@std@@HU?$less@V?$basic_string@DU?$char_traits@D@std@@V?$allocator@D@2@@std@@@2@V?$allocator@U?$pair@$$CBV?$basic_string@DU?$char_traits@D@std@@V?$allocator@D@2@@std@@H@std@@@2@$0A@@std@@@std@@SAAAPAU_Node@?$_Tree_nod@V?$_Tmap_traits@V?$basic_string@DU?$char_traits@D@std@@V?$allocator@D@2@@std@@HU?$less@V?$basic_string@DU?$char_traits@D@std@@V?$allocator@D@2@@std@@@2@V?$allocator@U?$pair@$$CBV?$basic_string@DU?$char_traits@D@std@@V?$allocator@D@2@@std@@H@std@@@2@$0A@@std@@@2@PAU342@@Z
_TEXT	SEGMENT
__Pnode$ = 8						; size = 4
?_Left@?$_Tree_val@V?$_Tmap_traits@V?$basic_string@DU?$char_traits@D@std@@V?$allocator@D@2@@std@@HU?$less@V?$basic_string@DU?$char_traits@D@std@@V?$allocator@D@2@@std@@@2@V?$allocator@U?$pair@$$CBV?$basic_string@DU?$char_traits@D@std@@V?$allocator@D@2@@std@@H@std@@@2@$0A@@std@@@std@@SAAAPAU_Node@?$_Tree_nod@V?$_Tmap_traits@V?$basic_string@DU?$char_traits@D@std@@V?$allocator@D@2@@std@@HU?$less@V?$basic_string@DU?$char_traits@D@std@@V?$allocator@D@2@@std@@@2@V?$allocator@U?$pair@$$CBV?$basic_string@DU?$char_traits@D@std@@V?$allocator@D@2@@std@@H@std@@@2@$0A@@std@@@2@PAU342@@Z PROC ; std::_Tree_val<std::_Tmap_traits<std::basic_string<char,std::char_traits<char>,std::allocator<char> >,int,std::less<std::basic_string<char,std::char_traits<char>,std::allocator<char> > >,std::allocator<std::pair<std::basic_string<char,std::char_traits<char>,std::allocator<char> > const ,int> >,0> >::_Left, COMDAT
; Line 621
	push	ebp
	mov	ebp, esp
; Line 622
	mov	eax, DWORD PTR __Pnode$[ebp]
; Line 623
	pop	ebp
	ret	0
?_Left@?$_Tree_val@V?$_Tmap_traits@V?$basic_string@DU?$char_traits@D@std@@V?$allocator@D@2@@std@@HU?$less@V?$basic_string@DU?$char_traits@D@std@@V?$allocator@D@2@@std@@@2@V?$allocator@U?$pair@$$CBV?$basic_string@DU?$char_traits@D@std@@V?$allocator@D@2@@std@@H@std@@@2@$0A@@std@@@std@@SAAAPAU_Node@?$_Tree_nod@V?$_Tmap_traits@V?$basic_string@DU?$char_traits@D@std@@V?$allocator@D@2@@std@@HU?$less@V?$basic_string@DU?$char_traits@D@std@@V?$allocator@D@2@@std@@@2@V?$allocator@U?$pair@$$CBV?$basic_string@DU?$char_traits@D@std@@V?$allocator@D@2@@std@@H@std@@@2@$0A@@std@@@2@PAU342@@Z ENDP ; std::_Tree_val<std::_Tmap_traits<std::basic_string<char,std::char_traits<char>,std::allocator<char> >,int,std::less<std::basic_string<char,std::char_traits<char>,std::allocator<char> > >,std::allocator<std::pair<std::basic_string<char,std::char_traits<char>,std::allocator<char> > const ,int> >,0> >::_Left
_TEXT	ENDS
PUBLIC	?_Parent@?$_Tree_val@V?$_Tmap_traits@V?$basic_string@DU?$char_traits@D@std@@V?$allocator@D@2@@std@@HU?$less@V?$basic_string@DU?$char_traits@D@std@@V?$allocator@D@2@@std@@@2@V?$allocator@U?$pair@$$CBV?$basic_string@DU?$char_traits@D@std@@V?$allocator@D@2@@std@@H@std@@@2@$0A@@std@@@std@@SAAAPAU_Node@?$_Tree_nod@V?$_Tmap_traits@V?$basic_string@DU?$char_traits@D@std@@V?$allocator@D@2@@std@@HU?$less@V?$basic_string@DU?$char_traits@D@std@@V?$allocator@D@2@@std@@@2@V?$allocator@U?$pair@$$CBV?$basic_string@DU?$char_traits@D@std@@V?$allocator@D@2@@std@@H@std@@@2@$0A@@std@@@2@PAU342@@Z ; std::_Tree_val<std::_Tmap_traits<std::basic_string<char,std::char_traits<char>,std::allocator<char> >,int,std::less<std::basic_string<char,std::char_traits<char>,std::allocator<char> > >,std::allocator<std::pair<std::basic_string<char,std::char_traits<char>,std::allocator<char> > const ,int> >,0> >::_Parent
; Function compile flags: /Ogtp
;	COMDAT ?_Parent@?$_Tree_val@V?$_Tmap_traits@V?$basic_string@DU?$char_traits@D@std@@V?$allocator@D@2@@std@@HU?$less@V?$basic_string@DU?$char_traits@D@std@@V?$allocator@D@2@@std@@@2@V?$allocator@U?$pair@$$CBV?$basic_string@DU?$char_traits@D@std@@V?$allocator@D@2@@std@@H@std@@@2@$0A@@std@@@std@@SAAAPAU_Node@?$_Tree_nod@V?$_Tmap_traits@V?$basic_string@DU?$char_traits@D@std@@V?$allocator@D@2@@std@@HU?$less@V?$basic_string@DU?$char_traits@D@std@@V?$allocator@D@2@@std@@@2@V?$allocator@U?$pair@$$CBV?$basic_string@DU?$char_traits@D@std@@V?$allocator@D@2@@std@@H@std@@@2@$0A@@std@@@2@PAU342@@Z
_TEXT	SEGMENT
__Pnode$ = 8						; size = 4
?_Parent@?$_Tree_val@V?$_Tmap_traits@V?$basic_string@DU?$char_traits@D@std@@V?$allocator@D@2@@std@@HU?$less@V?$basic_string@DU?$char_traits@D@std@@V?$allocator@D@2@@std@@@2@V?$allocator@U?$pair@$$CBV?$basic_string@DU?$char_traits@D@std@@V?$allocator@D@2@@std@@H@std@@@2@$0A@@std@@@std@@SAAAPAU_Node@?$_Tree_nod@V?$_Tmap_traits@V?$basic_string@DU?$char_traits@D@std@@V?$allocator@D@2@@std@@HU?$less@V?$basic_string@DU?$char_traits@D@std@@V?$allocator@D@2@@std@@@2@V?$allocator@U?$pair@$$CBV?$basic_string@DU?$char_traits@D@std@@V?$allocator@D@2@@std@@H@std@@@2@$0A@@std@@@2@PAU342@@Z PROC ; std::_Tree_val<std::_Tmap_traits<std::basic_string<char,std::char_traits<char>,std::allocator<char> >,int,std::less<std::basic_string<char,std::char_traits<char>,std::allocator<char> > >,std::allocator<std::pair<std::basic_string<char,std::char_traits<char>,std::allocator<char> > const ,int> >,0> >::_Parent, COMDAT
; Line 626
	push	ebp
	mov	ebp, esp
; Line 627
	mov	eax, DWORD PTR __Pnode$[ebp]
	add	eax, 4
; Line 628
	pop	ebp
	ret	0
?_Parent@?$_Tree_val@V?$_Tmap_traits@V?$basic_string@DU?$char_traits@D@std@@V?$allocator@D@2@@std@@HU?$less@V?$basic_string@DU?$char_traits@D@std@@V?$allocator@D@2@@std@@@2@V?$allocator@U?$pair@$$CBV?$basic_string@DU?$char_traits@D@std@@V?$allocator@D@2@@std@@H@std@@@2@$0A@@std@@@std@@SAAAPAU_Node@?$_Tree_nod@V?$_Tmap_traits@V?$basic_string@DU?$char_traits@D@std@@V?$allocator@D@2@@std@@HU?$less@V?$basic_string@DU?$char_traits@D@std@@V?$allocator@D@2@@std@@@2@V?$allocator@U?$pair@$$CBV?$basic_string@DU?$char_traits@D@std@@V?$allocator@D@2@@std@@H@std@@@2@$0A@@std@@@2@PAU342@@Z ENDP ; std::_Tree_val<std::_Tmap_traits<std::basic_string<char,std::char_traits<char>,std::allocator<char> >,int,std::less<std::basic_string<char,std::char_traits<char>,std::allocator<char> > >,std::allocator<std::pair<std::basic_string<char,std::char_traits<char>,std::allocator<char> > const ,int> >,0> >::_Parent
_TEXT	ENDS
PUBLIC	?_Right@?$_Tree_val@V?$_Tmap_traits@V?$basic_string@DU?$char_traits@D@std@@V?$allocator@D@2@@std@@HU?$less@V?$basic_string@DU?$char_traits@D@std@@V?$allocator@D@2@@std@@@2@V?$allocator@U?$pair@$$CBV?$basic_string@DU?$char_traits@D@std@@V?$allocator@D@2@@std@@H@std@@@2@$0A@@std@@@std@@SAAAPAU_Node@?$_Tree_nod@V?$_Tmap_traits@V?$basic_string@DU?$char_traits@D@std@@V?$allocator@D@2@@std@@HU?$less@V?$basic_string@DU?$char_traits@D@std@@V?$allocator@D@2@@std@@@2@V?$allocator@U?$pair@$$CBV?$basic_string@DU?$char_traits@D@std@@V?$allocator@D@2@@std@@H@std@@@2@$0A@@std@@@2@PAU342@@Z ; std::_Tree_val<std::_Tmap_traits<std::basic_string<char,std::char_traits<char>,std::allocator<char> >,int,std::less<std::basic_string<char,std::char_traits<char>,std::allocator<char> > >,std::allocator<std::pair<std::basic_string<char,std::char_traits<char>,std::allocator<char> > const ,int> >,0> >::_Right
; Function compile flags: /Ogtp
;	COMDAT ?_Right@?$_Tree_val@V?$_Tmap_traits@V?$basic_string@DU?$char_traits@D@std@@V?$allocator@D@2@@std@@HU?$less@V?$basic_string@DU?$char_traits@D@std@@V?$allocator@D@2@@std@@@2@V?$allocator@U?$pair@$$CBV?$basic_string@DU?$char_traits@D@std@@V?$allocator@D@2@@std@@H@std@@@2@$0A@@std@@@std@@SAAAPAU_Node@?$_Tree_nod@V?$_Tmap_traits@V?$basic_string@DU?$char_traits@D@std@@V?$allocator@D@2@@std@@HU?$less@V?$basic_string@DU?$char_traits@D@std@@V?$allocator@D@2@@std@@@2@V?$allocator@U?$pair@$$CBV?$basic_string@DU?$char_traits@D@std@@V?$allocator@D@2@@std@@H@std@@@2@$0A@@std@@@2@PAU342@@Z
_TEXT	SEGMENT
__Pnode$ = 8						; size = 4
?_Right@?$_Tree_val@V?$_Tmap_traits@V?$basic_string@DU?$char_traits@D@std@@V?$allocator@D@2@@std@@HU?$less@V?$basic_string@DU?$char_traits@D@std@@V?$allocator@D@2@@std@@@2@V?$allocator@U?$pair@$$CBV?$basic_string@DU?$char_traits@D@std@@V?$allocator@D@2@@std@@H@std@@@2@$0A@@std@@@std@@SAAAPAU_Node@?$_Tree_nod@V?$_Tmap_traits@V?$basic_string@DU?$char_traits@D@std@@V?$allocator@D@2@@std@@HU?$less@V?$basic_string@DU?$char_traits@D@std@@V?$allocator@D@2@@std@@@2@V?$allocator@U?$pair@$$CBV?$basic_string@DU?$char_traits@D@std@@V?$allocator@D@2@@std@@H@std@@@2@$0A@@std@@@2@PAU342@@Z PROC ; std::_Tree_val<std::_Tmap_traits<std::basic_string<char,std::char_traits<char>,std::allocator<char> >,int,std::less<std::basic_string<char,std::char_traits<char>,std::allocator<char> > >,std::allocator<std::pair<std::basic_string<char,std::char_traits<char>,std::allocator<char> > const ,int> >,0> >::_Right, COMDAT
; Line 631
	push	ebp
	mov	ebp, esp
; Line 632
	mov	eax, DWORD PTR __Pnode$[ebp]
	add	eax, 8
; Line 633
	pop	ebp
	ret	0
?_Right@?$_Tree_val@V?$_Tmap_traits@V?$basic_string@DU?$char_traits@D@std@@V?$allocator@D@2@@std@@HU?$less@V?$basic_string@DU?$char_traits@D@std@@V?$allocator@D@2@@std@@@2@V?$allocator@U?$pair@$$CBV?$basic_string@DU?$char_traits@D@std@@V?$allocator@D@2@@std@@H@std@@@2@$0A@@std@@@std@@SAAAPAU_Node@?$_Tree_nod@V?$_Tmap_traits@V?$basic_string@DU?$char_traits@D@std@@V?$allocator@D@2@@std@@HU?$less@V?$basic_string@DU?$char_traits@D@std@@V?$allocator@D@2@@std@@@2@V?$allocator@U?$pair@$$CBV?$basic_string@DU?$char_traits@D@std@@V?$allocator@D@2@@std@@H@std@@@2@$0A@@std@@@2@PAU342@@Z ENDP ; std::_Tree_val<std::_Tmap_traits<std::basic_string<char,std::char_traits<char>,std::allocator<char> >,int,std::less<std::basic_string<char,std::char_traits<char>,std::allocator<char> > >,std::allocator<std::pair<std::basic_string<char,std::char_traits<char>,std::allocator<char> > const ,int> >,0> >::_Right
_TEXT	ENDS
PUBLIC	?_Myval@?$_Tree_val@V?$_Tmap_traits@V?$basic_string@DU?$char_traits@D@std@@V?$allocator@D@2@@std@@HU?$less@V?$basic_string@DU?$char_traits@D@std@@V?$allocator@D@2@@std@@@2@V?$allocator@U?$pair@$$CBV?$basic_string@DU?$char_traits@D@std@@V?$allocator@D@2@@std@@H@std@@@2@$0A@@std@@@std@@SAAAU?$pair@$$CBV?$basic_string@DU?$char_traits@D@std@@V?$allocator@D@2@@std@@H@2@PAU_Node@?$_Tree_nod@V?$_Tmap_traits@V?$basic_string@DU?$char_traits@D@std@@V?$allocator@D@2@@std@@HU?$less@V?$basic_string@DU?$char_traits@D@std@@V?$allocator@D@2@@std@@@2@V?$allocator@U?$pair@$$CBV?$basic_string@DU?$char_traits@D@std@@V?$allocator@D@2@@std@@H@std@@@2@$0A@@std@@@2@@Z ; std::_Tree_val<std::_Tmap_traits<std::basic_string<char,std::char_traits<char>,std::allocator<char> >,int,std::less<std::basic_string<char,std::char_traits<char>,std::allocator<char> > >,std::allocator<std::pair<std::basic_string<char,std::char_traits<char>,std::allocator<char> > const ,int> >,0> >::_Myval
; Function compile flags: /Ogtp
;	COMDAT ?_Myval@?$_Tree_val@V?$_Tmap_traits@V?$basic_string@DU?$char_traits@D@std@@V?$allocator@D@2@@std@@HU?$less@V?$basic_string@DU?$char_traits@D@std@@V?$allocator@D@2@@std@@@2@V?$allocator@U?$pair@$$CBV?$basic_string@DU?$char_traits@D@std@@V?$allocator@D@2@@std@@H@std@@@2@$0A@@std@@@std@@SAAAU?$pair@$$CBV?$basic_string@DU?$char_traits@D@std@@V?$allocator@D@2@@std@@H@2@PAU_Node@?$_Tree_nod@V?$_Tmap_traits@V?$basic_string@DU?$char_traits@D@std@@V?$allocator@D@2@@std@@HU?$less@V?$basic_string@DU?$char_traits@D@std@@V?$allocator@D@2@@std@@@2@V?$allocator@U?$pair@$$CBV?$basic_string@DU?$char_traits@D@std@@V?$allocator@D@2@@std@@H@std@@@2@$0A@@std@@@2@@Z
_TEXT	SEGMENT
__Pnode$ = 8						; size = 4
?_Myval@?$_Tree_val@V?$_Tmap_traits@V?$basic_string@DU?$char_traits@D@std@@V?$allocator@D@2@@std@@HU?$less@V?$basic_string@DU?$char_traits@D@std@@V?$allocator@D@2@@std@@@2@V?$allocator@U?$pair@$$CBV?$basic_string@DU?$char_traits@D@std@@V?$allocator@D@2@@std@@H@std@@@2@$0A@@std@@@std@@SAAAU?$pair@$$CBV?$basic_string@DU?$char_traits@D@std@@V?$allocator@D@2@@std@@H@2@PAU_Node@?$_Tree_nod@V?$_Tmap_traits@V?$basic_string@DU?$char_traits@D@std@@V?$allocator@D@2@@std@@HU?$less@V?$basic_string@DU?$char_traits@D@std@@V?$allocator@D@2@@std@@@2@V?$allocator@U?$pair@$$CBV?$basic_string@DU?$char_traits@D@std@@V?$allocator@D@2@@std@@H@std@@@2@$0A@@std@@@2@@Z PROC ; std::_Tree_val<std::_Tmap_traits<std::basic_string<char,std::char_traits<char>,std::allocator<char> >,int,std::less<std::basic_string<char,std::char_traits<char>,std::allocator<char> > >,std::allocator<std::pair<std::basic_string<char,std::char_traits<char>,std::allocator<char> > const ,int> >,0> >::_Myval, COMDAT
; Line 636
	push	ebp
	mov	ebp, esp
; Line 637
	mov	eax, DWORD PTR __Pnode$[ebp]
	add	eax, 12					; 0000000cH
; Line 638
	pop	ebp
	ret	0
?_Myval@?$_Tree_val@V?$_Tmap_traits@V?$basic_string@DU?$char_traits@D@std@@V?$allocator@D@2@@std@@HU?$less@V?$basic_string@DU?$char_traits@D@std@@V?$allocator@D@2@@std@@@2@V?$allocator@U?$pair@$$CBV?$basic_string@DU?$char_traits@D@std@@V?$allocator@D@2@@std@@H@std@@@2@$0A@@std@@@std@@SAAAU?$pair@$$CBV?$basic_string@DU?$char_traits@D@std@@V?$allocator@D@2@@std@@H@2@PAU_Node@?$_Tree_nod@V?$_Tmap_traits@V?$basic_string@DU?$char_traits@D@std@@V?$allocator@D@2@@std@@HU?$less@V?$basic_string@DU?$char_traits@D@std@@V?$allocator@D@2@@std@@@2@V?$allocator@U?$pair@$$CBV?$basic_string@DU?$char_traits@D@std@@V?$allocator@D@2@@std@@H@std@@@2@$0A@@std@@@2@@Z ENDP ; std::_Tree_val<std::_Tmap_traits<std::basic_string<char,std::char_traits<char>,std::allocator<char> >,int,std::less<std::basic_string<char,std::char_traits<char>,std::allocator<char> > >,std::allocator<std::pair<std::basic_string<char,std::char_traits<char>,std::allocator<char> > const ,int> >,0> >::_Myval
_TEXT	ENDS
PUBLIC	?_Max@?$_Tree_val@V?$_Tmap_traits@V?$basic_string@DU?$char_traits@D@std@@V?$allocator@D@2@@std@@HU?$less@V?$basic_string@DU?$char_traits@D@std@@V?$allocator@D@2@@std@@@2@V?$allocator@U?$pair@$$CBV?$basic_string@DU?$char_traits@D@std@@V?$allocator@D@2@@std@@H@std@@@2@$0A@@std@@@std@@SAPAU_Node@?$_Tree_nod@V?$_Tmap_traits@V?$basic_string@DU?$char_traits@D@std@@V?$allocator@D@2@@std@@HU?$less@V?$basic_string@DU?$char_traits@D@std@@V?$allocator@D@2@@std@@@2@V?$allocator@U?$pair@$$CBV?$basic_string@DU?$char_traits@D@std@@V?$allocator@D@2@@std@@H@std@@@2@$0A@@std@@@2@PAU342@@Z ; std::_Tree_val<std::_Tmap_traits<std::basic_string<char,std::char_traits<char>,std::allocator<char> >,int,std::less<std::basic_string<char,std::char_traits<char>,std::allocator<char> > >,std::allocator<std::pair<std::basic_string<char,std::char_traits<char>,std::allocator<char> > const ,int> >,0> >::_Max
; Function compile flags: /Ogtp
;	COMDAT ?_Max@?$_Tree_val@V?$_Tmap_traits@V?$basic_string@DU?$char_traits@D@std@@V?$allocator@D@2@@std@@HU?$less@V?$basic_string@DU?$char_traits@D@std@@V?$allocator@D@2@@std@@@2@V?$allocator@U?$pair@$$CBV?$basic_string@DU?$char_traits@D@std@@V?$allocator@D@2@@std@@H@std@@@2@$0A@@std@@@std@@SAPAU_Node@?$_Tree_nod@V?$_Tmap_traits@V?$basic_string@DU?$char_traits@D@std@@V?$allocator@D@2@@std@@HU?$less@V?$basic_string@DU?$char_traits@D@std@@V?$allocator@D@2@@std@@@2@V?$allocator@U?$pair@$$CBV?$basic_string@DU?$char_traits@D@std@@V?$allocator@D@2@@std@@H@std@@@2@$0A@@std@@@2@PAU342@@Z
_TEXT	SEGMENT
__Pnode$ = 8						; size = 4
?_Max@?$_Tree_val@V?$_Tmap_traits@V?$basic_string@DU?$char_traits@D@std@@V?$allocator@D@2@@std@@HU?$less@V?$basic_string@DU?$char_traits@D@std@@V?$allocator@D@2@@std@@@2@V?$allocator@U?$pair@$$CBV?$basic_string@DU?$char_traits@D@std@@V?$allocator@D@2@@std@@H@std@@@2@$0A@@std@@@std@@SAPAU_Node@?$_Tree_nod@V?$_Tmap_traits@V?$basic_string@DU?$char_traits@D@std@@V?$allocator@D@2@@std@@HU?$less@V?$basic_string@DU?$char_traits@D@std@@V?$allocator@D@2@@std@@@2@V?$allocator@U?$pair@$$CBV?$basic_string@DU?$char_traits@D@std@@V?$allocator@D@2@@std@@H@std@@@2@$0A@@std@@@2@PAU342@@Z PROC ; std::_Tree_val<std::_Tmap_traits<std::basic_string<char,std::char_traits<char>,std::allocator<char> >,int,std::less<std::basic_string<char,std::char_traits<char>,std::allocator<char> > >,std::allocator<std::pair<std::basic_string<char,std::char_traits<char>,std::allocator<char> > const ,int> >,0> >::_Max, COMDAT
; Line 641
	push	ebp
	mov	ebp, esp
; Line 642
	mov	eax, DWORD PTR __Pnode$[ebp]
	mov	ecx, DWORD PTR [eax+8]
	cmp	BYTE PTR [ecx+45], 0
	jne	SHORT $LN1@Max@2
	npad	1
$LL2@Max@2:
; Line 643
	mov	eax, ecx
	mov	ecx, DWORD PTR [eax+8]
	cmp	BYTE PTR [ecx+45], 0
	je	SHORT $LL2@Max@2
$LN1@Max@2:
; Line 645
	pop	ebp
	ret	0
?_Max@?$_Tree_val@V?$_Tmap_traits@V?$basic_string@DU?$char_traits@D@std@@V?$allocator@D@2@@std@@HU?$less@V?$basic_string@DU?$char_traits@D@std@@V?$allocator@D@2@@std@@@2@V?$allocator@U?$pair@$$CBV?$basic_string@DU?$char_traits@D@std@@V?$allocator@D@2@@std@@H@std@@@2@$0A@@std@@@std@@SAPAU_Node@?$_Tree_nod@V?$_Tmap_traits@V?$basic_string@DU?$char_traits@D@std@@V?$allocator@D@2@@std@@HU?$less@V?$basic_string@DU?$char_traits@D@std@@V?$allocator@D@2@@std@@@2@V?$allocator@U?$pair@$$CBV?$basic_string@DU?$char_traits@D@std@@V?$allocator@D@2@@std@@H@std@@@2@$0A@@std@@@2@PAU342@@Z ENDP ; std::_Tree_val<std::_Tmap_traits<std::basic_string<char,std::char_traits<char>,std::allocator<char> >,int,std::less<std::basic_string<char,std::char_traits<char>,std::allocator<char> > >,std::allocator<std::pair<std::basic_string<char,std::char_traits<char>,std::allocator<char> > const ,int> >,0> >::_Max
_TEXT	ENDS
PUBLIC	?_Min@?$_Tree_val@V?$_Tmap_traits@V?$basic_string@DU?$char_traits@D@std@@V?$allocator@D@2@@std@@HU?$less@V?$basic_string@DU?$char_traits@D@std@@V?$allocator@D@2@@std@@@2@V?$allocator@U?$pair@$$CBV?$basic_string@DU?$char_traits@D@std@@V?$allocator@D@2@@std@@H@std@@@2@$0A@@std@@@std@@SAPAU_Node@?$_Tree_nod@V?$_Tmap_traits@V?$basic_string@DU?$char_traits@D@std@@V?$allocator@D@2@@std@@HU?$less@V?$basic_string@DU?$char_traits@D@std@@V?$allocator@D@2@@std@@@2@V?$allocator@U?$pair@$$CBV?$basic_string@DU?$char_traits@D@std@@V?$allocator@D@2@@std@@H@std@@@2@$0A@@std@@@2@PAU342@@Z ; std::_Tree_val<std::_Tmap_traits<std::basic_string<char,std::char_traits<char>,std::allocator<char> >,int,std::less<std::basic_string<char,std::char_traits<char>,std::allocator<char> > >,std::allocator<std::pair<std::basic_string<char,std::char_traits<char>,std::allocator<char> > const ,int> >,0> >::_Min
; Function compile flags: /Ogtp
;	COMDAT ?_Min@?$_Tree_val@V?$_Tmap_traits@V?$basic_string@DU?$char_traits@D@std@@V?$allocator@D@2@@std@@HU?$less@V?$basic_string@DU?$char_traits@D@std@@V?$allocator@D@2@@std@@@2@V?$allocator@U?$pair@$$CBV?$basic_string@DU?$char_traits@D@std@@V?$allocator@D@2@@std@@H@std@@@2@$0A@@std@@@std@@SAPAU_Node@?$_Tree_nod@V?$_Tmap_traits@V?$basic_string@DU?$char_traits@D@std@@V?$allocator@D@2@@std@@HU?$less@V?$basic_string@DU?$char_traits@D@std@@V?$allocator@D@2@@std@@@2@V?$allocator@U?$pair@$$CBV?$basic_string@DU?$char_traits@D@std@@V?$allocator@D@2@@std@@H@std@@@2@$0A@@std@@@2@PAU342@@Z
_TEXT	SEGMENT
__Pnode$ = 8						; size = 4
?_Min@?$_Tree_val@V?$_Tmap_traits@V?$basic_string@DU?$char_traits@D@std@@V?$allocator@D@2@@std@@HU?$less@V?$basic_string@DU?$char_traits@D@std@@V?$allocator@D@2@@std@@@2@V?$allocator@U?$pair@$$CBV?$basic_string@DU?$char_traits@D@std@@V?$allocator@D@2@@std@@H@std@@@2@$0A@@std@@@std@@SAPAU_Node@?$_Tree_nod@V?$_Tmap_traits@V?$basic_string@DU?$char_traits@D@std@@V?$allocator@D@2@@std@@HU?$less@V?$basic_string@DU?$char_traits@D@std@@V?$allocator@D@2@@std@@@2@V?$allocator@U?$pair@$$CBV?$basic_string@DU?$char_traits@D@std@@V?$allocator@D@2@@std@@H@std@@@2@$0A@@std@@@2@PAU342@@Z PROC ; std::_Tree_val<std::_Tmap_traits<std::basic_string<char,std::char_traits<char>,std::allocator<char> >,int,std::less<std::basic_string<char,std::char_traits<char>,std::allocator<char> > >,std::allocator<std::pair<std::basic_string<char,std::char_traits<char>,std::allocator<char> > const ,int> >,0> >::_Min, COMDAT
; Line 648
	push	ebp
	mov	ebp, esp
; Line 649
	mov	eax, DWORD PTR __Pnode$[ebp]
	mov	ecx, DWORD PTR [eax]
	cmp	BYTE PTR [ecx+45], 0
	jne	SHORT $LN1@Min@2
	npad	2
$LL2@Min@2:
; Line 650
	mov	eax, ecx
	mov	ecx, DWORD PTR [eax]
	cmp	BYTE PTR [ecx+45], 0
	je	SHORT $LL2@Min@2
$LN1@Min@2:
; Line 652
	pop	ebp
	ret	0
?_Min@?$_Tree_val@V?$_Tmap_traits@V?$basic_string@DU?$char_traits@D@std@@V?$allocator@D@2@@std@@HU?$less@V?$basic_string@DU?$char_traits@D@std@@V?$allocator@D@2@@std@@@2@V?$allocator@U?$pair@$$CBV?$basic_string@DU?$char_traits@D@std@@V?$allocator@D@2@@std@@H@std@@@2@$0A@@std@@@std@@SAPAU_Node@?$_Tree_nod@V?$_Tmap_traits@V?$basic_string@DU?$char_traits@D@std@@V?$allocator@D@2@@std@@HU?$less@V?$basic_string@DU?$char_traits@D@std@@V?$allocator@D@2@@std@@@2@V?$allocator@U?$pair@$$CBV?$basic_string@DU?$char_traits@D@std@@V?$allocator@D@2@@std@@H@std@@@2@$0A@@std@@@2@PAU342@@Z ENDP ; std::_Tree_val<std::_Tmap_traits<std::basic_string<char,std::char_traits<char>,std::allocator<char> >,int,std::less<std::basic_string<char,std::char_traits<char>,std::allocator<char> > >,std::allocator<std::pair<std::basic_string<char,std::char_traits<char>,std::allocator<char> > const ,int> >,0> >::_Min
_TEXT	ENDS
PUBLIC	?deallocate@?$allocator@U_Node@?$_Tree_nod@V?$_Tmap_traits@V?$basic_string@DU?$char_traits@D@std@@V?$allocator@D@2@@std@@HU?$less@V?$basic_string@DU?$char_traits@D@std@@V?$allocator@D@2@@std@@@2@V?$allocator@U?$pair@$$CBV?$basic_string@DU?$char_traits@D@std@@V?$allocator@D@2@@std@@H@std@@@2@$0A@@std@@@std@@@std@@QAEXPAU_Node@?$_Tree_nod@V?$_Tmap_traits@V?$basic_string@DU?$char_traits@D@std@@V?$allocator@D@2@@std@@HU?$less@V?$basic_string@DU?$char_traits@D@std@@V?$allocator@D@2@@std@@@2@V?$allocator@U?$pair@$$CBV?$basic_string@DU?$char_traits@D@std@@V?$allocator@D@2@@std@@H@std@@@2@$0A@@std@@@2@I@Z ; std::allocator<std::_Tree_nod<std::_Tmap_traits<std::basic_string<char,std::char_traits<char>,std::allocator<char> >,int,std::less<std::basic_string<char,std::char_traits<char>,std::allocator<char> > >,std::allocator<std::pair<std::basic_string<char,std::char_traits<char>,std::allocator<char> > const ,int> >,0> >::_Node>::deallocate
; Function compile flags: /Ogtp
;	COMDAT ?deallocate@?$allocator@U_Node@?$_Tree_nod@V?$_Tmap_traits@V?$basic_string@DU?$char_traits@D@std@@V?$allocator@D@2@@std@@HU?$less@V?$basic_string@DU?$char_traits@D@std@@V?$allocator@D@2@@std@@@2@V?$allocator@U?$pair@$$CBV?$basic_string@DU?$char_traits@D@std@@V?$allocator@D@2@@std@@H@std@@@2@$0A@@std@@@std@@@std@@QAEXPAU_Node@?$_Tree_nod@V?$_Tmap_traits@V?$basic_string@DU?$char_traits@D@std@@V?$allocator@D@2@@std@@HU?$less@V?$basic_string@DU?$char_traits@D@std@@V?$allocator@D@2@@std@@@2@V?$allocator@U?$pair@$$CBV?$basic_string@DU?$char_traits@D@std@@V?$allocator@D@2@@std@@H@std@@@2@$0A@@std@@@2@I@Z
_TEXT	SEGMENT
__Ptr$ = 8						; size = 4
___formal$ = 12						; size = 4
?deallocate@?$allocator@U_Node@?$_Tree_nod@V?$_Tmap_traits@V?$basic_string@DU?$char_traits@D@std@@V?$allocator@D@2@@std@@HU?$less@V?$basic_string@DU?$char_traits@D@std@@V?$allocator@D@2@@std@@@2@V?$allocator@U?$pair@$$CBV?$basic_string@DU?$char_traits@D@std@@V?$allocator@D@2@@std@@H@std@@@2@$0A@@std@@@std@@@std@@QAEXPAU_Node@?$_Tree_nod@V?$_Tmap_traits@V?$basic_string@DU?$char_traits@D@std@@V?$allocator@D@2@@std@@HU?$less@V?$basic_string@DU?$char_traits@D@std@@V?$allocator@D@2@@std@@@2@V?$allocator@U?$pair@$$CBV?$basic_string@DU?$char_traits@D@std@@V?$allocator@D@2@@std@@H@std@@@2@$0A@@std@@@2@I@Z PROC ; std::allocator<std::_Tree_nod<std::_Tmap_traits<std::basic_string<char,std::char_traits<char>,std::allocator<char> >,int,std::less<std::basic_string<char,std::char_traits<char>,std::allocator<char> > >,std::allocator<std::pair<std::basic_string<char,std::char_traits<char>,std::allocator<char> > const ,int> >,0> >::_Node>::deallocate, COMDAT
; _this$ = ecx
; File c:\program files (x86)\microsoft visual studio 10.0\vc\include\xmemory
; Line 181
	push	ebp
	mov	ebp, esp
; Line 182
	mov	eax, DWORD PTR __Ptr$[ebp]
	push	eax
	call	??3@YAXPAX@Z				; operator delete
	add	esp, 4
; Line 183
	pop	ebp
	ret	8
?deallocate@?$allocator@U_Node@?$_Tree_nod@V?$_Tmap_traits@V?$basic_string@DU?$char_traits@D@std@@V?$allocator@D@2@@std@@HU?$less@V?$basic_string@DU?$char_traits@D@std@@V?$allocator@D@2@@std@@@2@V?$allocator@U?$pair@$$CBV?$basic_string@DU?$char_traits@D@std@@V?$allocator@D@2@@std@@H@std@@@2@$0A@@std@@@std@@@std@@QAEXPAU_Node@?$_Tree_nod@V?$_Tmap_traits@V?$basic_string@DU?$char_traits@D@std@@V?$allocator@D@2@@std@@HU?$less@V?$basic_string@DU?$char_traits@D@std@@V?$allocator@D@2@@std@@@2@V?$allocator@U?$pair@$$CBV?$basic_string@DU?$char_traits@D@std@@V?$allocator@D@2@@std@@H@std@@@2@$0A@@std@@@2@I@Z ENDP ; std::allocator<std::_Tree_nod<std::_Tmap_traits<std::basic_string<char,std::char_traits<char>,std::allocator<char> >,int,std::less<std::basic_string<char,std::char_traits<char>,std::allocator<char> > >,std::allocator<std::pair<std::basic_string<char,std::char_traits<char>,std::allocator<char> > const ,int> >,0> >::_Node>::deallocate
_TEXT	ENDS
PUBLIC	?_Color@?$_Tree_val@V?$_Tmap_traits@HPAVManagedItem@@U?$less@H@std@@V?$allocator@U?$pair@$$CBHPAVManagedItem@@@std@@@3@$0A@@std@@@std@@SAAADPAU_Node@?$_Tree_nod@V?$_Tmap_traits@HPAVManagedItem@@U?$less@H@std@@V?$allocator@U?$pair@$$CBHPAVManagedItem@@@std@@@3@$0A@@std@@@2@@Z ; std::_Tree_val<std::_Tmap_traits<int,ManagedItem *,std::less<int>,std::allocator<std::pair<int const ,ManagedItem *> >,0> >::_Color
; Function compile flags: /Ogtp
;	COMDAT ?_Color@?$_Tree_val@V?$_Tmap_traits@HPAVManagedItem@@U?$less@H@std@@V?$allocator@U?$pair@$$CBHPAVManagedItem@@@std@@@3@$0A@@std@@@std@@SAAADPAU_Node@?$_Tree_nod@V?$_Tmap_traits@HPAVManagedItem@@U?$less@H@std@@V?$allocator@U?$pair@$$CBHPAVManagedItem@@@std@@@3@$0A@@std@@@2@@Z
_TEXT	SEGMENT
__Pnode$ = 8						; size = 4
?_Color@?$_Tree_val@V?$_Tmap_traits@HPAVManagedItem@@U?$less@H@std@@V?$allocator@U?$pair@$$CBHPAVManagedItem@@@std@@@3@$0A@@std@@@std@@SAAADPAU_Node@?$_Tree_nod@V?$_Tmap_traits@HPAVManagedItem@@U?$less@H@std@@V?$allocator@U?$pair@$$CBHPAVManagedItem@@@std@@@3@$0A@@std@@@2@@Z PROC ; std::_Tree_val<std::_Tmap_traits<int,ManagedItem *,std::less<int>,std::allocator<std::pair<int const ,ManagedItem *> >,0> >::_Color, COMDAT
; File c:\program files (x86)\microsoft visual studio 10.0\vc\include\xtree
; Line 606
	push	ebp
	mov	ebp, esp
; Line 607
	mov	eax, DWORD PTR __Pnode$[ebp]
	add	eax, 20					; 00000014H
; Line 608
	pop	ebp
	ret	0
?_Color@?$_Tree_val@V?$_Tmap_traits@HPAVManagedItem@@U?$less@H@std@@V?$allocator@U?$pair@$$CBHPAVManagedItem@@@std@@@3@$0A@@std@@@std@@SAAADPAU_Node@?$_Tree_nod@V?$_Tmap_traits@HPAVManagedItem@@U?$less@H@std@@V?$allocator@U?$pair@$$CBHPAVManagedItem@@@std@@@3@$0A@@std@@@2@@Z ENDP ; std::_Tree_val<std::_Tmap_traits<int,ManagedItem *,std::less<int>,std::allocator<std::pair<int const ,ManagedItem *> >,0> >::_Color
_TEXT	ENDS
PUBLIC	?_Isnil@?$_Tree_val@V?$_Tmap_traits@HPAVManagedItem@@U?$less@H@std@@V?$allocator@U?$pair@$$CBHPAVManagedItem@@@std@@@3@$0A@@std@@@std@@SAAADPAU_Node@?$_Tree_nod@V?$_Tmap_traits@HPAVManagedItem@@U?$less@H@std@@V?$allocator@U?$pair@$$CBHPAVManagedItem@@@std@@@3@$0A@@std@@@2@@Z ; std::_Tree_val<std::_Tmap_traits<int,ManagedItem *,std::less<int>,std::allocator<std::pair<int const ,ManagedItem *> >,0> >::_Isnil
; Function compile flags: /Ogtp
;	COMDAT ?_Isnil@?$_Tree_val@V?$_Tmap_traits@HPAVManagedItem@@U?$less@H@std@@V?$allocator@U?$pair@$$CBHPAVManagedItem@@@std@@@3@$0A@@std@@@std@@SAAADPAU_Node@?$_Tree_nod@V?$_Tmap_traits@HPAVManagedItem@@U?$less@H@std@@V?$allocator@U?$pair@$$CBHPAVManagedItem@@@std@@@3@$0A@@std@@@2@@Z
_TEXT	SEGMENT
__Pnode$ = 8						; size = 4
?_Isnil@?$_Tree_val@V?$_Tmap_traits@HPAVManagedItem@@U?$less@H@std@@V?$allocator@U?$pair@$$CBHPAVManagedItem@@@std@@@3@$0A@@std@@@std@@SAAADPAU_Node@?$_Tree_nod@V?$_Tmap_traits@HPAVManagedItem@@U?$less@H@std@@V?$allocator@U?$pair@$$CBHPAVManagedItem@@@std@@@3@$0A@@std@@@2@@Z PROC ; std::_Tree_val<std::_Tmap_traits<int,ManagedItem *,std::less<int>,std::allocator<std::pair<int const ,ManagedItem *> >,0> >::_Isnil, COMDAT
; Line 611
	push	ebp
	mov	ebp, esp
; Line 612
	mov	eax, DWORD PTR __Pnode$[ebp]
	add	eax, 21					; 00000015H
; Line 613
	pop	ebp
	ret	0
?_Isnil@?$_Tree_val@V?$_Tmap_traits@HPAVManagedItem@@U?$less@H@std@@V?$allocator@U?$pair@$$CBHPAVManagedItem@@@std@@@3@$0A@@std@@@std@@SAAADPAU_Node@?$_Tree_nod@V?$_Tmap_traits@HPAVManagedItem@@U?$less@H@std@@V?$allocator@U?$pair@$$CBHPAVManagedItem@@@std@@@3@$0A@@std@@@2@@Z ENDP ; std::_Tree_val<std::_Tmap_traits<int,ManagedItem *,std::less<int>,std::allocator<std::pair<int const ,ManagedItem *> >,0> >::_Isnil
_TEXT	ENDS
PUBLIC	?_Left@?$_Tree_val@V?$_Tmap_traits@HPAVManagedItem@@U?$less@H@std@@V?$allocator@U?$pair@$$CBHPAVManagedItem@@@std@@@3@$0A@@std@@@std@@SAAAPAU_Node@?$_Tree_nod@V?$_Tmap_traits@HPAVManagedItem@@U?$less@H@std@@V?$allocator@U?$pair@$$CBHPAVManagedItem@@@std@@@3@$0A@@std@@@2@PAU342@@Z ; std::_Tree_val<std::_Tmap_traits<int,ManagedItem *,std::less<int>,std::allocator<std::pair<int const ,ManagedItem *> >,0> >::_Left
; Function compile flags: /Ogtp
;	COMDAT ?_Left@?$_Tree_val@V?$_Tmap_traits@HPAVManagedItem@@U?$less@H@std@@V?$allocator@U?$pair@$$CBHPAVManagedItem@@@std@@@3@$0A@@std@@@std@@SAAAPAU_Node@?$_Tree_nod@V?$_Tmap_traits@HPAVManagedItem@@U?$less@H@std@@V?$allocator@U?$pair@$$CBHPAVManagedItem@@@std@@@3@$0A@@std@@@2@PAU342@@Z
_TEXT	SEGMENT
__Pnode$ = 8						; size = 4
?_Left@?$_Tree_val@V?$_Tmap_traits@HPAVManagedItem@@U?$less@H@std@@V?$allocator@U?$pair@$$CBHPAVManagedItem@@@std@@@3@$0A@@std@@@std@@SAAAPAU_Node@?$_Tree_nod@V?$_Tmap_traits@HPAVManagedItem@@U?$less@H@std@@V?$allocator@U?$pair@$$CBHPAVManagedItem@@@std@@@3@$0A@@std@@@2@PAU342@@Z PROC ; std::_Tree_val<std::_Tmap_traits<int,ManagedItem *,std::less<int>,std::allocator<std::pair<int const ,ManagedItem *> >,0> >::_Left, COMDAT
; Line 621
	push	ebp
	mov	ebp, esp
; Line 622
	mov	eax, DWORD PTR __Pnode$[ebp]
; Line 623
	pop	ebp
	ret	0
?_Left@?$_Tree_val@V?$_Tmap_traits@HPAVManagedItem@@U?$less@H@std@@V?$allocator@U?$pair@$$CBHPAVManagedItem@@@std@@@3@$0A@@std@@@std@@SAAAPAU_Node@?$_Tree_nod@V?$_Tmap_traits@HPAVManagedItem@@U?$less@H@std@@V?$allocator@U?$pair@$$CBHPAVManagedItem@@@std@@@3@$0A@@std@@@2@PAU342@@Z ENDP ; std::_Tree_val<std::_Tmap_traits<int,ManagedItem *,std::less<int>,std::allocator<std::pair<int const ,ManagedItem *> >,0> >::_Left
_TEXT	ENDS
PUBLIC	?_Parent@?$_Tree_val@V?$_Tmap_traits@HPAVManagedItem@@U?$less@H@std@@V?$allocator@U?$pair@$$CBHPAVManagedItem@@@std@@@3@$0A@@std@@@std@@SAAAPAU_Node@?$_Tree_nod@V?$_Tmap_traits@HPAVManagedItem@@U?$less@H@std@@V?$allocator@U?$pair@$$CBHPAVManagedItem@@@std@@@3@$0A@@std@@@2@PAU342@@Z ; std::_Tree_val<std::_Tmap_traits<int,ManagedItem *,std::less<int>,std::allocator<std::pair<int const ,ManagedItem *> >,0> >::_Parent
; Function compile flags: /Ogtp
;	COMDAT ?_Parent@?$_Tree_val@V?$_Tmap_traits@HPAVManagedItem@@U?$less@H@std@@V?$allocator@U?$pair@$$CBHPAVManagedItem@@@std@@@3@$0A@@std@@@std@@SAAAPAU_Node@?$_Tree_nod@V?$_Tmap_traits@HPAVManagedItem@@U?$less@H@std@@V?$allocator@U?$pair@$$CBHPAVManagedItem@@@std@@@3@$0A@@std@@@2@PAU342@@Z
_TEXT	SEGMENT
__Pnode$ = 8						; size = 4
?_Parent@?$_Tree_val@V?$_Tmap_traits@HPAVManagedItem@@U?$less@H@std@@V?$allocator@U?$pair@$$CBHPAVManagedItem@@@std@@@3@$0A@@std@@@std@@SAAAPAU_Node@?$_Tree_nod@V?$_Tmap_traits@HPAVManagedItem@@U?$less@H@std@@V?$allocator@U?$pair@$$CBHPAVManagedItem@@@std@@@3@$0A@@std@@@2@PAU342@@Z PROC ; std::_Tree_val<std::_Tmap_traits<int,ManagedItem *,std::less<int>,std::allocator<std::pair<int const ,ManagedItem *> >,0> >::_Parent, COMDAT
; Line 626
	push	ebp
	mov	ebp, esp
; Line 627
	mov	eax, DWORD PTR __Pnode$[ebp]
	add	eax, 4
; Line 628
	pop	ebp
	ret	0
?_Parent@?$_Tree_val@V?$_Tmap_traits@HPAVManagedItem@@U?$less@H@std@@V?$allocator@U?$pair@$$CBHPAVManagedItem@@@std@@@3@$0A@@std@@@std@@SAAAPAU_Node@?$_Tree_nod@V?$_Tmap_traits@HPAVManagedItem@@U?$less@H@std@@V?$allocator@U?$pair@$$CBHPAVManagedItem@@@std@@@3@$0A@@std@@@2@PAU342@@Z ENDP ; std::_Tree_val<std::_Tmap_traits<int,ManagedItem *,std::less<int>,std::allocator<std::pair<int const ,ManagedItem *> >,0> >::_Parent
_TEXT	ENDS
PUBLIC	?_Right@?$_Tree_val@V?$_Tmap_traits@HPAVManagedItem@@U?$less@H@std@@V?$allocator@U?$pair@$$CBHPAVManagedItem@@@std@@@3@$0A@@std@@@std@@SAAAPAU_Node@?$_Tree_nod@V?$_Tmap_traits@HPAVManagedItem@@U?$less@H@std@@V?$allocator@U?$pair@$$CBHPAVManagedItem@@@std@@@3@$0A@@std@@@2@PAU342@@Z ; std::_Tree_val<std::_Tmap_traits<int,ManagedItem *,std::less<int>,std::allocator<std::pair<int const ,ManagedItem *> >,0> >::_Right
; Function compile flags: /Ogtp
;	COMDAT ?_Right@?$_Tree_val@V?$_Tmap_traits@HPAVManagedItem@@U?$less@H@std@@V?$allocator@U?$pair@$$CBHPAVManagedItem@@@std@@@3@$0A@@std@@@std@@SAAAPAU_Node@?$_Tree_nod@V?$_Tmap_traits@HPAVManagedItem@@U?$less@H@std@@V?$allocator@U?$pair@$$CBHPAVManagedItem@@@std@@@3@$0A@@std@@@2@PAU342@@Z
_TEXT	SEGMENT
__Pnode$ = 8						; size = 4
?_Right@?$_Tree_val@V?$_Tmap_traits@HPAVManagedItem@@U?$less@H@std@@V?$allocator@U?$pair@$$CBHPAVManagedItem@@@std@@@3@$0A@@std@@@std@@SAAAPAU_Node@?$_Tree_nod@V?$_Tmap_traits@HPAVManagedItem@@U?$less@H@std@@V?$allocator@U?$pair@$$CBHPAVManagedItem@@@std@@@3@$0A@@std@@@2@PAU342@@Z PROC ; std::_Tree_val<std::_Tmap_traits<int,ManagedItem *,std::less<int>,std::allocator<std::pair<int const ,ManagedItem *> >,0> >::_Right, COMDAT
; Line 631
	push	ebp
	mov	ebp, esp
; Line 632
	mov	eax, DWORD PTR __Pnode$[ebp]
	add	eax, 8
; Line 633
	pop	ebp
	ret	0
?_Right@?$_Tree_val@V?$_Tmap_traits@HPAVManagedItem@@U?$less@H@std@@V?$allocator@U?$pair@$$CBHPAVManagedItem@@@std@@@3@$0A@@std@@@std@@SAAAPAU_Node@?$_Tree_nod@V?$_Tmap_traits@HPAVManagedItem@@U?$less@H@std@@V?$allocator@U?$pair@$$CBHPAVManagedItem@@@std@@@3@$0A@@std@@@2@PAU342@@Z ENDP ; std::_Tree_val<std::_Tmap_traits<int,ManagedItem *,std::less<int>,std::allocator<std::pair<int const ,ManagedItem *> >,0> >::_Right
_TEXT	ENDS
PUBLIC	?_Myval@?$_Tree_val@V?$_Tmap_traits@HPAVManagedItem@@U?$less@H@std@@V?$allocator@U?$pair@$$CBHPAVManagedItem@@@std@@@3@$0A@@std@@@std@@SAAAU?$pair@$$CBHPAVManagedItem@@@2@PAU_Node@?$_Tree_nod@V?$_Tmap_traits@HPAVManagedItem@@U?$less@H@std@@V?$allocator@U?$pair@$$CBHPAVManagedItem@@@std@@@3@$0A@@std@@@2@@Z ; std::_Tree_val<std::_Tmap_traits<int,ManagedItem *,std::less<int>,std::allocator<std::pair<int const ,ManagedItem *> >,0> >::_Myval
; Function compile flags: /Ogtp
;	COMDAT ?_Myval@?$_Tree_val@V?$_Tmap_traits@HPAVManagedItem@@U?$less@H@std@@V?$allocator@U?$pair@$$CBHPAVManagedItem@@@std@@@3@$0A@@std@@@std@@SAAAU?$pair@$$CBHPAVManagedItem@@@2@PAU_Node@?$_Tree_nod@V?$_Tmap_traits@HPAVManagedItem@@U?$less@H@std@@V?$allocator@U?$pair@$$CBHPAVManagedItem@@@std@@@3@$0A@@std@@@2@@Z
_TEXT	SEGMENT
__Pnode$ = 8						; size = 4
?_Myval@?$_Tree_val@V?$_Tmap_traits@HPAVManagedItem@@U?$less@H@std@@V?$allocator@U?$pair@$$CBHPAVManagedItem@@@std@@@3@$0A@@std@@@std@@SAAAU?$pair@$$CBHPAVManagedItem@@@2@PAU_Node@?$_Tree_nod@V?$_Tmap_traits@HPAVManagedItem@@U?$less@H@std@@V?$allocator@U?$pair@$$CBHPAVManagedItem@@@std@@@3@$0A@@std@@@2@@Z PROC ; std::_Tree_val<std::_Tmap_traits<int,ManagedItem *,std::less<int>,std::allocator<std::pair<int const ,ManagedItem *> >,0> >::_Myval, COMDAT
; Line 636
	push	ebp
	mov	ebp, esp
; Line 637
	mov	eax, DWORD PTR __Pnode$[ebp]
	add	eax, 12					; 0000000cH
; Line 638
	pop	ebp
	ret	0
?_Myval@?$_Tree_val@V?$_Tmap_traits@HPAVManagedItem@@U?$less@H@std@@V?$allocator@U?$pair@$$CBHPAVManagedItem@@@std@@@3@$0A@@std@@@std@@SAAAU?$pair@$$CBHPAVManagedItem@@@2@PAU_Node@?$_Tree_nod@V?$_Tmap_traits@HPAVManagedItem@@U?$less@H@std@@V?$allocator@U?$pair@$$CBHPAVManagedItem@@@std@@@3@$0A@@std@@@2@@Z ENDP ; std::_Tree_val<std::_Tmap_traits<int,ManagedItem *,std::less<int>,std::allocator<std::pair<int const ,ManagedItem *> >,0> >::_Myval
_TEXT	ENDS
PUBLIC	?_Max@?$_Tree_val@V?$_Tmap_traits@HPAVManagedItem@@U?$less@H@std@@V?$allocator@U?$pair@$$CBHPAVManagedItem@@@std@@@3@$0A@@std@@@std@@SAPAU_Node@?$_Tree_nod@V?$_Tmap_traits@HPAVManagedItem@@U?$less@H@std@@V?$allocator@U?$pair@$$CBHPAVManagedItem@@@std@@@3@$0A@@std@@@2@PAU342@@Z ; std::_Tree_val<std::_Tmap_traits<int,ManagedItem *,std::less<int>,std::allocator<std::pair<int const ,ManagedItem *> >,0> >::_Max
; Function compile flags: /Ogtp
;	COMDAT ?_Max@?$_Tree_val@V?$_Tmap_traits@HPAVManagedItem@@U?$less@H@std@@V?$allocator@U?$pair@$$CBHPAVManagedItem@@@std@@@3@$0A@@std@@@std@@SAPAU_Node@?$_Tree_nod@V?$_Tmap_traits@HPAVManagedItem@@U?$less@H@std@@V?$allocator@U?$pair@$$CBHPAVManagedItem@@@std@@@3@$0A@@std@@@2@PAU342@@Z
_TEXT	SEGMENT
__Pnode$ = 8						; size = 4
?_Max@?$_Tree_val@V?$_Tmap_traits@HPAVManagedItem@@U?$less@H@std@@V?$allocator@U?$pair@$$CBHPAVManagedItem@@@std@@@3@$0A@@std@@@std@@SAPAU_Node@?$_Tree_nod@V?$_Tmap_traits@HPAVManagedItem@@U?$less@H@std@@V?$allocator@U?$pair@$$CBHPAVManagedItem@@@std@@@3@$0A@@std@@@2@PAU342@@Z PROC ; std::_Tree_val<std::_Tmap_traits<int,ManagedItem *,std::less<int>,std::allocator<std::pair<int const ,ManagedItem *> >,0> >::_Max, COMDAT
; Line 641
	push	ebp
	mov	ebp, esp
; Line 642
	mov	eax, DWORD PTR __Pnode$[ebp]
	mov	ecx, DWORD PTR [eax+8]
	cmp	BYTE PTR [ecx+21], 0
	jne	SHORT $LN1@Max@3
	npad	1
$LL2@Max@3:
; Line 643
	mov	eax, ecx
	mov	ecx, DWORD PTR [eax+8]
	cmp	BYTE PTR [ecx+21], 0
	je	SHORT $LL2@Max@3
$LN1@Max@3:
; Line 645
	pop	ebp
	ret	0
?_Max@?$_Tree_val@V?$_Tmap_traits@HPAVManagedItem@@U?$less@H@std@@V?$allocator@U?$pair@$$CBHPAVManagedItem@@@std@@@3@$0A@@std@@@std@@SAPAU_Node@?$_Tree_nod@V?$_Tmap_traits@HPAVManagedItem@@U?$less@H@std@@V?$allocator@U?$pair@$$CBHPAVManagedItem@@@std@@@3@$0A@@std@@@2@PAU342@@Z ENDP ; std::_Tree_val<std::_Tmap_traits<int,ManagedItem *,std::less<int>,std::allocator<std::pair<int const ,ManagedItem *> >,0> >::_Max
_TEXT	ENDS
PUBLIC	?_Min@?$_Tree_val@V?$_Tmap_traits@HPAVManagedItem@@U?$less@H@std@@V?$allocator@U?$pair@$$CBHPAVManagedItem@@@std@@@3@$0A@@std@@@std@@SAPAU_Node@?$_Tree_nod@V?$_Tmap_traits@HPAVManagedItem@@U?$less@H@std@@V?$allocator@U?$pair@$$CBHPAVManagedItem@@@std@@@3@$0A@@std@@@2@PAU342@@Z ; std::_Tree_val<std::_Tmap_traits<int,ManagedItem *,std::less<int>,std::allocator<std::pair<int const ,ManagedItem *> >,0> >::_Min
; Function compile flags: /Ogtp
;	COMDAT ?_Min@?$_Tree_val@V?$_Tmap_traits@HPAVManagedItem@@U?$less@H@std@@V?$allocator@U?$pair@$$CBHPAVManagedItem@@@std@@@3@$0A@@std@@@std@@SAPAU_Node@?$_Tree_nod@V?$_Tmap_traits@HPAVManagedItem@@U?$less@H@std@@V?$allocator@U?$pair@$$CBHPAVManagedItem@@@std@@@3@$0A@@std@@@2@PAU342@@Z
_TEXT	SEGMENT
__Pnode$ = 8						; size = 4
?_Min@?$_Tree_val@V?$_Tmap_traits@HPAVManagedItem@@U?$less@H@std@@V?$allocator@U?$pair@$$CBHPAVManagedItem@@@std@@@3@$0A@@std@@@std@@SAPAU_Node@?$_Tree_nod@V?$_Tmap_traits@HPAVManagedItem@@U?$less@H@std@@V?$allocator@U?$pair@$$CBHPAVManagedItem@@@std@@@3@$0A@@std@@@2@PAU342@@Z PROC ; std::_Tree_val<std::_Tmap_traits<int,ManagedItem *,std::less<int>,std::allocator<std::pair<int const ,ManagedItem *> >,0> >::_Min, COMDAT
; Line 648
	push	ebp
	mov	ebp, esp
; Line 649
	mov	eax, DWORD PTR __Pnode$[ebp]
	mov	ecx, DWORD PTR [eax]
	cmp	BYTE PTR [ecx+21], 0
	jne	SHORT $LN1@Min@3
	npad	2
$LL2@Min@3:
; Line 650
	mov	eax, ecx
	mov	ecx, DWORD PTR [eax]
	cmp	BYTE PTR [ecx+21], 0
	je	SHORT $LL2@Min@3
$LN1@Min@3:
; Line 652
	pop	ebp
	ret	0
?_Min@?$_Tree_val@V?$_Tmap_traits@HPAVManagedItem@@U?$less@H@std@@V?$allocator@U?$pair@$$CBHPAVManagedItem@@@std@@@3@$0A@@std@@@std@@SAPAU_Node@?$_Tree_nod@V?$_Tmap_traits@HPAVManagedItem@@U?$less@H@std@@V?$allocator@U?$pair@$$CBHPAVManagedItem@@@std@@@3@$0A@@std@@@2@PAU342@@Z ENDP ; std::_Tree_val<std::_Tmap_traits<int,ManagedItem *,std::less<int>,std::allocator<std::pair<int const ,ManagedItem *> >,0> >::_Min
_TEXT	ENDS
PUBLIC	?deallocate@?$allocator@U_Node@?$_Tree_nod@V?$_Tmap_traits@HPAVManagedItem@@U?$less@H@std@@V?$allocator@U?$pair@$$CBHPAVManagedItem@@@std@@@3@$0A@@std@@@std@@@std@@QAEXPAU_Node@?$_Tree_nod@V?$_Tmap_traits@HPAVManagedItem@@U?$less@H@std@@V?$allocator@U?$pair@$$CBHPAVManagedItem@@@std@@@3@$0A@@std@@@2@I@Z ; std::allocator<std::_Tree_nod<std::_Tmap_traits<int,ManagedItem *,std::less<int>,std::allocator<std::pair<int const ,ManagedItem *> >,0> >::_Node>::deallocate
; Function compile flags: /Ogtp
;	COMDAT ?deallocate@?$allocator@U_Node@?$_Tree_nod@V?$_Tmap_traits@HPAVManagedItem@@U?$less@H@std@@V?$allocator@U?$pair@$$CBHPAVManagedItem@@@std@@@3@$0A@@std@@@std@@@std@@QAEXPAU_Node@?$_Tree_nod@V?$_Tmap_traits@HPAVManagedItem@@U?$less@H@std@@V?$allocator@U?$pair@$$CBHPAVManagedItem@@@std@@@3@$0A@@std@@@2@I@Z
_TEXT	SEGMENT
__Ptr$ = 8						; size = 4
___formal$ = 12						; size = 4
?deallocate@?$allocator@U_Node@?$_Tree_nod@V?$_Tmap_traits@HPAVManagedItem@@U?$less@H@std@@V?$allocator@U?$pair@$$CBHPAVManagedItem@@@std@@@3@$0A@@std@@@std@@@std@@QAEXPAU_Node@?$_Tree_nod@V?$_Tmap_traits@HPAVManagedItem@@U?$less@H@std@@V?$allocator@U?$pair@$$CBHPAVManagedItem@@@std@@@3@$0A@@std@@@2@I@Z PROC ; std::allocator<std::_Tree_nod<std::_Tmap_traits<int,ManagedItem *,std::less<int>,std::allocator<std::pair<int const ,ManagedItem *> >,0> >::_Node>::deallocate, COMDAT
; _this$ = ecx
; File c:\program files (x86)\microsoft visual studio 10.0\vc\include\xmemory
; Line 181
	push	ebp
	mov	ebp, esp
; Line 182
	mov	eax, DWORD PTR __Ptr$[ebp]
	push	eax
	call	??3@YAXPAX@Z				; operator delete
	add	esp, 4
; Line 183
	pop	ebp
	ret	8
?deallocate@?$allocator@U_Node@?$_Tree_nod@V?$_Tmap_traits@HPAVManagedItem@@U?$less@H@std@@V?$allocator@U?$pair@$$CBHPAVManagedItem@@@std@@@3@$0A@@std@@@std@@@std@@QAEXPAU_Node@?$_Tree_nod@V?$_Tmap_traits@HPAVManagedItem@@U?$less@H@std@@V?$allocator@U?$pair@$$CBHPAVManagedItem@@@std@@@3@$0A@@std@@@2@I@Z ENDP ; std::allocator<std::_Tree_nod<std::_Tmap_traits<int,ManagedItem *,std::less<int>,std::allocator<std::pair<int const ,ManagedItem *> >,0> >::_Node>::deallocate
_TEXT	ENDS
PUBLIC	?_Color@?$_Tree_val@V?$_Tmap_traits@V?$basic_string@DU?$char_traits@D@std@@V?$allocator@D@2@@std@@IU?$less@V?$basic_string@DU?$char_traits@D@std@@V?$allocator@D@2@@std@@@2@V?$allocator@U?$pair@$$CBV?$basic_string@DU?$char_traits@D@std@@V?$allocator@D@2@@std@@I@std@@@2@$0A@@std@@@std@@SAAADPAU_Node@?$_Tree_nod@V?$_Tmap_traits@V?$basic_string@DU?$char_traits@D@std@@V?$allocator@D@2@@std@@IU?$less@V?$basic_string@DU?$char_traits@D@std@@V?$allocator@D@2@@std@@@2@V?$allocator@U?$pair@$$CBV?$basic_string@DU?$char_traits@D@std@@V?$allocator@D@2@@std@@I@std@@@2@$0A@@std@@@2@@Z ; std::_Tree_val<std::_Tmap_traits<std::basic_string<char,std::char_traits<char>,std::allocator<char> >,unsigned int,std::less<std::basic_string<char,std::char_traits<char>,std::allocator<char> > >,std::allocator<std::pair<std::basic_string<char,std::char_traits<char>,std::allocator<char> > const ,unsigned int> >,0> >::_Color
; Function compile flags: /Ogtp
;	COMDAT ?_Color@?$_Tree_val@V?$_Tmap_traits@V?$basic_string@DU?$char_traits@D@std@@V?$allocator@D@2@@std@@IU?$less@V?$basic_string@DU?$char_traits@D@std@@V?$allocator@D@2@@std@@@2@V?$allocator@U?$pair@$$CBV?$basic_string@DU?$char_traits@D@std@@V?$allocator@D@2@@std@@I@std@@@2@$0A@@std@@@std@@SAAADPAU_Node@?$_Tree_nod@V?$_Tmap_traits@V?$basic_string@DU?$char_traits@D@std@@V?$allocator@D@2@@std@@IU?$less@V?$basic_string@DU?$char_traits@D@std@@V?$allocator@D@2@@std@@@2@V?$allocator@U?$pair@$$CBV?$basic_string@DU?$char_traits@D@std@@V?$allocator@D@2@@std@@I@std@@@2@$0A@@std@@@2@@Z
_TEXT	SEGMENT
__Pnode$ = 8						; size = 4
?_Color@?$_Tree_val@V?$_Tmap_traits@V?$basic_string@DU?$char_traits@D@std@@V?$allocator@D@2@@std@@IU?$less@V?$basic_string@DU?$char_traits@D@std@@V?$allocator@D@2@@std@@@2@V?$allocator@U?$pair@$$CBV?$basic_string@DU?$char_traits@D@std@@V?$allocator@D@2@@std@@I@std@@@2@$0A@@std@@@std@@SAAADPAU_Node@?$_Tree_nod@V?$_Tmap_traits@V?$basic_string@DU?$char_traits@D@std@@V?$allocator@D@2@@std@@IU?$less@V?$basic_string@DU?$char_traits@D@std@@V?$allocator@D@2@@std@@@2@V?$allocator@U?$pair@$$CBV?$basic_string@DU?$char_traits@D@std@@V?$allocator@D@2@@std@@I@std@@@2@$0A@@std@@@2@@Z PROC ; std::_Tree_val<std::_Tmap_traits<std::basic_string<char,std::char_traits<char>,std::allocator<char> >,unsigned int,std::less<std::basic_string<char,std::char_traits<char>,std::allocator<char> > >,std::allocator<std::pair<std::basic_string<char,std::char_traits<char>,std::allocator<char> > const ,unsigned int> >,0> >::_Color, COMDAT
; File c:\program files (x86)\microsoft visual studio 10.0\vc\include\xtree
; Line 606
	push	ebp
	mov	ebp, esp
; Line 607
	mov	eax, DWORD PTR __Pnode$[ebp]
	add	eax, 44					; 0000002cH
; Line 608
	pop	ebp
	ret	0
?_Color@?$_Tree_val@V?$_Tmap_traits@V?$basic_string@DU?$char_traits@D@std@@V?$allocator@D@2@@std@@IU?$less@V?$basic_string@DU?$char_traits@D@std@@V?$allocator@D@2@@std@@@2@V?$allocator@U?$pair@$$CBV?$basic_string@DU?$char_traits@D@std@@V?$allocator@D@2@@std@@I@std@@@2@$0A@@std@@@std@@SAAADPAU_Node@?$_Tree_nod@V?$_Tmap_traits@V?$basic_string@DU?$char_traits@D@std@@V?$allocator@D@2@@std@@IU?$less@V?$basic_string@DU?$char_traits@D@std@@V?$allocator@D@2@@std@@@2@V?$allocator@U?$pair@$$CBV?$basic_string@DU?$char_traits@D@std@@V?$allocator@D@2@@std@@I@std@@@2@$0A@@std@@@2@@Z ENDP ; std::_Tree_val<std::_Tmap_traits<std::basic_string<char,std::char_traits<char>,std::allocator<char> >,unsigned int,std::less<std::basic_string<char,std::char_traits<char>,std::allocator<char> > >,std::allocator<std::pair<std::basic_string<char,std::char_traits<char>,std::allocator<char> > const ,unsigned int> >,0> >::_Color
_TEXT	ENDS
PUBLIC	?_Isnil@?$_Tree_val@V?$_Tmap_traits@V?$basic_string@DU?$char_traits@D@std@@V?$allocator@D@2@@std@@IU?$less@V?$basic_string@DU?$char_traits@D@std@@V?$allocator@D@2@@std@@@2@V?$allocator@U?$pair@$$CBV?$basic_string@DU?$char_traits@D@std@@V?$allocator@D@2@@std@@I@std@@@2@$0A@@std@@@std@@SAAADPAU_Node@?$_Tree_nod@V?$_Tmap_traits@V?$basic_string@DU?$char_traits@D@std@@V?$allocator@D@2@@std@@IU?$less@V?$basic_string@DU?$char_traits@D@std@@V?$allocator@D@2@@std@@@2@V?$allocator@U?$pair@$$CBV?$basic_string@DU?$char_traits@D@std@@V?$allocator@D@2@@std@@I@std@@@2@$0A@@std@@@2@@Z ; std::_Tree_val<std::_Tmap_traits<std::basic_string<char,std::char_traits<char>,std::allocator<char> >,unsigned int,std::less<std::basic_string<char,std::char_traits<char>,std::allocator<char> > >,std::allocator<std::pair<std::basic_string<char,std::char_traits<char>,std::allocator<char> > const ,unsigned int> >,0> >::_Isnil
; Function compile flags: /Ogtp
;	COMDAT ?_Isnil@?$_Tree_val@V?$_Tmap_traits@V?$basic_string@DU?$char_traits@D@std@@V?$allocator@D@2@@std@@IU?$less@V?$basic_string@DU?$char_traits@D@std@@V?$allocator@D@2@@std@@@2@V?$allocator@U?$pair@$$CBV?$basic_string@DU?$char_traits@D@std@@V?$allocator@D@2@@std@@I@std@@@2@$0A@@std@@@std@@SAAADPAU_Node@?$_Tree_nod@V?$_Tmap_traits@V?$basic_string@DU?$char_traits@D@std@@V?$allocator@D@2@@std@@IU?$less@V?$basic_string@DU?$char_traits@D@std@@V?$allocator@D@2@@std@@@2@V?$allocator@U?$pair@$$CBV?$basic_string@DU?$char_traits@D@std@@V?$allocator@D@2@@std@@I@std@@@2@$0A@@std@@@2@@Z
_TEXT	SEGMENT
__Pnode$ = 8						; size = 4
?_Isnil@?$_Tree_val@V?$_Tmap_traits@V?$basic_string@DU?$char_traits@D@std@@V?$allocator@D@2@@std@@IU?$less@V?$basic_string@DU?$char_traits@D@std@@V?$allocator@D@2@@std@@@2@V?$allocator@U?$pair@$$CBV?$basic_string@DU?$char_traits@D@std@@V?$allocator@D@2@@std@@I@std@@@2@$0A@@std@@@std@@SAAADPAU_Node@?$_Tree_nod@V?$_Tmap_traits@V?$basic_string@DU?$char_traits@D@std@@V?$allocator@D@2@@std@@IU?$less@V?$basic_string@DU?$char_traits@D@std@@V?$allocator@D@2@@std@@@2@V?$allocator@U?$pair@$$CBV?$basic_string@DU?$char_traits@D@std@@V?$allocator@D@2@@std@@I@std@@@2@$0A@@std@@@2@@Z PROC ; std::_Tree_val<std::_Tmap_traits<std::basic_string<char,std::char_traits<char>,std::allocator<char> >,unsigned int,std::less<std::basic_string<char,std::char_traits<char>,std::allocator<char> > >,std::allocator<std::pair<std::basic_string<char,std::char_traits<char>,std::allocator<char> > const ,unsigned int> >,0> >::_Isnil, COMDAT
; Line 611
	push	ebp
	mov	ebp, esp
; Line 612
	mov	eax, DWORD PTR __Pnode$[ebp]
	add	eax, 45					; 0000002dH
; Line 613
	pop	ebp
	ret	0
?_Isnil@?$_Tree_val@V?$_Tmap_traits@V?$basic_string@DU?$char_traits@D@std@@V?$allocator@D@2@@std@@IU?$less@V?$basic_string@DU?$char_traits@D@std@@V?$allocator@D@2@@std@@@2@V?$allocator@U?$pair@$$CBV?$basic_string@DU?$char_traits@D@std@@V?$allocator@D@2@@std@@I@std@@@2@$0A@@std@@@std@@SAAADPAU_Node@?$_Tree_nod@V?$_Tmap_traits@V?$basic_string@DU?$char_traits@D@std@@V?$allocator@D@2@@std@@IU?$less@V?$basic_string@DU?$char_traits@D@std@@V?$allocator@D@2@@std@@@2@V?$allocator@U?$pair@$$CBV?$basic_string@DU?$char_traits@D@std@@V?$allocator@D@2@@std@@I@std@@@2@$0A@@std@@@2@@Z ENDP ; std::_Tree_val<std::_Tmap_traits<std::basic_string<char,std::char_traits<char>,std::allocator<char> >,unsigned int,std::less<std::basic_string<char,std::char_traits<char>,std::allocator<char> > >,std::allocator<std::pair<std::basic_string<char,std::char_traits<char>,std::allocator<char> > const ,unsigned int> >,0> >::_Isnil
_TEXT	ENDS
PUBLIC	?_Left@?$_Tree_val@V?$_Tmap_traits@V?$basic_string@DU?$char_traits@D@std@@V?$allocator@D@2@@std@@IU?$less@V?$basic_string@DU?$char_traits@D@std@@V?$allocator@D@2@@std@@@2@V?$allocator@U?$pair@$$CBV?$basic_string@DU?$char_traits@D@std@@V?$allocator@D@2@@std@@I@std@@@2@$0A@@std@@@std@@SAAAPAU_Node@?$_Tree_nod@V?$_Tmap_traits@V?$basic_string@DU?$char_traits@D@std@@V?$allocator@D@2@@std@@IU?$less@V?$basic_string@DU?$char_traits@D@std@@V?$allocator@D@2@@std@@@2@V?$allocator@U?$pair@$$CBV?$basic_string@DU?$char_traits@D@std@@V?$allocator@D@2@@std@@I@std@@@2@$0A@@std@@@2@PAU342@@Z ; std::_Tree_val<std::_Tmap_traits<std::basic_string<char,std::char_traits<char>,std::allocator<char> >,unsigned int,std::less<std::basic_string<char,std::char_traits<char>,std::allocator<char> > >,std::allocator<std::pair<std::basic_string<char,std::char_traits<char>,std::allocator<char> > const ,unsigned int> >,0> >::_Left
; Function compile flags: /Ogtp
;	COMDAT ?_Left@?$_Tree_val@V?$_Tmap_traits@V?$basic_string@DU?$char_traits@D@std@@V?$allocator@D@2@@std@@IU?$less@V?$basic_string@DU?$char_traits@D@std@@V?$allocator@D@2@@std@@@2@V?$allocator@U?$pair@$$CBV?$basic_string@DU?$char_traits@D@std@@V?$allocator@D@2@@std@@I@std@@@2@$0A@@std@@@std@@SAAAPAU_Node@?$_Tree_nod@V?$_Tmap_traits@V?$basic_string@DU?$char_traits@D@std@@V?$allocator@D@2@@std@@IU?$less@V?$basic_string@DU?$char_traits@D@std@@V?$allocator@D@2@@std@@@2@V?$allocator@U?$pair@$$CBV?$basic_string@DU?$char_traits@D@std@@V?$allocator@D@2@@std@@I@std@@@2@$0A@@std@@@2@PAU342@@Z
_TEXT	SEGMENT
__Pnode$ = 8						; size = 4
?_Left@?$_Tree_val@V?$_Tmap_traits@V?$basic_string@DU?$char_traits@D@std@@V?$allocator@D@2@@std@@IU?$less@V?$basic_string@DU?$char_traits@D@std@@V?$allocator@D@2@@std@@@2@V?$allocator@U?$pair@$$CBV?$basic_string@DU?$char_traits@D@std@@V?$allocator@D@2@@std@@I@std@@@2@$0A@@std@@@std@@SAAAPAU_Node@?$_Tree_nod@V?$_Tmap_traits@V?$basic_string@DU?$char_traits@D@std@@V?$allocator@D@2@@std@@IU?$less@V?$basic_string@DU?$char_traits@D@std@@V?$allocator@D@2@@std@@@2@V?$allocator@U?$pair@$$CBV?$basic_string@DU?$char_traits@D@std@@V?$allocator@D@2@@std@@I@std@@@2@$0A@@std@@@2@PAU342@@Z PROC ; std::_Tree_val<std::_Tmap_traits<std::basic_string<char,std::char_traits<char>,std::allocator<char> >,unsigned int,std::less<std::basic_string<char,std::char_traits<char>,std::allocator<char> > >,std::allocator<std::pair<std::basic_string<char,std::char_traits<char>,std::allocator<char> > const ,unsigned int> >,0> >::_Left, COMDAT
; Line 621
	push	ebp
	mov	ebp, esp
; Line 622
	mov	eax, DWORD PTR __Pnode$[ebp]
; Line 623
	pop	ebp
	ret	0
?_Left@?$_Tree_val@V?$_Tmap_traits@V?$basic_string@DU?$char_traits@D@std@@V?$allocator@D@2@@std@@IU?$less@V?$basic_string@DU?$char_traits@D@std@@V?$allocator@D@2@@std@@@2@V?$allocator@U?$pair@$$CBV?$basic_string@DU?$char_traits@D@std@@V?$allocator@D@2@@std@@I@std@@@2@$0A@@std@@@std@@SAAAPAU_Node@?$_Tree_nod@V?$_Tmap_traits@V?$basic_string@DU?$char_traits@D@std@@V?$allocator@D@2@@std@@IU?$less@V?$basic_string@DU?$char_traits@D@std@@V?$allocator@D@2@@std@@@2@V?$allocator@U?$pair@$$CBV?$basic_string@DU?$char_traits@D@std@@V?$allocator@D@2@@std@@I@std@@@2@$0A@@std@@@2@PAU342@@Z ENDP ; std::_Tree_val<std::_Tmap_traits<std::basic_string<char,std::char_traits<char>,std::allocator<char> >,unsigned int,std::less<std::basic_string<char,std::char_traits<char>,std::allocator<char> > >,std::allocator<std::pair<std::basic_string<char,std::char_traits<char>,std::allocator<char> > const ,unsigned int> >,0> >::_Left
_TEXT	ENDS
PUBLIC	?_Parent@?$_Tree_val@V?$_Tmap_traits@V?$basic_string@DU?$char_traits@D@std@@V?$allocator@D@2@@std@@IU?$less@V?$basic_string@DU?$char_traits@D@std@@V?$allocator@D@2@@std@@@2@V?$allocator@U?$pair@$$CBV?$basic_string@DU?$char_traits@D@std@@V?$allocator@D@2@@std@@I@std@@@2@$0A@@std@@@std@@SAAAPAU_Node@?$_Tree_nod@V?$_Tmap_traits@V?$basic_string@DU?$char_traits@D@std@@V?$allocator@D@2@@std@@IU?$less@V?$basic_string@DU?$char_traits@D@std@@V?$allocator@D@2@@std@@@2@V?$allocator@U?$pair@$$CBV?$basic_string@DU?$char_traits@D@std@@V?$allocator@D@2@@std@@I@std@@@2@$0A@@std@@@2@PAU342@@Z ; std::_Tree_val<std::_Tmap_traits<std::basic_string<char,std::char_traits<char>,std::allocator<char> >,unsigned int,std::less<std::basic_string<char,std::char_traits<char>,std::allocator<char> > >,std::allocator<std::pair<std::basic_string<char,std::char_traits<char>,std::allocator<char> > const ,unsigned int> >,0> >::_Parent
; Function compile flags: /Ogtp
;	COMDAT ?_Parent@?$_Tree_val@V?$_Tmap_traits@V?$basic_string@DU?$char_traits@D@std@@V?$allocator@D@2@@std@@IU?$less@V?$basic_string@DU?$char_traits@D@std@@V?$allocator@D@2@@std@@@2@V?$allocator@U?$pair@$$CBV?$basic_string@DU?$char_traits@D@std@@V?$allocator@D@2@@std@@I@std@@@2@$0A@@std@@@std@@SAAAPAU_Node@?$_Tree_nod@V?$_Tmap_traits@V?$basic_string@DU?$char_traits@D@std@@V?$allocator@D@2@@std@@IU?$less@V?$basic_string@DU?$char_traits@D@std@@V?$allocator@D@2@@std@@@2@V?$allocator@U?$pair@$$CBV?$basic_string@DU?$char_traits@D@std@@V?$allocator@D@2@@std@@I@std@@@2@$0A@@std@@@2@PAU342@@Z
_TEXT	SEGMENT
__Pnode$ = 8						; size = 4
