; Listing generated by Microsoft (R) Optimizing Compiler Version 16.00.40219.01 

	TITLE	C:\programovani\WoW Editor\Test\src\Editor\Particle.cpp
	.686P
	.XMM
	include listing.inc
	.model	flat

INCLUDELIB MSVCRT
INCLUDELIB OLDNAMES

PUBLIC	?value@?$integral_constant@_N$0A@@tr1@std@@2_NB	; std::tr1::integral_constant<bool,0>::value
PUBLIC	?value@?$integral_constant@_N$00@tr1@std@@2_NB	; std::tr1::integral_constant<bool,1>::value
PUBLIC	?value@?$integral_constant@I$0A@@tr1@std@@2IB	; std::tr1::integral_constant<unsigned int,0>::value
PUBLIC	?_Rank@?$_Arithmetic_traits@_N@std@@2HB		; std::_Arithmetic_traits<bool>::_Rank
PUBLIC	?_Rank@?$_Arithmetic_traits@D@std@@2HB		; std::_Arithmetic_traits<char>::_Rank
PUBLIC	?_Rank@?$_Arithmetic_traits@C@std@@2HB		; std::_Arithmetic_traits<signed char>::_Rank
PUBLIC	?_Rank@?$_Arithmetic_traits@E@std@@2HB		; std::_Arithmetic_traits<unsigned char>::_Rank
PUBLIC	?_Rank@?$_Arithmetic_traits@F@std@@2HB		; std::_Arithmetic_traits<short>::_Rank
PUBLIC	?_Rank@?$_Arithmetic_traits@G@std@@2HB		; std::_Arithmetic_traits<unsigned short>::_Rank
PUBLIC	?_Rank@?$_Arithmetic_traits@H@std@@2HB		; std::_Arithmetic_traits<int>::_Rank
PUBLIC	?_Rank@?$_Arithmetic_traits@I@std@@2HB		; std::_Arithmetic_traits<unsigned int>::_Rank
PUBLIC	?_Rank@?$_Arithmetic_traits@J@std@@2HB		; std::_Arithmetic_traits<long>::_Rank
PUBLIC	?_Rank@?$_Arithmetic_traits@K@std@@2HB		; std::_Arithmetic_traits<unsigned long>::_Rank
PUBLIC	?_Rank@?$_Arithmetic_traits@_J@std@@2HB		; std::_Arithmetic_traits<__int64>::_Rank
PUBLIC	?_Rank@?$_Arithmetic_traits@_K@std@@2HB		; std::_Arithmetic_traits<unsigned __int64>::_Rank
PUBLIC	?_Rank@?$_Arithmetic_traits@M@std@@2HB		; std::_Arithmetic_traits<float>::_Rank
PUBLIC	?_Rank@?$_Arithmetic_traits@N@std@@2HB		; std::_Arithmetic_traits<double>::_Rank
PUBLIC	?_Rank@?$_Arithmetic_traits@O@std@@2HB		; std::_Arithmetic_traits<long double>::_Rank
PUBLIC	?collate@?$_Locbase@H@std@@2HB			; std::_Locbase<int>::collate
PUBLIC	?ctype@?$_Locbase@H@std@@2HB			; std::_Locbase<int>::ctype
PUBLIC	?monetary@?$_Locbase@H@std@@2HB			; std::_Locbase<int>::monetary
PUBLIC	?numeric@?$_Locbase@H@std@@2HB			; std::_Locbase<int>::numeric
PUBLIC	?time@?$_Locbase@H@std@@2HB			; std::_Locbase<int>::time
PUBLIC	?messages@?$_Locbase@H@std@@2HB			; std::_Locbase<int>::messages
PUBLIC	?all@?$_Locbase@H@std@@2HB			; std::_Locbase<int>::all
PUBLIC	?none@?$_Locbase@H@std@@2HB			; std::_Locbase<int>::none
PUBLIC	?skipws@?$_Iosb@H@std@@2W4_Fmtflags@12@B	; std::_Iosb<int>::skipws
PUBLIC	?unitbuf@?$_Iosb@H@std@@2W4_Fmtflags@12@B	; std::_Iosb<int>::unitbuf
PUBLIC	?uppercase@?$_Iosb@H@std@@2W4_Fmtflags@12@B	; std::_Iosb<int>::uppercase
PUBLIC	?showbase@?$_Iosb@H@std@@2W4_Fmtflags@12@B	; std::_Iosb<int>::showbase
PUBLIC	?showpoint@?$_Iosb@H@std@@2W4_Fmtflags@12@B	; std::_Iosb<int>::showpoint
PUBLIC	?showpos@?$_Iosb@H@std@@2W4_Fmtflags@12@B	; std::_Iosb<int>::showpos
PUBLIC	?left@?$_Iosb@H@std@@2W4_Fmtflags@12@B		; std::_Iosb<int>::left
PUBLIC	?right@?$_Iosb@H@std@@2W4_Fmtflags@12@B		; std::_Iosb<int>::right
PUBLIC	?internal@?$_Iosb@H@std@@2W4_Fmtflags@12@B	; std::_Iosb<int>::internal
PUBLIC	?dec@?$_Iosb@H@std@@2W4_Fmtflags@12@B		; std::_Iosb<int>::dec
PUBLIC	?oct@?$_Iosb@H@std@@2W4_Fmtflags@12@B		; std::_Iosb<int>::oct
PUBLIC	?hex@?$_Iosb@H@std@@2W4_Fmtflags@12@B		; std::_Iosb<int>::hex
PUBLIC	?scientific@?$_Iosb@H@std@@2W4_Fmtflags@12@B	; std::_Iosb<int>::scientific
PUBLIC	?fixed@?$_Iosb@H@std@@2W4_Fmtflags@12@B		; std::_Iosb<int>::fixed
PUBLIC	?hexfloat@?$_Iosb@H@std@@2W4_Fmtflags@12@B	; std::_Iosb<int>::hexfloat
PUBLIC	?boolalpha@?$_Iosb@H@std@@2W4_Fmtflags@12@B	; std::_Iosb<int>::boolalpha
PUBLIC	?_Stdio@?$_Iosb@H@std@@2W4_Fmtflags@12@B	; std::_Iosb<int>::_Stdio
PUBLIC	?adjustfield@?$_Iosb@H@std@@2W4_Fmtflags@12@B	; std::_Iosb<int>::adjustfield
PUBLIC	?basefield@?$_Iosb@H@std@@2W4_Fmtflags@12@B	; std::_Iosb<int>::basefield
PUBLIC	?floatfield@?$_Iosb@H@std@@2W4_Fmtflags@12@B	; std::_Iosb<int>::floatfield
PUBLIC	?goodbit@?$_Iosb@H@std@@2W4_Iostate@12@B	; std::_Iosb<int>::goodbit
PUBLIC	?eofbit@?$_Iosb@H@std@@2W4_Iostate@12@B		; std::_Iosb<int>::eofbit
PUBLIC	?failbit@?$_Iosb@H@std@@2W4_Iostate@12@B	; std::_Iosb<int>::failbit
PUBLIC	?badbit@?$_Iosb@H@std@@2W4_Iostate@12@B		; std::_Iosb<int>::badbit
PUBLIC	?_Hardfail@?$_Iosb@H@std@@2W4_Iostate@12@B	; std::_Iosb<int>::_Hardfail
PUBLIC	?in@?$_Iosb@H@std@@2W4_Openmode@12@B		; std::_Iosb<int>::in
PUBLIC	?out@?$_Iosb@H@std@@2W4_Openmode@12@B		; std::_Iosb<int>::out
PUBLIC	?ate@?$_Iosb@H@std@@2W4_Openmode@12@B		; std::_Iosb<int>::ate
PUBLIC	?app@?$_Iosb@H@std@@2W4_Openmode@12@B		; std::_Iosb<int>::app
PUBLIC	?trunc@?$_Iosb@H@std@@2W4_Openmode@12@B		; std::_Iosb<int>::trunc
PUBLIC	?_Nocreate@?$_Iosb@H@std@@2W4_Openmode@12@B	; std::_Iosb<int>::_Nocreate
PUBLIC	?_Noreplace@?$_Iosb@H@std@@2W4_Openmode@12@B	; std::_Iosb<int>::_Noreplace
PUBLIC	?binary@?$_Iosb@H@std@@2W4_Openmode@12@B	; std::_Iosb<int>::binary
PUBLIC	?beg@?$_Iosb@H@std@@2W4_Seekdir@12@B		; std::_Iosb<int>::beg
PUBLIC	?cur@?$_Iosb@H@std@@2W4_Seekdir@12@B		; std::_Iosb<int>::cur
PUBLIC	?end@?$_Iosb@H@std@@2W4_Seekdir@12@B		; std::_Iosb<int>::end
;	COMDAT ?end@?$_Iosb@H@std@@2W4_Seekdir@12@B
CONST	SEGMENT
?end@?$_Iosb@H@std@@2W4_Seekdir@12@B DD 02H		; std::_Iosb<int>::end
CONST	ENDS
;	COMDAT ?cur@?$_Iosb@H@std@@2W4_Seekdir@12@B
CONST	SEGMENT
?cur@?$_Iosb@H@std@@2W4_Seekdir@12@B DD 01H		; std::_Iosb<int>::cur
CONST	ENDS
;	COMDAT ?beg@?$_Iosb@H@std@@2W4_Seekdir@12@B
CONST	SEGMENT
?beg@?$_Iosb@H@std@@2W4_Seekdir@12@B DD 00H		; std::_Iosb<int>::beg
CONST	ENDS
;	COMDAT ?binary@?$_Iosb@H@std@@2W4_Openmode@12@B
CONST	SEGMENT
?binary@?$_Iosb@H@std@@2W4_Openmode@12@B DD 020H	; std::_Iosb<int>::binary
CONST	ENDS
;	COMDAT ?_Noreplace@?$_Iosb@H@std@@2W4_Openmode@12@B
CONST	SEGMENT
?_Noreplace@?$_Iosb@H@std@@2W4_Openmode@12@B DD 080H	; std::_Iosb<int>::_Noreplace
CONST	ENDS
;	COMDAT ?_Nocreate@?$_Iosb@H@std@@2W4_Openmode@12@B
CONST	SEGMENT
?_Nocreate@?$_Iosb@H@std@@2W4_Openmode@12@B DD 040H	; std::_Iosb<int>::_Nocreate
CONST	ENDS
;	COMDAT ?trunc@?$_Iosb@H@std@@2W4_Openmode@12@B
CONST	SEGMENT
?trunc@?$_Iosb@H@std@@2W4_Openmode@12@B DD 010H		; std::_Iosb<int>::trunc
CONST	ENDS
;	COMDAT ?app@?$_Iosb@H@std@@2W4_Openmode@12@B
CONST	SEGMENT
?app@?$_Iosb@H@std@@2W4_Openmode@12@B DD 08H		; std::_Iosb<int>::app
CONST	ENDS
;	COMDAT ?ate@?$_Iosb@H@std@@2W4_Openmode@12@B
CONST	SEGMENT
?ate@?$_Iosb@H@std@@2W4_Openmode@12@B DD 04H		; std::_Iosb<int>::ate
CONST	ENDS
;	COMDAT ?out@?$_Iosb@H@std@@2W4_Openmode@12@B
CONST	SEGMENT
?out@?$_Iosb@H@std@@2W4_Openmode@12@B DD 02H		; std::_Iosb<int>::out
CONST	ENDS
;	COMDAT ?in@?$_Iosb@H@std@@2W4_Openmode@12@B
CONST	SEGMENT
?in@?$_Iosb@H@std@@2W4_Openmode@12@B DD 01H		; std::_Iosb<int>::in
CONST	ENDS
;	COMDAT ?_Hardfail@?$_Iosb@H@std@@2W4_Iostate@12@B
CONST	SEGMENT
?_Hardfail@?$_Iosb@H@std@@2W4_Iostate@12@B DD 010H	; std::_Iosb<int>::_Hardfail
CONST	ENDS
;	COMDAT ?badbit@?$_Iosb@H@std@@2W4_Iostate@12@B
CONST	SEGMENT
?badbit@?$_Iosb@H@std@@2W4_Iostate@12@B DD 04H		; std::_Iosb<int>::badbit
CONST	ENDS
;	COMDAT ?failbit@?$_Iosb@H@std@@2W4_Iostate@12@B
CONST	SEGMENT
?failbit@?$_Iosb@H@std@@2W4_Iostate@12@B DD 02H		; std::_Iosb<int>::failbit
CONST	ENDS
;	COMDAT ?eofbit@?$_Iosb@H@std@@2W4_Iostate@12@B
CONST	SEGMENT
?eofbit@?$_Iosb@H@std@@2W4_Iostate@12@B DD 01H		; std::_Iosb<int>::eofbit
CONST	ENDS
;	COMDAT ?goodbit@?$_Iosb@H@std@@2W4_Iostate@12@B
CONST	SEGMENT
?goodbit@?$_Iosb@H@std@@2W4_Iostate@12@B DD 00H		; std::_Iosb<int>::goodbit
CONST	ENDS
;	COMDAT ?floatfield@?$_Iosb@H@std@@2W4_Fmtflags@12@B
CONST	SEGMENT
?floatfield@?$_Iosb@H@std@@2W4_Fmtflags@12@B DD 03000H	; std::_Iosb<int>::floatfield
CONST	ENDS
;	COMDAT ?basefield@?$_Iosb@H@std@@2W4_Fmtflags@12@B
CONST	SEGMENT
?basefield@?$_Iosb@H@std@@2W4_Fmtflags@12@B DD 0e00H	; std::_Iosb<int>::basefield
CONST	ENDS
;	COMDAT ?adjustfield@?$_Iosb@H@std@@2W4_Fmtflags@12@B
CONST	SEGMENT
?adjustfield@?$_Iosb@H@std@@2W4_Fmtflags@12@B DD 01c0H	; std::_Iosb<int>::adjustfield
CONST	ENDS
;	COMDAT ?_Stdio@?$_Iosb@H@std@@2W4_Fmtflags@12@B
CONST	SEGMENT
?_Stdio@?$_Iosb@H@std@@2W4_Fmtflags@12@B DD 08000H	; std::_Iosb<int>::_Stdio
CONST	ENDS
;	COMDAT ?boolalpha@?$_Iosb@H@std@@2W4_Fmtflags@12@B
CONST	SEGMENT
?boolalpha@?$_Iosb@H@std@@2W4_Fmtflags@12@B DD 04000H	; std::_Iosb<int>::boolalpha
CONST	ENDS
;	COMDAT ?hexfloat@?$_Iosb@H@std@@2W4_Fmtflags@12@B
CONST	SEGMENT
?hexfloat@?$_Iosb@H@std@@2W4_Fmtflags@12@B DD 03000H	; std::_Iosb<int>::hexfloat
CONST	ENDS
;	COMDAT ?fixed@?$_Iosb@H@std@@2W4_Fmtflags@12@B
CONST	SEGMENT
?fixed@?$_Iosb@H@std@@2W4_Fmtflags@12@B DD 02000H	; std::_Iosb<int>::fixed
CONST	ENDS
;	COMDAT ?scientific@?$_Iosb@H@std@@2W4_Fmtflags@12@B
CONST	SEGMENT
?scientific@?$_Iosb@H@std@@2W4_Fmtflags@12@B DD 01000H	; std::_Iosb<int>::scientific
CONST	ENDS
;	COMDAT ?hex@?$_Iosb@H@std@@2W4_Fmtflags@12@B
CONST	SEGMENT
?hex@?$_Iosb@H@std@@2W4_Fmtflags@12@B DD 0800H		; std::_Iosb<int>::hex
CONST	ENDS
;	COMDAT ?oct@?$_Iosb@H@std@@2W4_Fmtflags@12@B
CONST	SEGMENT
?oct@?$_Iosb@H@std@@2W4_Fmtflags@12@B DD 0400H		; std::_Iosb<int>::oct
CONST	ENDS
;	COMDAT ?dec@?$_Iosb@H@std@@2W4_Fmtflags@12@B
CONST	SEGMENT
?dec@?$_Iosb@H@std@@2W4_Fmtflags@12@B DD 0200H		; std::_Iosb<int>::dec
CONST	ENDS
;	COMDAT ?internal@?$_Iosb@H@std@@2W4_Fmtflags@12@B
CONST	SEGMENT
?internal@?$_Iosb@H@std@@2W4_Fmtflags@12@B DD 0100H	; std::_Iosb<int>::internal
CONST	ENDS
;	COMDAT ?right@?$_Iosb@H@std@@2W4_Fmtflags@12@B
CONST	SEGMENT
?right@?$_Iosb@H@std@@2W4_Fmtflags@12@B DD 080H		; std::_Iosb<int>::right
CONST	ENDS
;	COMDAT ?left@?$_Iosb@H@std@@2W4_Fmtflags@12@B
CONST	SEGMENT
?left@?$_Iosb@H@std@@2W4_Fmtflags@12@B DD 040H		; std::_Iosb<int>::left
CONST	ENDS
;	COMDAT ?showpos@?$_Iosb@H@std@@2W4_Fmtflags@12@B
CONST	SEGMENT
?showpos@?$_Iosb@H@std@@2W4_Fmtflags@12@B DD 020H	; std::_Iosb<int>::showpos
CONST	ENDS
;	COMDAT ?showpoint@?$_Iosb@H@std@@2W4_Fmtflags@12@B
CONST	SEGMENT
?showpoint@?$_Iosb@H@std@@2W4_Fmtflags@12@B DD 010H	; std::_Iosb<int>::showpoint
CONST	ENDS
;	COMDAT ?showbase@?$_Iosb@H@std@@2W4_Fmtflags@12@B
CONST	SEGMENT
?showbase@?$_Iosb@H@std@@2W4_Fmtflags@12@B DD 08H	; std::_Iosb<int>::showbase
CONST	ENDS
;	COMDAT ?uppercase@?$_Iosb@H@std@@2W4_Fmtflags@12@B
CONST	SEGMENT
?uppercase@?$_Iosb@H@std@@2W4_Fmtflags@12@B DD 04H	; std::_Iosb<int>::uppercase
CONST	ENDS
;	COMDAT ?unitbuf@?$_Iosb@H@std@@2W4_Fmtflags@12@B
CONST	SEGMENT
?unitbuf@?$_Iosb@H@std@@2W4_Fmtflags@12@B DD 02H	; std::_Iosb<int>::unitbuf
CONST	ENDS
;	COMDAT ?skipws@?$_Iosb@H@std@@2W4_Fmtflags@12@B
CONST	SEGMENT
?skipws@?$_Iosb@H@std@@2W4_Fmtflags@12@B DD 01H		; std::_Iosb<int>::skipws
CONST	ENDS
;	COMDAT ?none@?$_Locbase@H@std@@2HB
CONST	SEGMENT
?none@?$_Locbase@H@std@@2HB DD 00H			; std::_Locbase<int>::none
CONST	ENDS
;	COMDAT ?all@?$_Locbase@H@std@@2HB
CONST	SEGMENT
?all@?$_Locbase@H@std@@2HB DD 03fH			; std::_Locbase<int>::all
CONST	ENDS
;	COMDAT ?messages@?$_Locbase@H@std@@2HB
CONST	SEGMENT
?messages@?$_Locbase@H@std@@2HB DD 020H			; std::_Locbase<int>::messages
CONST	ENDS
;	COMDAT ?time@?$_Locbase@H@std@@2HB
CONST	SEGMENT
?time@?$_Locbase@H@std@@2HB DD 010H			; std::_Locbase<int>::time
CONST	ENDS
;	COMDAT ?numeric@?$_Locbase@H@std@@2HB
CONST	SEGMENT
?numeric@?$_Locbase@H@std@@2HB DD 08H			; std::_Locbase<int>::numeric
CONST	ENDS
;	COMDAT ?monetary@?$_Locbase@H@std@@2HB
CONST	SEGMENT
?monetary@?$_Locbase@H@std@@2HB DD 04H			; std::_Locbase<int>::monetary
CONST	ENDS
;	COMDAT ?ctype@?$_Locbase@H@std@@2HB
CONST	SEGMENT
?ctype@?$_Locbase@H@std@@2HB DD 02H			; std::_Locbase<int>::ctype
CONST	ENDS
;	COMDAT ?collate@?$_Locbase@H@std@@2HB
CONST	SEGMENT
?collate@?$_Locbase@H@std@@2HB DD 01H			; std::_Locbase<int>::collate
CONST	ENDS
;	COMDAT ?_Rank@?$_Arithmetic_traits@O@std@@2HB
CONST	SEGMENT
?_Rank@?$_Arithmetic_traits@O@std@@2HB DD 09H		; std::_Arithmetic_traits<long double>::_Rank
CONST	ENDS
;	COMDAT ?_Rank@?$_Arithmetic_traits@N@std@@2HB
CONST	SEGMENT
?_Rank@?$_Arithmetic_traits@N@std@@2HB DD 08H		; std::_Arithmetic_traits<double>::_Rank
CONST	ENDS
;	COMDAT ?_Rank@?$_Arithmetic_traits@M@std@@2HB
CONST	SEGMENT
?_Rank@?$_Arithmetic_traits@M@std@@2HB DD 07H		; std::_Arithmetic_traits<float>::_Rank
CONST	ENDS
;	COMDAT ?_Rank@?$_Arithmetic_traits@_K@std@@2HB
CONST	SEGMENT
?_Rank@?$_Arithmetic_traits@_K@std@@2HB DD 06H		; std::_Arithmetic_traits<unsigned __int64>::_Rank
CONST	ENDS
;	COMDAT ?_Rank@?$_Arithmetic_traits@_J@std@@2HB
CONST	SEGMENT
?_Rank@?$_Arithmetic_traits@_J@std@@2HB DD 06H		; std::_Arithmetic_traits<__int64>::_Rank
CONST	ENDS
;	COMDAT ?_Rank@?$_Arithmetic_traits@K@std@@2HB
CONST	SEGMENT
?_Rank@?$_Arithmetic_traits@K@std@@2HB DD 05H		; std::_Arithmetic_traits<unsigned long>::_Rank
CONST	ENDS
;	COMDAT ?_Rank@?$_Arithmetic_traits@J@std@@2HB
CONST	SEGMENT
?_Rank@?$_Arithmetic_traits@J@std@@2HB DD 05H		; std::_Arithmetic_traits<long>::_Rank
CONST	ENDS
;	COMDAT ?_Rank@?$_Arithmetic_traits@I@std@@2HB
CONST	SEGMENT
?_Rank@?$_Arithmetic_traits@I@std@@2HB DD 04H		; std::_Arithmetic_traits<unsigned int>::_Rank
CONST	ENDS
;	COMDAT ?_Rank@?$_Arithmetic_traits@H@std@@2HB
CONST	SEGMENT
?_Rank@?$_Arithmetic_traits@H@std@@2HB DD 04H		; std::_Arithmetic_traits<int>::_Rank
CONST	ENDS
;	COMDAT ?_Rank@?$_Arithmetic_traits@G@std@@2HB
CONST	SEGMENT
?_Rank@?$_Arithmetic_traits@G@std@@2HB DD 03H		; std::_Arithmetic_traits<unsigned short>::_Rank
CONST	ENDS
;	COMDAT ?_Rank@?$_Arithmetic_traits@F@std@@2HB
CONST	SEGMENT
?_Rank@?$_Arithmetic_traits@F@std@@2HB DD 03H		; std::_Arithmetic_traits<short>::_Rank
CONST	ENDS
;	COMDAT ?_Rank@?$_Arithmetic_traits@E@std@@2HB
CONST	SEGMENT
?_Rank@?$_Arithmetic_traits@E@std@@2HB DD 02H		; std::_Arithmetic_traits<unsigned char>::_Rank
CONST	ENDS
;	COMDAT ?_Rank@?$_Arithmetic_traits@C@std@@2HB
CONST	SEGMENT
?_Rank@?$_Arithmetic_traits@C@std@@2HB DD 02H		; std::_Arithmetic_traits<signed char>::_Rank
CONST	ENDS
;	COMDAT ?_Rank@?$_Arithmetic_traits@D@std@@2HB
CONST	SEGMENT
?_Rank@?$_Arithmetic_traits@D@std@@2HB DD 02H		; std::_Arithmetic_traits<char>::_Rank
CONST	ENDS
;	COMDAT ?_Rank@?$_Arithmetic_traits@_N@std@@2HB
CONST	SEGMENT
?_Rank@?$_Arithmetic_traits@_N@std@@2HB DD 01H		; std::_Arithmetic_traits<bool>::_Rank
CONST	ENDS
;	COMDAT ?value@?$integral_constant@I$0A@@tr1@std@@2IB
CONST	SEGMENT
?value@?$integral_constant@I$0A@@tr1@std@@2IB DD 00H	; std::tr1::integral_constant<unsigned int,0>::value
CONST	ENDS
;	COMDAT ?value@?$integral_constant@_N$00@tr1@std@@2_NB
CONST	SEGMENT
?value@?$integral_constant@_N$00@tr1@std@@2_NB DB 01H	; std::tr1::integral_constant<bool,1>::value
CONST	ENDS
;	COMDAT ?value@?$integral_constant@_N$0A@@tr1@std@@2_NB
CONST	SEGMENT
?value@?$integral_constant@_N$0A@@tr1@std@@2_NB DB 00H	; std::tr1::integral_constant<bool,0>::value
CONST	ENDS
PUBLIC	_cosf
EXTRN	__fltused:DWORD
EXTRN	__CIcos:PROC
; Function compile flags: /Ogtp
;	COMDAT _cosf
_TEXT	SEGMENT
tv69 = 8						; size = 4
__X$ = 8						; size = 4
_cosf	PROC						; COMDAT
; File c:\program files (x86)\microsoft visual studio 10.0\vc\include\math.h
; Line 410
	push	ebp
	mov	ebp, esp
	fld	DWORD PTR __X$[ebp]
	call	__CIcos
	fstp	DWORD PTR tv69[ebp]
	fld	DWORD PTR tv69[ebp]
	pop	ebp
	ret	0
_cosf	ENDP
_TEXT	ENDS
PUBLIC	_expf
EXTRN	__CIexp:PROC
; Function compile flags: /Ogtp
;	COMDAT _expf
_TEXT	SEGMENT
tv69 = 8						; size = 4
__X$ = 8						; size = 4
_expf	PROC						; COMDAT
; Line 414
	push	ebp
	mov	ebp, esp
	fld	DWORD PTR __X$[ebp]
	call	__CIexp
	fstp	DWORD PTR tv69[ebp]
	fld	DWORD PTR tv69[ebp]
	pop	ebp
	ret	0
_expf	ENDP
_TEXT	ENDS
PUBLIC	_sinf
EXTRN	__CIsin:PROC
; Function compile flags: /Ogtp
;	COMDAT _sinf
_TEXT	SEGMENT
tv69 = 8						; size = 4
__X$ = 8						; size = 4
_sinf	PROC						; COMDAT
; Line 430
	push	ebp
	mov	ebp, esp
	fld	DWORD PTR __X$[ebp]
	call	__CIsin
	fstp	DWORD PTR tv69[ebp]
	fld	DWORD PTR tv69[ebp]
	pop	ebp
	ret	0
_sinf	ENDP
_TEXT	ENDS
PUBLIC	_sqrtf
EXTRN	__CIsqrt:PROC
; Function compile flags: /Ogtp
;	COMDAT _sqrtf
_TEXT	SEGMENT
tv69 = 8						; size = 4
__X$ = 8						; size = 4
_sqrtf	PROC						; COMDAT
; Line 434
	push	ebp
	mov	ebp, esp
	fld	DWORD PTR __X$[ebp]
	call	__CIsqrt
	fstp	DWORD PTR tv69[ebp]
	fld	DWORD PTR tv69[ebp]
	pop	ebp
	ret	0
_sqrtf	ENDP
_TEXT	ENDS
PUBLIC	?sqrt@@YAMM@Z					; sqrt
; Function compile flags: /Ogtp
;	COMDAT ?sqrt@@YAMM@Z
_TEXT	SEGMENT
tv73 = 8						; size = 4
__X$ = 8						; size = 4
?sqrt@@YAMM@Z PROC					; sqrt, COMDAT
; Line 542
	push	ebp
	mov	ebp, esp
	fld	DWORD PTR __X$[ebp]
	call	__CIsqrt
	fstp	DWORD PTR tv73[ebp]
	fld	DWORD PTR tv73[ebp]
	pop	ebp
	ret	0
?sqrt@@YAMM@Z ENDP					; sqrt
_TEXT	ENDS
PUBLIC	??_7bad_alloc@std@@6B@				; std::bad_alloc::`vftable'
PUBLIC	??0bad_alloc@std@@QAE@PBD@Z			; std::bad_alloc::bad_alloc
PUBLIC	??_R4bad_alloc@std@@6B@				; std::bad_alloc::`RTTI Complete Object Locator'
PUBLIC	??_R0?AVbad_alloc@std@@@8			; std::bad_alloc `RTTI Type Descriptor'
PUBLIC	??_R3bad_alloc@std@@8				; std::bad_alloc::`RTTI Class Hierarchy Descriptor'
PUBLIC	??_R2bad_alloc@std@@8				; std::bad_alloc::`RTTI Base Class Array'
PUBLIC	??_R1A@?0A@EA@bad_alloc@std@@8			; std::bad_alloc::`RTTI Base Class Descriptor at (0,-1,0,64)'
PUBLIC	??_R1A@?0A@EA@exception@std@@8			; std::exception::`RTTI Base Class Descriptor at (0,-1,0,64)'
PUBLIC	??_R0?AVexception@std@@@8			; std::exception `RTTI Type Descriptor'
PUBLIC	??_R3exception@std@@8				; std::exception::`RTTI Class Hierarchy Descriptor'
PUBLIC	??_R2exception@std@@8				; std::exception::`RTTI Base Class Array'
EXTRN	__imp_??0exception@std@@QAE@ABQBD@Z:PROC
EXTRN	??_7type_info@@6B@:QWORD			; type_info::`vftable'
EXTRN	??_Ebad_alloc@std@@UAEPAXI@Z:PROC		; std::bad_alloc::`vector deleting destructor'
EXTRN	?what@exception@std@@UBEPBDXZ:PROC		; std::exception::what
;	COMDAT ??_R2exception@std@@8
; File c:\program files (x86)\microsoft visual studio 10.0\vc\include\exception
rdata$r	SEGMENT
??_R2exception@std@@8 DD FLAT:??_R1A@?0A@EA@exception@std@@8 ; std::exception::`RTTI Base Class Array'
rdata$r	ENDS
;	COMDAT ??_R3exception@std@@8
rdata$r	SEGMENT
??_R3exception@std@@8 DD 00H				; std::exception::`RTTI Class Hierarchy Descriptor'
	DD	00H
	DD	01H
	DD	FLAT:??_R2exception@std@@8
rdata$r	ENDS
;	COMDAT ??_R0?AVexception@std@@@8
_DATA	SEGMENT
??_R0?AVexception@std@@@8 DD FLAT:??_7type_info@@6B@	; std::exception `RTTI Type Descriptor'
	DD	00H
	DB	'.?AVexception@std@@', 00H
_DATA	ENDS
;	COMDAT ??_R1A@?0A@EA@exception@std@@8
rdata$r	SEGMENT
??_R1A@?0A@EA@exception@std@@8 DD FLAT:??_R0?AVexception@std@@@8 ; std::exception::`RTTI Base Class Descriptor at (0,-1,0,64)'
	DD	00H
	DD	00H
	DD	0ffffffffH
	DD	00H
	DD	040H
	DD	FLAT:??_R3exception@std@@8
rdata$r	ENDS
;	COMDAT ??_R1A@?0A@EA@bad_alloc@std@@8
rdata$r	SEGMENT
??_R1A@?0A@EA@bad_alloc@std@@8 DD FLAT:??_R0?AVbad_alloc@std@@@8 ; std::bad_alloc::`RTTI Base Class Descriptor at (0,-1,0,64)'
	DD	01H
	DD	00H
	DD	0ffffffffH
	DD	00H
	DD	040H
	DD	FLAT:??_R3bad_alloc@std@@8
rdata$r	ENDS
;	COMDAT ??_R2bad_alloc@std@@8
rdata$r	SEGMENT
??_R2bad_alloc@std@@8 DD FLAT:??_R1A@?0A@EA@bad_alloc@std@@8 ; std::bad_alloc::`RTTI Base Class Array'
	DD	FLAT:??_R1A@?0A@EA@exception@std@@8
rdata$r	ENDS
;	COMDAT ??_R3bad_alloc@std@@8
rdata$r	SEGMENT
??_R3bad_alloc@std@@8 DD 00H				; std::bad_alloc::`RTTI Class Hierarchy Descriptor'
	DD	00H
	DD	02H
	DD	FLAT:??_R2bad_alloc@std@@8
rdata$r	ENDS
;	COMDAT ??_R0?AVbad_alloc@std@@@8
_DATA	SEGMENT
??_R0?AVbad_alloc@std@@@8 DD FLAT:??_7type_info@@6B@	; std::bad_alloc `RTTI Type Descriptor'
	DD	00H
	DB	'.?AVbad_alloc@std@@', 00H
_DATA	ENDS
;	COMDAT ??_R4bad_alloc@std@@6B@
rdata$r	SEGMENT
??_R4bad_alloc@std@@6B@ DD 00H				; std::bad_alloc::`RTTI Complete Object Locator'
	DD	00H
	DD	00H
	DD	FLAT:??_R0?AVbad_alloc@std@@@8
	DD	FLAT:??_R3bad_alloc@std@@8
rdata$r	ENDS
;	COMDAT ??_7bad_alloc@std@@6B@
CONST	SEGMENT
??_7bad_alloc@std@@6B@ DD FLAT:??_R4bad_alloc@std@@6B@	; std::bad_alloc::`vftable'
	DD	FLAT:??_Ebad_alloc@std@@UAEPAXI@Z
	DD	FLAT:?what@exception@std@@UBEPBDXZ
; Function compile flags: /Ogtp
CONST	ENDS
;	COMDAT ??0bad_alloc@std@@QAE@PBD@Z
_TEXT	SEGMENT
__Message$ = 8						; size = 4
??0bad_alloc@std@@QAE@PBD@Z PROC			; std::bad_alloc::bad_alloc, COMDAT
; _this$ = ecx
; Line 345
	push	ebp
	mov	ebp, esp
	push	esi
	lea	eax, DWORD PTR __Message$[ebp]
	push	eax
	mov	esi, ecx
	call	DWORD PTR __imp_??0exception@std@@QAE@ABQBD@Z
	mov	DWORD PTR [esi], OFFSET ??_7bad_alloc@std@@6B@
; Line 346
	mov	eax, esi
	pop	esi
	pop	ebp
	ret	4
??0bad_alloc@std@@QAE@PBD@Z ENDP			; std::bad_alloc::bad_alloc
_TEXT	ENDS
PUBLIC	??1bad_alloc@std@@UAE@XZ			; std::bad_alloc::~bad_alloc
EXTRN	__imp_??1exception@std@@UAE@XZ:PROC
; Function compile flags: /Ogtp
;	COMDAT ??1bad_alloc@std@@UAE@XZ
_TEXT	SEGMENT
??1bad_alloc@std@@UAE@XZ PROC				; std::bad_alloc::~bad_alloc, COMDAT
; _this$ = ecx
; Line 354
	mov	DWORD PTR [ecx], OFFSET ??_7bad_alloc@std@@6B@
; Line 355
	jmp	DWORD PTR __imp_??1exception@std@@UAE@XZ
??1bad_alloc@std@@UAE@XZ ENDP				; std::bad_alloc::~bad_alloc
_TEXT	ENDS
EXTRN	??3@YAXPAX@Z:PROC				; operator delete
; Function compile flags: /Ogtp
;	COMDAT ??_Gbad_alloc@std@@UAEPAXI@Z
_TEXT	SEGMENT
___flags$ = 8						; size = 4
??_Gbad_alloc@std@@UAEPAXI@Z PROC			; std::bad_alloc::`scalar deleting destructor', COMDAT
; _this$ = ecx
	push	ebp
	mov	ebp, esp
	push	esi
	mov	esi, ecx
	mov	DWORD PTR [esi], OFFSET ??_7bad_alloc@std@@6B@
	call	DWORD PTR __imp_??1exception@std@@UAE@XZ
	test	BYTE PTR ___flags$[ebp], 1
	je	SHORT $LN6@scalar
	push	esi
	call	??3@YAXPAX@Z				; operator delete
	add	esp, 4
$LN6@scalar:
	mov	eax, esi
	pop	esi
	pop	ebp
	ret	4
??_Gbad_alloc@std@@UAEPAXI@Z ENDP			; std::bad_alloc::`scalar deleting destructor'
_TEXT	ENDS
PUBLIC	??2@YAPAXIPAX@Z					; operator new
; Function compile flags: /Ogtp
;	COMDAT ??2@YAPAXIPAX@Z
_TEXT	SEGMENT
___formal$ = 8						; size = 4
__Where$ = 12						; size = 4
??2@YAPAXIPAX@Z PROC					; operator new, COMDAT
; File c:\program files (x86)\microsoft visual studio 10.0\vc\include\new
; Line 56
	push	ebp
	mov	ebp, esp
; Line 57
	mov	eax, DWORD PTR __Where$[ebp]
; Line 58
	pop	ebp
	ret	0
??2@YAPAXIPAX@Z ENDP					; operator new
_TEXT	ENDS
PUBLIC	??3@YAXPAX0@Z					; operator delete
; Function compile flags: /Ogtp
;	COMDAT ??3@YAXPAX0@Z
_TEXT	SEGMENT
___formal$ = 8						; size = 4
___formal$ = 12						; size = 4
??3@YAXPAX0@Z PROC					; operator delete, COMDAT
; Line 62
	ret	0
??3@YAXPAX0@Z ENDP					; operator delete
_TEXT	ENDS
PUBLIC	?_Adopt@_Iterator_base0@std@@QAEXPBX@Z		; std::_Iterator_base0::_Adopt
; Function compile flags: /Ogtp
;	COMDAT ?_Adopt@_Iterator_base0@std@@QAEXPBX@Z
_TEXT	SEGMENT
___formal$ = 8						; size = 4
?_Adopt@_Iterator_base0@std@@QAEXPBX@Z PROC		; std::_Iterator_base0::_Adopt, COMDAT
; _this$ = ecx
; File c:\program files (x86)\microsoft visual studio 10.0\vc\include\xutility
; Line 49
	ret	4
?_Adopt@_Iterator_base0@std@@QAEXPBX@Z ENDP		; std::_Iterator_base0::_Adopt
_TEXT	ENDS
PUBLIC	??0Vec3D@@QAE@MMM@Z				; Vec3D::Vec3D
; Function compile flags: /Ogtp
;	COMDAT ??0Vec3D@@QAE@MMM@Z
_TEXT	SEGMENT
_x0$ = 8						; size = 4
_y0$ = 12						; size = 4
_z0$ = 16						; size = 4
??0Vec3D@@QAE@MMM@Z PROC				; Vec3D::Vec3D, COMDAT
; _this$ = ecx
; File c:\programovani\wow editor\test\src\editor\vec3d.h
; Line 12
	push	ebp
	mov	ebp, esp
	mov	edx, DWORD PTR _y0$[ebp]
	mov	eax, ecx
	mov	ecx, DWORD PTR _x0$[ebp]
	mov	DWORD PTR [eax], ecx
	mov	ecx, DWORD PTR _z0$[ebp]
	mov	DWORD PTR [eax+4], edx
	mov	DWORD PTR [eax+8], ecx
	pop	ebp
	ret	12					; 0000000cH
??0Vec3D@@QAE@MMM@Z ENDP				; Vec3D::Vec3D
_TEXT	ENDS
PUBLIC	??0Vec3D@@QAE@ABV0@@Z				; Vec3D::Vec3D
; Function compile flags: /Ogtp
;	COMDAT ??0Vec3D@@QAE@ABV0@@Z
_TEXT	SEGMENT
_v$ = 8							; size = 4
??0Vec3D@@QAE@ABV0@@Z PROC				; Vec3D::Vec3D, COMDAT
; _this$ = ecx
; Line 14
	push	ebp
	mov	ebp, esp
	mov	eax, ecx
	mov	ecx, DWORD PTR _v$[ebp]
	mov	edx, DWORD PTR [ecx]
	mov	DWORD PTR [eax], edx
	mov	edx, DWORD PTR [ecx+4]
	mov	DWORD PTR [eax+4], edx
	mov	ecx, DWORD PTR [ecx+8]
	mov	DWORD PTR [eax+8], ecx
	pop	ebp
	ret	4
??0Vec3D@@QAE@ABV0@@Z ENDP				; Vec3D::Vec3D
_TEXT	ENDS
PUBLIC	??4Vec3D@@QAEAAV0@ABV0@@Z			; Vec3D::operator=
; Function compile flags: /Ogtp
;	COMDAT ??4Vec3D@@QAEAAV0@ABV0@@Z
_TEXT	SEGMENT
_v$ = 8							; size = 4
??4Vec3D@@QAEAAV0@ABV0@@Z PROC				; Vec3D::operator=, COMDAT
; _this$ = ecx
; Line 17
	push	ebp
	mov	ebp, esp
	mov	eax, ecx
; Line 18
	mov	ecx, DWORD PTR _v$[ebp]
	mov	edx, DWORD PTR [ecx]
	mov	DWORD PTR [eax], edx
; Line 19
	mov	edx, DWORD PTR [ecx+4]
	mov	DWORD PTR [eax+4], edx
; Line 20
	mov	ecx, DWORD PTR [ecx+8]
	mov	DWORD PTR [eax+8], ecx
; Line 22
	pop	ebp
	ret	4
??4Vec3D@@QAEAAV0@ABV0@@Z ENDP				; Vec3D::operator=
_TEXT	ENDS
PUBLIC	??HVec3D@@QBE?AV0@ABV0@@Z			; Vec3D::operator+
; Function compile flags: /Ogtp
;	COMDAT ??HVec3D@@QBE?AV0@ABV0@@Z
_TEXT	SEGMENT
___$ReturnUdt$ = 8					; size = 4
_v$ = 12						; size = 4
??HVec3D@@QBE?AV0@ABV0@@Z PROC				; Vec3D::operator+, COMDAT
; _this$ = ecx
; Line 25
	push	ebp
	mov	ebp, esp
; Line 26
	mov	edx, DWORD PTR _v$[ebp]
	fld	DWORD PTR [edx]
	mov	eax, DWORD PTR ___$ReturnUdt$[ebp]
	fadd	DWORD PTR [ecx]
	fstp	DWORD PTR [eax]
	fld	DWORD PTR [edx+4]
	fadd	DWORD PTR [ecx+4]
	fstp	DWORD PTR [eax+4]
	fld	DWORD PTR [edx+8]
	fadd	DWORD PTR [ecx+8]
	fstp	DWORD PTR [eax+8]
; Line 28
	pop	ebp
	ret	8
??HVec3D@@QBE?AV0@ABV0@@Z ENDP				; Vec3D::operator+
_TEXT	ENDS
PUBLIC	??GVec3D@@QBE?AV0@ABV0@@Z			; Vec3D::operator-
; Function compile flags: /Ogtp
;	COMDAT ??GVec3D@@QBE?AV0@ABV0@@Z
_TEXT	SEGMENT
___$ReturnUdt$ = 8					; size = 4
_v$ = 12						; size = 4
??GVec3D@@QBE?AV0@ABV0@@Z PROC				; Vec3D::operator-, COMDAT
; _this$ = ecx
; Line 31
	push	ebp
	mov	ebp, esp
; Line 32
	mov	edx, DWORD PTR _v$[ebp]
	fld	DWORD PTR [ecx]
	fsub	DWORD PTR [edx]
	mov	eax, DWORD PTR ___$ReturnUdt$[ebp]
	fstp	DWORD PTR [eax]
	fld	DWORD PTR [ecx+4]
	fsub	DWORD PTR [edx+4]
	fstp	DWORD PTR [eax+4]
	fld	DWORD PTR [ecx+8]
	fsub	DWORD PTR [edx+8]
	fstp	DWORD PTR [eax+8]
; Line 34
	pop	ebp
	ret	8
??GVec3D@@QBE?AV0@ABV0@@Z ENDP				; Vec3D::operator-
_TEXT	ENDS
PUBLIC	??DVec3D@@QBE?AV0@M@Z				; Vec3D::operator*
; Function compile flags: /Ogtp
;	COMDAT ??DVec3D@@QBE?AV0@M@Z
_TEXT	SEGMENT
___$ReturnUdt$ = 8					; size = 4
_d$ = 12						; size = 4
??DVec3D@@QBE?AV0@M@Z PROC				; Vec3D::operator*, COMDAT
; _this$ = ecx
; Line 42
	push	ebp
	mov	ebp, esp
; Line 43
	fld	DWORD PTR [ecx]
	mov	eax, DWORD PTR ___$ReturnUdt$[ebp]
	fld	DWORD PTR _d$[ebp]
	fld	ST(0)
	fmulp	ST(2), ST(0)
	fxch	ST(1)
	fstp	DWORD PTR [eax]
	fld	DWORD PTR [ecx+4]
	fmul	ST(0), ST(1)
	fstp	DWORD PTR [eax+4]
	fmul	DWORD PTR [ecx+8]
	fstp	DWORD PTR [eax+8]
; Line 45
	pop	ebp
	ret	8
??DVec3D@@QBE?AV0@M@Z ENDP				; Vec3D::operator*
_TEXT	ENDS
PUBLIC	??D@YA?AVVec3D@@MABV0@@Z			; operator*
; Function compile flags: /Ogtp
;	COMDAT ??D@YA?AVVec3D@@MABV0@@Z
_TEXT	SEGMENT
___$ReturnUdt$ = 8					; size = 4
_d$ = 12						; size = 4
_v$ = 16						; size = 4
??D@YA?AVVec3D@@MABV0@@Z PROC				; operator*, COMDAT
; Line 48
	push	ebp
	mov	ebp, esp
; Line 49
	mov	ecx, DWORD PTR _v$[ebp]
	fld	DWORD PTR [ecx]
	mov	eax, DWORD PTR ___$ReturnUdt$[ebp]
	fld	DWORD PTR _d$[ebp]
	fld	ST(0)
	fmulp	ST(2), ST(0)
	fxch	ST(1)
	fstp	DWORD PTR [eax]
	fld	DWORD PTR [ecx+4]
	fmul	ST(0), ST(1)
	fstp	DWORD PTR [eax+4]
	fmul	DWORD PTR [ecx+8]
	fstp	DWORD PTR [eax+8]
; Line 50
	pop	ebp
	ret	0
??D@YA?AVVec3D@@MABV0@@Z ENDP				; operator*
_TEXT	ENDS
PUBLIC	??LVec3D@@QBE?AV0@ABV0@@Z			; Vec3D::operator%
; Function compile flags: /Ogtp
;	COMDAT ??LVec3D@@QBE?AV0@ABV0@@Z
_TEXT	SEGMENT
___$ReturnUdt$ = 8					; size = 4
_v$ = 12						; size = 4
??LVec3D@@QBE?AV0@ABV0@@Z PROC				; Vec3D::operator%, COMDAT
; _this$ = ecx
; Line 53
	push	ebp
	mov	ebp, esp
; Line 54
	mov	edx, DWORD PTR _v$[ebp]
	fld	DWORD PTR [edx+8]
	mov	eax, DWORD PTR ___$ReturnUdt$[ebp]
	fmul	DWORD PTR [ecx+4]
	fld	DWORD PTR [edx+4]
	fmul	DWORD PTR [ecx+8]
	fsubp	ST(1), ST(0)
	fstp	DWORD PTR [eax]
	fld	DWORD PTR [ecx+8]
	fmul	DWORD PTR [edx]
	fld	DWORD PTR [ecx]
	fmul	DWORD PTR [edx+8]
	fsubp	ST(1), ST(0)
	fstp	DWORD PTR [eax+4]
	fld	DWORD PTR [edx+4]
	fmul	DWORD PTR [ecx]
	fld	DWORD PTR [edx]
	fmul	DWORD PTR [ecx+4]
	fsubp	ST(1), ST(0)
	fstp	DWORD PTR [eax+8]
; Line 56
	pop	ebp
	ret	8
??LVec3D@@QBE?AV0@ABV0@@Z ENDP				; Vec3D::operator%
_TEXT	ENDS
PUBLIC	??YVec3D@@QAEAAV0@ABV0@@Z			; Vec3D::operator+=
; Function compile flags: /Ogtp
;	COMDAT ??YVec3D@@QAEAAV0@ABV0@@Z
_TEXT	SEGMENT
_v$ = 8							; size = 4
??YVec3D@@QAEAAV0@ABV0@@Z PROC				; Vec3D::operator+=, COMDAT
; _this$ = ecx
; Line 59
	push	ebp
	mov	ebp, esp
	mov	eax, ecx
; Line 60
	mov	ecx, DWORD PTR _v$[ebp]
	fld	DWORD PTR [ecx]
	fadd	DWORD PTR [eax]
	fstp	DWORD PTR [eax]
; Line 61
	fld	DWORD PTR [ecx+4]
	fadd	DWORD PTR [eax+4]
	fstp	DWORD PTR [eax+4]
; Line 62
	fld	DWORD PTR [ecx+8]
	fadd	DWORD PTR [eax+8]
	fstp	DWORD PTR [eax+8]
; Line 64
	pop	ebp
	ret	4
??YVec3D@@QAEAAV0@ABV0@@Z ENDP				; Vec3D::operator+=
_TEXT	ENDS
PUBLIC	??ZVec3D@@QAEAAV0@ABV0@@Z			; Vec3D::operator-=
; Function compile flags: /Ogtp
;	COMDAT ??ZVec3D@@QAEAAV0@ABV0@@Z
_TEXT	SEGMENT
_v$ = 8							; size = 4
??ZVec3D@@QAEAAV0@ABV0@@Z PROC				; Vec3D::operator-=, COMDAT
; _this$ = ecx
; Line 67
	push	ebp
	mov	ebp, esp
	mov	eax, ecx
; Line 68
	mov	ecx, DWORD PTR _v$[ebp]
	fld	DWORD PTR [eax]
	fsub	DWORD PTR [ecx]
	fstp	DWORD PTR [eax]
; Line 69
	fld	DWORD PTR [eax+4]
	fsub	DWORD PTR [ecx+4]
	fstp	DWORD PTR [eax+4]
; Line 70
	fld	DWORD PTR [eax+8]
	fsub	DWORD PTR [ecx+8]
	fstp	DWORD PTR [eax+8]
; Line 72
	pop	ebp
	ret	4
??ZVec3D@@QAEAAV0@ABV0@@Z ENDP				; Vec3D::operator-=
_TEXT	ENDS
PUBLIC	??XVec3D@@QAEAAV0@M@Z				; Vec3D::operator*=
; Function compile flags: /Ogtp
;	COMDAT ??XVec3D@@QAEAAV0@M@Z
_TEXT	SEGMENT
_d$ = 8							; size = 4
??XVec3D@@QAEAAV0@M@Z PROC				; Vec3D::operator*=, COMDAT
; _this$ = ecx
; Line 75
	push	ebp
	mov	ebp, esp
	mov	eax, ecx
; Line 76
	fld	DWORD PTR [eax]
	fld	DWORD PTR _d$[ebp]
	fld	ST(0)
	fmulp	ST(2), ST(0)
	fxch	ST(1)
	fstp	DWORD PTR [eax]
; Line 77
	fld	DWORD PTR [eax+4]
	fmul	ST(0), ST(1)
	fstp	DWORD PTR [eax+4]
; Line 78
	fmul	DWORD PTR [eax+8]
	fstp	DWORD PTR [eax+8]
; Line 80
	pop	ebp
	ret	4
??XVec3D@@QAEAAV0@M@Z ENDP				; Vec3D::operator*=
_TEXT	ENDS
PUBLIC	?lengthSquared@Vec3D@@QBEMXZ			; Vec3D::lengthSquared
; Function compile flags: /Ogtp
;	COMDAT ?lengthSquared@Vec3D@@QBEMXZ
_TEXT	SEGMENT
tv133 = -4						; size = 4
?lengthSquared@Vec3D@@QBEMXZ PROC			; Vec3D::lengthSquared, COMDAT
; _this$ = ecx
; Line 83
	push	ebp
	mov	ebp, esp
	push	ecx
; Line 84
	fld	DWORD PTR [ecx+4]
	fld	DWORD PTR [ecx]
	fld	DWORD PTR [ecx+8]
	fld	ST(1)
	fmulp	ST(2), ST(0)
	fld	ST(2)
	fmulp	ST(3), ST(0)
	fxch	ST(1)
	faddp	ST(2), ST(0)
	fmul	ST(0), ST(0)
	faddp	ST(1), ST(0)
	fstp	DWORD PTR tv133[ebp]
	fld	DWORD PTR tv133[ebp]
; Line 85
	mov	esp, ebp
	pop	ebp
	ret	0
?lengthSquared@Vec3D@@QBEMXZ ENDP			; Vec3D::lengthSquared
_TEXT	ENDS
PUBLIC	?length@Vec3D@@QBEMXZ				; Vec3D::length
; Function compile flags: /Ogtp
;	COMDAT ?length@Vec3D@@QBEMXZ
_TEXT	SEGMENT
tv170 = -4						; size = 4
tv161 = -4						; size = 4
?length@Vec3D@@QBEMXZ PROC				; Vec3D::length, COMDAT
; _this$ = ecx
; Line 88
	push	ebp
	mov	ebp, esp
	push	ecx
; Line 89
	fld	DWORD PTR [ecx+4]
	fld	DWORD PTR [ecx]
	fld	DWORD PTR [ecx+8]
	fld	ST(1)
	fmulp	ST(2), ST(0)
	fld	ST(2)
	fmulp	ST(3), ST(0)
	fxch	ST(1)
	faddp	ST(2), ST(0)
	fmul	ST(0), ST(0)
	faddp	ST(1), ST(0)
	fstp	DWORD PTR tv170[ebp]
	fld	DWORD PTR tv170[ebp]
	call	__CIsqrt
	fstp	DWORD PTR tv161[ebp]
	fld	DWORD PTR tv161[ebp]
; Line 90
	mov	esp, ebp
	pop	ebp
	ret	0
?length@Vec3D@@QBEMXZ ENDP				; Vec3D::length
_TEXT	ENDS
PUBLIC	__real@3ff0000000000000
PUBLIC	?normalize@Vec3D@@QAEAAV1@XZ			; Vec3D::normalize
;	COMDAT __real@3ff0000000000000
CONST	SEGMENT
__real@3ff0000000000000 DQ 03ff0000000000000r	; 1
; Function compile flags: /Ogtp
CONST	ENDS
;	COMDAT ?normalize@Vec3D@@QAEAAV1@XZ
_TEXT	SEGMENT
tv206 = -4						; size = 4
tv196 = -4						; size = 4
$T89376 = -4						; size = 4
?normalize@Vec3D@@QAEAAV1@XZ PROC			; Vec3D::normalize, COMDAT
; _this$ = ecx
; Line 93
	push	ebp
	mov	ebp, esp
	push	ecx
	push	esi
	mov	esi, ecx
; Line 94
	fld	DWORD PTR [esi+4]
	fld	DWORD PTR [esi]
	fld	DWORD PTR [esi+8]
	fld	ST(1)
	fmulp	ST(2), ST(0)
	fld	ST(2)
	fmulp	ST(3), ST(0)
	fxch	ST(1)
	faddp	ST(2), ST(0)
	fmul	ST(0), ST(0)
	faddp	ST(1), ST(0)
	fstp	DWORD PTR tv206[ebp]
	fld	DWORD PTR tv206[ebp]
	call	__CIsqrt
	fstp	DWORD PTR tv196[ebp]
	fld	DWORD PTR tv196[ebp]
; Line 95
	mov	eax, esi
	fld1
	fdivrp	ST(1), ST(0)
	fstp	DWORD PTR $T89376[ebp]
	fld	DWORD PTR [esi]
	fld	DWORD PTR $T89376[ebp]
	fld	ST(0)
	fmulp	ST(2), ST(0)
	fxch	ST(1)
	fstp	DWORD PTR [esi]
	fld	ST(0)
	fmul	DWORD PTR [esi+4]
	fstp	DWORD PTR [esi+4]
	fmul	DWORD PTR [esi+8]
	fstp	DWORD PTR [esi+8]
	pop	esi
; Line 96
	mov	esp, ebp
	pop	ebp
	ret	0
?normalize@Vec3D@@QAEAAV1@XZ ENDP			; Vec3D::normalize
_TEXT	ENDS
PUBLIC	??BVec3D@@QAEPAMXZ				; Vec3D::operator float *
; Function compile flags: /Ogtp
;	COMDAT ??BVec3D@@QAEPAMXZ
_TEXT	SEGMENT
??BVec3D@@QAEPAMXZ PROC					; Vec3D::operator float *, COMDAT
; _this$ = ecx
; Line 112
	mov	eax, ecx
; Line 114
	ret	0
??BVec3D@@QAEPAMXZ ENDP					; Vec3D::operator float *
_TEXT	ENDS
PUBLIC	??0Vec2D@@QAE@MM@Z				; Vec2D::Vec2D
; Function compile flags: /Ogtp
;	COMDAT ??0Vec2D@@QAE@MM@Z
_TEXT	SEGMENT
_x0$ = 8						; size = 4
_y0$ = 12						; size = 4
??0Vec2D@@QAE@MM@Z PROC					; Vec2D::Vec2D, COMDAT
; _this$ = ecx
; Line 122
	push	ebp
	mov	ebp, esp
	mov	edx, DWORD PTR _y0$[ebp]
	mov	eax, ecx
	mov	ecx, DWORD PTR _x0$[ebp]
	mov	DWORD PTR [eax], ecx
	mov	DWORD PTR [eax+4], edx
	pop	ebp
	ret	8
??0Vec2D@@QAE@MM@Z ENDP					; Vec2D::Vec2D
_TEXT	ENDS
PUBLIC	??0Vec2D@@QAE@ABV0@@Z				; Vec2D::Vec2D
; Function compile flags: /Ogtp
;	COMDAT ??0Vec2D@@QAE@ABV0@@Z
_TEXT	SEGMENT
_v$ = 8							; size = 4
??0Vec2D@@QAE@ABV0@@Z PROC				; Vec2D::Vec2D, COMDAT
; _this$ = ecx
; Line 124
	push	ebp
	mov	ebp, esp
	mov	eax, ecx
	mov	ecx, DWORD PTR _v$[ebp]
	mov	edx, DWORD PTR [ecx]
	mov	DWORD PTR [eax], edx
	mov	ecx, DWORD PTR [ecx+4]
	mov	DWORD PTR [eax+4], ecx
	pop	ebp
	ret	4
??0Vec2D@@QAE@ABV0@@Z ENDP				; Vec2D::Vec2D
_TEXT	ENDS
PUBLIC	??4Vec2D@@QAEAAV0@ABV0@@Z			; Vec2D::operator=
; Function compile flags: /Ogtp
;	COMDAT ??4Vec2D@@QAEAAV0@ABV0@@Z
_TEXT	SEGMENT
_v$ = 8							; size = 4
??4Vec2D@@QAEAAV0@ABV0@@Z PROC				; Vec2D::operator=, COMDAT
; _this$ = ecx
; Line 127
	push	ebp
	mov	ebp, esp
	mov	eax, ecx
; Line 128
	mov	ecx, DWORD PTR _v$[ebp]
	mov	edx, DWORD PTR [ecx]
	mov	DWORD PTR [eax], edx
; Line 129
	mov	ecx, DWORD PTR [ecx+4]
	mov	DWORD PTR [eax+4], ecx
; Line 131
	pop	ebp
	ret	4
??4Vec2D@@QAEAAV0@ABV0@@Z ENDP				; Vec2D::operator=
_TEXT	ENDS
PUBLIC	??BVec2D@@QAEPAMXZ				; Vec2D::operator float *
; Function compile flags: /Ogtp
;	COMDAT ??BVec2D@@QAEPAMXZ
_TEXT	SEGMENT
??BVec2D@@QAEPAMXZ PROC					; Vec2D::operator float *, COMDAT
; _this$ = ecx
; Line 212
	mov	eax, ecx
; Line 214
	ret	0
??BVec2D@@QAEPAMXZ ENDP					; Vec2D::operator float *
_TEXT	ENDS
PUBLIC	?getBuffer@MPQFile@@QAEPADXZ			; MPQFile::getBuffer
; Function compile flags: /Ogtp
;	COMDAT ?getBuffer@MPQFile@@QAEPADXZ
_TEXT	SEGMENT
?getBuffer@MPQFile@@QAEPADXZ PROC			; MPQFile::getBuffer, COMDAT
; _this$ = ecx
; File c:\programovani\wow editor\test\src\editor\mpq.h
; Line 48
	mov	eax, DWORD PTR [ecx+1028]
	ret	0
?getBuffer@MPQFile@@QAEPADXZ ENDP			; MPQFile::getBuffer
_TEXT	ENDS
PUBLIC	??0Vec4D@@QAE@MMMM@Z				; Vec4D::Vec4D
; Function compile flags: /Ogtp
;	COMDAT ??0Vec4D@@QAE@MMMM@Z
_TEXT	SEGMENT
_x0$ = 8						; size = 4
_y0$ = 12						; size = 4
_z0$ = 16						; size = 4
_w0$ = 20						; size = 4
??0Vec4D@@QAE@MMMM@Z PROC				; Vec4D::Vec4D, COMDAT
; _this$ = ecx
; File c:\programovani\wow editor\test\src\editor\quaternion.h
; Line 12
	push	ebp
	mov	ebp, esp
	mov	edx, DWORD PTR _y0$[ebp]
	mov	eax, ecx
	mov	ecx, DWORD PTR _x0$[ebp]
	mov	DWORD PTR [eax], ecx
	mov	ecx, DWORD PTR _z0$[ebp]
	mov	DWORD PTR [eax+4], edx
	mov	edx, DWORD PTR _w0$[ebp]
	mov	DWORD PTR [eax+8], ecx
	mov	DWORD PTR [eax+12], edx
	pop	ebp
	ret	16					; 00000010H
??0Vec4D@@QAE@MMMM@Z ENDP				; Vec4D::Vec4D
_TEXT	ENDS
PUBLIC	??0Vec4D@@QAE@ABV0@@Z				; Vec4D::Vec4D
; Function compile flags: /Ogtp
;	COMDAT ??0Vec4D@@QAE@ABV0@@Z
_TEXT	SEGMENT
_v$ = 8							; size = 4
??0Vec4D@@QAE@ABV0@@Z PROC				; Vec4D::Vec4D, COMDAT
; _this$ = ecx
; Line 14
	push	ebp
	mov	ebp, esp
	mov	eax, ecx
	mov	ecx, DWORD PTR _v$[ebp]
	mov	edx, DWORD PTR [ecx]
	mov	DWORD PTR [eax], edx
	mov	edx, DWORD PTR [ecx+4]
	mov	DWORD PTR [eax+4], edx
	mov	edx, DWORD PTR [ecx+8]
	mov	DWORD PTR [eax+8], edx
	mov	ecx, DWORD PTR [ecx+12]
	mov	DWORD PTR [eax+12], ecx
	pop	ebp
	ret	4
??0Vec4D@@QAE@ABV0@@Z ENDP				; Vec4D::Vec4D
_TEXT	ENDS
PUBLIC	??0Vec4D@@QAE@ABVVec3D@@M@Z			; Vec4D::Vec4D
; Function compile flags: /Ogtp
;	COMDAT ??0Vec4D@@QAE@ABVVec3D@@M@Z
_TEXT	SEGMENT
_v$ = 8							; size = 4
_w0$ = 12						; size = 4
??0Vec4D@@QAE@ABVVec3D@@M@Z PROC			; Vec4D::Vec4D, COMDAT
; _this$ = ecx
; Line 16
	push	ebp
	mov	ebp, esp
	mov	eax, ecx
	mov	ecx, DWORD PTR _v$[ebp]
	mov	edx, DWORD PTR [ecx]
	mov	DWORD PTR [eax], edx
	mov	edx, DWORD PTR [ecx+4]
	mov	DWORD PTR [eax+4], edx
	mov	ecx, DWORD PTR [ecx+8]
	mov	edx, DWORD PTR _w0$[ebp]
	mov	DWORD PTR [eax+8], ecx
	mov	DWORD PTR [eax+12], edx
	pop	ebp
	ret	8
??0Vec4D@@QAE@ABVVec3D@@M@Z ENDP			; Vec4D::Vec4D
_TEXT	ENDS
PUBLIC	??4Vec4D@@QAEAAV0@ABV0@@Z			; Vec4D::operator=
; Function compile flags: /Ogtp
;	COMDAT ??4Vec4D@@QAEAAV0@ABV0@@Z
_TEXT	SEGMENT
_v$ = 8							; size = 4
??4Vec4D@@QAEAAV0@ABV0@@Z PROC				; Vec4D::operator=, COMDAT
; _this$ = ecx
; Line 19
	push	ebp
	mov	ebp, esp
	mov	eax, ecx
; Line 20
	mov	ecx, DWORD PTR _v$[ebp]
	mov	edx, DWORD PTR [ecx]
	mov	DWORD PTR [eax], edx
; Line 21
	mov	edx, DWORD PTR [ecx+4]
	mov	DWORD PTR [eax+4], edx
; Line 22
	mov	edx, DWORD PTR [ecx+8]
	mov	DWORD PTR [eax+8], edx
; Line 23
	mov	ecx, DWORD PTR [ecx+12]
	mov	DWORD PTR [eax+12], ecx
; Line 25
	pop	ebp
	ret	4
??4Vec4D@@QAEAAV0@ABV0@@Z ENDP				; Vec4D::operator=
_TEXT	ENDS
PUBLIC	??HVec4D@@QBE?BV0@ABV0@@Z			; Vec4D::operator+
; Function compile flags: /Ogtp
;	COMDAT ??HVec4D@@QBE?BV0@ABV0@@Z
_TEXT	SEGMENT
___$ReturnUdt$ = 8					; size = 4
_v$ = 12						; size = 4
??HVec4D@@QBE?BV0@ABV0@@Z PROC				; Vec4D::operator+, COMDAT
; _this$ = ecx
; Line 28
	push	ebp
	mov	ebp, esp
; Line 29
	mov	edx, DWORD PTR _v$[ebp]
	fld	DWORD PTR [edx]
	mov	eax, DWORD PTR ___$ReturnUdt$[ebp]
	fadd	DWORD PTR [ecx]
	fstp	DWORD PTR [eax]
	fld	DWORD PTR [edx+4]
	fadd	DWORD PTR [ecx+4]
	fstp	DWORD PTR [eax+4]
	fld	DWORD PTR [edx+8]
	fadd	DWORD PTR [ecx+8]
	fstp	DWORD PTR [eax+8]
	fld	DWORD PTR [edx+12]
	fadd	DWORD PTR [ecx+12]
	fstp	DWORD PTR [eax+12]
; Line 31
	pop	ebp
	ret	8
??HVec4D@@QBE?BV0@ABV0@@Z ENDP				; Vec4D::operator+
_TEXT	ENDS
PUBLIC	??DVec4D@@QBE?BV0@M@Z				; Vec4D::operator*
; Function compile flags: /Ogtp
;	COMDAT ??DVec4D@@QBE?BV0@M@Z
_TEXT	SEGMENT
___$ReturnUdt$ = 8					; size = 4
_d$ = 12						; size = 4
??DVec4D@@QBE?BV0@M@Z PROC				; Vec4D::operator*, COMDAT
; _this$ = ecx
; Line 40
	push	ebp
	mov	ebp, esp
; Line 41
	fld	DWORD PTR [ecx]
	mov	eax, DWORD PTR ___$ReturnUdt$[ebp]
	fld	DWORD PTR _d$[ebp]
	fld	ST(0)
	fmulp	ST(2), ST(0)
	fxch	ST(1)
	fstp	DWORD PTR [eax]
	fld	DWORD PTR [ecx+4]
	fmul	ST(0), ST(1)
	fstp	DWORD PTR [eax+4]
	fld	DWORD PTR [ecx+8]
	fmul	ST(0), ST(1)
	fstp	DWORD PTR [eax+8]
	fmul	DWORD PTR [ecx+12]
	fstp	DWORD PTR [eax+12]
; Line 43
	pop	ebp
	ret	8
??DVec4D@@QBE?BV0@M@Z ENDP				; Vec4D::operator*
_TEXT	ENDS
PUBLIC	??BVec4D@@QAEPAMXZ				; Vec4D::operator float *
; Function compile flags: /Ogtp
;	COMDAT ??BVec4D@@QAEPAMXZ
_TEXT	SEGMENT
??BVec4D@@QAEPAMXZ PROC					; Vec4D::operator float *, COMDAT
; _this$ = ecx
; Line 99
	mov	eax, ecx
; Line 101
	ret	0
??BVec4D@@QAEPAMXZ ENDP					; Vec4D::operator float *
_TEXT	ENDS
PUBLIC	??0Matrix@@QAE@XZ				; Matrix::Matrix
; Function compile flags: /Ogtp
;	COMDAT ??0Matrix@@QAE@XZ
_TEXT	SEGMENT
??0Matrix@@QAE@XZ PROC					; Matrix::Matrix, COMDAT
; _this$ = ecx
; File c:\programovani\wow editor\test\src\editor\matrix.h
; Line 12
	mov	eax, ecx
; Line 14
	ret	0
??0Matrix@@QAE@XZ ENDP					; Matrix::Matrix
_TEXT	ENDS
PUBLIC	??0Matrix@@QAE@ABV0@@Z				; Matrix::Matrix
; Function compile flags: /Ogtp
;	COMDAT ??0Matrix@@QAE@ABV0@@Z
_TEXT	SEGMENT
_p$ = 8							; size = 4
??0Matrix@@QAE@ABV0@@Z PROC				; Matrix::Matrix, COMDAT
; _this$ = ecx
; Line 16
	push	ebp
	mov	ebp, esp
	mov	eax, ecx
; Line 22
	mov	ecx, DWORD PTR _p$[ebp]
	mov	edx, DWORD PTR [ecx]
	mov	DWORD PTR [eax], edx
	mov	edx, DWORD PTR [ecx+4]
	mov	DWORD PTR [eax+4], edx
	mov	edx, DWORD PTR [ecx+8]
	mov	DWORD PTR [eax+8], edx
	mov	edx, DWORD PTR [ecx+12]
	mov	DWORD PTR [eax+12], edx
	mov	edx, DWORD PTR [ecx+16]
	mov	DWORD PTR [eax+16], edx
	mov	edx, DWORD PTR [ecx+20]
	mov	DWORD PTR [eax+20], edx
	mov	edx, DWORD PTR [ecx+24]
	mov	DWORD PTR [eax+24], edx
	mov	edx, DWORD PTR [ecx+28]
	mov	DWORD PTR [eax+28], edx
	mov	edx, DWORD PTR [ecx+32]
	mov	DWORD PTR [eax+32], edx
	mov	edx, DWORD PTR [ecx+36]
	mov	DWORD PTR [eax+36], edx
	mov	edx, DWORD PTR [ecx+40]
	mov	DWORD PTR [eax+40], edx
	mov	edx, DWORD PTR [ecx+44]
	mov	DWORD PTR [eax+44], edx
	mov	edx, DWORD PTR [ecx+48]
	mov	DWORD PTR [eax+48], edx
	mov	edx, DWORD PTR [ecx+52]
	mov	DWORD PTR [eax+52], edx
	mov	edx, DWORD PTR [ecx+56]
	mov	DWORD PTR [eax+56], edx
	mov	ecx, DWORD PTR [ecx+60]
	mov	DWORD PTR [eax+60], ecx
; Line 25
	pop	ebp
	ret	4
??0Matrix@@QAE@ABV0@@Z ENDP				; Matrix::Matrix
_TEXT	ENDS
PUBLIC	?zero@Matrix@@QAEXXZ				; Matrix::zero
; Function compile flags: /Ogtp
;	COMDAT ?zero@Matrix@@QAEXXZ
_TEXT	SEGMENT
?zero@Matrix@@QAEXXZ PROC				; Matrix::zero, COMDAT
; _this$ = ecx
; Line 45
	xor	eax, eax
	mov	DWORD PTR [ecx], eax
	mov	DWORD PTR [ecx+4], eax
	mov	DWORD PTR [ecx+8], eax
	mov	DWORD PTR [ecx+12], eax
	mov	DWORD PTR [ecx+16], eax
	mov	DWORD PTR [ecx+20], eax
	mov	DWORD PTR [ecx+24], eax
	mov	DWORD PTR [ecx+28], eax
	mov	DWORD PTR [ecx+32], eax
	mov	DWORD PTR [ecx+36], eax
	mov	DWORD PTR [ecx+40], eax
	mov	DWORD PTR [ecx+44], eax
	mov	DWORD PTR [ecx+48], eax
	mov	DWORD PTR [ecx+52], eax
	mov	DWORD PTR [ecx+56], eax
	mov	DWORD PTR [ecx+60], eax
; Line 48
	ret	0
?zero@Matrix@@QAEXXZ ENDP				; Matrix::zero
_TEXT	ENDS
PUBLIC	?unit@Matrix@@QAEXXZ				; Matrix::unit
; Function compile flags: /Ogtp
;	COMDAT ?unit@Matrix@@QAEXXZ
_TEXT	SEGMENT
?unit@Matrix@@QAEXXZ PROC				; Matrix::unit, COMDAT
; _this$ = ecx
; Line 52
	xor	eax, eax
	mov	DWORD PTR [ecx+4], eax
	mov	DWORD PTR [ecx+8], eax
	mov	DWORD PTR [ecx+12], eax
	mov	DWORD PTR [ecx+16], eax
	mov	DWORD PTR [ecx+24], eax
	mov	DWORD PTR [ecx+28], eax
	mov	DWORD PTR [ecx+32], eax
	mov	DWORD PTR [ecx+36], eax
	mov	DWORD PTR [ecx+44], eax
	mov	DWORD PTR [ecx+48], eax
	mov	DWORD PTR [ecx+52], eax
	mov	DWORD PTR [ecx+56], eax
; Line 53
	mov	eax, 1065353216				; 3f800000H
	mov	DWORD PTR [ecx+60], eax
	mov	DWORD PTR [ecx+40], eax
	mov	DWORD PTR [ecx+20], eax
	mov	DWORD PTR [ecx], eax
; Line 54
	ret	0
?unit@Matrix@@QAEXXZ ENDP				; Matrix::unit
_TEXT	ENDS
PUBLIC	??DMatrix@@QBE?AVVec3D@@ABV1@@Z			; Matrix::operator*
; Function compile flags: /Ogtp
;	COMDAT ??DMatrix@@QBE?AVVec3D@@ABV1@@Z
_TEXT	SEGMENT
___$ReturnUdt$ = 8					; size = 4
_v$ = 12						; size = 4
??DMatrix@@QBE?AVVec3D@@ABV1@@Z PROC			; Matrix::operator*, COMDAT
; _this$ = ecx
; Line 179
	push	ebp
	mov	ebp, esp
; Line 181
	mov	edx, DWORD PTR _v$[ebp]
	fld	DWORD PTR [ecx+4]
	fmul	DWORD PTR [edx+4]
	mov	eax, DWORD PTR ___$ReturnUdt$[ebp]
	fld	DWORD PTR [edx]
	fmul	DWORD PTR [ecx]
	faddp	ST(1), ST(0)
	fld	DWORD PTR [ecx+8]
	fmul	DWORD PTR [edx+8]
	faddp	ST(1), ST(0)
	fadd	DWORD PTR [ecx+12]
	fstp	DWORD PTR [eax]
; Line 182
	fld	DWORD PTR [ecx+20]
	fmul	DWORD PTR [edx+4]
	fld	DWORD PTR [ecx+16]
	fmul	DWORD PTR [edx]
	faddp	ST(1), ST(0)
	fld	DWORD PTR [ecx+24]
	fmul	DWORD PTR [edx+8]
	faddp	ST(1), ST(0)
	fadd	DWORD PTR [ecx+28]
	fstp	DWORD PTR [eax+4]
; Line 183
	fld	DWORD PTR [ecx+36]
	fmul	DWORD PTR [edx+4]
	fld	DWORD PTR [ecx+32]
	fmul	DWORD PTR [edx]
	faddp	ST(1), ST(0)
	fld	DWORD PTR [ecx+40]
	fmul	DWORD PTR [edx+8]
	faddp	ST(1), ST(0)
	fadd	DWORD PTR [ecx+44]
	fstp	DWORD PTR [eax+8]
; Line 185
	pop	ebp
	ret	8
??DMatrix@@QBE?AVVec3D@@ABV1@@Z ENDP			; Matrix::operator*
_TEXT	ENDS
PUBLIC	?determinant@Matrix@@QBEMXZ			; Matrix::determinant
; Function compile flags: /Ogtp
;	COMDAT ?determinant@Matrix@@QBEMXZ
_TEXT	SEGMENT
tv455 = -4						; size = 4
?determinant@Matrix@@QBEMXZ PROC			; Matrix::determinant, COMDAT
; _this$ = ecx
; Line 214
	push	ebp
	mov	ebp, esp
	push	ecx
; Line 220
	fld	DWORD PTR [ecx+60]
	fmul	DWORD PTR [ecx+40]
	fld	DWORD PTR [ecx+56]
	fmul	DWORD PTR [ecx+44]
	fsubp	ST(1), ST(0)
	fld	DWORD PTR [ecx+36]
	fmul	DWORD PTR [ecx+60]
	fld	DWORD PTR [ecx+52]
	fmul	DWORD PTR [ecx+44]
	fsubp	ST(1), ST(0)
	fld	DWORD PTR [ecx+56]
	fmul	DWORD PTR [ecx+36]
	fld	DWORD PTR [ecx+52]
	fmul	DWORD PTR [ecx+40]
	fsubp	ST(1), ST(0)
	fld	DWORD PTR [ecx+32]
	fmul	DWORD PTR [ecx+60]
	fld	DWORD PTR [ecx+44]
	fmul	DWORD PTR [ecx+48]
	fsubp	ST(1), ST(0)
	fld	DWORD PTR [ecx+32]
	fmul	DWORD PTR [ecx+56]
	fld	DWORD PTR [ecx+48]
	fmul	DWORD PTR [ecx+40]
	fsubp	ST(1), ST(0)
	fld	DWORD PTR [ecx+32]
	fmul	DWORD PTR [ecx+52]
	fld	DWORD PTR [ecx+36]
	fmul	DWORD PTR [ecx+48]
	fsubp	ST(1), ST(0)
	fld	DWORD PTR [ecx+20]
	fmul	ST(0), ST(6)
	fld	DWORD PTR [ecx+24]
	fmul	ST(0), ST(6)
	fsubp	ST(1), ST(0)
	fld	DWORD PTR [ecx+28]
	fmul	ST(0), ST(5)
	faddp	ST(1), ST(0)
	fmul	DWORD PTR [ecx]
	fld	DWORD PTR [ecx+16]
	fmulp	ST(7), ST(0)
	fld	DWORD PTR [ecx+24]
	fmul	ST(0), ST(4)
	fsubp	ST(7), ST(0)
	fld	DWORD PTR [ecx+28]
	fmul	ST(0), ST(3)
	faddp	ST(7), ST(0)
	fld	DWORD PTR [ecx+4]
	fmulp	ST(7), ST(0)
	fsubrp	ST(6), ST(0)
	fld	DWORD PTR [ecx+16]
	fmulp	ST(5), ST(0)
	fld	DWORD PTR [ecx+20]
	fmulp	ST(3), ST(0)
	fxch	ST(4)
	fsubrp	ST(2), ST(0)
	fld	DWORD PTR [ecx+28]
	fmul	ST(0), ST(4)
	faddp	ST(2), ST(0)
	fld	DWORD PTR [ecx+8]
	fmulp	ST(2), ST(0)
	fxch	ST(4)
	faddp	ST(1), ST(0)
	fld	DWORD PTR [ecx+16]
	fmulp	ST(2), ST(0)
	fld	DWORD PTR [ecx+20]
	fmulp	ST(4), ST(0)
	fxch	ST(1)
	fsubrp	ST(3), ST(0)
	fld	DWORD PTR [ecx+24]
	fmulp	ST(2), ST(0)
	fxch	ST(2)
	faddp	ST(1), ST(0)
	fmul	DWORD PTR [ecx+12]
	fsubp	ST(1), ST(0)
	fstp	DWORD PTR tv455[ebp]
	fld	DWORD PTR tv455[ebp]
; Line 222
	mov	esp, ebp
	pop	ebp
	ret	0
?determinant@Matrix@@QBEMXZ ENDP			; Matrix::determinant
_TEXT	ENDS
PUBLIC	__$ArrayPad$
PUBLIC	?minor@Matrix@@QBE?BMII@Z			; Matrix::minor
EXTRN	___security_cookie:DWORD
EXTRN	@__security_check_cookie@4:PROC
; Function compile flags: /Ogtp
;	COMDAT ?minor@Matrix@@QBE?BMII@Z
_TEXT	SEGMENT
tv790 = -44						; size = 4
_s$ = -40						; size = 36
__$ArrayPad$ = -4					; size = 4
_x$ = 8							; size = 4
_y$ = 12						; size = 4
?minor@Matrix@@QBE?BMII@Z PROC				; Matrix::minor, COMDAT
; _this$ = ecx
; Line 225
	push	ebp
	mov	ebp, esp
	sub	esp, 44					; 0000002cH
	mov	eax, DWORD PTR ___security_cookie
	xor	eax, ebp
	mov	DWORD PTR __$ArrayPad$[ebp], eax
; Line 229
	mov	edx, DWORD PTR _y$[ebp]
	push	ebx
	push	esi
	mov	esi, DWORD PTR _x$[ebp]
	xor	eax, eax
	push	edi
	test	edx, edx
	je	SHORT $LN7@minor
; Line 232
	test	esi, esi
	je	SHORT $LN3@minor
; Line 234
	mov	eax, DWORD PTR [ecx]
	mov	DWORD PTR _s$[ebp], eax
	mov	eax, 1
$LN3@minor:
; Line 232
	cmp	esi, 1
	je	SHORT $LN19@minor
; Line 234
	mov	edi, DWORD PTR [ecx+4]
	mov	DWORD PTR _s$[ebp+eax*4], edi
	inc	eax
$LN19@minor:
; Line 232
	cmp	esi, 2
	je	SHORT $LN21@minor
; Line 234
	mov	edi, DWORD PTR [ecx+8]
	mov	DWORD PTR _s$[ebp+eax*4], edi
	inc	eax
$LN21@minor:
; Line 232
	cmp	esi, 3
	je	SHORT $LN23@minor
; Line 234
	mov	edi, DWORD PTR [ecx+12]
	mov	DWORD PTR _s$[ebp+eax*4], edi
$LN23@minor:
; Line 237
	mov	eax, 1
$LN7@minor:
; Line 229
	cmp	edx, 1
	je	SHORT $LN48@minor
; Line 230
	xor	edx, edx
; Line 232
	test	esi, esi
	je	SHORT $LN39@minor
; Line 234
	mov	edi, DWORD PTR [ecx+16]
	lea	edx, DWORD PTR [eax+eax*2]
	mov	DWORD PTR _s$[ebp+edx*4], edi
	mov	edx, 1
$LN39@minor:
; Line 232
	cmp	esi, 1
	je	SHORT $LN41@minor
; Line 234
	mov	ebx, DWORD PTR [ecx+20]
	lea	edi, DWORD PTR [edx+eax*2]
	add	edi, eax
	mov	DWORD PTR _s$[ebp+edi*4], ebx
	inc	edx
$LN41@minor:
; Line 232
	cmp	esi, 2
	je	SHORT $LN43@minor
; Line 234
	mov	ebx, DWORD PTR [ecx+24]
	lea	edi, DWORD PTR [edx+eax*2]
	add	edi, eax
	mov	DWORD PTR _s$[ebp+edi*4], ebx
	inc	edx
$LN43@minor:
; Line 232
	cmp	esi, 3
	je	SHORT $LN45@minor
; Line 234
	mov	edi, DWORD PTR [ecx+28]
	lea	edx, DWORD PTR [edx+eax*2]
	add	edx, eax
	mov	DWORD PTR _s$[ebp+edx*4], edi
$LN45@minor:
; Line 237
	mov	edx, DWORD PTR _y$[ebp]
	inc	eax
$LN48@minor:
; Line 229
	cmp	edx, 2
	je	SHORT $LN60@minor
; Line 230
	xor	edx, edx
; Line 232
	test	esi, esi
	je	SHORT $LN51@minor
; Line 234
	mov	edi, DWORD PTR [ecx+32]
	lea	edx, DWORD PTR [eax+eax*2]
	mov	DWORD PTR _s$[ebp+edx*4], edi
	mov	edx, 1
$LN51@minor:
; Line 232
	cmp	esi, 1
	je	SHORT $LN53@minor
; Line 234
	mov	ebx, DWORD PTR [ecx+36]
	lea	edi, DWORD PTR [edx+eax*2]
	add	edi, eax
	mov	DWORD PTR _s$[ebp+edi*4], ebx
	inc	edx
$LN53@minor:
; Line 232
	cmp	esi, 2
	je	SHORT $LN55@minor
; Line 234
	mov	ebx, DWORD PTR [ecx+40]
	lea	edi, DWORD PTR [edx+eax*2]
	add	edi, eax
	mov	DWORD PTR _s$[ebp+edi*4], ebx
	inc	edx
$LN55@minor:
; Line 232
	cmp	esi, 3
	je	SHORT $LN57@minor
; Line 234
	mov	edi, DWORD PTR [ecx+44]
	lea	edx, DWORD PTR [edx+eax*2]
	add	edx, eax
	mov	DWORD PTR _s$[ebp+edx*4], edi
$LN57@minor:
; Line 237
	mov	edx, DWORD PTR _y$[ebp]
	inc	eax
$LN60@minor:
; Line 229
	cmp	edx, 3
	je	SHORT $LN69@minor
; Line 230
	xor	edx, edx
; Line 232
	test	esi, esi
	je	SHORT $LN63@minor
; Line 234
	mov	edi, DWORD PTR [ecx+48]
	lea	edx, DWORD PTR [eax+eax*2]
	mov	DWORD PTR _s$[ebp+edx*4], edi
	mov	edx, 1
$LN63@minor:
; Line 232
	cmp	esi, 1
	je	SHORT $LN65@minor
; Line 234
	mov	ebx, DWORD PTR [ecx+52]
	lea	edi, DWORD PTR [edx+eax*2]
	add	edi, eax
	mov	DWORD PTR _s$[ebp+edi*4], ebx
	inc	edx
$LN65@minor:
; Line 232
	cmp	esi, 2
	je	SHORT $LN67@minor
; Line 234
	mov	ebx, DWORD PTR [ecx+56]
	lea	edi, DWORD PTR [edx+eax*2]
	add	edi, eax
	mov	DWORD PTR _s$[ebp+edi*4], ebx
	inc	edx
$LN67@minor:
; Line 232
	cmp	esi, 3
	je	SHORT $LN69@minor
; Line 234
	lea	edx, DWORD PTR [edx+eax*2]
	add	edx, eax
	mov	eax, DWORD PTR [ecx+60]
	mov	DWORD PTR _s$[ebp+edx*4], eax
$LN69@minor:
; Line 240
	fld	DWORD PTR _s$[ebp+32]
; Line 242
	mov	ecx, DWORD PTR __$ArrayPad$[ebp]
	fld	ST(0)
	pop	edi
	fld	DWORD PTR _s$[ebp+16]
	pop	esi
	fld	ST(0)
	xor	ecx, ebp
	fmulp	ST(2), ST(0)
	pop	ebx
	fld	DWORD PTR _s$[ebp+20]
	fld	ST(0)
	fld	DWORD PTR _s$[ebp+28]
	fld	ST(0)
	fmulp	ST(2), ST(0)
	fxch	ST(4)
	fsubrp	ST(1), ST(0)
	fmul	DWORD PTR _s$[ebp]
	fld	DWORD PTR _s$[ebp+12]
	fld	ST(0)
	fmulp	ST(6), ST(0)
	fld	DWORD PTR _s$[ebp+24]
	fld	ST(0)
	fmulp	ST(4), ST(0)
	fxch	ST(6)
	fsubrp	ST(3), ST(0)
	fld	DWORD PTR _s$[ebp+4]
	fmulp	ST(3), ST(0)
	fxch	ST(1)
	fsubrp	ST(2), ST(0)
	fmulp	ST(3), ST(0)
	fxch	ST(3)
	fmulp	ST(1), ST(0)
	fsubp	ST(1), ST(0)
	fmul	DWORD PTR _s$[ebp+8]
	faddp	ST(1), ST(0)
	fstp	DWORD PTR tv790[ebp]
	fld	DWORD PTR tv790[ebp]
	call	@__security_check_cookie@4
	mov	esp, ebp
	pop	ebp
	ret	8
?minor@Matrix@@QBE?BMII@Z ENDP				; Matrix::minor
_TEXT	ENDS
PUBLIC	__real@3f800000
PUBLIC	__real@bf800000
PUBLIC	?adjoint@Matrix@@QBE?BV1@XZ			; Matrix::adjoint
;	COMDAT __real@3f800000
CONST	SEGMENT
__real@3f800000 DD 03f800000r			; 1
CONST	ENDS
;	COMDAT __real@bf800000
CONST	SEGMENT
__real@bf800000 DD 0bf800000r			; -1
; Function compile flags: /Ogtp
CONST	ENDS
;	COMDAT ?adjoint@Matrix@@QBE?BV1@XZ
_TEXT	SEGMENT
_this$ = -12						; size = 4
tv76 = -8						; size = 4
tv238 = -4						; size = 4
___$ReturnUdt$ = 8					; size = 4
?adjoint@Matrix@@QBE?BV1@XZ PROC			; Matrix::adjoint, COMDAT
; _this$ = ecx
; Line 245
	push	ebp
	mov	ebp, esp
	sub	esp, 12					; 0000000cH
; Line 247
	mov	eax, DWORD PTR ___$ReturnUdt$[ebp]
	push	ebx
	push	esi
	push	edi
	mov	DWORD PTR _this$[ebp], ecx
	xor	ebx, ebx
	mov	DWORD PTR tv238[ebp], eax
$LL17@adjoint:
; Line 249
	mov	edi, DWORD PTR tv238[ebp]
	xor	esi, esi
	npad	7
$LL18@adjoint:
; Line 251
	lea	ecx, DWORD PTR [esi+ebx]
	test	cl, 1
	je	SHORT $LN9@adjoint
	fld	DWORD PTR __real@bf800000
	jmp	SHORT $LN19@adjoint
$LN9@adjoint:
	fld1
$LN19@adjoint:
	mov	ecx, DWORD PTR _this$[ebp]
	fstp	DWORD PTR tv76[ebp]
	push	ebx
	push	esi
	call	?minor@Matrix@@QBE?BMII@Z		; Matrix::minor
	fmul	DWORD PTR tv76[ebp]
	inc	esi
	add	edi, 16					; 00000010H
	fstp	DWORD PTR [edi-16]
	cmp	esi, 4
	jb	SHORT $LL18@adjoint
; Line 247
	add	DWORD PTR tv238[ebp], 4
	inc	ebx
	cmp	ebx, 4
	jb	SHORT $LL17@adjoint
; Line 254
	mov	eax, DWORD PTR ___$ReturnUdt$[ebp]
	pop	edi
	pop	esi
	pop	ebx
; Line 255
	mov	esp, ebp
	pop	ebp
	ret	4
?adjoint@Matrix@@QBE?BV1@XZ ENDP			; Matrix::adjoint
_TEXT	ENDS
PUBLIC	__$ArrayPad$
PUBLIC	?invert@Matrix@@QAEXXZ				; Matrix::invert
; Function compile flags: /Ogtp
;	COMDAT ?invert@Matrix@@QAEXXZ
_TEXT	SEGMENT
_invdet$ = -72						; size = 4
_adj$ = -68						; size = 64
__$ArrayPad$ = -4					; size = 4
?invert@Matrix@@QAEXXZ PROC				; Matrix::invert, COMDAT
; _this$ = ecx
; Line 258
	push	ebp
	mov	ebp, esp
	sub	esp, 72					; 00000048H
	mov	eax, DWORD PTR ___security_cookie
	xor	eax, ebp
	mov	DWORD PTR __$ArrayPad$[ebp], eax
	push	esi
; Line 259
	lea	eax, DWORD PTR _adj$[ebp]
	push	eax
	mov	esi, ecx
	call	?adjoint@Matrix@@QBE?BV1@XZ		; Matrix::adjoint
; Line 260
	mov	ecx, esi
	call	?determinant@Matrix@@QBEMXZ		; Matrix::determinant
	fld1
	fdivrp	ST(1), ST(0)
; Line 267
	mov	ecx, DWORD PTR __$ArrayPad$[ebp]
	xor	ecx, ebp
	fstp	DWORD PTR _invdet$[ebp]
	fld	DWORD PTR _adj$[ebp]
	fld	DWORD PTR _invdet$[ebp]
	fld	ST(0)
	fmulp	ST(2), ST(0)
	fxch	ST(1)
	fstp	DWORD PTR [esi]
	fld	DWORD PTR _adj$[ebp+4]
	fmul	ST(0), ST(1)
	fstp	DWORD PTR [esi+4]
	fld	DWORD PTR _adj$[ebp+8]
	fmul	ST(0), ST(1)
	fstp	DWORD PTR [esi+8]
	fld	DWORD PTR _adj$[ebp+12]
	fmul	ST(0), ST(1)
	fstp	DWORD PTR [esi+12]
	fld	DWORD PTR _adj$[ebp+16]
	fmul	ST(0), ST(1)
	fstp	DWORD PTR [esi+16]
	fld	DWORD PTR _adj$[ebp+20]
	fmul	ST(0), ST(1)
	fstp	DWORD PTR [esi+20]
	fld	DWORD PTR _adj$[ebp+24]
	fmul	ST(0), ST(1)
	fstp	DWORD PTR [esi+24]
	fld	DWORD PTR _adj$[ebp+28]
	fmul	ST(0), ST(1)
	fstp	DWORD PTR [esi+28]
	fld	DWORD PTR _adj$[ebp+32]
	fmul	ST(0), ST(1)
	fstp	DWORD PTR [esi+32]
	fld	DWORD PTR _adj$[ebp+36]
	fmul	ST(0), ST(1)
	fstp	DWORD PTR [esi+36]
	fld	DWORD PTR _adj$[ebp+40]
	fmul	ST(0), ST(1)
	fstp	DWORD PTR [esi+40]
	fld	DWORD PTR _adj$[ebp+44]
	fmul	ST(0), ST(1)
	fstp	DWORD PTR [esi+44]
	fld	DWORD PTR _adj$[ebp+48]
	fmul	ST(0), ST(1)
	fstp	DWORD PTR [esi+48]
	fld	DWORD PTR _adj$[ebp+52]
	fmul	ST(0), ST(1)
	fstp	DWORD PTR [esi+52]
	fld	DWORD PTR _adj$[ebp+56]
	fmul	ST(0), ST(1)
	fstp	DWORD PTR [esi+56]
	fmul	DWORD PTR _adj$[ebp+60]
	fstp	DWORD PTR [esi+60]
	pop	esi
	call	@__security_check_cookie@4
	mov	esp, ebp
	pop	ebp
	ret	0
?invert@Matrix@@QAEXXZ ENDP				; Matrix::invert
_TEXT	ENDS
PUBLIC	?transpose@Matrix@@QAEXXZ			; Matrix::transpose
; Function compile flags: /Ogtp
;	COMDAT ?transpose@Matrix@@QAEXXZ
_TEXT	SEGMENT
_i$68928 = -12						; size = 4
tv1369 = -8						; size = 4
_this$ = -4						; size = 4
?transpose@Matrix@@QAEXXZ PROC				; Matrix::transpose, COMDAT
; _this$ = ecx
; Line 270
	push	ebp
	mov	ebp, esp
	sub	esp, 12					; 0000000cH
	push	ebx
	mov	eax, ecx
	push	esi
; Line 271
	lea	edx, DWORD PTR [eax+16]
	push	edi
	mov	DWORD PTR _this$[ebp], eax
	mov	ebx, 1
	mov	DWORD PTR tv1369[ebp], edx
	npad	7
$LL6@transpose:
; Line 273
	xor	edi, edi
	cmp	ebx, 4
	jl	SHORT $LC14@transpose
	lea	esi, DWORD PTR [ebx-4]
	shr	esi, 2
	inc	esi
	lea	ecx, DWORD PTR [esi*4]
	lea	eax, DWORD PTR [eax+ebx*4+32]
	mov	DWORD PTR _i$68928[ebp], ecx
	npad	4
$LL15@transpose:
; Line 276
	mov	ecx, DWORD PTR [eax-32]
	mov	edi, DWORD PTR [edx]
	mov	DWORD PTR [edx], ecx
	mov	ecx, DWORD PTR [eax-16]
; Line 277
	mov	DWORD PTR [eax-32], edi
	mov	edi, DWORD PTR [edx+4]
	mov	DWORD PTR [edx+4], ecx
	mov	ecx, DWORD PTR [eax]
	mov	DWORD PTR [eax-16], edi
	mov	edi, DWORD PTR [edx+8]
	mov	DWORD PTR [edx+8], ecx
	mov	ecx, DWORD PTR [eax+16]
	mov	DWORD PTR [eax], edi
	mov	edi, DWORD PTR [edx+12]
	mov	DWORD PTR [edx+12], ecx
	mov	DWORD PTR [eax+16], edi
	add	eax, 64					; 00000040H
	add	edx, 16					; 00000010H
	dec	esi
	jne	SHORT $LL15@transpose
; Line 273
	mov	edi, DWORD PTR _i$68928[ebp]
	mov	eax, DWORD PTR _this$[ebp]
$LC14@transpose:
	cmp	edi, ebx
	jae	SHORT $LN5@transpose
	lea	edx, DWORD PTR [edi+ebx*4]
	lea	ecx, DWORD PTR [ebx+edi*4]
	mov	esi, ebx
	lea	edx, DWORD PTR [eax+edx*4]
	lea	eax, DWORD PTR [eax+ecx*4]
	sub	esi, edi
	npad	1
$LC3@transpose:
; Line 276
	mov	ecx, DWORD PTR [eax]
	mov	edi, DWORD PTR [edx]
	mov	DWORD PTR [edx], ecx
; Line 277
	mov	DWORD PTR [eax], edi
	add	eax, 16					; 00000010H
	add	edx, 4
	dec	esi
	jne	SHORT $LC3@transpose
; Line 273
	mov	eax, DWORD PTR _this$[ebp]
$LN5@transpose:
; Line 271
	mov	edx, DWORD PTR tv1369[ebp]
	inc	ebx
	add	edx, 16					; 00000010H
	mov	DWORD PTR tv1369[ebp], edx
	cmp	ebx, 4
	jb	$LL6@transpose
	pop	edi
	pop	esi
	pop	ebx
; Line 280
	mov	esp, ebp
	pop	ebp
	ret	0
?transpose@Matrix@@QAEXXZ ENDP				; Matrix::transpose
_TEXT	ENDS
PUBLIC	__real@40dfffc000000000
PUBLIC	?conv@ShortToFloat@@SA?BMF@Z			; ShortToFloat::conv
;	COMDAT __real@40dfffc000000000
; File c:\programovani\wow editor\test\src\editor\animated.h
CONST	SEGMENT
__real@40dfffc000000000 DQ 040dfffc000000000r	; 32767
; Function compile flags: /Ogtp
CONST	ENDS
;	COMDAT ?conv@ShortToFloat@@SA?BMF@Z
_TEXT	SEGMENT
tv128 = 8						; size = 4
tv70 = 8						; size = 4
_t$ = 8							; size = 2
?conv@ShortToFloat@@SA?BMF@Z PROC			; ShortToFloat::conv, COMDAT
; Line 72
	push	ebp
	mov	ebp, esp
; Line 73
	movsx	eax, WORD PTR _t$[ebp]
	mov	DWORD PTR tv70[ebp], eax
	fild	DWORD PTR tv70[ebp]
	fdiv	QWORD PTR __real@40dfffc000000000
	fstp	DWORD PTR tv128[ebp]
	fld	DWORD PTR tv128[ebp]
; Line 74
	pop	ebp
	ret	0
?conv@ShortToFloat@@SA?BMF@Z ENDP			; ShortToFloat::conv
_TEXT	ENDS
PUBLIC	??_7ParticleEmitter@@6B@			; ParticleEmitter::`vftable'
PUBLIC	??0ParticleEmitter@@QAE@PAVParticleSystem@@@Z	; ParticleEmitter::ParticleEmitter
PUBLIC	??_R4ParticleEmitter@@6B@			; ParticleEmitter::`RTTI Complete Object Locator'
PUBLIC	??_R0?AVParticleEmitter@@@8			; ParticleEmitter `RTTI Type Descriptor'
PUBLIC	??_R3ParticleEmitter@@8				; ParticleEmitter::`RTTI Class Hierarchy Descriptor'
PUBLIC	??_R2ParticleEmitter@@8				; ParticleEmitter::`RTTI Base Class Array'
PUBLIC	??_R1A@?0A@EA@ParticleEmitter@@8		; ParticleEmitter::`RTTI Base Class Descriptor at (0,-1,0,64)'
EXTRN	__purecall:PROC
;	COMDAT ??_R1A@?0A@EA@ParticleEmitter@@8
; File c:\programovani\wow editor\test\src\editor\particle.h
rdata$r	SEGMENT
??_R1A@?0A@EA@ParticleEmitter@@8 DD FLAT:??_R0?AVParticleEmitter@@@8 ; ParticleEmitter::`RTTI Base Class Descriptor at (0,-1,0,64)'
	DD	00H
	DD	00H
	DD	0ffffffffH
	DD	00H
	DD	040H
	DD	FLAT:??_R3ParticleEmitter@@8
rdata$r	ENDS
;	COMDAT ??_R2ParticleEmitter@@8
rdata$r	SEGMENT
??_R2ParticleEmitter@@8 DD FLAT:??_R1A@?0A@EA@ParticleEmitter@@8 ; ParticleEmitter::`RTTI Base Class Array'
rdata$r	ENDS
;	COMDAT ??_R3ParticleEmitter@@8
rdata$r	SEGMENT
??_R3ParticleEmitter@@8 DD 00H				; ParticleEmitter::`RTTI Class Hierarchy Descriptor'
	DD	00H
	DD	01H
	DD	FLAT:??_R2ParticleEmitter@@8
rdata$r	ENDS
;	COMDAT ??_R0?AVParticleEmitter@@@8
_DATA	SEGMENT
??_R0?AVParticleEmitter@@@8 DD FLAT:??_7type_info@@6B@	; ParticleEmitter `RTTI Type Descriptor'
	DD	00H
	DB	'.?AVParticleEmitter@@', 00H
_DATA	ENDS
;	COMDAT ??_R4ParticleEmitter@@6B@
rdata$r	SEGMENT
??_R4ParticleEmitter@@6B@ DD 00H			; ParticleEmitter::`RTTI Complete Object Locator'
	DD	00H
	DD	00H
	DD	FLAT:??_R0?AVParticleEmitter@@@8
	DD	FLAT:??_R3ParticleEmitter@@8
rdata$r	ENDS
;	COMDAT ??_7ParticleEmitter@@6B@
CONST	SEGMENT
??_7ParticleEmitter@@6B@ DD FLAT:??_R4ParticleEmitter@@6B@ ; ParticleEmitter::`vftable'
	DD	FLAT:__purecall
; Function compile flags: /Ogtp
CONST	ENDS
;	COMDAT ??0ParticleEmitter@@QAE@PAVParticleSystem@@@Z
_TEXT	SEGMENT
_sys$ = 8						; size = 4
??0ParticleEmitter@@QAE@PAVParticleSystem@@@Z PROC	; ParticleEmitter::ParticleEmitter, COMDAT
; _this$ = ecx
; Line 28
	push	ebp
	mov	ebp, esp
	mov	eax, ecx
	mov	ecx, DWORD PTR _sys$[ebp]
	mov	DWORD PTR [eax], OFFSET ??_7ParticleEmitter@@6B@
	mov	DWORD PTR [eax+4], ecx
	pop	ebp
	ret	4
??0ParticleEmitter@@QAE@PAVParticleSystem@@@Z ENDP	; ParticleEmitter::ParticleEmitter
_TEXT	ENDS
PUBLIC	??_7PlaneParticleEmitter@@6B@			; PlaneParticleEmitter::`vftable'
PUBLIC	??0PlaneParticleEmitter@@QAE@PAVParticleSystem@@@Z ; PlaneParticleEmitter::PlaneParticleEmitter
PUBLIC	??_R4PlaneParticleEmitter@@6B@			; PlaneParticleEmitter::`RTTI Complete Object Locator'
PUBLIC	??_R0?AVPlaneParticleEmitter@@@8		; PlaneParticleEmitter `RTTI Type Descriptor'
PUBLIC	??_R3PlaneParticleEmitter@@8			; PlaneParticleEmitter::`RTTI Class Hierarchy Descriptor'
PUBLIC	??_R2PlaneParticleEmitter@@8			; PlaneParticleEmitter::`RTTI Base Class Array'
PUBLIC	??_R1A@?0A@EA@PlaneParticleEmitter@@8		; PlaneParticleEmitter::`RTTI Base Class Descriptor at (0,-1,0,64)'
PUBLIC	?newParticle@PlaneParticleEmitter@@UAE?AUParticle@@HH@Z ; PlaneParticleEmitter::newParticle
;	COMDAT ??_R1A@?0A@EA@PlaneParticleEmitter@@8
rdata$r	SEGMENT
??_R1A@?0A@EA@PlaneParticleEmitter@@8 DD FLAT:??_R0?AVPlaneParticleEmitter@@@8 ; PlaneParticleEmitter::`RTTI Base Class Descriptor at (0,-1,0,64)'
	DD	01H
	DD	00H
	DD	0ffffffffH
	DD	00H
	DD	040H
	DD	FLAT:??_R3PlaneParticleEmitter@@8
rdata$r	ENDS
;	COMDAT ??_R2PlaneParticleEmitter@@8
rdata$r	SEGMENT
??_R2PlaneParticleEmitter@@8 DD FLAT:??_R1A@?0A@EA@PlaneParticleEmitter@@8 ; PlaneParticleEmitter::`RTTI Base Class Array'
	DD	FLAT:??_R1A@?0A@EA@ParticleEmitter@@8
rdata$r	ENDS
;	COMDAT ??_R3PlaneParticleEmitter@@8
rdata$r	SEGMENT
??_R3PlaneParticleEmitter@@8 DD 00H			; PlaneParticleEmitter::`RTTI Class Hierarchy Descriptor'
	DD	00H
	DD	02H
	DD	FLAT:??_R2PlaneParticleEmitter@@8
rdata$r	ENDS
;	COMDAT ??_R0?AVPlaneParticleEmitter@@@8
_DATA	SEGMENT
??_R0?AVPlaneParticleEmitter@@@8 DD FLAT:??_7type_info@@6B@ ; PlaneParticleEmitter `RTTI Type Descriptor'
	DD	00H
	DB	'.?AVPlaneParticleEmitter@@', 00H
_DATA	ENDS
;	COMDAT ??_R4PlaneParticleEmitter@@6B@
rdata$r	SEGMENT
??_R4PlaneParticleEmitter@@6B@ DD 00H			; PlaneParticleEmitter::`RTTI Complete Object Locator'
	DD	00H
	DD	00H
	DD	FLAT:??_R0?AVPlaneParticleEmitter@@@8
	DD	FLAT:??_R3PlaneParticleEmitter@@8
rdata$r	ENDS
;	COMDAT ??_7PlaneParticleEmitter@@6B@
CONST	SEGMENT
??_7PlaneParticleEmitter@@6B@ DD FLAT:??_R4PlaneParticleEmitter@@6B@ ; PlaneParticleEmitter::`vftable'
	DD	FLAT:?newParticle@PlaneParticleEmitter@@UAE?AUParticle@@HH@Z
; Function compile flags: /Ogtp
CONST	ENDS
;	COMDAT ??0PlaneParticleEmitter@@QAE@PAVParticleSystem@@@Z
_TEXT	SEGMENT
_sys$ = 8						; size = 4
??0PlaneParticleEmitter@@QAE@PAVParticleSystem@@@Z PROC	; PlaneParticleEmitter::PlaneParticleEmitter, COMDAT
; _this$ = ecx
; Line 35
	push	ebp
	mov	ebp, esp
	mov	eax, ecx
	mov	ecx, DWORD PTR _sys$[ebp]
	mov	DWORD PTR [eax+4], ecx
	mov	DWORD PTR [eax], OFFSET ??_7PlaneParticleEmitter@@6B@
	pop	ebp
	ret	4
??0PlaneParticleEmitter@@QAE@PAVParticleSystem@@@Z ENDP	; PlaneParticleEmitter::PlaneParticleEmitter
_TEXT	ENDS
PUBLIC	??_7SphereParticleEmitter@@6B@			; SphereParticleEmitter::`vftable'
PUBLIC	??0SphereParticleEmitter@@QAE@PAVParticleSystem@@@Z ; SphereParticleEmitter::SphereParticleEmitter
PUBLIC	??_R4SphereParticleEmitter@@6B@			; SphereParticleEmitter::`RTTI Complete Object Locator'
PUBLIC	??_R0?AVSphereParticleEmitter@@@8		; SphereParticleEmitter `RTTI Type Descriptor'
PUBLIC	??_R3SphereParticleEmitter@@8			; SphereParticleEmitter::`RTTI Class Hierarchy Descriptor'
PUBLIC	??_R2SphereParticleEmitter@@8			; SphereParticleEmitter::`RTTI Base Class Array'
PUBLIC	??_R1A@?0A@EA@SphereParticleEmitter@@8		; SphereParticleEmitter::`RTTI Base Class Descriptor at (0,-1,0,64)'
PUBLIC	?newParticle@SphereParticleEmitter@@UAE?AUParticle@@HH@Z ; SphereParticleEmitter::newParticle
;	COMDAT ??_R1A@?0A@EA@SphereParticleEmitter@@8
rdata$r	SEGMENT
??_R1A@?0A@EA@SphereParticleEmitter@@8 DD FLAT:??_R0?AVSphereParticleEmitter@@@8 ; SphereParticleEmitter::`RTTI Base Class Descriptor at (0,-1,0,64)'
	DD	01H
	DD	00H
	DD	0ffffffffH
	DD	00H
	DD	040H
	DD	FLAT:??_R3SphereParticleEmitter@@8
rdata$r	ENDS
;	COMDAT ??_R2SphereParticleEmitter@@8
rdata$r	SEGMENT
??_R2SphereParticleEmitter@@8 DD FLAT:??_R1A@?0A@EA@SphereParticleEmitter@@8 ; SphereParticleEmitter::`RTTI Base Class Array'
	DD	FLAT:??_R1A@?0A@EA@ParticleEmitter@@8
rdata$r	ENDS
;	COMDAT ??_R3SphereParticleEmitter@@8
rdata$r	SEGMENT
??_R3SphereParticleEmitter@@8 DD 00H			; SphereParticleEmitter::`RTTI Class Hierarchy Descriptor'
	DD	00H
	DD	02H
	DD	FLAT:??_R2SphereParticleEmitter@@8
rdata$r	ENDS
;	COMDAT ??_R0?AVSphereParticleEmitter@@@8
_DATA	SEGMENT
??_R0?AVSphereParticleEmitter@@@8 DD FLAT:??_7type_info@@6B@ ; SphereParticleEmitter `RTTI Type Descriptor'
	DD	00H
	DB	'.?AVSphereParticleEmitter@@', 00H
_DATA	ENDS
;	COMDAT ??_R4SphereParticleEmitter@@6B@
rdata$r	SEGMENT
??_R4SphereParticleEmitter@@6B@ DD 00H			; SphereParticleEmitter::`RTTI Complete Object Locator'
	DD	00H
	DD	00H
	DD	FLAT:??_R0?AVSphereParticleEmitter@@@8
	DD	FLAT:??_R3SphereParticleEmitter@@8
rdata$r	ENDS
;	COMDAT ??_7SphereParticleEmitter@@6B@
CONST	SEGMENT
??_7SphereParticleEmitter@@6B@ DD FLAT:??_R4SphereParticleEmitter@@6B@ ; SphereParticleEmitter::`vftable'
	DD	FLAT:?newParticle@SphereParticleEmitter@@UAE?AUParticle@@HH@Z
; Function compile flags: /Ogtp
CONST	ENDS
;	COMDAT ??0SphereParticleEmitter@@QAE@PAVParticleSystem@@@Z
_TEXT	SEGMENT
_sys$ = 8						; size = 4
??0SphereParticleEmitter@@QAE@PAVParticleSystem@@@Z PROC ; SphereParticleEmitter::SphereParticleEmitter, COMDAT
; _this$ = ecx
; Line 42
	push	ebp
	mov	ebp, esp
	mov	eax, ecx
	mov	ecx, DWORD PTR _sys$[ebp]
	mov	DWORD PTR [eax+4], ecx
	mov	DWORD PTR [eax], OFFSET ??_7SphereParticleEmitter@@6B@
	pop	ebp
	ret	4
??0SphereParticleEmitter@@QAE@PAVParticleSystem@@@Z ENDP ; SphereParticleEmitter::SphereParticleEmitter
_TEXT	ENDS
PUBLIC	??_H@YGXPAXIHP6EPAX0@Z@Z			; `vector constructor iterator'
; Function compile flags: /Ogtp
;	COMDAT ??_H@YGXPAXIHP6EPAX0@Z@Z
_TEXT	SEGMENT
___t$ = 8						; size = 4
___s$ = 12						; size = 4
___n$ = 16						; size = 4
___f$ = 20						; size = 4
??_H@YGXPAXIHP6EPAX0@Z@Z PROC				; `vector constructor iterator', COMDAT
	push	ebp
	mov	ebp, esp
	push	edi
	mov	edi, DWORD PTR ___n$[ebp]
	dec	edi
	js	SHORT $LN1@vector
	push	ebx
	mov	ebx, DWORD PTR ___f$[ebp]
	push	esi
	mov	esi, DWORD PTR ___t$[ebp]
$LL2@vector:
	mov	ecx, esi
	call	ebx
	add	esi, DWORD PTR ___s$[ebp]
	dec	edi
	jns	SHORT $LL2@vector
	pop	esi
	pop	ebx
$LN1@vector:
	pop	edi
	pop	ebp
	ret	16					; 00000010H
??_H@YGXPAXIHP6EPAX0@Z@Z ENDP				; `vector constructor iterator'
_TEXT	ENDS
PUBLIC	__real@4f800000
PUBLIC	__real@406fe00000000000
PUBLIC	?fromARGB@@YA?AVVec4D@@I@Z			; fromARGB
;	COMDAT __real@4f800000
; File c:\programovani\wow editor\test\src\editor\quaternion.h
CONST	SEGMENT
__real@4f800000 DD 04f800000r			; 4.29497e+009
CONST	ENDS
;	COMDAT __real@406fe00000000000
CONST	SEGMENT
__real@406fe00000000000 DQ 0406fe00000000000r	; 255
; Function compile flags: /Ogtp
CONST	ENDS
_TEXT	SEGMENT
___$ReturnUdt$ = 8					; size = 4
tv177 = 12						; size = 4
tv174 = 12						; size = 4
tv171 = 12						; size = 4
tv168 = 12						; size = 4
_color$ = 12						; size = 4
?fromARGB@@YA?AVVec4D@@I@Z PROC				; fromARGB
; File c:\programovani\wow editor\test\src\editor\particle.cpp
; Line 7
	push	ebp
	mov	ebp, esp
; Line 12
	mov	ecx, DWORD PTR _color$[ebp]
	mov	eax, ecx
	shr	eax, 16					; 00000010H
	and	eax, 255				; 000000ffH
	mov	DWORD PTR tv177[ebp], eax
	fild	DWORD PTR tv177[ebp]
	mov	eax, DWORD PTR ___$ReturnUdt$[ebp]
	fld	QWORD PTR __real@406fe00000000000
	mov	edx, ecx
	shr	edx, 8
	fdiv	ST(1), ST(0)
	and	edx, 255				; 000000ffH
	mov	DWORD PTR tv174[ebp], edx
	movzx	edx, cl
	shr	ecx, 24					; 00000018H
	fxch	ST(1)
	fstp	DWORD PTR [eax]
	fild	DWORD PTR tv174[ebp]
	mov	DWORD PTR tv171[ebp], edx
	fdiv	ST(0), ST(1)
	fstp	DWORD PTR [eax+4]
	fild	DWORD PTR tv171[ebp]
	mov	DWORD PTR tv168[ebp], ecx
	fdiv	ST(0), ST(1)
	fstp	DWORD PTR [eax+8]
	fild	DWORD PTR tv168[ebp]
	test	ecx, ecx
	jns	SHORT $LN5@fromARGB
	fadd	DWORD PTR __real@4f800000
$LN5@fromARGB:
; Line 8
	fdivrp	ST(1), ST(0)
; Line 12
	fstp	DWORD PTR [eax+12]
; Line 13
	pop	ebp
	ret	0
?fromARGB@@YA?AVVec4D@@I@Z ENDP				; fromARGB
_TEXT	ENDS
PUBLIC	??_FVec2D@@QAEXXZ				; Vec2D::`default constructor closure'
; Function compile flags: /Ogtp
;	COMDAT ??_FVec2D@@QAEXXZ
_TEXT	SEGMENT
??_FVec2D@@QAEXXZ PROC					; Vec2D::`default constructor closure', COMDAT
; _this$ = ecx
	mov	DWORD PTR [ecx], 0
	mov	DWORD PTR [ecx+4], 0
	ret	0
??_FVec2D@@QAEXXZ ENDP					; Vec2D::`default constructor closure'
_TEXT	ENDS
PUBLIC	__$ArrayPad$
PUBLIC	?initTile@ParticleSystem@@AAEXPAVVec2D@@H@Z	; ParticleSystem::initTile
; Function compile flags: /Ogtp
_TEXT	SEGMENT
_a$ = -24						; size = 8
tv370 = -20						; size = 4
tv526 = -16						; size = 4
_y$ = -16						; size = 4
_b$ = -12						; size = 8
tv535 = -8						; size = 4
_x$ = -8						; size = 4
__$ArrayPad$ = -4					; size = 4
_tc$ = 8						; size = 4
_num$ = 12						; size = 4
?initTile@ParticleSystem@@AAEXPAVVec2D@@H@Z PROC	; ParticleSystem::initTile
; _this$ = ecx
; Line 82
	push	ebp
	mov	ebp, esp
	sub	esp, 24					; 00000018H
	mov	eax, DWORD PTR ___security_cookie
	xor	eax, ebp
	mov	DWORD PTR __$ArrayPad$[ebp], eax
; Line 85
	mov	eax, DWORD PTR _num$[ebp]
	cdq
	push	ebx
	push	esi
	push	edi
	mov	edi, DWORD PTR [ecx+1088]
	idiv	edi
	mov	DWORD PTR tv370[ebp], edi
	mov	esi, DWORD PTR _tc$[ebp]
; Line 87
	fild	DWORD PTR tv370[ebp]
	fld1
	fld	ST(0)
	fdivrp	ST(2), ST(0)
	mov	DWORD PTR _x$[ebp], edx
	mov	DWORD PTR _y$[ebp], eax
; Line 88
	inc	edx
; Line 90
	inc	eax
	fild	DWORD PTR _x$[ebp]
	mov	DWORD PTR tv535[ebp], edx
	fmul	ST(0), ST(2)
	fstp	DWORD PTR _a$[ebp]
	fild	DWORD PTR tv535[ebp]
; Line 101
	mov	edx, DWORD PTR _a$[ebp]
	fmulp	ST(2), ST(0)
	fxch	ST(1)
	fstp	DWORD PTR _b$[ebp]
	mov	ebx, DWORD PTR _b$[ebp]
	fidiv	DWORD PTR [ecx+1084]
	fild	DWORD PTR _y$[ebp]
	mov	DWORD PTR tv526[ebp], eax
	mov	eax, DWORD PTR [ecx+1068]
	neg	eax
	and	eax, 3
	fmul	ST(0), ST(1)
	mov	DWORD PTR [esi+eax*8], edx
	lea	eax, DWORD PTR [esi+eax*8]
	fstp	DWORD PTR _a$[ebp+4]
	mov	edi, DWORD PTR _a$[ebp+4]
	fimul	DWORD PTR tv526[ebp]
	mov	DWORD PTR [eax+4], edi
	mov	eax, 1
	sub	eax, DWORD PTR [ecx+1068]
	and	eax, 3
	mov	DWORD PTR [esi+eax*8], ebx
	lea	eax, DWORD PTR [esi+eax*8]
	mov	DWORD PTR [eax+4], edi
	fstp	DWORD PTR _b$[ebp+4]
	mov	edi, DWORD PTR _b$[ebp+4]
	mov	eax, -2					; fffffffeH
	sub	eax, DWORD PTR [ecx+1068]
	and	eax, 3
	lea	eax, DWORD PTR [esi+eax*8]
	mov	DWORD PTR [eax], ebx
	mov	DWORD PTR [eax+4], edi
	or	eax, -1
	sub	eax, DWORD PTR [ecx+1068]
; Line 103
	mov	ecx, DWORD PTR __$ArrayPad$[ebp]
	and	eax, 3
	lea	eax, DWORD PTR [esi+eax*8]
	mov	DWORD PTR [eax], edx
	mov	DWORD PTR [eax+4], edi
	pop	edi
	pop	esi
	xor	ecx, ebp
	pop	ebx
	call	@__security_check_cookie@4
	mov	esp, ebp
	pop	ebp
	ret	8
?initTile@ParticleSystem@@AAEXPAVVec2D@@H@Z ENDP	; ParticleSystem::initTile
_TEXT	ENDS
PUBLIC	?setup@ParticleSystem@@QAEXHH@Z			; ParticleSystem::setup
; Function compile flags: /Ogtp
_TEXT	SEGMENT
_anim$ = 8						; size = 4
_time$ = 12						; size = 4
?setup@ParticleSystem@@QAEXHH@Z PROC			; ParticleSystem::setup
; _this$ = ecx
; Line 163
	push	ebp
	mov	ebp, esp
; Line 164
	mov	eax, DWORD PTR _anim$[ebp]
; Line 165
	mov	edx, DWORD PTR _time$[ebp]
	mov	DWORD PTR [ecx+1076], eax
	mov	DWORD PTR [ecx+1080], edx
; Line 185
	pop	ebp
	ret	8
?setup@ParticleSystem@@QAEXHH@Z ENDP			; ParticleSystem::setup
_TEXT	ENDS
PUBLIC	??0Particle@@QAE@XZ				; Particle::Particle
; Function compile flags: /Ogtp
;	COMDAT ??0Particle@@QAE@XZ
_TEXT	SEGMENT
??0Particle@@QAE@XZ PROC				; Particle::Particle, COMDAT
; _this$ = ecx
	mov	eax, ecx
	xor	ecx, ecx
	mov	DWORD PTR [eax], ecx
	mov	DWORD PTR [eax+4], ecx
	mov	DWORD PTR [eax+8], ecx
	mov	DWORD PTR [eax+12], ecx
	mov	DWORD PTR [eax+16], ecx
	mov	DWORD PTR [eax+20], ecx
	mov	DWORD PTR [eax+24], ecx
	mov	DWORD PTR [eax+28], ecx
	mov	DWORD PTR [eax+32], ecx
	mov	DWORD PTR [eax+36], ecx
	mov	DWORD PTR [eax+40], ecx
	mov	DWORD PTR [eax+44], ecx
	mov	DWORD PTR [eax+64], ecx
	mov	DWORD PTR [eax+68], ecx
	mov	DWORD PTR [eax+72], ecx
	mov	DWORD PTR [eax+76], ecx
	ret	0
??0Particle@@QAE@XZ ENDP				; Particle::Particle
_TEXT	ENDS
PUBLIC	??0Particle@@QAE@ABU0@@Z			; Particle::Particle
; Function compile flags: /Ogtp
;	COMDAT ??0Particle@@QAE@ABU0@@Z
_TEXT	SEGMENT
___that$ = 8						; size = 4
??0Particle@@QAE@ABU0@@Z PROC				; Particle::Particle, COMDAT
; _this$ = ecx
	push	ebp
	mov	ebp, esp
	mov	eax, ecx
	mov	ecx, DWORD PTR ___that$[ebp]
	mov	edx, DWORD PTR [ecx]
	mov	DWORD PTR [eax], edx
	mov	edx, DWORD PTR [ecx+4]
	mov	DWORD PTR [eax+4], edx
	mov	edx, DWORD PTR [ecx+8]
	mov	DWORD PTR [eax+8], edx
	mov	edx, DWORD PTR [ecx+12]
	mov	DWORD PTR [eax+12], edx
	mov	edx, DWORD PTR [ecx+16]
	mov	DWORD PTR [eax+16], edx
	mov	edx, DWORD PTR [ecx+20]
	mov	DWORD PTR [eax+20], edx
	mov	edx, DWORD PTR [ecx+24]
	mov	DWORD PTR [eax+24], edx
	mov	edx, DWORD PTR [ecx+28]
	mov	DWORD PTR [eax+28], edx
	mov	edx, DWORD PTR [ecx+32]
	mov	DWORD PTR [eax+32], edx
	mov	edx, DWORD PTR [ecx+36]
	mov	DWORD PTR [eax+36], edx
	mov	edx, DWORD PTR [ecx+40]
	mov	DWORD PTR [eax+40], edx
	mov	edx, DWORD PTR [ecx+44]
	mov	DWORD PTR [eax+44], edx
	mov	edx, DWORD PTR [ecx+48]
	mov	DWORD PTR [eax+48], edx
	mov	edx, DWORD PTR [ecx+52]
	mov	DWORD PTR [eax+52], edx
	mov	edx, DWORD PTR [ecx+56]
	mov	DWORD PTR [eax+56], edx
	mov	edx, DWORD PTR [ecx+60]
	mov	DWORD PTR [eax+60], edx
	mov	edx, DWORD PTR [ecx+64]
	mov	DWORD PTR [eax+64], edx
	mov	edx, DWORD PTR [ecx+68]
	mov	DWORD PTR [eax+68], edx
	mov	edx, DWORD PTR [ecx+72]
	mov	DWORD PTR [eax+72], edx
	mov	ecx, DWORD PTR [ecx+76]
	mov	DWORD PTR [eax+76], ecx
	pop	ebp
	ret	4
??0Particle@@QAE@ABU0@@Z ENDP				; Particle::Particle
_TEXT	ENDS
PUBLIC	??0RibbonSegment@@QAE@XZ			; RibbonSegment::RibbonSegment
; Function compile flags: /Ogtp
;	COMDAT ??0RibbonSegment@@QAE@XZ
_TEXT	SEGMENT
??0RibbonSegment@@QAE@XZ PROC				; RibbonSegment::RibbonSegment, COMDAT
; _this$ = ecx
	mov	eax, ecx
	xor	ecx, ecx
	mov	DWORD PTR [eax], ecx
	mov	DWORD PTR [eax+4], ecx
	mov	DWORD PTR [eax+8], ecx
	mov	DWORD PTR [eax+12], ecx
	mov	DWORD PTR [eax+16], ecx
	mov	DWORD PTR [eax+20], ecx
	mov	DWORD PTR [eax+24], ecx
	mov	DWORD PTR [eax+28], ecx
	mov	DWORD PTR [eax+32], ecx
	ret	0
??0RibbonSegment@@QAE@XZ ENDP				; RibbonSegment::RibbonSegment
_TEXT	ENDS
PUBLIC	?size@?$list@UParticle@@V?$allocator@UParticle@@@std@@@std@@QBEIXZ ; std::list<Particle,std::allocator<Particle> >::size
; Function compile flags: /Ogtp
;	COMDAT ?size@?$list@UParticle@@V?$allocator@UParticle@@@std@@@std@@QBEIXZ
_TEXT	SEGMENT
?size@?$list@UParticle@@V?$allocator@UParticle@@@std@@@std@@QBEIXZ PROC ; std::list<Particle,std::allocator<Particle> >::size, COMDAT
; _this$ = ecx
; File c:\program files (x86)\microsoft visual studio 10.0\vc\include\list
; Line 877
	mov	eax, DWORD PTR [ecx+4]
; Line 878
	ret	0
?size@?$list@UParticle@@V?$allocator@UParticle@@@std@@@std@@QBEIXZ ENDP ; std::list<Particle,std::allocator<Particle> >::size
_TEXT	ENDS
PUBLIC	??A?$vector@UTexCoordSet@@V?$allocator@UTexCoordSet@@@std@@@std@@QAEAAUTexCoordSet@@I@Z ; std::vector<TexCoordSet,std::allocator<TexCoordSet> >::operator[]
; Function compile flags: /Ogtp
;	COMDAT ??A?$vector@UTexCoordSet@@V?$allocator@UTexCoordSet@@@std@@@std@@QAEAAUTexCoordSet@@I@Z
_TEXT	SEGMENT
__Pos$ = 8						; size = 4
??A?$vector@UTexCoordSet@@V?$allocator@UTexCoordSet@@@std@@@std@@QAEAAUTexCoordSet@@I@Z PROC ; std::vector<TexCoordSet,std::allocator<TexCoordSet> >::operator[], COMDAT
; _this$ = ecx
; File c:\program files (x86)\microsoft visual studio 10.0\vc\include\vector
; Line 928
	push	ebp
	mov	ebp, esp
; Line 940
	mov	eax, DWORD PTR __Pos$[ebp]
	shl	eax, 5
	add	eax, DWORD PTR [ecx]
; Line 941
	pop	ebp
	ret	4
??A?$vector@UTexCoordSet@@V?$allocator@UTexCoordSet@@@std@@@std@@QAEAAUTexCoordSet@@I@Z ENDP ; std::vector<TexCoordSet,std::allocator<TexCoordSet> >::operator[]
_TEXT	ENDS
PUBLIC	?size@?$list@URibbonSegment@@V?$allocator@URibbonSegment@@@std@@@std@@QBEIXZ ; std::list<RibbonSegment,std::allocator<RibbonSegment> >::size
; Function compile flags: /Ogtp
;	COMDAT ?size@?$list@URibbonSegment@@V?$allocator@URibbonSegment@@@std@@@std@@QBEIXZ
_TEXT	SEGMENT
?size@?$list@URibbonSegment@@V?$allocator@URibbonSegment@@@std@@@std@@QBEIXZ PROC ; std::list<RibbonSegment,std::allocator<RibbonSegment> >::size, COMDAT
; _this$ = ecx
; File c:\program files (x86)\microsoft visual studio 10.0\vc\include\list
; Line 877
	mov	eax, DWORD PTR [ecx+4]
; Line 878
	ret	0
?size@?$list@URibbonSegment@@V?$allocator@URibbonSegment@@@std@@@std@@QBEIXZ ENDP ; std::list<RibbonSegment,std::allocator<RibbonSegment> >::size
_TEXT	ENDS
PUBLIC	??A?$vector@U?$pair@II@std@@V?$allocator@U?$pair@II@std@@@2@@std@@QAEAAU?$pair@II@1@I@Z ; std::vector<std::pair<unsigned int,unsigned int>,std::allocator<std::pair<unsigned int,unsigned int> > >::operator[]
; Function compile flags: /Ogtp
;	COMDAT ??A?$vector@U?$pair@II@std@@V?$allocator@U?$pair@II@std@@@2@@std@@QAEAAU?$pair@II@1@I@Z
_TEXT	SEGMENT
__Pos$ = 8						; size = 4
??A?$vector@U?$pair@II@std@@V?$allocator@U?$pair@II@std@@@2@@std@@QAEAAU?$pair@II@1@I@Z PROC ; std::vector<std::pair<unsigned int,unsigned int>,std::allocator<std::pair<unsigned int,unsigned int> > >::operator[], COMDAT
; _this$ = ecx
; File c:\program files (x86)\microsoft visual studio 10.0\vc\include\vector
; Line 928
	push	ebp
	mov	ebp, esp
; Line 940
	mov	eax, DWORD PTR [ecx]
	mov	ecx, DWORD PTR __Pos$[ebp]
	lea	eax, DWORD PTR [eax+ecx*8]
; Line 941
	pop	ebp
	ret	4
??A?$vector@U?$pair@II@std@@V?$allocator@U?$pair@II@std@@@2@@std@@QAEAAU?$pair@II@1@I@Z ENDP ; std::vector<std::pair<unsigned int,unsigned int>,std::allocator<std::pair<unsigned int,unsigned int> > >::operator[]
_TEXT	ENDS
PUBLIC	?size@?$vector@HV?$allocator@H@std@@@std@@QBEIXZ ; std::vector<int,std::allocator<int> >::size
; Function compile flags: /Ogtp
;	COMDAT ?size@?$vector@HV?$allocator@H@std@@@std@@QBEIXZ
_TEXT	SEGMENT
?size@?$vector@HV?$allocator@H@std@@@std@@QBEIXZ PROC	; std::vector<int,std::allocator<int> >::size, COMDAT
; _this$ = ecx
; Line 879
	mov	eax, DWORD PTR [ecx+4]
	sub	eax, DWORD PTR [ecx]
	sar	eax, 2
; Line 880
	ret	0
?size@?$vector@HV?$allocator@H@std@@@std@@QBEIXZ ENDP	; std::vector<int,std::allocator<int> >::size
_TEXT	ENDS
PUBLIC	??A?$vector@HV?$allocator@H@std@@@std@@QAEAAHI@Z ; std::vector<int,std::allocator<int> >::operator[]
; Function compile flags: /Ogtp
;	COMDAT ??A?$vector@HV?$allocator@H@std@@@std@@QAEAAHI@Z
_TEXT	SEGMENT
__Pos$ = 8						; size = 4
??A?$vector@HV?$allocator@H@std@@@std@@QAEAAHI@Z PROC	; std::vector<int,std::allocator<int> >::operator[], COMDAT
; _this$ = ecx
; Line 928
	push	ebp
	mov	ebp, esp
; Line 940
	mov	eax, DWORD PTR [ecx]
	mov	ecx, DWORD PTR __Pos$[ebp]
	lea	eax, DWORD PTR [eax+ecx*4]
; Line 941
	pop	ebp
	ret	4
??A?$vector@HV?$allocator@H@std@@@std@@QAEAAHI@Z ENDP	; std::vector<int,std::allocator<int> >::operator[]
_TEXT	ENDS
PUBLIC	?size@?$vector@VVec3D@@V?$allocator@VVec3D@@@std@@@std@@QBEIXZ ; std::vector<Vec3D,std::allocator<Vec3D> >::size
; Function compile flags: /Ogtp
;	COMDAT ?size@?$vector@VVec3D@@V?$allocator@VVec3D@@@std@@@std@@QBEIXZ
_TEXT	SEGMENT
?size@?$vector@VVec3D@@V?$allocator@VVec3D@@@std@@@std@@QBEIXZ PROC ; std::vector<Vec3D,std::allocator<Vec3D> >::size, COMDAT
; _this$ = ecx
; Line 879
	mov	edx, DWORD PTR [ecx+4]
	sub	edx, DWORD PTR [ecx]
	mov	eax, 715827883				; 2aaaaaabH
	imul	edx
	sar	edx, 1
	mov	eax, edx
	shr	eax, 31					; 0000001fH
	add	eax, edx
; Line 880
	ret	0
?size@?$vector@VVec3D@@V?$allocator@VVec3D@@@std@@@std@@QBEIXZ ENDP ; std::vector<Vec3D,std::allocator<Vec3D> >::size
_TEXT	ENDS
PUBLIC	??A?$vector@VVec3D@@V?$allocator@VVec3D@@@std@@@std@@QAEAAVVec3D@@I@Z ; std::vector<Vec3D,std::allocator<Vec3D> >::operator[]
; Function compile flags: /Ogtp
;	COMDAT ??A?$vector@VVec3D@@V?$allocator@VVec3D@@@std@@@std@@QAEAAVVec3D@@I@Z
_TEXT	SEGMENT
__Pos$ = 8						; size = 4
??A?$vector@VVec3D@@V?$allocator@VVec3D@@@std@@@std@@QAEAAVVec3D@@I@Z PROC ; std::vector<Vec3D,std::allocator<Vec3D> >::operator[], COMDAT
; _this$ = ecx
; Line 928
	push	ebp
	mov	ebp, esp
; Line 940
	mov	eax, DWORD PTR __Pos$[ebp]
	mov	ecx, DWORD PTR [ecx]
	lea	eax, DWORD PTR [eax+eax*2]
	lea	eax, DWORD PTR [ecx+eax*4]
; Line 941
	pop	ebp
	ret	4
??A?$vector@VVec3D@@V?$allocator@VVec3D@@@std@@@std@@QAEAAVVec3D@@I@Z ENDP ; std::vector<Vec3D,std::allocator<Vec3D> >::operator[]
_TEXT	ENDS
PUBLIC	?size@?$vector@MV?$allocator@M@std@@@std@@QBEIXZ ; std::vector<float,std::allocator<float> >::size
; Function compile flags: /Ogtp
;	COMDAT ?size@?$vector@MV?$allocator@M@std@@@std@@QBEIXZ
_TEXT	SEGMENT
?size@?$vector@MV?$allocator@M@std@@@std@@QBEIXZ PROC	; std::vector<float,std::allocator<float> >::size, COMDAT
; _this$ = ecx
; Line 879
	mov	eax, DWORD PTR [ecx+4]
	sub	eax, DWORD PTR [ecx]
	sar	eax, 2
; Line 880
	ret	0
?size@?$vector@MV?$allocator@M@std@@@std@@QBEIXZ ENDP	; std::vector<float,std::allocator<float> >::size
_TEXT	ENDS
PUBLIC	??A?$vector@MV?$allocator@M@std@@@std@@QAEAAMI@Z ; std::vector<float,std::allocator<float> >::operator[]
; Function compile flags: /Ogtp
;	COMDAT ??A?$vector@MV?$allocator@M@std@@@std@@QAEAAMI@Z
_TEXT	SEGMENT
__Pos$ = 8						; size = 4
??A?$vector@MV?$allocator@M@std@@@std@@QAEAAMI@Z PROC	; std::vector<float,std::allocator<float> >::operator[], COMDAT
; _this$ = ecx
; Line 928
	push	ebp
	mov	ebp, esp
; Line 940
	mov	eax, DWORD PTR [ecx]
	mov	ecx, DWORD PTR __Pos$[ebp]
	lea	eax, DWORD PTR [eax+ecx*4]
; Line 941
	pop	ebp
	ret	4
??A?$vector@MV?$allocator@M@std@@@std@@QAEAAMI@Z ENDP	; std::vector<float,std::allocator<float> >::operator[]
_TEXT	ENDS
PUBLIC	?_Nextnode@?$_List_val@UParticle@@V?$allocator@UParticle@@@std@@@std@@SAAAPAU_Node@?$_List_nod@UParticle@@V?$allocator@UParticle@@@std@@@2@PAU342@@Z ; std::_List_val<Particle,std::allocator<Particle> >::_Nextnode
; Function compile flags: /Ogtp
;	COMDAT ?_Nextnode@?$_List_val@UParticle@@V?$allocator@UParticle@@@std@@@std@@SAAAPAU_Node@?$_List_nod@UParticle@@V?$allocator@UParticle@@@std@@@2@PAU342@@Z
_TEXT	SEGMENT
__Pnode$ = 8						; size = 4
?_Nextnode@?$_List_val@UParticle@@V?$allocator@UParticle@@@std@@@std@@SAAAPAU_Node@?$_List_nod@UParticle@@V?$allocator@UParticle@@@std@@@2@PAU342@@Z PROC ; std::_List_val<Particle,std::allocator<Particle> >::_Nextnode, COMDAT
; File c:\program files (x86)\microsoft visual studio 10.0\vc\include\list
; Line 560
	push	ebp
	mov	ebp, esp
; Line 561
	mov	eax, DWORD PTR __Pnode$[ebp]
; Line 562
	pop	ebp
	ret	0
?_Nextnode@?$_List_val@UParticle@@V?$allocator@UParticle@@@std@@@std@@SAAAPAU_Node@?$_List_nod@UParticle@@V?$allocator@UParticle@@@std@@@2@PAU342@@Z ENDP ; std::_List_val<Particle,std::allocator<Particle> >::_Nextnode
_TEXT	ENDS
PUBLIC	?_Prevnode@?$_List_val@UParticle@@V?$allocator@UParticle@@@std@@@std@@SAAAPAU_Node@?$_List_nod@UParticle@@V?$allocator@UParticle@@@std@@@2@PAU342@@Z ; std::_List_val<Particle,std::allocator<Particle> >::_Prevnode
; Function compile flags: /Ogtp
;	COMDAT ?_Prevnode@?$_List_val@UParticle@@V?$allocator@UParticle@@@std@@@std@@SAAAPAU_Node@?$_List_nod@UParticle@@V?$allocator@UParticle@@@std@@@2@PAU342@@Z
_TEXT	SEGMENT
__Pnode$ = 8						; size = 4
?_Prevnode@?$_List_val@UParticle@@V?$allocator@UParticle@@@std@@@std@@SAAAPAU_Node@?$_List_nod@UParticle@@V?$allocator@UParticle@@@std@@@2@PAU342@@Z PROC ; std::_List_val<Particle,std::allocator<Particle> >::_Prevnode, COMDAT
; Line 565
	push	ebp
	mov	ebp, esp
; Line 566
	mov	eax, DWORD PTR __Pnode$[ebp]
	add	eax, 4
; Line 567
	pop	ebp
	ret	0
?_Prevnode@?$_List_val@UParticle@@V?$allocator@UParticle@@@std@@@std@@SAAAPAU_Node@?$_List_nod@UParticle@@V?$allocator@UParticle@@@std@@@2@PAU342@@Z ENDP ; std::_List_val<Particle,std::allocator<Particle> >::_Prevnode
_TEXT	ENDS
PUBLIC	?deallocate@?$allocator@U_Node@?$_List_nod@UParticle@@V?$allocator@UParticle@@@std@@@std@@@std@@QAEXPAU_Node@?$_List_nod@UParticle@@V?$allocator@UParticle@@@std@@@2@I@Z ; std::allocator<std::_List_nod<Particle,std::allocator<Particle> >::_Node>::deallocate
; Function compile flags: /Ogtp
;	COMDAT ?deallocate@?$allocator@U_Node@?$_List_nod@UParticle@@V?$allocator@UParticle@@@std@@@std@@@std@@QAEXPAU_Node@?$_List_nod@UParticle@@V?$allocator@UParticle@@@std@@@2@I@Z
_TEXT	SEGMENT
__Ptr$ = 8						; size = 4
___formal$ = 12						; size = 4
?deallocate@?$allocator@U_Node@?$_List_nod@UParticle@@V?$allocator@UParticle@@@std@@@std@@@std@@QAEXPAU_Node@?$_List_nod@UParticle@@V?$allocator@UParticle@@@std@@@2@I@Z PROC ; std::allocator<std::_List_nod<Particle,std::allocator<Particle> >::_Node>::deallocate, COMDAT
; _this$ = ecx
; File c:\program files (x86)\microsoft visual studio 10.0\vc\include\xmemory
; Line 181
	push	ebp
	mov	ebp, esp
; Line 182
	mov	eax, DWORD PTR __Ptr$[ebp]
	push	eax
	call	??3@YAXPAX@Z				; operator delete
	add	esp, 4
; Line 183
	pop	ebp
	ret	8
?deallocate@?$allocator@U_Node@?$_List_nod@UParticle@@V?$allocator@UParticle@@@std@@@std@@@std@@QAEXPAU_Node@?$_List_nod@UParticle@@V?$allocator@UParticle@@@std@@@2@I@Z ENDP ; std::allocator<std::_List_nod<Particle,std::allocator<Particle> >::_Node>::deallocate
_TEXT	ENDS
PUBLIC	?_Inside@?$vector@UTexCoordSet@@V?$allocator@UTexCoordSet@@@std@@@std@@IBE_NPBUTexCoordSet@@@Z ; std::vector<TexCoordSet,std::allocator<TexCoordSet> >::_Inside
; Function compile flags: /Ogtp
;	COMDAT ?_Inside@?$vector@UTexCoordSet@@V?$allocator@UTexCoordSet@@@std@@@std@@IBE_NPBUTexCoordSet@@@Z
_TEXT	SEGMENT
__Ptr$ = 8						; size = 4
?_Inside@?$vector@UTexCoordSet@@V?$allocator@UTexCoordSet@@@std@@@std@@IBE_NPBUTexCoordSet@@@Z PROC ; std::vector<TexCoordSet,std::allocator<TexCoordSet> >::_Inside, COMDAT
; _this$ = ecx
; File c:\program files (x86)\microsoft visual studio 10.0\vc\include\vector
; Line 1285
	push	ebp
	mov	ebp, esp
; Line 1286
	mov	eax, DWORD PTR __Ptr$[ebp]
	cmp	eax, DWORD PTR [ecx+4]
	jae	SHORT $LN3@Inside
	cmp	DWORD PTR [ecx], eax
	ja	SHORT $LN3@Inside
	mov	eax, 1
; Line 1287
	pop	ebp
	ret	4
$LN3@Inside:
; Line 1286
	xor	eax, eax
; Line 1287
	pop	ebp
	ret	4
?_Inside@?$vector@UTexCoordSet@@V?$allocator@UTexCoordSet@@@std@@@std@@IBE_NPBUTexCoordSet@@@Z ENDP ; std::vector<TexCoordSet,std::allocator<TexCoordSet> >::_Inside
_TEXT	ENDS
PUBLIC	?_Orphan_range@?$vector@UTexCoordSet@@V?$allocator@UTexCoordSet@@@std@@@std@@IBEXPAUTexCoordSet@@0@Z ; std::vector<TexCoordSet,std::allocator<TexCoordSet> >::_Orphan_range
; Function compile flags: /Ogtp
;	COMDAT ?_Orphan_range@?$vector@UTexCoordSet@@V?$allocator@UTexCoordSet@@@std@@@std@@IBEXPAUTexCoordSet@@0@Z
_TEXT	SEGMENT
___formal$ = 8						; size = 4
___formal$ = 12						; size = 4
?_Orphan_range@?$vector@UTexCoordSet@@V?$allocator@UTexCoordSet@@@std@@@std@@IBEXPAUTexCoordSet@@0@Z PROC ; std::vector<TexCoordSet,std::allocator<TexCoordSet> >::_Orphan_range, COMDAT
; _this$ = ecx
; Line 1454
	ret	8
?_Orphan_range@?$vector@UTexCoordSet@@V?$allocator@UTexCoordSet@@@std@@@std@@IBEXPAUTexCoordSet@@0@Z ENDP ; std::vector<TexCoordSet,std::allocator<TexCoordSet> >::_Orphan_range
_TEXT	ENDS
PUBLIC	?_Nextnode@?$_List_val@URibbonSegment@@V?$allocator@URibbonSegment@@@std@@@std@@SAAAPAU_Node@?$_List_nod@URibbonSegment@@V?$allocator@URibbonSegment@@@std@@@2@PAU342@@Z ; std::_List_val<RibbonSegment,std::allocator<RibbonSegment> >::_Nextnode
; Function compile flags: /Ogtp
;	COMDAT ?_Nextnode@?$_List_val@URibbonSegment@@V?$allocator@URibbonSegment@@@std@@@std@@SAAAPAU_Node@?$_List_nod@URibbonSegment@@V?$allocator@URibbonSegment@@@std@@@2@PAU342@@Z
_TEXT	SEGMENT
__Pnode$ = 8						; size = 4
?_Nextnode@?$_List_val@URibbonSegment@@V?$allocator@URibbonSegment@@@std@@@std@@SAAAPAU_Node@?$_List_nod@URibbonSegment@@V?$allocator@URibbonSegment@@@std@@@2@PAU342@@Z PROC ; std::_List_val<RibbonSegment,std::allocator<RibbonSegment> >::_Nextnode, COMDAT
; File c:\program files (x86)\microsoft visual studio 10.0\vc\include\list
; Line 560
	push	ebp
	mov	ebp, esp
; Line 561
	mov	eax, DWORD PTR __Pnode$[ebp]
; Line 562
	pop	ebp
	ret	0
?_Nextnode@?$_List_val@URibbonSegment@@V?$allocator@URibbonSegment@@@std@@@std@@SAAAPAU_Node@?$_List_nod@URibbonSegment@@V?$allocator@URibbonSegment@@@std@@@2@PAU342@@Z ENDP ; std::_List_val<RibbonSegment,std::allocator<RibbonSegment> >::_Nextnode
_TEXT	ENDS
PUBLIC	?_Prevnode@?$_List_val@URibbonSegment@@V?$allocator@URibbonSegment@@@std@@@std@@SAAAPAU_Node@?$_List_nod@URibbonSegment@@V?$allocator@URibbonSegment@@@std@@@2@PAU342@@Z ; std::_List_val<RibbonSegment,std::allocator<RibbonSegment> >::_Prevnode
; Function compile flags: /Ogtp
;	COMDAT ?_Prevnode@?$_List_val@URibbonSegment@@V?$allocator@URibbonSegment@@@std@@@std@@SAAAPAU_Node@?$_List_nod@URibbonSegment@@V?$allocator@URibbonSegment@@@std@@@2@PAU342@@Z
_TEXT	SEGMENT
__Pnode$ = 8						; size = 4
?_Prevnode@?$_List_val@URibbonSegment@@V?$allocator@URibbonSegment@@@std@@@std@@SAAAPAU_Node@?$_List_nod@URibbonSegment@@V?$allocator@URibbonSegment@@@std@@@2@PAU342@@Z PROC ; std::_List_val<RibbonSegment,std::allocator<RibbonSegment> >::_Prevnode, COMDAT
; Line 565
	push	ebp
	mov	ebp, esp
; Line 566
	mov	eax, DWORD PTR __Pnode$[ebp]
	add	eax, 4
; Line 567
	pop	ebp
	ret	0
?_Prevnode@?$_List_val@URibbonSegment@@V?$allocator@URibbonSegment@@@std@@@std@@SAAAPAU_Node@?$_List_nod@URibbonSegment@@V?$allocator@URibbonSegment@@@std@@@2@PAU342@@Z ENDP ; std::_List_val<RibbonSegment,std::allocator<RibbonSegment> >::_Prevnode
_TEXT	ENDS
PUBLIC	?deallocate@?$allocator@U_Node@?$_List_nod@URibbonSegment@@V?$allocator@URibbonSegment@@@std@@@std@@@std@@QAEXPAU_Node@?$_List_nod@URibbonSegment@@V?$allocator@URibbonSegment@@@std@@@2@I@Z ; std::allocator<std::_List_nod<RibbonSegment,std::allocator<RibbonSegment> >::_Node>::deallocate
; Function compile flags: /Ogtp
;	COMDAT ?deallocate@?$allocator@U_Node@?$_List_nod@URibbonSegment@@V?$allocator@URibbonSegment@@@std@@@std@@@std@@QAEXPAU_Node@?$_List_nod@URibbonSegment@@V?$allocator@URibbonSegment@@@std@@@2@I@Z
_TEXT	SEGMENT
__Ptr$ = 8						; size = 4
___formal$ = 12						; size = 4
?deallocate@?$allocator@U_Node@?$_List_nod@URibbonSegment@@V?$allocator@URibbonSegment@@@std@@@std@@@std@@QAEXPAU_Node@?$_List_nod@URibbonSegment@@V?$allocator@URibbonSegment@@@std@@@2@I@Z PROC ; std::allocator<std::_List_nod<RibbonSegment,std::allocator<RibbonSegment> >::_Node>::deallocate, COMDAT
; _this$ = ecx
; File c:\program files (x86)\microsoft visual studio 10.0\vc\include\xmemory
; Line 181
	push	ebp
	mov	ebp, esp
; Line 182
	mov	eax, DWORD PTR __Ptr$[ebp]
	push	eax
	call	??3@YAXPAX@Z				; operator delete
	add	esp, 4
; Line 183
	pop	ebp
	ret	8
?deallocate@?$allocator@U_Node@?$_List_nod@URibbonSegment@@V?$allocator@URibbonSegment@@@std@@@std@@@std@@QAEXPAU_Node@?$_List_nod@URibbonSegment@@V?$allocator@URibbonSegment@@@std@@@2@I@Z ENDP ; std::allocator<std::_List_nod<RibbonSegment,std::allocator<RibbonSegment> >::_Node>::deallocate
_TEXT	ENDS
PUBLIC	??E?$_List_const_iterator@V?$_List_val@UParticle@@V?$allocator@UParticle@@@std@@@std@@@std@@QAEAAV01@XZ ; std::_List_const_iterator<std::_List_val<Particle,std::allocator<Particle> > >::operator++
; Function compile flags: /Ogtp
;	COMDAT ??E?$_List_const_iterator@V?$_List_val@UParticle@@V?$allocator@UParticle@@@std@@@std@@@std@@QAEAAV01@XZ
_TEXT	SEGMENT
??E?$_List_const_iterator@V?$_List_val@UParticle@@V?$allocator@UParticle@@@std@@@std@@@std@@QAEAAV01@XZ PROC ; std::_List_const_iterator<std::_List_val<Particle,std::allocator<Particle> > >::operator++, COMDAT
; _this$ = ecx
; File c:\program files (x86)\microsoft visual studio 10.0\vc\include\list
; Line 221
	mov	eax, ecx
; Line 237
	mov	ecx, DWORD PTR [eax]
	mov	edx, DWORD PTR [ecx]
	mov	DWORD PTR [eax], edx
; Line 239
	ret	0
??E?$_List_const_iterator@V?$_List_val@UParticle@@V?$allocator@UParticle@@@std@@@std@@@std@@QAEAAV01@XZ ENDP ; std::_List_const_iterator<std::_List_val<Particle,std::allocator<Particle> > >::operator++
_TEXT	ENDS
PUBLIC	??E?$_List_const_iterator@V?$_List_val@UParticle@@V?$allocator@UParticle@@@std@@@std@@@std@@QAE?AV01@H@Z ; std::_List_const_iterator<std::_List_val<Particle,std::allocator<Particle> > >::operator++
; Function compile flags: /Ogtp
;	COMDAT ??E?$_List_const_iterator@V?$_List_val@UParticle@@V?$allocator@UParticle@@@std@@@std@@@std@@QAE?AV01@H@Z
_TEXT	SEGMENT
___$ReturnUdt$ = 8					; size = 4
___formal$ = 12						; size = 4
??E?$_List_const_iterator@V?$_List_val@UParticle@@V?$allocator@UParticle@@@std@@@std@@@std@@QAE?AV01@H@Z PROC ; std::_List_const_iterator<std::_List_val<Particle,std::allocator<Particle> > >::operator++, COMDAT
; _this$ = ecx
; Line 242
	push	ebp
	mov	ebp, esp
; Line 243
	mov	edx, DWORD PTR [ecx]
	mov	eax, DWORD PTR ___$ReturnUdt$[ebp]
	mov	DWORD PTR [eax], edx
; Line 244
	mov	edx, DWORD PTR [edx]
	mov	DWORD PTR [ecx], edx
; Line 246
	pop	ebp
	ret	8
??E?$_List_const_iterator@V?$_List_val@UParticle@@V?$allocator@UParticle@@@std@@@std@@@std@@QAE?AV01@H@Z ENDP ; std::_List_const_iterator<std::_List_val<Particle,std::allocator<Particle> > >::operator++
_TEXT	ENDS
PUBLIC	??8?$_List_const_iterator@V?$_List_val@UParticle@@V?$allocator@UParticle@@@std@@@std@@@std@@QBE_NABV01@@Z ; std::_List_const_iterator<std::_List_val<Particle,std::allocator<Particle> > >::operator==
; Function compile flags: /Ogtp
;	COMDAT ??8?$_List_const_iterator@V?$_List_val@UParticle@@V?$allocator@UParticle@@@std@@@std@@@std@@QBE_NABV01@@Z
_TEXT	SEGMENT
__Right$ = 8						; size = 4
??8?$_List_const_iterator@V?$_List_val@UParticle@@V?$allocator@UParticle@@@std@@@std@@@std@@QBE_NABV01@@Z PROC ; std::_List_const_iterator<std::_List_val<Particle,std::allocator<Particle> > >::operator==, COMDAT
; _this$ = ecx
; Line 281
	push	ebp
	mov	ebp, esp
; Line 295
	mov	eax, DWORD PTR [ecx]
	mov	edx, DWORD PTR __Right$[ebp]
	xor	ecx, ecx
	cmp	eax, DWORD PTR [edx]
	sete	al
; Line 296
	pop	ebp
	ret	4
??8?$_List_const_iterator@V?$_List_val@UParticle@@V?$allocator@UParticle@@@std@@@std@@@std@@QBE_NABV01@@Z ENDP ; std::_List_const_iterator<std::_List_val<Particle,std::allocator<Particle> > >::operator==
_TEXT	ENDS
PUBLIC	?_Mynode@?$_List_unchecked_const_iterator@V?$_List_val@UParticle@@V?$allocator@UParticle@@@std@@@std@@U_Iterator_base0@2@@std@@QBEPAU_Node@?$_List_nod@UParticle@@V?$allocator@UParticle@@@std@@@2@XZ ; std::_List_unchecked_const_iterator<std::_List_val<Particle,std::allocator<Particle> >,std::_Iterator_base0>::_Mynode
; Function compile flags: /Ogtp
;	COMDAT ?_Mynode@?$_List_unchecked_const_iterator@V?$_List_val@UParticle@@V?$allocator@UParticle@@@std@@@std@@U_Iterator_base0@2@@std@@QBEPAU_Node@?$_List_nod@UParticle@@V?$allocator@UParticle@@@std@@@2@XZ
_TEXT	SEGMENT
?_Mynode@?$_List_unchecked_const_iterator@V?$_List_val@UParticle@@V?$allocator@UParticle@@@std@@@std@@U_Iterator_base0@2@@std@@QBEPAU_Node@?$_List_nod@UParticle@@V?$allocator@UParticle@@@std@@@2@XZ PROC ; std::_List_unchecked_const_iterator<std::_List_val<Particle,std::allocator<Particle> >,std::_Iterator_base0>::_Mynode, COMDAT
; _this$ = ecx
; Line 93
	mov	eax, DWORD PTR [ecx]
; Line 94
	ret	0
?_Mynode@?$_List_unchecked_const_iterator@V?$_List_val@UParticle@@V?$allocator@UParticle@@@std@@@std@@U_Iterator_base0@2@@std@@QBEPAU_Node@?$_List_nod@UParticle@@V?$allocator@UParticle@@@std@@@2@XZ ENDP ; std::_List_unchecked_const_iterator<std::_List_val<Particle,std::allocator<Particle> >,std::_Iterator_base0>::_Mynode
_TEXT	ENDS
PUBLIC	??E?$_List_const_iterator@V?$_List_val@URibbonSegment@@V?$allocator@URibbonSegment@@@std@@@std@@@std@@QAEAAV01@XZ ; std::_List_const_iterator<std::_List_val<RibbonSegment,std::allocator<RibbonSegment> > >::operator++
; Function compile flags: /Ogtp
;	COMDAT ??E?$_List_const_iterator@V?$_List_val@URibbonSegment@@V?$allocator@URibbonSegment@@@std@@@std@@@std@@QAEAAV01@XZ
_TEXT	SEGMENT
??E?$_List_const_iterator@V?$_List_val@URibbonSegment@@V?$allocator@URibbonSegment@@@std@@@std@@@std@@QAEAAV01@XZ PROC ; std::_List_const_iterator<std::_List_val<RibbonSegment,std::allocator<RibbonSegment> > >::operator++, COMDAT
; _this$ = ecx
; Line 221
	mov	eax, ecx
; Line 237
	mov	ecx, DWORD PTR [eax]
	mov	edx, DWORD PTR [ecx]
	mov	DWORD PTR [eax], edx
; Line 239
	ret	0
??E?$_List_const_iterator@V?$_List_val@URibbonSegment@@V?$allocator@URibbonSegment@@@std@@@std@@@std@@QAEAAV01@XZ ENDP ; std::_List_const_iterator<std::_List_val<RibbonSegment,std::allocator<RibbonSegment> > >::operator++
_TEXT	ENDS
PUBLIC	??E?$_List_const_iterator@V?$_List_val@URibbonSegment@@V?$allocator@URibbonSegment@@@std@@@std@@@std@@QAE?AV01@H@Z ; std::_List_const_iterator<std::_List_val<RibbonSegment,std::allocator<RibbonSegment> > >::operator++
; Function compile flags: /Ogtp
;	COMDAT ??E?$_List_const_iterator@V?$_List_val@URibbonSegment@@V?$allocator@URibbonSegment@@@std@@@std@@@std@@QAE?AV01@H@Z
_TEXT	SEGMENT
___$ReturnUdt$ = 8					; size = 4
___formal$ = 12						; size = 4
??E?$_List_const_iterator@V?$_List_val@URibbonSegment@@V?$allocator@URibbonSegment@@@std@@@std@@@std@@QAE?AV01@H@Z PROC ; std::_List_const_iterator<std::_List_val<RibbonSegment,std::allocator<RibbonSegment> > >::operator++, COMDAT
; _this$ = ecx
; Line 242
	push	ebp
	mov	ebp, esp
; Line 243
	mov	edx, DWORD PTR [ecx]
	mov	eax, DWORD PTR ___$ReturnUdt$[ebp]
	mov	DWORD PTR [eax], edx
; Line 244
	mov	edx, DWORD PTR [edx]
	mov	DWORD PTR [ecx], edx
; Line 246
	pop	ebp
	ret	8
??E?$_List_const_iterator@V?$_List_val@URibbonSegment@@V?$allocator@URibbonSegment@@@std@@@std@@@std@@QAE?AV01@H@Z ENDP ; std::_List_const_iterator<std::_List_val<RibbonSegment,std::allocator<RibbonSegment> > >::operator++
_TEXT	ENDS
PUBLIC	??F?$_List_const_iterator@V?$_List_val@URibbonSegment@@V?$allocator@URibbonSegment@@@std@@@std@@@std@@QAEAAV01@XZ ; std::_List_const_iterator<std::_List_val<RibbonSegment,std::allocator<RibbonSegment> > >::operator--
; Function compile flags: /Ogtp
;	COMDAT ??F?$_List_const_iterator@V?$_List_val@URibbonSegment@@V?$allocator@URibbonSegment@@@std@@@std@@@std@@QAEAAV01@XZ
_TEXT	SEGMENT
??F?$_List_const_iterator@V?$_List_val@URibbonSegment@@V?$allocator@URibbonSegment@@@std@@@std@@@std@@QAEAAV01@XZ PROC ; std::_List_const_iterator<std::_List_val<RibbonSegment,std::allocator<RibbonSegment> > >::operator--, COMDAT
; _this$ = ecx
; Line 249
	mov	eax, ecx
; Line 267
	mov	ecx, DWORD PTR [eax]
	mov	edx, DWORD PTR [ecx+4]
	mov	DWORD PTR [eax], edx
; Line 271
	ret	0
??F?$_List_const_iterator@V?$_List_val@URibbonSegment@@V?$allocator@URibbonSegment@@@std@@@std@@@std@@QAEAAV01@XZ ENDP ; std::_List_const_iterator<std::_List_val<RibbonSegment,std::allocator<RibbonSegment> > >::operator--
_TEXT	ENDS
PUBLIC	??8?$_List_const_iterator@V?$_List_val@URibbonSegment@@V?$allocator@URibbonSegment@@@std@@@std@@@std@@QBE_NABV01@@Z ; std::_List_const_iterator<std::_List_val<RibbonSegment,std::allocator<RibbonSegment> > >::operator==
; Function compile flags: /Ogtp
;	COMDAT ??8?$_List_const_iterator@V?$_List_val@URibbonSegment@@V?$allocator@URibbonSegment@@@std@@@std@@@std@@QBE_NABV01@@Z
_TEXT	SEGMENT
__Right$ = 8						; size = 4
??8?$_List_const_iterator@V?$_List_val@URibbonSegment@@V?$allocator@URibbonSegment@@@std@@@std@@@std@@QBE_NABV01@@Z PROC ; std::_List_const_iterator<std::_List_val<RibbonSegment,std::allocator<RibbonSegment> > >::operator==, COMDAT
; _this$ = ecx
; Line 281
	push	ebp
	mov	ebp, esp
; Line 295
	mov	eax, DWORD PTR [ecx]
	mov	edx, DWORD PTR __Right$[ebp]
	xor	ecx, ecx
	cmp	eax, DWORD PTR [edx]
	sete	al
; Line 296
	pop	ebp
	ret	4
??8?$_List_const_iterator@V?$_List_val@URibbonSegment@@V?$allocator@URibbonSegment@@@std@@@std@@@std@@QBE_NABV01@@Z ENDP ; std::_List_const_iterator<std::_List_val<RibbonSegment,std::allocator<RibbonSegment> > >::operator==
_TEXT	ENDS
PUBLIC	?_Mynode@?$_List_unchecked_const_iterator@V?$_List_val@URibbonSegment@@V?$allocator@URibbonSegment@@@std@@@std@@U_Iterator_base0@2@@std@@QBEPAU_Node@?$_List_nod@URibbonSegment@@V?$allocator@URibbonSegment@@@std@@@2@XZ ; std::_List_unchecked_const_iterator<std::_List_val<RibbonSegment,std::allocator<RibbonSegment> >,std::_Iterator_base0>::_Mynode
; Function compile flags: /Ogtp
;	COMDAT ?_Mynode@?$_List_unchecked_const_iterator@V?$_List_val@URibbonSegment@@V?$allocator@URibbonSegment@@@std@@@std@@U_Iterator_base0@2@@std@@QBEPAU_Node@?$_List_nod@URibbonSegment@@V?$allocator@URibbonSegment@@@std@@@2@XZ
_TEXT	SEGMENT
?_Mynode@?$_List_unchecked_const_iterator@V?$_List_val@URibbonSegment@@V?$allocator@URibbonSegment@@@std@@@std@@U_Iterator_base0@2@@std@@QBEPAU_Node@?$_List_nod@URibbonSegment@@V?$allocator@URibbonSegment@@@std@@@2@XZ PROC ; std::_List_unchecked_const_iterator<std::_List_val<RibbonSegment,std::allocator<RibbonSegment> >,std::_Iterator_base0>::_Mynode, COMDAT
; _this$ = ecx
; Line 93
	mov	eax, DWORD PTR [ecx]
; Line 94
	ret	0
?_Mynode@?$_List_unchecked_const_iterator@V?$_List_val@URibbonSegment@@V?$allocator@URibbonSegment@@@std@@@std@@U_Iterator_base0@2@@std@@QBEPAU_Node@?$_List_nod@URibbonSegment@@V?$allocator@URibbonSegment@@@std@@@2@XZ ENDP ; std::_List_unchecked_const_iterator<std::_List_val<RibbonSegment,std::allocator<RibbonSegment> >,std::_Iterator_base0>::_Mynode
_TEXT	ENDS
PUBLIC	??4?$pair@II@std@@QAEAAU01@ABU01@@Z		; std::pair<unsigned int,unsigned int>::operator=
; Function compile flags: /Ogtp
;	COMDAT ??4?$pair@II@std@@QAEAAU01@ABU01@@Z
_TEXT	SEGMENT
__Right$ = 8						; size = 4
??4?$pair@II@std@@QAEAAU01@ABU01@@Z PROC		; std::pair<unsigned int,unsigned int>::operator=, COMDAT
; _this$ = ecx
; File c:\program files (x86)\microsoft visual studio 10.0\vc\include\utility
; Line 215
	push	ebp
	mov	ebp, esp
	mov	eax, ecx
; Line 216
	mov	ecx, DWORD PTR __Right$[ebp]
	mov	edx, DWORD PTR [ecx]
	mov	DWORD PTR [eax], edx
; Line 217
	mov	ecx, DWORD PTR [ecx+4]
	mov	DWORD PTR [eax+4], ecx
; Line 219
	pop	ebp
	ret	4
??4?$pair@II@std@@QAEAAU01@ABU01@@Z ENDP		; std::pair<unsigned int,unsigned int>::operator=
_TEXT	ENDS
PUBLIC	?conv@?$Identity@VVec3D@@@@SAABVVec3D@@ABV2@@Z	; Identity<Vec3D>::conv
; Function compile flags: /Ogtp
;	COMDAT ?conv@?$Identity@VVec3D@@@@SAABVVec3D@@ABV2@@Z
_TEXT	SEGMENT
_t$ = 8							; size = 4
?conv@?$Identity@VVec3D@@@@SAABVVec3D@@ABV2@@Z PROC	; Identity<Vec3D>::conv, COMDAT
; File c:\programovani\wow editor\test\src\editor\animated.h
; Line 61
	push	ebp
	mov	ebp, esp
; Line 62
	mov	eax, DWORD PTR _t$[ebp]
; Line 63
	pop	ebp
	ret	0
?conv@?$Identity@VVec3D@@@@SAABVVec3D@@ABV2@@Z ENDP	; Identity<Vec3D>::conv
_TEXT	ENDS
PUBLIC	?conv@?$Identity@M@@SAABMABM@Z			; Identity<float>::conv
; Function compile flags: /Ogtp
;	COMDAT ?conv@?$Identity@M@@SAABMABM@Z
_TEXT	SEGMENT
_t$ = 8							; size = 4
?conv@?$Identity@M@@SAABMABM@Z PROC			; Identity<float>::conv, COMDAT
; Line 61
	push	ebp
	mov	ebp, esp
; Line 62
	mov	eax, DWORD PTR _t$[ebp]
; Line 63
	pop	ebp
	ret	0
?conv@?$Identity@M@@SAABMABM@Z ENDP			; Identity<float>::conv
_TEXT	ENDS
PUBLIC	?_Inside@?$vector@U?$pair@II@std@@V?$allocator@U?$pair@II@std@@@2@@std@@IBE_NPBU?$pair@II@2@@Z ; std::vector<std::pair<unsigned int,unsigned int>,std::allocator<std::pair<unsigned int,unsigned int> > >::_Inside
; Function compile flags: /Ogtp
;	COMDAT ?_Inside@?$vector@U?$pair@II@std@@V?$allocator@U?$pair@II@std@@@2@@std@@IBE_NPBU?$pair@II@2@@Z
_TEXT	SEGMENT
__Ptr$ = 8						; size = 4
?_Inside@?$vector@U?$pair@II@std@@V?$allocator@U?$pair@II@std@@@2@@std@@IBE_NPBU?$pair@II@2@@Z PROC ; std::vector<std::pair<unsigned int,unsigned int>,std::allocator<std::pair<unsigned int,unsigned int> > >::_Inside, COMDAT
; _this$ = ecx
; File c:\program files (x86)\microsoft visual studio 10.0\vc\include\vector
; Line 1285
	push	ebp
	mov	ebp, esp
; Line 1286
	mov	eax, DWORD PTR __Ptr$[ebp]
	cmp	eax, DWORD PTR [ecx+4]
	jae	SHORT $LN3@Inside@2
	cmp	DWORD PTR [ecx], eax
	ja	SHORT $LN3@Inside@2
	mov	eax, 1
; Line 1287
	pop	ebp
	ret	4
$LN3@Inside@2:
; Line 1286
	xor	eax, eax
; Line 1287
	pop	ebp
	ret	4
?_Inside@?$vector@U?$pair@II@std@@V?$allocator@U?$pair@II@std@@@2@@std@@IBE_NPBU?$pair@II@2@@Z ENDP ; std::vector<std::pair<unsigned int,unsigned int>,std::allocator<std::pair<unsigned int,unsigned int> > >::_Inside
_TEXT	ENDS
PUBLIC	?_Orphan_range@?$vector@U?$pair@II@std@@V?$allocator@U?$pair@II@std@@@2@@std@@IBEXPAU?$pair@II@2@0@Z ; std::vector<std::pair<unsigned int,unsigned int>,std::allocator<std::pair<unsigned int,unsigned int> > >::_Orphan_range
; Function compile flags: /Ogtp
;	COMDAT ?_Orphan_range@?$vector@U?$pair@II@std@@V?$allocator@U?$pair@II@std@@@2@@std@@IBEXPAU?$pair@II@2@0@Z
_TEXT	SEGMENT
___formal$ = 8						; size = 4
___formal$ = 12						; size = 4
?_Orphan_range@?$vector@U?$pair@II@std@@V?$allocator@U?$pair@II@std@@@2@@std@@IBEXPAU?$pair@II@2@0@Z PROC ; std::vector<std::pair<unsigned int,unsigned int>,std::allocator<std::pair<unsigned int,unsigned int> > >::_Orphan_range, COMDAT
; _this$ = ecx
; Line 1454
	ret	8
?_Orphan_range@?$vector@U?$pair@II@std@@V?$allocator@U?$pair@II@std@@@2@@std@@IBEXPAU?$pair@II@2@0@Z ENDP ; std::vector<std::pair<unsigned int,unsigned int>,std::allocator<std::pair<unsigned int,unsigned int> > >::_Orphan_range
_TEXT	ENDS
PUBLIC	?deallocate@?$allocator@U?$pair@II@std@@@std@@QAEXPAU?$pair@II@2@I@Z ; std::allocator<std::pair<unsigned int,unsigned int> >::deallocate
; Function compile flags: /Ogtp
;	COMDAT ?deallocate@?$allocator@U?$pair@II@std@@@std@@QAEXPAU?$pair@II@2@I@Z
_TEXT	SEGMENT
__Ptr$ = 8						; size = 4
___formal$ = 12						; size = 4
?deallocate@?$allocator@U?$pair@II@std@@@std@@QAEXPAU?$pair@II@2@I@Z PROC ; std::allocator<std::pair<unsigned int,unsigned int> >::deallocate, COMDAT
; _this$ = ecx
; File c:\program files (x86)\microsoft visual studio 10.0\vc\include\xmemory
; Line 181
	push	ebp
	mov	ebp, esp
; Line 182
	mov	eax, DWORD PTR __Ptr$[ebp]
	push	eax
	call	??3@YAXPAX@Z				; operator delete
	add	esp, 4
; Line 183
	pop	ebp
	ret	8
?deallocate@?$allocator@U?$pair@II@std@@@std@@QAEXPAU?$pair@II@2@I@Z ENDP ; std::allocator<std::pair<unsigned int,unsigned int> >::deallocate
_TEXT	ENDS
PUBLIC	?_Inside@?$vector@HV?$allocator@H@std@@@std@@IBE_NPBH@Z ; std::vector<int,std::allocator<int> >::_Inside
; Function compile flags: /Ogtp
;	COMDAT ?_Inside@?$vector@HV?$allocator@H@std@@@std@@IBE_NPBH@Z
_TEXT	SEGMENT
__Ptr$ = 8						; size = 4
?_Inside@?$vector@HV?$allocator@H@std@@@std@@IBE_NPBH@Z PROC ; std::vector<int,std::allocator<int> >::_Inside, COMDAT
; _this$ = ecx
; File c:\program files (x86)\microsoft visual studio 10.0\vc\include\vector
; Line 1285
	push	ebp
	mov	ebp, esp
; Line 1286
	mov	eax, DWORD PTR __Ptr$[ebp]
	cmp	eax, DWORD PTR [ecx+4]
	jae	SHORT $LN3@Inside@3
	cmp	DWORD PTR [ecx], eax
	ja	SHORT $LN3@Inside@3
	mov	eax, 1
; Line 1287
	pop	ebp
	ret	4
$LN3@Inside@3:
; Line 1286
	xor	eax, eax
; Line 1287
	pop	ebp
	ret	4
?_Inside@?$vector@HV?$allocator@H@std@@@std@@IBE_NPBH@Z ENDP ; std::vector<int,std::allocator<int> >::_Inside
_TEXT	ENDS
PUBLIC	?_Orphan_range@?$vector@HV?$allocator@H@std@@@std@@IBEXPAH0@Z ; std::vector<int,std::allocator<int> >::_Orphan_range
; Function compile flags: /Ogtp
;	COMDAT ?_Orphan_range@?$vector@HV?$allocator@H@std@@@std@@IBEXPAH0@Z
_TEXT	SEGMENT
___formal$ = 8						; size = 4
___formal$ = 12						; size = 4
?_Orphan_range@?$vector@HV?$allocator@H@std@@@std@@IBEXPAH0@Z PROC ; std::vector<int,std::allocator<int> >::_Orphan_range, COMDAT
; _this$ = ecx
; Line 1454
	ret	8
?_Orphan_range@?$vector@HV?$allocator@H@std@@@std@@IBEXPAH0@Z ENDP ; std::vector<int,std::allocator<int> >::_Orphan_range
_TEXT	ENDS
PUBLIC	?deallocate@?$allocator@H@std@@QAEXPAHI@Z	; std::allocator<int>::deallocate
; Function compile flags: /Ogtp
;	COMDAT ?deallocate@?$allocator@H@std@@QAEXPAHI@Z
_TEXT	SEGMENT
__Ptr$ = 8						; size = 4
___formal$ = 12						; size = 4
?deallocate@?$allocator@H@std@@QAEXPAHI@Z PROC		; std::allocator<int>::deallocate, COMDAT
; _this$ = ecx
; File c:\program files (x86)\microsoft visual studio 10.0\vc\include\xmemory
; Line 181
	push	ebp
	mov	ebp, esp
; Line 182
	mov	eax, DWORD PTR __Ptr$[ebp]
	push	eax
	call	??3@YAXPAX@Z				; operator delete
	add	esp, 4
; Line 183
	pop	ebp
	ret	8
?deallocate@?$allocator@H@std@@QAEXPAHI@Z ENDP		; std::allocator<int>::deallocate
_TEXT	ENDS
PUBLIC	?_Inside@?$vector@VVec3D@@V?$allocator@VVec3D@@@std@@@std@@IBE_NPBVVec3D@@@Z ; std::vector<Vec3D,std::allocator<Vec3D> >::_Inside
; Function compile flags: /Ogtp
;	COMDAT ?_Inside@?$vector@VVec3D@@V?$allocator@VVec3D@@@std@@@std@@IBE_NPBVVec3D@@@Z
_TEXT	SEGMENT
__Ptr$ = 8						; size = 4
?_Inside@?$vector@VVec3D@@V?$allocator@VVec3D@@@std@@@std@@IBE_NPBVVec3D@@@Z PROC ; std::vector<Vec3D,std::allocator<Vec3D> >::_Inside, COMDAT
; _this$ = ecx
; File c:\program files (x86)\microsoft visual studio 10.0\vc\include\vector
; Line 1285
	push	ebp
	mov	ebp, esp
; Line 1286
	mov	eax, DWORD PTR __Ptr$[ebp]
	cmp	eax, DWORD PTR [ecx+4]
	jae	SHORT $LN3@Inside@4
	cmp	DWORD PTR [ecx], eax
	ja	SHORT $LN3@Inside@4
	mov	eax, 1
; Line 1287
	pop	ebp
	ret	4
$LN3@Inside@4:
; Line 1286
	xor	eax, eax
; Line 1287
	pop	ebp
	ret	4
?_Inside@?$vector@VVec3D@@V?$allocator@VVec3D@@@std@@@std@@IBE_NPBVVec3D@@@Z ENDP ; std::vector<Vec3D,std::allocator<Vec3D> >::_Inside
_TEXT	ENDS
PUBLIC	?_Orphan_range@?$vector@VVec3D@@V?$allocator@VVec3D@@@std@@@std@@IBEXPAVVec3D@@0@Z ; std::vector<Vec3D,std::allocator<Vec3D> >::_Orphan_range
; Function compile flags: /Ogtp
;	COMDAT ?_Orphan_range@?$vector@VVec3D@@V?$allocator@VVec3D@@@std@@@std@@IBEXPAVVec3D@@0@Z
_TEXT	SEGMENT
___formal$ = 8						; size = 4
___formal$ = 12						; size = 4
?_Orphan_range@?$vector@VVec3D@@V?$allocator@VVec3D@@@std@@@std@@IBEXPAVVec3D@@0@Z PROC ; std::vector<Vec3D,std::allocator<Vec3D> >::_Orphan_range, COMDAT
; _this$ = ecx
; Line 1454
	ret	8
?_Orphan_range@?$vector@VVec3D@@V?$allocator@VVec3D@@@std@@@std@@IBEXPAVVec3D@@0@Z ENDP ; std::vector<Vec3D,std::allocator<Vec3D> >::_Orphan_range
_TEXT	ENDS
PUBLIC	?deallocate@?$allocator@VVec3D@@@std@@QAEXPAVVec3D@@I@Z ; std::allocator<Vec3D>::deallocate
; Function compile flags: /Ogtp
;	COMDAT ?deallocate@?$allocator@VVec3D@@@std@@QAEXPAVVec3D@@I@Z
_TEXT	SEGMENT
__Ptr$ = 8						; size = 4
___formal$ = 12						; size = 4
?deallocate@?$allocator@VVec3D@@@std@@QAEXPAVVec3D@@I@Z PROC ; std::allocator<Vec3D>::deallocate, COMDAT
; _this$ = ecx
; File c:\program files (x86)\microsoft visual studio 10.0\vc\include\xmemory
; Line 181
	push	ebp
	mov	ebp, esp
; Line 182
	mov	eax, DWORD PTR __Ptr$[ebp]
	push	eax
	call	??3@YAXPAX@Z				; operator delete
	add	esp, 4
; Line 183
	pop	ebp
	ret	8
?deallocate@?$allocator@VVec3D@@@std@@QAEXPAVVec3D@@I@Z ENDP ; std::allocator<Vec3D>::deallocate
_TEXT	ENDS
PUBLIC	?_Inside@?$vector@MV?$allocator@M@std@@@std@@IBE_NPBM@Z ; std::vector<float,std::allocator<float> >::_Inside
; Function compile flags: /Ogtp
;	COMDAT ?_Inside@?$vector@MV?$allocator@M@std@@@std@@IBE_NPBM@Z
_TEXT	SEGMENT
__Ptr$ = 8						; size = 4
?_Inside@?$vector@MV?$allocator@M@std@@@std@@IBE_NPBM@Z PROC ; std::vector<float,std::allocator<float> >::_Inside, COMDAT
; _this$ = ecx
; File c:\program files (x86)\microsoft visual studio 10.0\vc\include\vector
; Line 1285
	push	ebp
	mov	ebp, esp
; Line 1286
	mov	eax, DWORD PTR __Ptr$[ebp]
	cmp	eax, DWORD PTR [ecx+4]
	jae	SHORT $LN3@Inside@5
	cmp	DWORD PTR [ecx], eax
	ja	SHORT $LN3@Inside@5
	mov	eax, 1
; Line 1287
	pop	ebp
	ret	4
$LN3@Inside@5:
; Line 1286
	xor	eax, eax
; Line 1287
	pop	ebp
	ret	4
?_Inside@?$vector@MV?$allocator@M@std@@@std@@IBE_NPBM@Z ENDP ; std::vector<float,std::allocator<float> >::_Inside
_TEXT	ENDS
PUBLIC	?_Orphan_range@?$vector@MV?$allocator@M@std@@@std@@IBEXPAM0@Z ; std::vector<float,std::allocator<float> >::_Orphan_range
; Function compile flags: /Ogtp
;	COMDAT ?_Orphan_range@?$vector@MV?$allocator@M@std@@@std@@IBEXPAM0@Z
_TEXT	SEGMENT
___formal$ = 8						; size = 4
___formal$ = 12						; size = 4
?_Orphan_range@?$vector@MV?$allocator@M@std@@@std@@IBEXPAM0@Z PROC ; std::vector<float,std::allocator<float> >::_Orphan_range, COMDAT
; _this$ = ecx
; Line 1454
	ret	8
?_Orphan_range@?$vector@MV?$allocator@M@std@@@std@@IBEXPAM0@Z ENDP ; std::vector<float,std::allocator<float> >::_Orphan_range
_TEXT	ENDS
PUBLIC	?deallocate@?$allocator@M@std@@QAEXPAMI@Z	; std::allocator<float>::deallocate
; Function compile flags: /Ogtp
;	COMDAT ?deallocate@?$allocator@M@std@@QAEXPAMI@Z
_TEXT	SEGMENT
__Ptr$ = 8						; size = 4
___formal$ = 12						; size = 4
?deallocate@?$allocator@M@std@@QAEXPAMI@Z PROC		; std::allocator<float>::deallocate, COMDAT
; _this$ = ecx
; File c:\program files (x86)\microsoft visual studio 10.0\vc\include\xmemory
; Line 181
	push	ebp
	mov	ebp, esp
; Line 182
	mov	eax, DWORD PTR __Ptr$[ebp]
	push	eax
	call	??3@YAXPAX@Z				; operator delete
	add	esp, 4
; Line 183
	pop	ebp
	ret	8
?deallocate@?$allocator@M@std@@QAEXPAMI@Z ENDP		; std::allocator<float>::deallocate
_TEXT	ENDS
PUBLIC	?_Myval@?$_List_val@UParticle@@V?$allocator@UParticle@@@std@@@std@@SAAAUParticle@@PAU_Node@?$_List_nod@UParticle@@V?$allocator@UParticle@@@std@@@2@@Z ; std::_List_val<Particle,std::allocator<Particle> >::_Myval
; Function compile flags: /Ogtp
;	COMDAT ?_Myval@?$_List_val@UParticle@@V?$allocator@UParticle@@@std@@@std@@SAAAUParticle@@PAU_Node@?$_List_nod@UParticle@@V?$allocator@UParticle@@@std@@@2@@Z
_TEXT	SEGMENT
__Pnode$ = 8						; size = 4
?_Myval@?$_List_val@UParticle@@V?$allocator@UParticle@@@std@@@std@@SAAAUParticle@@PAU_Node@?$_List_nod@UParticle@@V?$allocator@UParticle@@@std@@@2@@Z PROC ; std::_List_val<Particle,std::allocator<Particle> >::_Myval, COMDAT
; File c:\program files (x86)\microsoft visual studio 10.0\vc\include\list
; Line 570
	push	ebp
	mov	ebp, esp
; Line 571
	mov	eax, DWORD PTR __Pnode$[ebp]
	add	eax, 8
; Line 572
	pop	ebp
	ret	0
?_Myval@?$_List_val@UParticle@@V?$allocator@UParticle@@@std@@@std@@SAAAUParticle@@PAU_Node@?$_List_nod@UParticle@@V?$allocator@UParticle@@@std@@@2@@Z ENDP ; std::_List_val<Particle,std::allocator<Particle> >::_Myval
_TEXT	ENDS
PUBLIC	?capacity@?$vector@UTexCoordSet@@V?$allocator@UTexCoordSet@@@std@@@std@@QBEIXZ ; std::vector<TexCoordSet,std::allocator<TexCoordSet> >::capacity
; Function compile flags: /Ogtp
;	COMDAT ?capacity@?$vector@UTexCoordSet@@V?$allocator@UTexCoordSet@@@std@@@std@@QBEIXZ
_TEXT	SEGMENT
?capacity@?$vector@UTexCoordSet@@V?$allocator@UTexCoordSet@@@std@@@std@@QBEIXZ PROC ; std::vector<TexCoordSet,std::allocator<TexCoordSet> >::capacity, COMDAT
; _this$ = ecx
; File c:\program files (x86)\microsoft visual studio 10.0\vc\include\vector
; Line 777
	mov	eax, DWORD PTR [ecx+8]
	sub	eax, DWORD PTR [ecx]
	sar	eax, 5
; Line 778
	ret	0
?capacity@?$vector@UTexCoordSet@@V?$allocator@UTexCoordSet@@@std@@@std@@QBEIXZ ENDP ; std::vector<TexCoordSet,std::allocator<TexCoordSet> >::capacity
_TEXT	ENDS
PUBLIC	?size@?$vector@UTexCoordSet@@V?$allocator@UTexCoordSet@@@std@@@std@@QBEIXZ ; std::vector<TexCoordSet,std::allocator<TexCoordSet> >::size
; Function compile flags: /Ogtp
;	COMDAT ?size@?$vector@UTexCoordSet@@V?$allocator@UTexCoordSet@@@std@@@std@@QBEIXZ
_TEXT	SEGMENT
?size@?$vector@UTexCoordSet@@V?$allocator@UTexCoordSet@@@std@@@std@@QBEIXZ PROC ; std::vector<TexCoordSet,std::allocator<TexCoordSet> >::size, COMDAT
; _this$ = ecx
; Line 879
	mov	eax, DWORD PTR [ecx+4]
	sub	eax, DWORD PTR [ecx]
	sar	eax, 5
; Line 880
	ret	0
?size@?$vector@UTexCoordSet@@V?$allocator@UTexCoordSet@@@std@@@std@@QBEIXZ ENDP ; std::vector<TexCoordSet,std::allocator<TexCoordSet> >::size
_TEXT	ENDS
PUBLIC	??_C@_0BD@OLBABOEK@vector?$DMT?$DO?5too?5long?$AA@ ; `string'
PUBLIC	?_Xlen@?$vector@UTexCoordSet@@V?$allocator@UTexCoordSet@@@std@@@std@@IBEXXZ ; std::vector<TexCoordSet,std::allocator<TexCoordSet> >::_Xlen
EXTRN	__imp_?_Xlength_error@std@@YAXPBD@Z:PROC
;	COMDAT ??_C@_0BD@OLBABOEK@vector?$DMT?$DO?5too?5long?$AA@
CONST	SEGMENT
??_C@_0BD@OLBABOEK@vector?$DMT?$DO?5too?5long?$AA@ DB 'vector<T> too long'
	DB	00H						; `string'
; Function compile flags: /Ogtp
CONST	ENDS
;	COMDAT ?_Xlen@?$vector@UTexCoordSet@@V?$allocator@UTexCoordSet@@@std@@@std@@IBEXXZ
_TEXT	SEGMENT
?_Xlen@?$vector@UTexCoordSet@@V?$allocator@UTexCoordSet@@@std@@@std@@IBEXXZ PROC ; std::vector<TexCoordSet,std::allocator<TexCoordSet> >::_Xlen, COMDAT
; _this$ = ecx
; Line 1427
	push	OFFSET ??_C@_0BD@OLBABOEK@vector?$DMT?$DO?5too?5long?$AA@
	call	DWORD PTR __imp_?_Xlength_error@std@@YAXPBD@Z
$LN4@Xlen:
$LN3@Xlen:
	int	3
?_Xlen@?$vector@UTexCoordSet@@V?$allocator@UTexCoordSet@@@std@@@std@@IBEXXZ ENDP ; std::vector<TexCoordSet,std::allocator<TexCoordSet> >::_Xlen
_TEXT	ENDS
PUBLIC	?deallocate@?$allocator@UTexCoordSet@@@std@@QAEXPAUTexCoordSet@@I@Z ; std::allocator<TexCoordSet>::deallocate
; Function compile flags: /Ogtp
;	COMDAT ?deallocate@?$allocator@UTexCoordSet@@@std@@QAEXPAUTexCoordSet@@I@Z
_TEXT	SEGMENT
__Ptr$ = 8						; size = 4
___formal$ = 12						; size = 4
?deallocate@?$allocator@UTexCoordSet@@@std@@QAEXPAUTexCoordSet@@I@Z PROC ; std::allocator<TexCoordSet>::deallocate, COMDAT
; _this$ = ecx
; File c:\program files (x86)\microsoft visual studio 10.0\vc\include\xmemory
; Line 181
	push	ebp
	mov	ebp, esp
; Line 182
	mov	eax, DWORD PTR __Ptr$[ebp]
	push	eax
	call	??3@YAXPAX@Z				; operator delete
	add	esp, 4
; Line 183
	pop	ebp
	ret	8
?deallocate@?$allocator@UTexCoordSet@@@std@@QAEXPAUTexCoordSet@@I@Z ENDP ; std::allocator<TexCoordSet>::deallocate
_TEXT	ENDS
PUBLIC	?_Myval@?$_List_val@URibbonSegment@@V?$allocator@URibbonSegment@@@std@@@std@@SAAAURibbonSegment@@PAU_Node@?$_List_nod@URibbonSegment@@V?$allocator@URibbonSegment@@@std@@@2@@Z ; std::_List_val<RibbonSegment,std::allocator<RibbonSegment> >::_Myval
; Function compile flags: /Ogtp
;	COMDAT ?_Myval@?$_List_val@URibbonSegment@@V?$allocator@URibbonSegment@@@std@@@std@@SAAAURibbonSegment@@PAU_Node@?$_List_nod@URibbonSegment@@V?$allocator@URibbonSegment@@@std@@@2@@Z
_TEXT	SEGMENT
__Pnode$ = 8						; size = 4
?_Myval@?$_List_val@URibbonSegment@@V?$allocator@URibbonSegment@@@std@@@std@@SAAAURibbonSegment@@PAU_Node@?$_List_nod@URibbonSegment@@V?$allocator@URibbonSegment@@@std@@@2@@Z PROC ; std::_List_val<RibbonSegment,std::allocator<RibbonSegment> >::_Myval, COMDAT
; File c:\program files (x86)\microsoft visual studio 10.0\vc\include\list
; Line 570
	push	ebp
	mov	ebp, esp
; Line 571
	mov	eax, DWORD PTR __Pnode$[ebp]
	add	eax, 8
; Line 572
	pop	ebp
	ret	0
?_Myval@?$_List_val@URibbonSegment@@V?$allocator@URibbonSegment@@@std@@@std@@SAAAURibbonSegment@@PAU_Node@?$_List_nod@URibbonSegment@@V?$allocator@URibbonSegment@@@std@@@2@@Z ENDP ; std::_List_val<RibbonSegment,std::allocator<RibbonSegment> >::_Myval
_TEXT	ENDS
PUBLIC	??0?$_Pair_base@II@std@@QAE@XZ			; std::_Pair_base<unsigned int,unsigned int>::_Pair_base<unsigned int,unsigned int>
; Function compile flags: /Ogtp
;	COMDAT ??0?$_Pair_base@II@std@@QAE@XZ
_TEXT	SEGMENT
??0?$_Pair_base@II@std@@QAE@XZ PROC			; std::_Pair_base<unsigned int,unsigned int>::_Pair_base<unsigned int,unsigned int>, COMDAT
; _this$ = ecx
; File c:\program files (x86)\microsoft visual studio 10.0\vc\include\utility
; Line 126
	mov	eax, ecx
	mov	DWORD PTR [eax], 0
	mov	DWORD PTR [eax+4], 0
; Line 127
	ret	0
??0?$_Pair_base@II@std@@QAE@XZ ENDP			; std::_Pair_base<unsigned int,unsigned int>::_Pair_base<unsigned int,unsigned int>
_TEXT	ENDS
PUBLIC	?capacity@?$vector@U?$pair@II@std@@V?$allocator@U?$pair@II@std@@@2@@std@@QBEIXZ ; std::vector<std::pair<unsigned int,unsigned int>,std::allocator<std::pair<unsigned int,unsigned int> > >::capacity
; Function compile flags: /Ogtp
;	COMDAT ?capacity@?$vector@U?$pair@II@std@@V?$allocator@U?$pair@II@std@@@2@@std@@QBEIXZ
_TEXT	SEGMENT
?capacity@?$vector@U?$pair@II@std@@V?$allocator@U?$pair@II@std@@@2@@std@@QBEIXZ PROC ; std::vector<std::pair<unsigned int,unsigned int>,std::allocator<std::pair<unsigned int,unsigned int> > >::capacity, COMDAT
; _this$ = ecx
; File c:\program files (x86)\microsoft visual studio 10.0\vc\include\vector
; Line 777
	mov	eax, DWORD PTR [ecx+8]
	sub	eax, DWORD PTR [ecx]
	sar	eax, 3
; Line 778
	ret	0
?capacity@?$vector@U?$pair@II@std@@V?$allocator@U?$pair@II@std@@@2@@std@@QBEIXZ ENDP ; std::vector<std::pair<unsigned int,unsigned int>,std::allocator<std::pair<unsigned int,unsigned int> > >::capacity
_TEXT	ENDS
PUBLIC	?size@?$vector@U?$pair@II@std@@V?$allocator@U?$pair@II@std@@@2@@std@@QBEIXZ ; std::vector<std::pair<unsigned int,unsigned int>,std::allocator<std::pair<unsigned int,unsigned int> > >::size
; Function compile flags: /Ogtp
;	COMDAT ?size@?$vector@U?$pair@II@std@@V?$allocator@U?$pair@II@std@@@2@@std@@QBEIXZ
_TEXT	SEGMENT
?size@?$vector@U?$pair@II@std@@V?$allocator@U?$pair@II@std@@@2@@std@@QBEIXZ PROC ; std::vector<std::pair<unsigned int,unsigned int>,std::allocator<std::pair<unsigned int,unsigned int> > >::size, COMDAT
; _this$ = ecx
; Line 879
	mov	eax, DWORD PTR [ecx+4]
	sub	eax, DWORD PTR [ecx]
	sar	eax, 3
; Line 880
	ret	0
?size@?$vector@U?$pair@II@std@@V?$allocator@U?$pair@II@std@@@2@@std@@QBEIXZ ENDP ; std::vector<std::pair<unsigned int,unsigned int>,std::allocator<std::pair<unsigned int,unsigned int> > >::size
_TEXT	ENDS
PUBLIC	?_Xlen@?$vector@U?$pair@II@std@@V?$allocator@U?$pair@II@std@@@2@@std@@IBEXXZ ; std::vector<std::pair<unsigned int,unsigned int>,std::allocator<std::pair<unsigned int,unsigned int> > >::_Xlen
; Function compile flags: /Ogtp
;	COMDAT ?_Xlen@?$vector@U?$pair@II@std@@V?$allocator@U?$pair@II@std@@@2@@std@@IBEXXZ
_TEXT	SEGMENT
?_Xlen@?$vector@U?$pair@II@std@@V?$allocator@U?$pair@II@std@@@2@@std@@IBEXXZ PROC ; std::vector<std::pair<unsigned int,unsigned int>,std::allocator<std::pair<unsigned int,unsigned int> > >::_Xlen, COMDAT
; _this$ = ecx
; Line 1427
	push	OFFSET ??_C@_0BD@OLBABOEK@vector?$DMT?$DO?5too?5long?$AA@
	call	DWORD PTR __imp_?_Xlength_error@std@@YAXPBD@Z
$LN4@Xlen@2:
$LN3@Xlen@2:
	int	3
?_Xlen@?$vector@U?$pair@II@std@@V?$allocator@U?$pair@II@std@@@2@@std@@IBEXXZ ENDP ; std::vector<std::pair<unsigned int,unsigned int>,std::allocator<std::pair<unsigned int,unsigned int> > >::_Xlen
_TEXT	ENDS
PUBLIC	?capacity@?$vector@HV?$allocator@H@std@@@std@@QBEIXZ ; std::vector<int,std::allocator<int> >::capacity
; Function compile flags: /Ogtp
;	COMDAT ?capacity@?$vector@HV?$allocator@H@std@@@std@@QBEIXZ
_TEXT	SEGMENT
?capacity@?$vector@HV?$allocator@H@std@@@std@@QBEIXZ PROC ; std::vector<int,std::allocator<int> >::capacity, COMDAT
; _this$ = ecx
; Line 777
	mov	eax, DWORD PTR [ecx+8]
	sub	eax, DWORD PTR [ecx]
	sar	eax, 2
; Line 778
	ret	0
?capacity@?$vector@HV?$allocator@H@std@@@std@@QBEIXZ ENDP ; std::vector<int,std::allocator<int> >::capacity
_TEXT	ENDS
PUBLIC	?_Xlen@?$vector@HV?$allocator@H@std@@@std@@IBEXXZ ; std::vector<int,std::allocator<int> >::_Xlen
; Function compile flags: /Ogtp
;	COMDAT ?_Xlen@?$vector@HV?$allocator@H@std@@@std@@IBEXXZ
_TEXT	SEGMENT
?_Xlen@?$vector@HV?$allocator@H@std@@@std@@IBEXXZ PROC	; std::vector<int,std::allocator<int> >::_Xlen, COMDAT
; _this$ = ecx
; Line 1427
	push	OFFSET ??_C@_0BD@OLBABOEK@vector?$DMT?$DO?5too?5long?$AA@
	call	DWORD PTR __imp_?_Xlength_error@std@@YAXPBD@Z
$LN4@Xlen@3:
$LN3@Xlen@3:
	int	3
?_Xlen@?$vector@HV?$allocator@H@std@@@std@@IBEXXZ ENDP	; std::vector<int,std::allocator<int> >::_Xlen
_TEXT	ENDS
PUBLIC	?capacity@?$vector@VVec3D@@V?$allocator@VVec3D@@@std@@@std@@QBEIXZ ; std::vector<Vec3D,std::allocator<Vec3D> >::capacity
; Function compile flags: /Ogtp
;	COMDAT ?capacity@?$vector@VVec3D@@V?$allocator@VVec3D@@@std@@@std@@QBEIXZ
_TEXT	SEGMENT
?capacity@?$vector@VVec3D@@V?$allocator@VVec3D@@@std@@@std@@QBEIXZ PROC ; std::vector<Vec3D,std::allocator<Vec3D> >::capacity, COMDAT
; _this$ = ecx
; Line 777
	mov	edx, DWORD PTR [ecx+8]
	sub	edx, DWORD PTR [ecx]
	mov	eax, 715827883				; 2aaaaaabH
	imul	edx
	sar	edx, 1
	mov	eax, edx
	shr	eax, 31					; 0000001fH
	add	eax, edx
; Line 778
	ret	0
?capacity@?$vector@VVec3D@@V?$allocator@VVec3D@@@std@@@std@@QBEIXZ ENDP ; std::vector<Vec3D,std::allocator<Vec3D> >::capacity
_TEXT	ENDS
PUBLIC	?_Xlen@?$vector@VVec3D@@V?$allocator@VVec3D@@@std@@@std@@IBEXXZ ; std::vector<Vec3D,std::allocator<Vec3D> >::_Xlen
; Function compile flags: /Ogtp
;	COMDAT ?_Xlen@?$vector@VVec3D@@V?$allocator@VVec3D@@@std@@@std@@IBEXXZ
_TEXT	SEGMENT
?_Xlen@?$vector@VVec3D@@V?$allocator@VVec3D@@@std@@@std@@IBEXXZ PROC ; std::vector<Vec3D,std::allocator<Vec3D> >::_Xlen, COMDAT
; _this$ = ecx
; Line 1427
	push	OFFSET ??_C@_0BD@OLBABOEK@vector?$DMT?$DO?5too?5long?$AA@
	call	DWORD PTR __imp_?_Xlength_error@std@@YAXPBD@Z
$LN4@Xlen@4:
$LN3@Xlen@4:
	int	3
?_Xlen@?$vector@VVec3D@@V?$allocator@VVec3D@@@std@@@std@@IBEXXZ ENDP ; std::vector<Vec3D,std::allocator<Vec3D> >::_Xlen
_TEXT	ENDS
PUBLIC	?capacity@?$vector@MV?$allocator@M@std@@@std@@QBEIXZ ; std::vector<float,std::allocator<float> >::capacity
; Function compile flags: /Ogtp
;	COMDAT ?capacity@?$vector@MV?$allocator@M@std@@@std@@QBEIXZ
_TEXT	SEGMENT
?capacity@?$vector@MV?$allocator@M@std@@@std@@QBEIXZ PROC ; std::vector<float,std::allocator<float> >::capacity, COMDAT
; _this$ = ecx
; Line 777
	mov	eax, DWORD PTR [ecx+8]
	sub	eax, DWORD PTR [ecx]
	sar	eax, 2
; Line 778
	ret	0
?capacity@?$vector@MV?$allocator@M@std@@@std@@QBEIXZ ENDP ; std::vector<float,std::allocator<float> >::capacity
_TEXT	ENDS
PUBLIC	?_Xlen@?$vector@MV?$allocator@M@std@@@std@@IBEXXZ ; std::vector<float,std::allocator<float> >::_Xlen
; Function compile flags: /Ogtp
;	COMDAT ?_Xlen@?$vector@MV?$allocator@M@std@@@std@@IBEXXZ
_TEXT	SEGMENT
?_Xlen@?$vector@MV?$allocator@M@std@@@std@@IBEXXZ PROC	; std::vector<float,std::allocator<float> >::_Xlen, COMDAT
; _this$ = ecx
; Line 1427
	push	OFFSET ??_C@_0BD@OLBABOEK@vector?$DMT?$DO?5too?5long?$AA@
	call	DWORD PTR __imp_?_Xlength_error@std@@YAXPBD@Z
$LN4@Xlen@5:
$LN3@Xlen@5:
	int	3
?_Xlen@?$vector@MV?$allocator@M@std@@@std@@IBEXXZ ENDP	; std::vector<float,std::allocator<float> >::_Xlen
_TEXT	ENDS
PUBLIC	?max_size@?$allocator@UTexCoordSet@@@std@@QBEIXZ ; std::allocator<TexCoordSet>::max_size
; Function compile flags: /Ogtp
;	COMDAT ?max_size@?$allocator@UTexCoordSet@@@std@@QBEIXZ
_TEXT	SEGMENT
?max_size@?$allocator@UTexCoordSet@@@std@@QBEIXZ PROC	; std::allocator<TexCoordSet>::max_size, COMDAT
; _this$ = ecx
; File c:\program files (x86)\microsoft visual studio 10.0\vc\include\xmemory
; Line 219
	mov	eax, 134217727				; 07ffffffH
; Line 220
	ret	0
?max_size@?$allocator@UTexCoordSet@@@std@@QBEIXZ ENDP	; std::allocator<TexCoordSet>::max_size
_TEXT	ENDS
PUBLIC	??0?$_List_unchecked_const_iterator@V?$_List_val@UParticle@@V?$allocator@UParticle@@@std@@@std@@U_Iterator_base0@2@@std@@QAE@PAU_Node@?$_List_nod@UParticle@@V?$allocator@UParticle@@@std@@@1@PBV?$_List_val@UParticle@@V?$allocator@UParticle@@@std@@@1@@Z ; std::_List_unchecked_const_iterator<std::_List_val<Particle,std::allocator<Particle> >,std::_Iterator_base0>::_List_unchecked_const_iterator<std::_List_val<Particle,std::allocator<Particle> >,std::_Iterator_base0>
; Function compile flags: /Ogtp
;	COMDAT ??0?$_List_unchecked_const_iterator@V?$_List_val@UParticle@@V?$allocator@UParticle@@@std@@@std@@U_Iterator_base0@2@@std@@QAE@PAU_Node@?$_List_nod@UParticle@@V?$allocator@UParticle@@@std@@@1@PBV?$_List_val@UParticle@@V?$allocator@UParticle@@@std@@@1@@Z
_TEXT	SEGMENT
__Pnode$ = 8						; size = 4
__Plist$ = 12						; size = 4
??0?$_List_unchecked_const_iterator@V?$_List_val@UParticle@@V?$allocator@UParticle@@@std@@@std@@U_Iterator_base0@2@@std@@QAE@PAU_Node@?$_List_nod@UParticle@@V?$allocator@UParticle@@@std@@@1@PBV?$_List_val@UParticle@@V?$allocator@UParticle@@@std@@@1@@Z PROC ; std::_List_unchecked_const_iterator<std::_List_val<Particle,std::allocator<Particle> >,std::_Iterator_base0>::_List_unchecked_const_iterator<std::_List_val<Particle,std::allocator<Particle> >,std::_Iterator_base0>, COMDAT
; _this$ = ecx
; File c:\program files (x86)\microsoft visual studio 10.0\vc\include\list
; Line 41
	push	ebp
	mov	ebp, esp
	mov	eax, ecx
	mov	ecx, DWORD PTR __Pnode$[ebp]
	mov	DWORD PTR [eax], ecx
; Line 43
	pop	ebp
	ret	8
??0?$_List_unchecked_const_iterator@V?$_List_val@UParticle@@V?$allocator@UParticle@@@std@@@std@@U_Iterator_base0@2@@std@@QAE@PAU_Node@?$_List_nod@UParticle@@V?$allocator@UParticle@@@std@@@1@PBV?$_List_val@UParticle@@V?$allocator@UParticle@@@std@@@1@@Z ENDP ; std::_List_unchecked_const_iterator<std::_List_val<Particle,std::allocator<Particle> >,std::_Iterator_base0>::_List_unchecked_const_iterator<std::_List_val<Particle,std::allocator<Particle> >,std::_Iterator_base0>
_TEXT	ENDS
PUBLIC	??0?$_List_unchecked_const_iterator@V?$_List_val@URibbonSegment@@V?$allocator@URibbonSegment@@@std@@@std@@U_Iterator_base0@2@@std@@QAE@PAU_Node@?$_List_nod@URibbonSegment@@V?$allocator@URibbonSegment@@@std@@@1@PBV?$_List_val@URibbonSegment@@V?$allocator@URibbonSegment@@@std@@@1@@Z ; std::_List_unchecked_const_iterator<std::_List_val<RibbonSegment,std::allocator<RibbonSegment> >,std::_Iterator_base0>::_List_unchecked_const_iterator<std::_List_val<RibbonSegment,std::allocator<RibbonSegment> >,std::_Iterator_base0>
; Function compile flags: /Ogtp
;	COMDAT ??0?$_List_unchecked_const_iterator@V?$_List_val@URibbonSegment@@V?$allocator@URibbonSegment@@@std@@@std@@U_Iterator_base0@2@@std@@QAE@PAU_Node@?$_List_nod@URibbonSegment@@V?$allocator@URibbonSegment@@@std@@@1@PBV?$_List_val@URibbonSegment@@V?$allocator@URibbonSegment@@@std@@@1@@Z
_TEXT	SEGMENT
__Pnode$ = 8						; size = 4
__Plist$ = 12						; size = 4
??0?$_List_unchecked_const_iterator@V?$_List_val@URibbonSegment@@V?$allocator@URibbonSegment@@@std@@@std@@U_Iterator_base0@2@@std@@QAE@PAU_Node@?$_List_nod@URibbonSegment@@V?$allocator@URibbonSegment@@@std@@@1@PBV?$_List_val@URibbonSegment@@V?$allocator@URibbonSegment@@@std@@@1@@Z PROC ; std::_List_unchecked_const_iterator<std::_List_val<RibbonSegment,std::allocator<RibbonSegment> >,std::_Iterator_base0>::_List_unchecked_const_iterator<std::_List_val<RibbonSegment,std::allocator<RibbonSegment> >,std::_Iterator_base0>, COMDAT
; _this$ = ecx
; Line 41
	push	ebp
	mov	ebp, esp
	mov	eax, ecx
	mov	ecx, DWORD PTR __Pnode$[ebp]
	mov	DWORD PTR [eax], ecx
; Line 43
	pop	ebp
	ret	8
??0?$_List_unchecked_const_iterator@V?$_List_val@URibbonSegment@@V?$allocator@URibbonSegment@@@std@@@std@@U_Iterator_base0@2@@std@@QAE@PAU_Node@?$_List_nod@URibbonSegment@@V?$allocator@URibbonSegment@@@std@@@1@PBV?$_List_val@URibbonSegment@@V?$allocator@URibbonSegment@@@std@@@1@@Z ENDP ; std::_List_unchecked_const_iterator<std::_List_val<RibbonSegment,std::allocator<RibbonSegment> >,std::_Iterator_base0>::_List_unchecked_const_iterator<std::_List_val<RibbonSegment,std::allocator<RibbonSegment> >,std::_Iterator_base0>
_TEXT	ENDS
PUBLIC	?max_size@?$allocator@U?$pair@II@std@@@std@@QBEIXZ ; std::allocator<std::pair<unsigned int,unsigned int> >::max_size
; Function compile flags: /Ogtp
;	COMDAT ?max_size@?$allocator@U?$pair@II@std@@@std@@QBEIXZ
_TEXT	SEGMENT
?max_size@?$allocator@U?$pair@II@std@@@std@@QBEIXZ PROC	; std::allocator<std::pair<unsigned int,unsigned int> >::max_size, COMDAT
; _this$ = ecx
; File c:\program files (x86)\microsoft visual studio 10.0\vc\include\xmemory
; Line 219
	mov	eax, 536870911				; 1fffffffH
; Line 220
	ret	0
?max_size@?$allocator@U?$pair@II@std@@@std@@QBEIXZ ENDP	; std::allocator<std::pair<unsigned int,unsigned int> >::max_size
_TEXT	ENDS
PUBLIC	?max_size@?$allocator@H@std@@QBEIXZ		; std::allocator<int>::max_size
; Function compile flags: /Ogtp
;	COMDAT ?max_size@?$allocator@H@std@@QBEIXZ
_TEXT	SEGMENT
?max_size@?$allocator@H@std@@QBEIXZ PROC		; std::allocator<int>::max_size, COMDAT
; _this$ = ecx
; Line 219
	mov	eax, 1073741823				; 3fffffffH
; Line 220
	ret	0
?max_size@?$allocator@H@std@@QBEIXZ ENDP		; std::allocator<int>::max_size
_TEXT	ENDS
PUBLIC	?max_size@?$allocator@VVec3D@@@std@@QBEIXZ	; std::allocator<Vec3D>::max_size
; Function compile flags: /Ogtp
;	COMDAT ?max_size@?$allocator@VVec3D@@@std@@QBEIXZ
_TEXT	SEGMENT
?max_size@?$allocator@VVec3D@@@std@@QBEIXZ PROC		; std::allocator<Vec3D>::max_size, COMDAT
; _this$ = ecx
; Line 219
	mov	eax, 357913941				; 15555555H
; Line 220
	ret	0
?max_size@?$allocator@VVec3D@@@std@@QBEIXZ ENDP		; std::allocator<Vec3D>::max_size
_TEXT	ENDS
PUBLIC	?max_size@?$allocator@M@std@@QBEIXZ		; std::allocator<float>::max_size
; Function compile flags: /Ogtp
;	COMDAT ?max_size@?$allocator@M@std@@QBEIXZ
_TEXT	SEGMENT
?max_size@?$allocator@M@std@@QBEIXZ PROC		; std::allocator<float>::max_size, COMDAT
; _this$ = ecx
; Line 219
	mov	eax, 1073741823				; 3fffffffH
; Line 220
	ret	0
?max_size@?$allocator@M@std@@QBEIXZ ENDP		; std::allocator<float>::max_size
_TEXT	ENDS
PUBLIC	?max_size@?$allocator@UParticle@@@std@@QBEIXZ	; std::allocator<Particle>::max_size
; Function compile flags: /Ogtp
;	COMDAT ?max_size@?$allocator@UParticle@@@std@@QBEIXZ
_TEXT	SEGMENT
?max_size@?$allocator@UParticle@@@std@@QBEIXZ PROC	; std::allocator<Particle>::max_size, COMDAT
; _this$ = ecx
; Line 219
	mov	eax, 53687091				; 03333333H
; Line 220
	ret	0
?max_size@?$allocator@UParticle@@@std@@QBEIXZ ENDP	; std::allocator<Particle>::max_size
_TEXT	ENDS
PUBLIC	?max_size@?$allocator@URibbonSegment@@@std@@QBEIXZ ; std::allocator<RibbonSegment>::max_size
; Function compile flags: /Ogtp
;	COMDAT ?max_size@?$allocator@URibbonSegment@@@std@@QBEIXZ
_TEXT	SEGMENT
?max_size@?$allocator@URibbonSegment@@@std@@QBEIXZ PROC	; std::allocator<RibbonSegment>::max_size, COMDAT
; _this$ = ecx
; Line 219
	mov	eax, 97612893				; 05d1745dH
; Line 220
	ret	0
?max_size@?$allocator@URibbonSegment@@@std@@QBEIXZ ENDP	; std::allocator<RibbonSegment>::max_size
_TEXT	ENDS
PUBLIC	??$interpolate@VVec3D@@@@YA?AVVec3D@@MABV0@0@Z	; interpolate<Vec3D>
; Function compile flags: /Ogtp
;	COMDAT ??$interpolate@VVec3D@@@@YA?AVVec3D@@MABV0@0@Z
_TEXT	SEGMENT
$T90029 = -24						; size = 12
$T90028 = -12						; size = 12
___$ReturnUdt$ = 8					; size = 4
_r$ = 12						; size = 4
_v1$ = 16						; size = 4
$T90054 = 20						; size = 4
_v2$ = 20						; size = 4
??$interpolate@VVec3D@@@@YA?AVVec3D@@MABV0@0@Z PROC	; interpolate<Vec3D>, COMDAT
; File c:\programovani\wow editor\test\src\editor\animated.h
; Line 17
	push	ebp
	mov	ebp, esp
	sub	esp, 24					; 00000018H
; Line 18
	mov	eax, DWORD PTR _v2$[ebp]
	fld	DWORD PTR [eax]
	fld	DWORD PTR _r$[ebp]
	fld	ST(0)
	fmulp	ST(2), ST(0)
	fxch	ST(1)
	fstp	DWORD PTR $T90029[ebp]
	fld	DWORD PTR [eax+4]
	fmul	ST(0), ST(1)
	fstp	DWORD PTR $T90029[ebp+4]
	fld	DWORD PTR [eax+8]
	mov	eax, DWORD PTR _v1$[ebp]
	fmul	ST(0), ST(1)
	fstp	DWORD PTR $T90029[ebp+8]
	fld1
	fsubrp	ST(1), ST(0)
	fstp	DWORD PTR $T90054[ebp]
	fld	DWORD PTR [eax]
	fld	DWORD PTR $T90054[ebp]
	fld	ST(0)
	fmulp	ST(2), ST(0)
	fxch	ST(1)
	fstp	DWORD PTR $T90028[ebp]
	fld	DWORD PTR [eax+4]
	fmul	ST(0), ST(1)
	fstp	DWORD PTR $T90028[ebp+4]
	fmul	DWORD PTR [eax+8]
	mov	eax, DWORD PTR ___$ReturnUdt$[ebp]
	fstp	DWORD PTR $T90028[ebp+8]
	fld	DWORD PTR $T90028[ebp]
	fadd	DWORD PTR $T90029[ebp]
	fstp	DWORD PTR [eax]
	fld	DWORD PTR $T90029[ebp+4]
	fadd	DWORD PTR $T90028[ebp+4]
	fstp	DWORD PTR [eax+4]
	fld	DWORD PTR $T90028[ebp+8]
	fadd	DWORD PTR $T90029[ebp+8]
	fstp	DWORD PTR [eax+8]
; Line 19
	mov	esp, ebp
	pop	ebp
	ret	0
??$interpolate@VVec3D@@@@YA?AVVec3D@@MABV0@0@Z ENDP	; interpolate<Vec3D>
_TEXT	ENDS
PUBLIC	__real@4008000000000000
PUBLIC	??$interpolateHermite@VVec3D@@@@YA?AVVec3D@@MABV0@000@Z ; interpolateHermite<Vec3D>
;	COMDAT __real@4008000000000000
; File c:\programovani\wow editor\test\src\editor\vec3d.h
CONST	SEGMENT
__real@4008000000000000 DQ 04008000000000000r	; 3
; Function compile flags: /Ogtp
CONST	ENDS
;	COMDAT ??$interpolateHermite@VVec3D@@@@YA?AVVec3D@@MABV0@000@Z
_TEXT	SEGMENT
$T90074 = -72						; size = 12
$T90072 = -60						; size = 12
$T90071 = -48						; size = 12
$T90073 = -36						; size = 12
$T90070 = -36						; size = 12
$T90069 = -24						; size = 12
_h1$ = -12						; size = 4
_h2$ = -8						; size = 4
_h3$ = -4						; size = 4
___$ReturnUdt$ = 8					; size = 4
_h4$ = 12						; size = 4
_r$ = 12						; size = 4
_v1$ = 16						; size = 4
_v2$ = 20						; size = 4
_in$ = 24						; size = 4
_out$ = 28						; size = 4
??$interpolateHermite@VVec3D@@@@YA?AVVec3D@@MABV0@000@Z PROC ; interpolateHermite<Vec3D>, COMDAT
; File c:\programovani\wow editor\test\src\editor\animated.h
; Line 23
	push	ebp
	mov	ebp, esp
	sub	esp, 72					; 00000048H
; Line 28
	fld	DWORD PTR _r$[ebp]
; Line 34
	mov	eax, DWORD PTR _out$[ebp]
	fld	ST(0)
	fadd	ST(0), ST(1)
	fmul	ST(0), ST(1)
	fld	ST(1)
	fmul	ST(0), ST(1)
	fld	ST(2)
	fmul	QWORD PTR __real@4008000000000000
	fmul	ST(0), ST(3)
	fld	ST(1)
	fsub	ST(0), ST(1)
	fadd	QWORD PTR __real@3ff0000000000000
	fstp	DWORD PTR _h1$[ebp]
	fsubrp	ST(1), ST(0)
	fstp	DWORD PTR _h2$[ebp]
	fld	ST(1)
	fmul	ST(0), ST(0)
	fld	ST(2)
	fmul	ST(0), ST(1)
	fld	ST(0)
	fsubrp	ST(3), ST(0)
	fxch	ST(2)
	faddp	ST(3), ST(0)
	fxch	ST(2)
	fstp	DWORD PTR _h3$[ebp]
	fsubrp	ST(1), ST(0)
	fstp	DWORD PTR _h4$[ebp]
	fld	DWORD PTR [eax]
	fld	DWORD PTR _h4$[ebp]
	fld	ST(0)
	fmulp	ST(2), ST(0)
	fxch	ST(1)
	fstp	DWORD PTR $T90074[ebp]
	fld	DWORD PTR [eax+4]
	fmul	ST(0), ST(1)
	fstp	DWORD PTR $T90074[ebp+4]
	fmul	DWORD PTR [eax+8]
	mov	eax, DWORD PTR _in$[ebp]
	fstp	DWORD PTR $T90074[ebp+8]
	fld	DWORD PTR [eax]
	fld	DWORD PTR _h3$[ebp]
	fld	ST(0)
	fmulp	ST(2), ST(0)
	fxch	ST(1)
	fstp	DWORD PTR $T90072[ebp]
	fld	DWORD PTR [eax+4]
	fmul	ST(0), ST(1)
	fstp	DWORD PTR $T90072[ebp+4]
	fmul	DWORD PTR [eax+8]
	mov	eax, DWORD PTR _v2$[ebp]
	fstp	DWORD PTR $T90072[ebp+8]
	fld	DWORD PTR [eax]
	fld	DWORD PTR _h2$[ebp]
	fld	ST(0)
	fmulp	ST(2), ST(0)
	fxch	ST(1)
	fstp	DWORD PTR $T90070[ebp]
	fld	DWORD PTR [eax+4]
	fmul	ST(0), ST(1)
	fstp	DWORD PTR $T90070[ebp+4]
	fmul	DWORD PTR [eax+8]
	mov	eax, DWORD PTR _v1$[ebp]
	fstp	DWORD PTR $T90070[ebp+8]
	fld	DWORD PTR [eax]
	fld	DWORD PTR _h1$[ebp]
	fld	ST(0)
	fmulp	ST(2), ST(0)
	fxch	ST(1)
	fstp	DWORD PTR $T90069[ebp]
	fld	DWORD PTR [eax+4]
	fmul	ST(0), ST(1)
	fstp	DWORD PTR $T90069[ebp+4]
	fmul	DWORD PTR [eax+8]
	fstp	DWORD PTR $T90069[ebp+8]
	fld	DWORD PTR $T90069[ebp]
	fadd	DWORD PTR $T90070[ebp]
	fstp	DWORD PTR $T90071[ebp]
	fld	DWORD PTR $T90069[ebp+4]
	fadd	DWORD PTR $T90070[ebp+4]
	fstp	DWORD PTR $T90071[ebp+4]
	fld	DWORD PTR $T90069[ebp+8]
	mov	eax, DWORD PTR ___$ReturnUdt$[ebp]
	fadd	DWORD PTR $T90070[ebp+8]
	fstp	DWORD PTR $T90071[ebp+8]
	fld	DWORD PTR $T90071[ebp]
	fadd	DWORD PTR $T90072[ebp]
	fstp	DWORD PTR $T90073[ebp]
	fld	DWORD PTR $T90071[ebp+4]
	fadd	DWORD PTR $T90072[ebp+4]
	fstp	DWORD PTR $T90073[ebp+4]
	fld	DWORD PTR $T90071[ebp+8]
	fadd	DWORD PTR $T90072[ebp+8]
	fstp	DWORD PTR $T90073[ebp+8]
	fld	DWORD PTR $T90073[ebp]
	fadd	DWORD PTR $T90074[ebp]
	fstp	DWORD PTR [eax]
	fld	DWORD PTR $T90073[ebp+4]
	fadd	DWORD PTR $T90074[ebp+4]
	fstp	DWORD PTR [eax+4]
	fld	DWORD PTR $T90073[ebp+8]
	fadd	DWORD PTR $T90074[ebp+8]
	fstp	DWORD PTR [eax+8]
; Line 35
	mov	esp, ebp
	pop	ebp
	ret	0
??$interpolateHermite@VVec3D@@@@YA?AVVec3D@@MABV0@000@Z ENDP ; interpolateHermite<Vec3D>
_TEXT	ENDS
PUBLIC	??$interpolate@M@@YAMMABM0@Z			; interpolate<float>
; Function compile flags: /Ogtp
;	COMDAT ??$interpolate@M@@YAMMABM0@Z
_TEXT	SEGMENT
tv135 = 8						; size = 4
_r$ = 8							; size = 4
_v1$ = 12						; size = 4
_v2$ = 16						; size = 4
??$interpolate@M@@YAMMABM0@Z PROC			; interpolate<float>, COMDAT
; Line 17
	push	ebp
	mov	ebp, esp
; Line 18
	fld	DWORD PTR _r$[ebp]
	mov	eax, DWORD PTR _v1$[ebp]
	mov	ecx, DWORD PTR _v2$[ebp]
	fld	ST(0)
	fld1
	fsubrp	ST(1), ST(0)
	fmul	DWORD PTR [eax]
	fld	DWORD PTR [ecx]
	fmulp	ST(2), ST(0)
	faddp	ST(1), ST(0)
	fstp	DWORD PTR tv135[ebp]
	fld	DWORD PTR tv135[ebp]
; Line 19
	pop	ebp
	ret	0
??$interpolate@M@@YAMMABM0@Z ENDP			; interpolate<float>
_TEXT	ENDS
PUBLIC	??$interpolateHermite@M@@YAMMABM000@Z		; interpolateHermite<float>
; Function compile flags: /Ogtp
;	COMDAT ??$interpolateHermite@M@@YAMMABM000@Z
_TEXT	SEGMENT
tv237 = 8						; size = 4
tv233 = 8						; size = 4
tv228 = 8						; size = 4
tv203 = 8						; size = 4
tv198 = 8						; size = 4
_r$ = 8							; size = 4
_v1$ = 12						; size = 4
_v2$ = 16						; size = 4
_in$ = 20						; size = 4
_out$ = 24						; size = 4
??$interpolateHermite@M@@YAMMABM000@Z PROC		; interpolateHermite<float>, COMDAT
; Line 23
	push	ebp
	mov	ebp, esp
; Line 28
	fld	DWORD PTR _r$[ebp]
; Line 34
	mov	eax, DWORD PTR _v1$[ebp]
	fld	ST(0)
	mov	ecx, DWORD PTR _v2$[ebp]
	fadd	ST(0), ST(1)
	mov	edx, DWORD PTR _in$[ebp]
	fmul	ST(0), ST(1)
	fld	ST(1)
	fmul	ST(0), ST(1)
	fld	ST(2)
	fmul	QWORD PTR __real@4008000000000000
	fmul	ST(0), ST(3)
	fld	ST(3)
	fmul	ST(0), ST(0)
	fld	ST(4)
	fmul	ST(0), ST(1)
	fld	ST(3)
	fsub	ST(0), ST(3)
	fadd	QWORD PTR __real@3ff0000000000000
	fstp	DWORD PTR tv237[ebp]
	fld	DWORD PTR tv237[ebp]
	fmul	DWORD PTR [eax]
	mov	eax, DWORD PTR _out$[ebp]
	fxch	ST(3)
	fsubrp	ST(4), ST(0)
	fxch	ST(3)
	fstp	DWORD PTR tv233[ebp]
	fld	DWORD PTR tv233[ebp]
	fmul	DWORD PTR [ecx]
	faddp	ST(2), ST(0)
	fld	ST(2)
	fsubrp	ST(4), ST(0)
	fxch	ST(3)
	faddp	ST(4), ST(0)
	fxch	ST(3)
	fstp	DWORD PTR tv228[ebp]
	fld	DWORD PTR tv228[ebp]
	fmul	DWORD PTR [edx]
	faddp	ST(3), ST(0)
	fsubrp	ST(1), ST(0)
	fstp	DWORD PTR tv203[ebp]
	fld	DWORD PTR tv203[ebp]
	fmul	DWORD PTR [eax]
	faddp	ST(1), ST(0)
	fstp	DWORD PTR tv198[ebp]
	fld	DWORD PTR tv198[ebp]
; Line 35
	pop	ebp
	ret	0
??$interpolateHermite@M@@YAMMABM000@Z ENDP		; interpolateHermite<float>
_TEXT	ENDS
PUBLIC	??$addressof@$$CBUTexCoordSet@@@std@@YAPBUTexCoordSet@@ABU1@@Z ; std::addressof<TexCoordSet const >
; Function compile flags: /Ogtp
;	COMDAT ??$addressof@$$CBUTexCoordSet@@@std@@YAPBUTexCoordSet@@ABU1@@Z
_TEXT	SEGMENT
__Val$ = 8						; size = 4
??$addressof@$$CBUTexCoordSet@@@std@@YAPBUTexCoordSet@@ABU1@@Z PROC ; std::addressof<TexCoordSet const >, COMDAT
; File c:\program files (x86)\microsoft visual studio 10.0\vc\include\xmemory
; Line 110
	push	ebp
	mov	ebp, esp
; Line 111
	mov	eax, DWORD PTR __Val$[ebp]
; Line 112
	pop	ebp
	ret	0
??$addressof@$$CBUTexCoordSet@@@std@@YAPBUTexCoordSet@@ABU1@@Z ENDP ; std::addressof<TexCoordSet const >
_TEXT	ENDS
PUBLIC	??$addressof@$$CBU?$pair@II@std@@@std@@YAPBU?$pair@II@0@ABU10@@Z ; std::addressof<std::pair<unsigned int,unsigned int> const >
; Function compile flags: /Ogtp
;	COMDAT ??$addressof@$$CBU?$pair@II@std@@@std@@YAPBU?$pair@II@0@ABU10@@Z
_TEXT	SEGMENT
__Val$ = 8						; size = 4
??$addressof@$$CBU?$pair@II@std@@@std@@YAPBU?$pair@II@0@ABU10@@Z PROC ; std::addressof<std::pair<unsigned int,unsigned int> const >, COMDAT
; Line 110
	push	ebp
	mov	ebp, esp
; Line 111
	mov	eax, DWORD PTR __Val$[ebp]
; Line 112
	pop	ebp
	ret	0
??$addressof@$$CBU?$pair@II@std@@@std@@YAPBU?$pair@II@0@ABU10@@Z ENDP ; std::addressof<std::pair<unsigned int,unsigned int> const >
_TEXT	ENDS
PUBLIC	??$addressof@$$CBH@std@@YAPBHABH@Z		; std::addressof<int const >
; Function compile flags: /Ogtp
;	COMDAT ??$addressof@$$CBH@std@@YAPBHABH@Z
_TEXT	SEGMENT
__Val$ = 8						; size = 4
??$addressof@$$CBH@std@@YAPBHABH@Z PROC			; std::addressof<int const >, COMDAT
; Line 110
	push	ebp
	mov	ebp, esp
; Line 111
	mov	eax, DWORD PTR __Val$[ebp]
; Line 112
	pop	ebp
	ret	0
??$addressof@$$CBH@std@@YAPBHABH@Z ENDP			; std::addressof<int const >
_TEXT	ENDS
PUBLIC	??$addressof@$$CBVVec3D@@@std@@YAPBVVec3D@@ABV1@@Z ; std::addressof<Vec3D const >
; Function compile flags: /Ogtp
;	COMDAT ??$addressof@$$CBVVec3D@@@std@@YAPBVVec3D@@ABV1@@Z
_TEXT	SEGMENT
__Val$ = 8						; size = 4
??$addressof@$$CBVVec3D@@@std@@YAPBVVec3D@@ABV1@@Z PROC	; std::addressof<Vec3D const >, COMDAT
; Line 110
	push	ebp
	mov	ebp, esp
; Line 111
	mov	eax, DWORD PTR __Val$[ebp]
; Line 112
	pop	ebp
	ret	0
??$addressof@$$CBVVec3D@@@std@@YAPBVVec3D@@ABV1@@Z ENDP	; std::addressof<Vec3D const >
_TEXT	ENDS
PUBLIC	??$addressof@$$CBM@std@@YAPBMABM@Z		; std::addressof<float const >
; Function compile flags: /Ogtp
;	COMDAT ??$addressof@$$CBM@std@@YAPBMABM@Z
_TEXT	SEGMENT
__Val$ = 8						; size = 4
??$addressof@$$CBM@std@@YAPBMABM@Z PROC			; std::addressof<float const >, COMDAT
; Line 110
	push	ebp
	mov	ebp, esp
; Line 111
	mov	eax, DWORD PTR __Val$[ebp]
; Line 112
	pop	ebp
	ret	0
??$addressof@$$CBM@std@@YAPBMABM@Z ENDP			; std::addressof<float const >
_TEXT	ENDS
PUBLIC	??$addressof@UParticle@@@std@@YAPAUParticle@@AAU1@@Z ; std::addressof<Particle>
; Function compile flags: /Ogtp
;	COMDAT ??$addressof@UParticle@@@std@@YAPAUParticle@@AAU1@@Z
_TEXT	SEGMENT
__Val$ = 8						; size = 4
??$addressof@UParticle@@@std@@YAPAUParticle@@AAU1@@Z PROC ; std::addressof<Particle>, COMDAT
; Line 110
	push	ebp
	mov	ebp, esp
; Line 111
	mov	eax, DWORD PTR __Val$[ebp]
; Line 112
	pop	ebp
	ret	0
??$addressof@UParticle@@@std@@YAPAUParticle@@AAU1@@Z ENDP ; std::addressof<Particle>
_TEXT	ENDS
PUBLIC	__TI2?AVbad_alloc@std@@
PUBLIC	??$_Allocate@U_Node@?$_List_nod@UParticle@@V?$allocator@UParticle@@@std@@@std@@@std@@YAPAU_Node@?$_List_nod@UParticle@@V?$allocator@UParticle@@@std@@@0@IPAU120@@Z ; std::_Allocate<std::_List_nod<Particle,std::allocator<Particle> >::_Node>
PUBLIC	__CTA2?AVbad_alloc@std@@
PUBLIC	__CT??_R0?AVbad_alloc@std@@@8??0bad_alloc@std@@QAE@ABV01@@Z12
PUBLIC	??0bad_alloc@std@@QAE@ABV01@@Z			; std::bad_alloc::bad_alloc
PUBLIC	__CT??_R0?AVexception@std@@@8??0exception@std@@QAE@ABV01@@Z12
EXTRN	??2@YAPAXI@Z:PROC				; operator new
EXTRN	__CxxThrowException@8:PROC
EXTRN	??0exception@std@@QAE@ABV01@@Z:PROC		; std::exception::exception
;	COMDAT __CT??_R0?AVexception@std@@@8??0exception@std@@QAE@ABV01@@Z12
; File c:\program files (x86)\microsoft visual studio 10.0\vc\include\exception
xdata$x	SEGMENT
__CT??_R0?AVexception@std@@@8??0exception@std@@QAE@ABV01@@Z12 DD 00H
	DD	FLAT:??_R0?AVexception@std@@@8
	DD	00H
	DD	0ffffffffH
	ORG $+4
	DD	0cH
	DD	FLAT:??0exception@std@@QAE@ABV01@@Z
xdata$x	ENDS
;	COMDAT __CT??_R0?AVbad_alloc@std@@@8??0bad_alloc@std@@QAE@ABV01@@Z12
xdata$x	SEGMENT
__CT??_R0?AVbad_alloc@std@@@8??0bad_alloc@std@@QAE@ABV01@@Z12 DD 00H
	DD	FLAT:??_R0?AVbad_alloc@std@@@8
	DD	00H
	DD	0ffffffffH
	ORG $+4
	DD	0cH
	DD	FLAT:??0bad_alloc@std@@QAE@ABV01@@Z
xdata$x	ENDS
;	COMDAT __CTA2?AVbad_alloc@std@@
xdata$x	SEGMENT
__CTA2?AVbad_alloc@std@@ DD 02H
	DD	FLAT:__CT??_R0?AVbad_alloc@std@@@8??0bad_alloc@std@@QAE@ABV01@@Z12
	DD	FLAT:__CT??_R0?AVexception@std@@@8??0exception@std@@QAE@ABV01@@Z12
xdata$x	ENDS
;	COMDAT __TI2?AVbad_alloc@std@@
xdata$x	SEGMENT
__TI2?AVbad_alloc@std@@ DD 00H
	DD	FLAT:??1bad_alloc@std@@UAE@XZ
	DD	00H
	DD	FLAT:__CTA2?AVbad_alloc@std@@
; Function compile flags: /Ogtp
xdata$x	ENDS
;	COMDAT ??$_Allocate@U_Node@?$_List_nod@UParticle@@V?$allocator@UParticle@@@std@@@std@@@std@@YAPAU_Node@?$_List_nod@UParticle@@V?$allocator@UParticle@@@std@@@0@IPAU120@@Z
_TEXT	SEGMENT
$T90181 = -12						; size = 12
$T90186 = 8						; size = 4
__Count$ = 8						; size = 4
___formal$ = 12						; size = 4
??$_Allocate@U_Node@?$_List_nod@UParticle@@V?$allocator@UParticle@@@std@@@std@@@std@@YAPAU_Node@?$_List_nod@UParticle@@V?$allocator@UParticle@@@std@@@0@IPAU120@@Z PROC ; std::_Allocate<std::_List_nod<Particle,std::allocator<Particle> >::_Node>, COMDAT
; File c:\program files (x86)\microsoft visual studio 10.0\vc\include\xmemory
; Line 30
	push	ebp
	mov	ebp, esp
; Line 33
	mov	ecx, DWORD PTR __Count$[ebp]
	sub	esp, 12					; 0000000cH
	xor	eax, eax
	test	ecx, ecx
; Line 35
	je	SHORT $LN5@Allocate
; Line 36
	cmp	ecx, 48806446				; 02e8ba2eH
	ja	SHORT $LN1@Allocate
	imul	ecx, 88					; 00000058H
	push	ecx
	call	??2@YAPAXI@Z				; operator new
	add	esp, 4
	test	eax, eax
; Line 39
	jne	SHORT $LN5@Allocate
$LN1@Allocate:
; Line 37
	lea	eax, DWORD PTR $T90186[ebp]
	push	eax
	lea	ecx, DWORD PTR $T90181[ebp]
	mov	DWORD PTR $T90186[ebp], 0
	call	DWORD PTR __imp_??0exception@std@@QAE@ABQBD@Z
	push	OFFSET __TI2?AVbad_alloc@std@@
	lea	ecx, DWORD PTR $T90181[ebp]
	push	ecx
	mov	DWORD PTR $T90181[ebp], OFFSET ??_7bad_alloc@std@@6B@
	call	__CxxThrowException@8
$LN10@Allocate:
$LN5@Allocate:
; Line 40
	mov	esp, ebp
	pop	ebp
	ret	0
$LN9@Allocate:
??$_Allocate@U_Node@?$_List_nod@UParticle@@V?$allocator@UParticle@@@std@@@std@@@std@@YAPAU_Node@?$_List_nod@UParticle@@V?$allocator@UParticle@@@std@@@0@IPAU120@@Z ENDP ; std::_Allocate<std::_List_nod<Particle,std::allocator<Particle> >::_Node>
_TEXT	ENDS
PUBLIC	??$addressof@URibbonSegment@@@std@@YAPAURibbonSegment@@AAU1@@Z ; std::addressof<RibbonSegment>
; Function compile flags: /Ogtp
;	COMDAT ??$addressof@URibbonSegment@@@std@@YAPAURibbonSegment@@AAU1@@Z
_TEXT	SEGMENT
__Val$ = 8						; size = 4
??$addressof@URibbonSegment@@@std@@YAPAURibbonSegment@@AAU1@@Z PROC ; std::addressof<RibbonSegment>, COMDAT
; Line 110
	push	ebp
	mov	ebp, esp
; Line 111
	mov	eax, DWORD PTR __Val$[ebp]
; Line 112
	pop	ebp
	ret	0
??$addressof@URibbonSegment@@@std@@YAPAURibbonSegment@@AAU1@@Z ENDP ; std::addressof<RibbonSegment>
_TEXT	ENDS
PUBLIC	??$_Allocate@UTexCoordSet@@@std@@YAPAUTexCoordSet@@IPAU1@@Z ; std::_Allocate<TexCoordSet>
; Function compile flags: /Ogtp
;	COMDAT ??$_Allocate@UTexCoordSet@@@std@@YAPAUTexCoordSet@@IPAU1@@Z
_TEXT	SEGMENT
$T90193 = -12						; size = 12
$T90197 = 8						; size = 4
__Count$ = 8						; size = 4
___formal$ = 12						; size = 4
??$_Allocate@UTexCoordSet@@@std@@YAPAUTexCoordSet@@IPAU1@@Z PROC ; std::_Allocate<TexCoordSet>, COMDAT
; Line 30
	push	ebp
	mov	ebp, esp
; Line 33
	mov	ecx, DWORD PTR __Count$[ebp]
	sub	esp, 12					; 0000000cH
	xor	eax, eax
	test	ecx, ecx
; Line 35
	je	SHORT $LN5@Allocate@2
; Line 36
	cmp	ecx, 134217727				; 07ffffffH
	ja	SHORT $LN1@Allocate@2
	shl	ecx, 5
	push	ecx
	call	??2@YAPAXI@Z				; operator new
	add	esp, 4
	test	eax, eax
; Line 39
	jne	SHORT $LN5@Allocate@2
$LN1@Allocate@2:
; Line 37
	lea	eax, DWORD PTR $T90197[ebp]
	push	eax
	lea	ecx, DWORD PTR $T90193[ebp]
	mov	DWORD PTR $T90197[ebp], 0
	call	DWORD PTR __imp_??0exception@std@@QAE@ABQBD@Z
	push	OFFSET __TI2?AVbad_alloc@std@@
	lea	ecx, DWORD PTR $T90193[ebp]
	push	ecx
	mov	DWORD PTR $T90193[ebp], OFFSET ??_7bad_alloc@std@@6B@
	call	__CxxThrowException@8
$LN10@Allocate@2:
$LN5@Allocate@2:
; Line 40
	mov	esp, ebp
	pop	ebp
	ret	0
$LN9@Allocate@2:
??$_Allocate@UTexCoordSet@@@std@@YAPAUTexCoordSet@@IPAU1@@Z ENDP ; std::_Allocate<TexCoordSet>
_TEXT	ENDS
PUBLIC	??$_Allocate@U_Node@?$_List_nod@URibbonSegment@@V?$allocator@URibbonSegment@@@std@@@std@@@std@@YAPAU_Node@?$_List_nod@URibbonSegment@@V?$allocator@URibbonSegment@@@std@@@0@IPAU120@@Z ; std::_Allocate<std::_List_nod<RibbonSegment,std::allocator<RibbonSegment> >::_Node>
; Function compile flags: /Ogtp
;	COMDAT ??$_Allocate@U_Node@?$_List_nod@URibbonSegment@@V?$allocator@URibbonSegment@@@std@@@std@@@std@@YAPAU_Node@?$_List_nod@URibbonSegment@@V?$allocator@URibbonSegment@@@std@@@0@IPAU120@@Z
_TEXT	SEGMENT
$T90202 = -12						; size = 12
$T90206 = 8						; size = 4
__Count$ = 8						; size = 4
___formal$ = 12						; size = 4
??$_Allocate@U_Node@?$_List_nod@URibbonSegment@@V?$allocator@URibbonSegment@@@std@@@std@@@std@@YAPAU_Node@?$_List_nod@URibbonSegment@@V?$allocator@URibbonSegment@@@std@@@0@IPAU120@@Z PROC ; std::_Allocate<std::_List_nod<RibbonSegment,std::allocator<RibbonSegment> >::_Node>, COMDAT
; Line 30
	push	ebp
	mov	ebp, esp
; Line 33
	mov	ecx, DWORD PTR __Count$[ebp]
	sub	esp, 12					; 0000000cH
	xor	eax, eax
	test	ecx, ecx
; Line 35
	je	SHORT $LN5@Allocate@3
; Line 36
	cmp	ecx, 82595524				; 04ec4ec4H
	ja	SHORT $LN1@Allocate@3
	imul	ecx, 52					; 00000034H
	push	ecx
	call	??2@YAPAXI@Z				; operator new
	add	esp, 4
	test	eax, eax
; Line 39
	jne	SHORT $LN5@Allocate@3
$LN1@Allocate@3:
; Line 37
	lea	eax, DWORD PTR $T90206[ebp]
	push	eax
	lea	ecx, DWORD PTR $T90202[ebp]
	mov	DWORD PTR $T90206[ebp], 0
	call	DWORD PTR __imp_??0exception@std@@QAE@ABQBD@Z
	push	OFFSET __TI2?AVbad_alloc@std@@
	lea	ecx, DWORD PTR $T90202[ebp]
	push	ecx
	mov	DWORD PTR $T90202[ebp], OFFSET ??_7bad_alloc@std@@6B@
	call	__CxxThrowException@8
$LN10@Allocate@3:
$LN5@Allocate@3:
; Line 40
	mov	esp, ebp
	pop	ebp
	ret	0
$LN9@Allocate@3:
??$_Allocate@U_Node@?$_List_nod@URibbonSegment@@V?$allocator@URibbonSegment@@@std@@@std@@@std@@YAPAU_Node@?$_List_nod@URibbonSegment@@V?$allocator@URibbonSegment@@@std@@@0@IPAU120@@Z ENDP ; std::_Allocate<std::_List_nod<RibbonSegment,std::allocator<RibbonSegment> >::_Node>
_TEXT	ENDS
PUBLIC	??$_Allocate@U?$pair@II@std@@@std@@YAPAU?$pair@II@0@IPAU10@@Z ; std::_Allocate<std::pair<unsigned int,unsigned int> >
; Function compile flags: /Ogtp
;	COMDAT ??$_Allocate@U?$pair@II@std@@@std@@YAPAU?$pair@II@0@IPAU10@@Z
_TEXT	SEGMENT
$T90211 = -12						; size = 12
$T90215 = 8						; size = 4
__Count$ = 8						; size = 4
___formal$ = 12						; size = 4
??$_Allocate@U?$pair@II@std@@@std@@YAPAU?$pair@II@0@IPAU10@@Z PROC ; std::_Allocate<std::pair<unsigned int,unsigned int> >, COMDAT
; Line 30
	push	ebp
	mov	ebp, esp
; Line 33
	mov	ecx, DWORD PTR __Count$[ebp]
	sub	esp, 12					; 0000000cH
	xor	eax, eax
	test	ecx, ecx
; Line 35
	je	SHORT $LN5@Allocate@4
; Line 36
	cmp	ecx, 536870911				; 1fffffffH
	ja	SHORT $LN1@Allocate@4
	lea	eax, DWORD PTR [ecx*8]
	push	eax
	call	??2@YAPAXI@Z				; operator new
	add	esp, 4
	test	eax, eax
; Line 39
	jne	SHORT $LN5@Allocate@4
$LN1@Allocate@4:
; Line 37
	lea	ecx, DWORD PTR $T90215[ebp]
	push	ecx
	lea	ecx, DWORD PTR $T90211[ebp]
	mov	DWORD PTR $T90215[ebp], 0
	call	DWORD PTR __imp_??0exception@std@@QAE@ABQBD@Z
	push	OFFSET __TI2?AVbad_alloc@std@@
	lea	edx, DWORD PTR $T90211[ebp]
	push	edx
	mov	DWORD PTR $T90211[ebp], OFFSET ??_7bad_alloc@std@@6B@
	call	__CxxThrowException@8
$LN10@Allocate@4:
$LN5@Allocate@4:
; Line 40
	mov	esp, ebp
	pop	ebp
	ret	0
$LN9@Allocate@4:
??$_Allocate@U?$pair@II@std@@@std@@YAPAU?$pair@II@0@IPAU10@@Z ENDP ; std::_Allocate<std::pair<unsigned int,unsigned int> >
_TEXT	ENDS
PUBLIC	??$_Allocate@H@std@@YAPAHIPAH@Z			; std::_Allocate<int>
; Function compile flags: /Ogtp
;	COMDAT ??$_Allocate@H@std@@YAPAHIPAH@Z
_TEXT	SEGMENT
$T90220 = -12						; size = 12
$T90224 = 8						; size = 4
__Count$ = 8						; size = 4
___formal$ = 12						; size = 4
??$_Allocate@H@std@@YAPAHIPAH@Z PROC			; std::_Allocate<int>, COMDAT
; Line 30
	push	ebp
	mov	ebp, esp
; Line 33
	mov	ecx, DWORD PTR __Count$[ebp]
	sub	esp, 12					; 0000000cH
	xor	eax, eax
	test	ecx, ecx
; Line 35
	je	SHORT $LN5@Allocate@5
; Line 36
	cmp	ecx, 1073741823				; 3fffffffH
	ja	SHORT $LN1@Allocate@5
	lea	eax, DWORD PTR [ecx*4]
	push	eax
	call	??2@YAPAXI@Z				; operator new
	add	esp, 4
	test	eax, eax
; Line 39
	jne	SHORT $LN5@Allocate@5
$LN1@Allocate@5:
; Line 37
	lea	ecx, DWORD PTR $T90224[ebp]
	push	ecx
	lea	ecx, DWORD PTR $T90220[ebp]
	mov	DWORD PTR $T90224[ebp], 0
	call	DWORD PTR __imp_??0exception@std@@QAE@ABQBD@Z
	push	OFFSET __TI2?AVbad_alloc@std@@
	lea	edx, DWORD PTR $T90220[ebp]
	push	edx
	mov	DWORD PTR $T90220[ebp], OFFSET ??_7bad_alloc@std@@6B@
	call	__CxxThrowException@8
$LN10@Allocate@5:
$LN5@Allocate@5:
; Line 40
	mov	esp, ebp
	pop	ebp
	ret	0
$LN9@Allocate@5:
??$_Allocate@H@std@@YAPAHIPAH@Z ENDP			; std::_Allocate<int>
_TEXT	ENDS
PUBLIC	??$_Allocate@VVec3D@@@std@@YAPAVVec3D@@IPAV1@@Z	; std::_Allocate<Vec3D>
; Function compile flags: /Ogtp
;	COMDAT ??$_Allocate@VVec3D@@@std@@YAPAVVec3D@@IPAV1@@Z
_TEXT	SEGMENT
$T90229 = -12						; size = 12
$T90233 = 8						; size = 4
__Count$ = 8						; size = 4
___formal$ = 12						; size = 4
??$_Allocate@VVec3D@@@std@@YAPAVVec3D@@IPAV1@@Z PROC	; std::_Allocate<Vec3D>, COMDAT
; Line 30
	push	ebp
	mov	ebp, esp
; Line 33
	mov	ecx, DWORD PTR __Count$[ebp]
	sub	esp, 12					; 0000000cH
	xor	eax, eax
	test	ecx, ecx
; Line 35
	je	SHORT $LN5@Allocate@6
; Line 36
	cmp	ecx, 357913941				; 15555555H
	ja	SHORT $LN1@Allocate@6
	lea	eax, DWORD PTR [ecx+ecx*2]
	add	eax, eax
	add	eax, eax
	push	eax
	call	??2@YAPAXI@Z				; operator new
	add	esp, 4
	test	eax, eax
; Line 39
	jne	SHORT $LN5@Allocate@6
$LN1@Allocate@6:
; Line 37
	lea	ecx, DWORD PTR $T90233[ebp]
	push	ecx
	lea	ecx, DWORD PTR $T90229[ebp]
	mov	DWORD PTR $T90233[ebp], 0
	call	DWORD PTR __imp_??0exception@std@@QAE@ABQBD@Z
	push	OFFSET __TI2?AVbad_alloc@std@@
	lea	edx, DWORD PTR $T90229[ebp]
	push	edx
	mov	DWORD PTR $T90229[ebp], OFFSET ??_7bad_alloc@std@@6B@
	call	__CxxThrowException@8
$LN10@Allocate@6:
$LN5@Allocate@6:
; Line 40
	mov	esp, ebp
	pop	ebp
	ret	0
$LN9@Allocate@6:
??$_Allocate@VVec3D@@@std@@YAPAVVec3D@@IPAV1@@Z ENDP	; std::_Allocate<Vec3D>
_TEXT	ENDS
PUBLIC	??$_Allocate@M@std@@YAPAMIPAM@Z			; std::_Allocate<float>
; Function compile flags: /Ogtp
;	COMDAT ??$_Allocate@M@std@@YAPAMIPAM@Z
_TEXT	SEGMENT
$T90238 = -12						; size = 12
$T90242 = 8						; size = 4
__Count$ = 8						; size = 4
___formal$ = 12						; size = 4
??$_Allocate@M@std@@YAPAMIPAM@Z PROC			; std::_Allocate<float>, COMDAT
; Line 30
	push	ebp
	mov	ebp, esp
; Line 33
	mov	ecx, DWORD PTR __Count$[ebp]
	sub	esp, 12					; 0000000cH
	xor	eax, eax
	test	ecx, ecx
; Line 35
	je	SHORT $LN5@Allocate@7
; Line 36
	cmp	ecx, 1073741823				; 3fffffffH
	ja	SHORT $LN1@Allocate@7
	lea	eax, DWORD PTR [ecx*4]
	push	eax
	call	??2@YAPAXI@Z				; operator new
	add	esp, 4
	test	eax, eax
; Line 39
	jne	SHORT $LN5@Allocate@7
$LN1@Allocate@7:
; Line 37
	lea	ecx, DWORD PTR $T90242[ebp]
	push	ecx
	lea	ecx, DWORD PTR $T90238[ebp]
	mov	DWORD PTR $T90242[ebp], 0
	call	DWORD PTR __imp_??0exception@std@@QAE@ABQBD@Z
	push	OFFSET __TI2?AVbad_alloc@std@@
	lea	edx, DWORD PTR $T90238[ebp]
	push	edx
	mov	DWORD PTR $T90238[ebp], OFFSET ??_7bad_alloc@std@@6B@
	call	__CxxThrowException@8
$LN10@Allocate@7:
$LN5@Allocate@7:
; Line 40
	mov	esp, ebp
	pop	ebp
	ret	0
$LN9@Allocate@7:
??$_Allocate@M@std@@YAPAMIPAM@Z ENDP			; std::_Allocate<float>
_TEXT	ENDS
EXTRN	__imp_??0exception@std@@QAE@ABV01@@Z:PROC
; Function compile flags: /Ogtp
;	COMDAT ??0bad_alloc@std@@QAE@ABV01@@Z
_TEXT	SEGMENT
___that$ = 8						; size = 4
??0bad_alloc@std@@QAE@ABV01@@Z PROC			; std::bad_alloc::bad_alloc, COMDAT
; _this$ = ecx
	push	ebp
	mov	ebp, esp
	mov	eax, DWORD PTR ___that$[ebp]
	push	esi
	push	eax
	mov	esi, ecx
	call	DWORD PTR __imp_??0exception@std@@QAE@ABV01@@Z
	mov	DWORD PTR [esi], OFFSET ??_7bad_alloc@std@@6B@
	mov	eax, esi
	pop	esi
	pop	ebp
	ret	4
??0bad_alloc@std@@QAE@ABV01@@Z ENDP			; std::bad_alloc::bad_alloc
_TEXT	ENDS
PUBLIC	??$interpolate@VVec4D@@@@YA?AVVec4D@@MABV0@0@Z	; interpolate<Vec4D>
; Function compile flags: /Ogtp
;	COMDAT ??$interpolate@VVec4D@@@@YA?AVVec4D@@MABV0@0@Z
_TEXT	SEGMENT
$T90251 = -32						; size = 16
$T90250 = -16						; size = 16
___$ReturnUdt$ = 8					; size = 4
_r$ = 12						; size = 4
_v1$ = 16						; size = 4
$T90278 = 20						; size = 4
_v2$ = 20						; size = 4
??$interpolate@VVec4D@@@@YA?AVVec4D@@MABV0@0@Z PROC	; interpolate<Vec4D>, COMDAT
; File c:\programovani\wow editor\test\src\editor\animated.h
; Line 17
	push	ebp
	mov	ebp, esp
	sub	esp, 32					; 00000020H
; Line 18
	mov	eax, DWORD PTR _v2$[ebp]
	fld	DWORD PTR [eax]
	fld	DWORD PTR _r$[ebp]
	fld	ST(0)
	fmulp	ST(2), ST(0)
	fxch	ST(1)
	fstp	DWORD PTR $T90251[ebp]
	fld	DWORD PTR [eax+4]
	fmul	ST(0), ST(1)
	fstp	DWORD PTR $T90251[ebp+4]
	fld	DWORD PTR [eax+8]
	fmul	ST(0), ST(1)
	fstp	DWORD PTR $T90251[ebp+8]
	fld	DWORD PTR [eax+12]
	mov	eax, DWORD PTR _v1$[ebp]
	fmul	ST(0), ST(1)
	fstp	DWORD PTR $T90251[ebp+12]
	fld1
	fsubrp	ST(1), ST(0)
	fstp	DWORD PTR $T90278[ebp]
	fld	DWORD PTR [eax]
	fld	DWORD PTR $T90278[ebp]
	fld	ST(0)
	fmulp	ST(2), ST(0)
	fxch	ST(1)
	fstp	DWORD PTR $T90250[ebp]
	fld	DWORD PTR [eax+4]
	fmul	ST(0), ST(1)
	fstp	DWORD PTR $T90250[ebp+4]
	fld	DWORD PTR [eax+8]
	fmul	ST(0), ST(1)
	fstp	DWORD PTR $T90250[ebp+8]
	fmul	DWORD PTR [eax+12]
	mov	eax, DWORD PTR ___$ReturnUdt$[ebp]
	fstp	DWORD PTR $T90250[ebp+12]
	fld	DWORD PTR $T90250[ebp]
	fadd	DWORD PTR $T90251[ebp]
	fstp	DWORD PTR [eax]
	fld	DWORD PTR $T90250[ebp+4]
	fadd	DWORD PTR $T90251[ebp+4]
	fstp	DWORD PTR [eax+4]
	fld	DWORD PTR $T90250[ebp+8]
	fadd	DWORD PTR $T90251[ebp+8]
	fstp	DWORD PTR [eax+8]
	fld	DWORD PTR $T90250[ebp+12]
	fadd	DWORD PTR $T90251[ebp+12]
	fstp	DWORD PTR [eax+12]
; Line 19
	mov	esp, ebp
	pop	ebp
	ret	0
??$interpolate@VVec4D@@@@YA?AVVec4D@@MABV0@0@Z ENDP	; interpolate<Vec4D>
_TEXT	ENDS
PUBLIC	??$forward@AAUTexCoordSet@@@std@@YAAAUTexCoordSet@@AAU1@@Z ; std::forward<TexCoordSet &>
; Function compile flags: /Ogtp
;	COMDAT ??$forward@AAUTexCoordSet@@@std@@YAAAUTexCoordSet@@AAU1@@Z
_TEXT	SEGMENT
__Arg$ = 8						; size = 4
??$forward@AAUTexCoordSet@@@std@@YAAAUTexCoordSet@@AAU1@@Z PROC ; std::forward<TexCoordSet &>, COMDAT
; File c:\program files (x86)\microsoft visual studio 10.0\vc\include\utility
; Line 78
	push	ebp
	mov	ebp, esp
; Line 79
	mov	eax, DWORD PTR __Arg$[ebp]
; Line 80
	pop	ebp
	ret	0
??$forward@AAUTexCoordSet@@@std@@YAAAUTexCoordSet@@AAU1@@Z ENDP ; std::forward<TexCoordSet &>
_TEXT	ENDS
PUBLIC	??$forward@ABUTexCoordSet@@@std@@YAABUTexCoordSet@@ABU1@@Z ; std::forward<TexCoordSet const &>
; Function compile flags: /Ogtp
;	COMDAT ??$forward@ABUTexCoordSet@@@std@@YAABUTexCoordSet@@ABU1@@Z
_TEXT	SEGMENT
__Arg$ = 8						; size = 4
??$forward@ABUTexCoordSet@@@std@@YAABUTexCoordSet@@ABU1@@Z PROC ; std::forward<TexCoordSet const &>, COMDAT
; Line 78
	push	ebp
	mov	ebp, esp
; Line 79
	mov	eax, DWORD PTR __Arg$[ebp]
; Line 80
	pop	ebp
	ret	0
??$forward@ABUTexCoordSet@@@std@@YAABUTexCoordSet@@ABU1@@Z ENDP ; std::forward<TexCoordSet const &>
_TEXT	ENDS
PUBLIC	??$forward@AAU?$pair@II@std@@@std@@YAAAU?$pair@II@0@AAU10@@Z ; std::forward<std::pair<unsigned int,unsigned int> &>
; Function compile flags: /Ogtp
;	COMDAT ??$forward@AAU?$pair@II@std@@@std@@YAAAU?$pair@II@0@AAU10@@Z
_TEXT	SEGMENT
__Arg$ = 8						; size = 4
??$forward@AAU?$pair@II@std@@@std@@YAAAU?$pair@II@0@AAU10@@Z PROC ; std::forward<std::pair<unsigned int,unsigned int> &>, COMDAT
; Line 78
	push	ebp
	mov	ebp, esp
; Line 79
	mov	eax, DWORD PTR __Arg$[ebp]
; Line 80
	pop	ebp
	ret	0
??$forward@AAU?$pair@II@std@@@std@@YAAAU?$pair@II@0@AAU10@@Z ENDP ; std::forward<std::pair<unsigned int,unsigned int> &>
_TEXT	ENDS
PUBLIC	??$forward@ABU?$pair@II@std@@@std@@YAABU?$pair@II@0@ABU10@@Z ; std::forward<std::pair<unsigned int,unsigned int> const &>
; Function compile flags: /Ogtp
;	COMDAT ??$forward@ABU?$pair@II@std@@@std@@YAABU?$pair@II@0@ABU10@@Z
_TEXT	SEGMENT
__Arg$ = 8						; size = 4
??$forward@ABU?$pair@II@std@@@std@@YAABU?$pair@II@0@ABU10@@Z PROC ; std::forward<std::pair<unsigned int,unsigned int> const &>, COMDAT
; Line 78
	push	ebp
	mov	ebp, esp
; Line 79
	mov	eax, DWORD PTR __Arg$[ebp]
; Line 80
	pop	ebp
	ret	0
??$forward@ABU?$pair@II@std@@@std@@YAABU?$pair@II@0@ABU10@@Z ENDP ; std::forward<std::pair<unsigned int,unsigned int> const &>
_TEXT	ENDS
PUBLIC	??$forward@AAH@std@@YAAAHAAH@Z			; std::forward<int &>
; Function compile flags: /Ogtp
;	COMDAT ??$forward@AAH@std@@YAAAHAAH@Z
_TEXT	SEGMENT
__Arg$ = 8						; size = 4
??$forward@AAH@std@@YAAAHAAH@Z PROC			; std::forward<int &>, COMDAT
; Line 78
	push	ebp
	mov	ebp, esp
; Line 79
	mov	eax, DWORD PTR __Arg$[ebp]
; Line 80
	pop	ebp
	ret	0
??$forward@AAH@std@@YAAAHAAH@Z ENDP			; std::forward<int &>
_TEXT	ENDS
PUBLIC	??$construct@AAH@?$allocator@H@std@@QAEXPAHAAH@Z ; std::allocator<int>::construct<int &>
; Function compile flags: /Ogtp
;	COMDAT ??$construct@AAH@?$allocator@H@std@@QAEXPAHAAH@Z
_TEXT	SEGMENT
__Ptr$ = 8						; size = 4
__Val$ = 12						; size = 4
??$construct@AAH@?$allocator@H@std@@QAEXPAHAAH@Z PROC	; std::allocator<int>::construct<int &>, COMDAT
; _this$ = ecx
; File c:\program files (x86)\microsoft visual studio 10.0\vc\include\xmemory
; Line 206
	push	ebp
	mov	ebp, esp
; Line 208
	mov	eax, DWORD PTR __Ptr$[ebp]
	test	eax, eax
	je	SHORT $LN3@construct
	mov	ecx, DWORD PTR __Val$[ebp]
	mov	edx, DWORD PTR [ecx]
	mov	DWORD PTR [eax], edx
$LN3@construct:
; Line 209
	pop	ebp
	ret	8
??$construct@AAH@?$allocator@H@std@@QAEXPAHAAH@Z ENDP	; std::allocator<int>::construct<int &>
_TEXT	ENDS
PUBLIC	??$forward@ABH@std@@YAABHABH@Z			; std::forward<int const &>
; Function compile flags: /Ogtp
;	COMDAT ??$forward@ABH@std@@YAABHABH@Z
_TEXT	SEGMENT
__Arg$ = 8						; size = 4
??$forward@ABH@std@@YAABHABH@Z PROC			; std::forward<int const &>, COMDAT
; File c:\program files (x86)\microsoft visual studio 10.0\vc\include\utility
; Line 78
	push	ebp
	mov	ebp, esp
; Line 79
	mov	eax, DWORD PTR __Arg$[ebp]
; Line 80
	pop	ebp
	ret	0
??$forward@ABH@std@@YAABHABH@Z ENDP			; std::forward<int const &>
_TEXT	ENDS
PUBLIC	??$forward@AAVVec3D@@@std@@YAAAVVec3D@@AAV1@@Z	; std::forward<Vec3D &>
; Function compile flags: /Ogtp
;	COMDAT ??$forward@AAVVec3D@@@std@@YAAAVVec3D@@AAV1@@Z
_TEXT	SEGMENT
__Arg$ = 8						; size = 4
??$forward@AAVVec3D@@@std@@YAAAVVec3D@@AAV1@@Z PROC	; std::forward<Vec3D &>, COMDAT
; Line 78
	push	ebp
	mov	ebp, esp
; Line 79
	mov	eax, DWORD PTR __Arg$[ebp]
; Line 80
	pop	ebp
	ret	0
??$forward@AAVVec3D@@@std@@YAAAVVec3D@@AAV1@@Z ENDP	; std::forward<Vec3D &>
_TEXT	ENDS
PUBLIC	??$construct@AAVVec3D@@@?$allocator@VVec3D@@@std@@QAEXPAVVec3D@@AAV2@@Z ; std::allocator<Vec3D>::construct<Vec3D &>
; Function compile flags: /Ogtp
;	COMDAT ??$construct@AAVVec3D@@@?$allocator@VVec3D@@@std@@QAEXPAVVec3D@@AAV2@@Z
_TEXT	SEGMENT
__Ptr$ = 8						; size = 4
__Val$ = 12						; size = 4
??$construct@AAVVec3D@@@?$allocator@VVec3D@@@std@@QAEXPAVVec3D@@AAV2@@Z PROC ; std::allocator<Vec3D>::construct<Vec3D &>, COMDAT
; _this$ = ecx
; File c:\program files (x86)\microsoft visual studio 10.0\vc\include\xmemory
; Line 206
	push	ebp
	mov	ebp, esp
; Line 208
	mov	eax, DWORD PTR __Ptr$[ebp]
	test	eax, eax
	je	SHORT $LN3@construct@2
	mov	ecx, DWORD PTR __Val$[ebp]
	mov	edx, DWORD PTR [ecx]
	mov	DWORD PTR [eax], edx
	mov	edx, DWORD PTR [ecx+4]
	mov	DWORD PTR [eax+4], edx
	mov	ecx, DWORD PTR [ecx+8]
	mov	DWORD PTR [eax+8], ecx
$LN3@construct@2:
; Line 209
	pop	ebp
	ret	8
??$construct@AAVVec3D@@@?$allocator@VVec3D@@@std@@QAEXPAVVec3D@@AAV2@@Z ENDP ; std::allocator<Vec3D>::construct<Vec3D &>
_TEXT	ENDS
PUBLIC	??$forward@ABVVec3D@@@std@@YAABVVec3D@@ABV1@@Z	; std::forward<Vec3D const &>
; Function compile flags: /Ogtp
;	COMDAT ??$forward@ABVVec3D@@@std@@YAABVVec3D@@ABV1@@Z
_TEXT	SEGMENT
__Arg$ = 8						; size = 4
??$forward@ABVVec3D@@@std@@YAABVVec3D@@ABV1@@Z PROC	; std::forward<Vec3D const &>, COMDAT
; File c:\program files (x86)\microsoft visual studio 10.0\vc\include\utility
; Line 78
	push	ebp
	mov	ebp, esp
; Line 79
	mov	eax, DWORD PTR __Arg$[ebp]
; Line 80
	pop	ebp
	ret	0
??$forward@ABVVec3D@@@std@@YAABVVec3D@@ABV1@@Z ENDP	; std::forward<Vec3D const &>
_TEXT	ENDS
PUBLIC	??$forward@AAM@std@@YAAAMAAM@Z			; std::forward<float &>
; Function compile flags: /Ogtp
;	COMDAT ??$forward@AAM@std@@YAAAMAAM@Z
_TEXT	SEGMENT
__Arg$ = 8						; size = 4
??$forward@AAM@std@@YAAAMAAM@Z PROC			; std::forward<float &>, COMDAT
; Line 78
	push	ebp
	mov	ebp, esp
; Line 79
	mov	eax, DWORD PTR __Arg$[ebp]
; Line 80
	pop	ebp
	ret	0
??$forward@AAM@std@@YAAAMAAM@Z ENDP			; std::forward<float &>
_TEXT	ENDS
PUBLIC	??$construct@AAM@?$allocator@M@std@@QAEXPAMAAM@Z ; std::allocator<float>::construct<float &>
; Function compile flags: /Ogtp
;	COMDAT ??$construct@AAM@?$allocator@M@std@@QAEXPAMAAM@Z
_TEXT	SEGMENT
__Ptr$ = 8						; size = 4
__Val$ = 12						; size = 4
??$construct@AAM@?$allocator@M@std@@QAEXPAMAAM@Z PROC	; std::allocator<float>::construct<float &>, COMDAT
; _this$ = ecx
; File c:\program files (x86)\microsoft visual studio 10.0\vc\include\xmemory
; Line 206
	push	ebp
	mov	ebp, esp
; Line 208
	mov	eax, DWORD PTR __Ptr$[ebp]
	test	eax, eax
	je	SHORT $LN3@construct@3
	mov	ecx, DWORD PTR __Val$[ebp]
	mov	edx, DWORD PTR [ecx]
	mov	DWORD PTR [eax], edx
$LN3@construct@3:
; Line 209
	pop	ebp
	ret	8
??$construct@AAM@?$allocator@M@std@@QAEXPAMAAM@Z ENDP	; std::allocator<float>::construct<float &>
_TEXT	ENDS
PUBLIC	??$forward@ABM@std@@YAABMABM@Z			; std::forward<float const &>
; Function compile flags: /Ogtp
;	COMDAT ??$forward@ABM@std@@YAABMABM@Z
_TEXT	SEGMENT
__Arg$ = 8						; size = 4
??$forward@ABM@std@@YAABMABM@Z PROC			; std::forward<float const &>, COMDAT
; File c:\program files (x86)\microsoft visual studio 10.0\vc\include\utility
; Line 78
	push	ebp
	mov	ebp, esp
; Line 79
	mov	eax, DWORD PTR __Arg$[ebp]
; Line 80
	pop	ebp
	ret	0
??$forward@ABM@std@@YAABMABM@Z ENDP			; std::forward<float const &>
_TEXT	ENDS
PUBLIC	??$_Ptr_cat@U?$pair@II@std@@U12@@std@@YA?AU_Nonscalar_ptr_iterator_tag@0@PAU?$pair@II@0@0@Z ; std::_Ptr_cat<std::pair<unsigned int,unsigned int>,std::pair<unsigned int,unsigned int> >
; Function compile flags: /Ogtp
;	COMDAT ??$_Ptr_cat@U?$pair@II@std@@U12@@std@@YA?AU_Nonscalar_ptr_iterator_tag@0@PAU?$pair@II@0@0@Z
_TEXT	SEGMENT
__Cat$ = -1						; size = 1
___formal$ = 8						; size = 4
___formal$ = 12						; size = 4
??$_Ptr_cat@U?$pair@II@std@@U12@@std@@YA?AU_Nonscalar_ptr_iterator_tag@0@PAU?$pair@II@0@0@Z PROC ; std::_Ptr_cat<std::pair<unsigned int,unsigned int>,std::pair<unsigned int,unsigned int> >, COMDAT
; File c:\program files (x86)\microsoft visual studio 10.0\vc\include\xutility
; Line 528
	push	ebp
	mov	ebp, esp
	push	ecx
; Line 530
	mov	al, BYTE PTR __Cat$[ebp]
; Line 531
	mov	esp, ebp
	pop	ebp
	ret	0
??$_Ptr_cat@U?$pair@II@std@@U12@@std@@YA?AU_Nonscalar_ptr_iterator_tag@0@PAU?$pair@II@0@0@Z ENDP ; std::_Ptr_cat<std::pair<unsigned int,unsigned int>,std::pair<unsigned int,unsigned int> >
_TEXT	ENDS
PUBLIC	??$_Ptr_cat@HH@std@@YA?AU_Scalar_ptr_iterator_tag@0@PAH0@Z ; std::_Ptr_cat<int,int>
; Function compile flags: /Ogtp
;	COMDAT ??$_Ptr_cat@HH@std@@YA?AU_Scalar_ptr_iterator_tag@0@PAH0@Z
_TEXT	SEGMENT
__Cat$ = -1						; size = 1
___formal$ = 8						; size = 4
___formal$ = 12						; size = 4
??$_Ptr_cat@HH@std@@YA?AU_Scalar_ptr_iterator_tag@0@PAH0@Z PROC ; std::_Ptr_cat<int,int>, COMDAT
; Line 528
	push	ebp
	mov	ebp, esp
	push	ecx
; Line 530
	mov	al, BYTE PTR __Cat$[ebp]
; Line 531
	mov	esp, ebp
	pop	ebp
	ret	0
??$_Ptr_cat@HH@std@@YA?AU_Scalar_ptr_iterator_tag@0@PAH0@Z ENDP ; std::_Ptr_cat<int,int>
_TEXT	ENDS
PUBLIC	??$_Destroy_range@V?$allocator@H@std@@@std@@YAXPAH0AAV?$allocator@H@0@U_Scalar_ptr_iterator_tag@0@@Z ; std::_Destroy_range<std::allocator<int> >
; Function compile flags: /Ogtp
;	COMDAT ??$_Destroy_range@V?$allocator@H@std@@@std@@YAXPAH0AAV?$allocator@H@0@U_Scalar_ptr_iterator_tag@0@@Z
_TEXT	SEGMENT
__First$ = 8						; size = 4
__Last$ = 12						; size = 4
__Al$ = 16						; size = 4
___formal$ = 20						; size = 1
??$_Destroy_range@V?$allocator@H@std@@@std@@YAXPAH0AAV?$allocator@H@0@U_Scalar_ptr_iterator_tag@0@@Z PROC ; std::_Destroy_range<std::allocator<int> >, COMDAT
; File c:\program files (x86)\microsoft visual studio 10.0\vc\include\xmemory
; Line 105
	ret	0
??$_Destroy_range@V?$allocator@H@std@@@std@@YAXPAH0AAV?$allocator@H@0@U_Scalar_ptr_iterator_tag@0@@Z ENDP ; std::_Destroy_range<std::allocator<int> >
_TEXT	ENDS
PUBLIC	??$_Ptr_cat@VVec3D@@V1@@std@@YA?AU_Nonscalar_ptr_iterator_tag@0@PAVVec3D@@0@Z ; std::_Ptr_cat<Vec3D,Vec3D>
; Function compile flags: /Ogtp
;	COMDAT ??$_Ptr_cat@VVec3D@@V1@@std@@YA?AU_Nonscalar_ptr_iterator_tag@0@PAVVec3D@@0@Z
_TEXT	SEGMENT
__Cat$ = -1						; size = 1
___formal$ = 8						; size = 4
___formal$ = 12						; size = 4
??$_Ptr_cat@VVec3D@@V1@@std@@YA?AU_Nonscalar_ptr_iterator_tag@0@PAVVec3D@@0@Z PROC ; std::_Ptr_cat<Vec3D,Vec3D>, COMDAT
; File c:\program files (x86)\microsoft visual studio 10.0\vc\include\xutility
; Line 528
	push	ebp
	mov	ebp, esp
	push	ecx
; Line 530
	mov	al, BYTE PTR __Cat$[ebp]
; Line 531
	mov	esp, ebp
	pop	ebp
	ret	0
??$_Ptr_cat@VVec3D@@V1@@std@@YA?AU_Nonscalar_ptr_iterator_tag@0@PAVVec3D@@0@Z ENDP ; std::_Ptr_cat<Vec3D,Vec3D>
_TEXT	ENDS
PUBLIC	??$_Ptr_cat@MM@std@@YA?AU_Scalar_ptr_iterator_tag@0@PAM0@Z ; std::_Ptr_cat<float,float>
; Function compile flags: /Ogtp
;	COMDAT ??$_Ptr_cat@MM@std@@YA?AU_Scalar_ptr_iterator_tag@0@PAM0@Z
_TEXT	SEGMENT
__Cat$ = -1						; size = 1
___formal$ = 8						; size = 4
___formal$ = 12						; size = 4
??$_Ptr_cat@MM@std@@YA?AU_Scalar_ptr_iterator_tag@0@PAM0@Z PROC ; std::_Ptr_cat<float,float>, COMDAT
; Line 528
	push	ebp
	mov	ebp, esp
	push	ecx
; Line 530
	mov	al, BYTE PTR __Cat$[ebp]
; Line 531
	mov	esp, ebp
	pop	ebp
	ret	0
??$_Ptr_cat@MM@std@@YA?AU_Scalar_ptr_iterator_tag@0@PAM0@Z ENDP ; std::_Ptr_cat<float,float>
_TEXT	ENDS
PUBLIC	??$_Destroy_range@V?$allocator@M@std@@@std@@YAXPAM0AAV?$allocator@M@0@U_Scalar_ptr_iterator_tag@0@@Z ; std::_Destroy_range<std::allocator<float> >
; Function compile flags: /Ogtp
;	COMDAT ??$_Destroy_range@V?$allocator@M@std@@@std@@YAXPAM0AAV?$allocator@M@0@U_Scalar_ptr_iterator_tag@0@@Z
_TEXT	SEGMENT
__First$ = 8						; size = 4
__Last$ = 12						; size = 4
__Al$ = 16						; size = 4
___formal$ = 20						; size = 1
??$_Destroy_range@V?$allocator@M@std@@@std@@YAXPAM0AAV?$allocator@M@0@U_Scalar_ptr_iterator_tag@0@@Z PROC ; std::_Destroy_range<std::allocator<float> >, COMDAT
; File c:\program files (x86)\microsoft visual studio 10.0\vc\include\xmemory
; Line 105
	ret	0
??$_Destroy_range@V?$allocator@M@std@@@std@@YAXPAM0AAV?$allocator@M@0@U_Scalar_ptr_iterator_tag@0@@Z ENDP ; std::_Destroy_range<std::allocator<float> >
_TEXT	ENDS
PUBLIC	??$forward@ABUParticle@@@std@@YAABUParticle@@ABU1@@Z ; std::forward<Particle const &>
; Function compile flags: /Ogtp
;	COMDAT ??$forward@ABUParticle@@@std@@YAABUParticle@@ABU1@@Z
_TEXT	SEGMENT
__Arg$ = 8						; size = 4
??$forward@ABUParticle@@@std@@YAABUParticle@@ABU1@@Z PROC ; std::forward<Particle const &>, COMDAT
; File c:\program files (x86)\microsoft visual studio 10.0\vc\include\utility
; Line 78
	push	ebp
	mov	ebp, esp
; Line 79
	mov	eax, DWORD PTR __Arg$[ebp]
; Line 80
	pop	ebp
	ret	0
??$forward@ABUParticle@@@std@@YAABUParticle@@ABU1@@Z ENDP ; std::forward<Particle const &>
_TEXT	ENDS
PUBLIC	??$_Ptr_cat@UTexCoordSet@@U1@@std@@YA?AU_Nonscalar_ptr_iterator_tag@0@PAUTexCoordSet@@0@Z ; std::_Ptr_cat<TexCoordSet,TexCoordSet>
; Function compile flags: /Ogtp
;	COMDAT ??$_Ptr_cat@UTexCoordSet@@U1@@std@@YA?AU_Nonscalar_ptr_iterator_tag@0@PAUTexCoordSet@@0@Z
_TEXT	SEGMENT
__Cat$ = -1						; size = 1
___formal$ = 8						; size = 4
___formal$ = 12						; size = 4
??$_Ptr_cat@UTexCoordSet@@U1@@std@@YA?AU_Nonscalar_ptr_iterator_tag@0@PAUTexCoordSet@@0@Z PROC ; std::_Ptr_cat<TexCoordSet,TexCoordSet>, COMDAT
; File c:\program files (x86)\microsoft visual studio 10.0\vc\include\xutility
; Line 528
	push	ebp
	mov	ebp, esp
	push	ecx
; Line 530
	mov	al, BYTE PTR __Cat$[ebp]
; Line 531
	mov	esp, ebp
	pop	ebp
	ret	0
??$_Ptr_cat@UTexCoordSet@@U1@@std@@YA?AU_Nonscalar_ptr_iterator_tag@0@PAUTexCoordSet@@0@Z ENDP ; std::_Ptr_cat<TexCoordSet,TexCoordSet>
_TEXT	ENDS
PUBLIC	??$forward@ABURibbonSegment@@@std@@YAABURibbonSegment@@ABU1@@Z ; std::forward<RibbonSegment const &>
; Function compile flags: /Ogtp
;	COMDAT ??$forward@ABURibbonSegment@@@std@@YAABURibbonSegment@@ABU1@@Z
_TEXT	SEGMENT
__Arg$ = 8						; size = 4
??$forward@ABURibbonSegment@@@std@@YAABURibbonSegment@@ABU1@@Z PROC ; std::forward<RibbonSegment const &>, COMDAT
; File c:\program files (x86)\microsoft visual studio 10.0\vc\include\utility
; Line 78
	push	ebp
	mov	ebp, esp
; Line 79
	mov	eax, DWORD PTR __Arg$[ebp]
; Line 80
	pop	ebp
	ret	0
??$forward@ABURibbonSegment@@@std@@YAABURibbonSegment@@ABU1@@Z ENDP ; std::forward<RibbonSegment const &>
_TEXT	ENDS
PUBLIC	??$_Construct@HABH@std@@YAXPAHABH@Z		; std::_Construct<int,int const &>
; Function compile flags: /Ogtp
;	COMDAT ??$_Construct@HABH@std@@YAXPAHABH@Z
_TEXT	SEGMENT
__Ptr$ = 8						; size = 4
__Val$ = 12						; size = 4
??$_Construct@HABH@std@@YAXPAHABH@Z PROC		; std::_Construct<int,int const &>, COMDAT
; File c:\program files (x86)\microsoft visual studio 10.0\vc\include\xmemory
; Line 46
	push	ebp
	mov	ebp, esp
; Line 48
	mov	eax, DWORD PTR __Ptr$[ebp]
	test	eax, eax
	je	SHORT $LN3@Construct
	mov	ecx, DWORD PTR __Val$[ebp]
	mov	edx, DWORD PTR [ecx]
	mov	DWORD PTR [eax], edx
$LN3@Construct:
; Line 49
	pop	ebp
	ret	0
??$_Construct@HABH@std@@YAXPAHABH@Z ENDP		; std::_Construct<int,int const &>
_TEXT	ENDS
PUBLIC	??$_Construct@VVec3D@@ABV1@@std@@YAXPAVVec3D@@ABV1@@Z ; std::_Construct<Vec3D,Vec3D const &>
; Function compile flags: /Ogtp
;	COMDAT ??$_Construct@VVec3D@@ABV1@@std@@YAXPAVVec3D@@ABV1@@Z
_TEXT	SEGMENT
__Ptr$ = 8						; size = 4
__Val$ = 12						; size = 4
??$_Construct@VVec3D@@ABV1@@std@@YAXPAVVec3D@@ABV1@@Z PROC ; std::_Construct<Vec3D,Vec3D const &>, COMDAT
; Line 46
	push	ebp
	mov	ebp, esp
; Line 48
	mov	eax, DWORD PTR __Ptr$[ebp]
	test	eax, eax
	je	SHORT $LN3@Construct@2
	mov	ecx, DWORD PTR __Val$[ebp]
	mov	edx, DWORD PTR [ecx]
	mov	DWORD PTR [eax], edx
	mov	edx, DWORD PTR [ecx+4]
	mov	DWORD PTR [eax+4], edx
	mov	ecx, DWORD PTR [ecx+8]
	mov	DWORD PTR [eax+8], ecx
$LN3@Construct@2:
; Line 49
	pop	ebp
	ret	0
??$_Construct@VVec3D@@ABV1@@std@@YAXPAVVec3D@@ABV1@@Z ENDP ; std::_Construct<Vec3D,Vec3D const &>
_TEXT	ENDS
PUBLIC	??$_Construct@MABM@std@@YAXPAMABM@Z		; std::_Construct<float,float const &>
; Function compile flags: /Ogtp
;	COMDAT ??$_Construct@MABM@std@@YAXPAMABM@Z
_TEXT	SEGMENT
__Ptr$ = 8						; size = 4
__Val$ = 12						; size = 4
??$_Construct@MABM@std@@YAXPAMABM@Z PROC		; std::_Construct<float,float const &>, COMDAT
; Line 46
	push	ebp
	mov	ebp, esp
; Line 48
	mov	eax, DWORD PTR __Ptr$[ebp]
	test	eax, eax
	je	SHORT $LN3@Construct@3
	mov	ecx, DWORD PTR __Val$[ebp]
	mov	edx, DWORD PTR [ecx]
	mov	DWORD PTR [eax], edx
$LN3@Construct@3:
; Line 49
	pop	ebp
	ret	0
??$_Construct@MABM@std@@YAXPAMABM@Z ENDP		; std::_Construct<float,float const &>
_TEXT	ENDS
PUBLIC	??$_Construct@UParticle@@ABU1@@std@@YAXPAUParticle@@ABU1@@Z ; std::_Construct<Particle,Particle const &>
; Function compile flags: /Ogtp
;	COMDAT ??$_Construct@UParticle@@ABU1@@std@@YAXPAUParticle@@ABU1@@Z
_TEXT	SEGMENT
__Ptr$ = 8						; size = 4
__Val$ = 12						; size = 4
??$_Construct@UParticle@@ABU1@@std@@YAXPAUParticle@@ABU1@@Z PROC ; std::_Construct<Particle,Particle const &>, COMDAT
; Line 46
	push	ebp
	mov	ebp, esp
; Line 48
	mov	ecx, DWORD PTR __Ptr$[ebp]
	test	ecx, ecx
	je	SHORT $LN3@Construct@4
	mov	eax, DWORD PTR __Val$[ebp]
	push	eax
	call	??0Particle@@QAE@ABU0@@Z
$LN3@Construct@4:
; Line 49
	pop	ebp
	ret	0
??$_Construct@UParticle@@ABU1@@std@@YAXPAUParticle@@ABU1@@Z ENDP ; std::_Construct<Particle,Particle const &>
_TEXT	ENDS
PUBLIC	??$_Destroy@U_Node@?$_List_nod@UParticle@@V?$allocator@UParticle@@@std@@@std@@@std@@YAXPAU_Node@?$_List_nod@UParticle@@V?$allocator@UParticle@@@std@@@0@@Z ; std::_Destroy<std::_List_nod<Particle,std::allocator<Particle> >::_Node>
; Function compile flags: /Ogtp
;	COMDAT ??$_Destroy@U_Node@?$_List_nod@UParticle@@V?$allocator@UParticle@@@std@@@std@@@std@@YAXPAU_Node@?$_List_nod@UParticle@@V?$allocator@UParticle@@@std@@@0@@Z
_TEXT	SEGMENT
__Ptr$ = 8						; size = 4
??$_Destroy@U_Node@?$_List_nod@UParticle@@V?$allocator@UParticle@@@std@@@std@@@std@@YAXPAU_Node@?$_List_nod@UParticle@@V?$allocator@UParticle@@@std@@@0@@Z PROC ; std::_Destroy<std::_List_nod<Particle,std::allocator<Particle> >::_Node>, COMDAT
; Line 64
	ret	0
??$_Destroy@U_Node@?$_List_nod@UParticle@@V?$allocator@UParticle@@@std@@@std@@@std@@YAXPAU_Node@?$_List_nod@UParticle@@V?$allocator@UParticle@@@std@@@0@@Z ENDP ; std::_Destroy<std::_List_nod<Particle,std::allocator<Particle> >::_Node>
_TEXT	ENDS
PUBLIC	??$_Destroy@U_Node@?$_List_nod@URibbonSegment@@V?$allocator@URibbonSegment@@@std@@@std@@@std@@YAXPAU_Node@?$_List_nod@URibbonSegment@@V?$allocator@URibbonSegment@@@std@@@0@@Z ; std::_Destroy<std::_List_nod<RibbonSegment,std::allocator<RibbonSegment> >::_Node>
; Function compile flags: /Ogtp
;	COMDAT ??$_Destroy@U_Node@?$_List_nod@URibbonSegment@@V?$allocator@URibbonSegment@@@std@@@std@@@std@@YAXPAU_Node@?$_List_nod@URibbonSegment@@V?$allocator@URibbonSegment@@@std@@@0@@Z
_TEXT	SEGMENT
__Ptr$ = 8						; size = 4
??$_Destroy@U_Node@?$_List_nod@URibbonSegment@@V?$allocator@URibbonSegment@@@std@@@std@@@std@@YAXPAU_Node@?$_List_nod@URibbonSegment@@V?$allocator@URibbonSegment@@@std@@@0@@Z PROC ; std::_Destroy<std::_List_nod<RibbonSegment,std::allocator<RibbonSegment> >::_Node>, COMDAT
; Line 64
	ret	0
??$_Destroy@U_Node@?$_List_nod@URibbonSegment@@V?$allocator@URibbonSegment@@@std@@@std@@@std@@YAXPAU_Node@?$_List_nod@URibbonSegment@@V?$allocator@URibbonSegment@@@std@@@0@@Z ENDP ; std::_Destroy<std::_List_nod<RibbonSegment,std::allocator<RibbonSegment> >::_Node>
_TEXT	ENDS
PUBLIC	??0RibbonSegment@@QAE@ABU0@@Z			; RibbonSegment::RibbonSegment
; Function compile flags: /Ogtp
;	COMDAT ??0RibbonSegment@@QAE@ABU0@@Z
_TEXT	SEGMENT
___that$ = 8						; size = 4
??0RibbonSegment@@QAE@ABU0@@Z PROC			; RibbonSegment::RibbonSegment, COMDAT
; _this$ = ecx
	push	ebp
	mov	ebp, esp
	mov	eax, ecx
	mov	ecx, DWORD PTR ___that$[ebp]
	mov	edx, DWORD PTR [ecx]
	mov	DWORD PTR [eax], edx
	mov	edx, DWORD PTR [ecx+4]
	mov	DWORD PTR [eax+4], edx
	mov	edx, DWORD PTR [ecx+8]
	mov	DWORD PTR [eax+8], edx
	mov	edx, DWORD PTR [ecx+12]
	mov	DWORD PTR [eax+12], edx
	mov	edx, DWORD PTR [ecx+16]
	mov	DWORD PTR [eax+16], edx
	mov	edx, DWORD PTR [ecx+20]
	mov	DWORD PTR [eax+20], edx
	mov	edx, DWORD PTR [ecx+24]
	mov	DWORD PTR [eax+24], edx
	mov	edx, DWORD PTR [ecx+28]
	mov	DWORD PTR [eax+28], edx
	mov	edx, DWORD PTR [ecx+32]
	mov	DWORD PTR [eax+32], edx
	mov	edx, DWORD PTR [ecx+36]
	mov	DWORD PTR [eax+36], edx
	mov	ecx, DWORD PTR [ecx+40]
	mov	DWORD PTR [eax+40], ecx
	pop	ebp
	ret	4
??0RibbonSegment@@QAE@ABU0@@Z ENDP			; RibbonSegment::RibbonSegment
_TEXT	ENDS
PUBLIC	??__G@YGXPAX0IHP6EPAX00@Z@Z			; `vector copy constructor iterator'
; Function compile flags: /Ogtp
;	COMDAT ??__G@YGXPAX0IHP6EPAX00@Z@Z
_TEXT	SEGMENT
___t$ = 8						; size = 4
___u$ = 12						; size = 4
___s$ = 16						; size = 4
___n$ = 20						; size = 4
___f$ = 24						; size = 4
??__G@YGXPAX0IHP6EPAX00@Z@Z PROC			; `vector copy constructor iterator', COMDAT
	push	ebp
	mov	ebp, esp
	push	ebx
	mov	ebx, DWORD PTR ___n$[ebp]
	dec	ebx
	js	SHORT $LN1@vector@2
	push	esi
	mov	esi, DWORD PTR ___u$[ebp]
	push	edi
	mov	edi, DWORD PTR ___t$[ebp]
	sub	edi, esi
$LL2@vector@2:
	push	esi
	lea	ecx, DWORD PTR [edi+esi]
	call	DWORD PTR ___f$[ebp]
	add	esi, DWORD PTR ___s$[ebp]
	dec	ebx
	jns	SHORT $LL2@vector@2
	pop	edi
	pop	esi
$LN1@vector@2:
	pop	ebx
	pop	ebp
	ret	20					; 00000014H
??__G@YGXPAX0IHP6EPAX00@Z@Z ENDP			; `vector copy constructor iterator'
_TEXT	ENDS
PUBLIC	??0?$_Pair_base@II@std@@QAE@ABU01@@Z		; std::_Pair_base<unsigned int,unsigned int>::_Pair_base<unsigned int,unsigned int>
; Function compile flags: /Ogtp
;	COMDAT ??0?$_Pair_base@II@std@@QAE@ABU01@@Z
_TEXT	SEGMENT
__Right$ = 8						; size = 4
??0?$_Pair_base@II@std@@QAE@ABU01@@Z PROC		; std::_Pair_base<unsigned int,unsigned int>::_Pair_base<unsigned int,unsigned int>, COMDAT
; _this$ = ecx
; File c:\program files (x86)\microsoft visual studio 10.0\vc\include\utility
; Line 131
	push	ebp
	mov	ebp, esp
	mov	eax, ecx
	mov	ecx, DWORD PTR __Right$[ebp]
	mov	edx, DWORD PTR [ecx]
	mov	DWORD PTR [eax], edx
	mov	ecx, DWORD PTR [ecx+4]
	mov	DWORD PTR [eax+4], ecx
; Line 132
	pop	ebp
	ret	4
??0?$_Pair_base@II@std@@QAE@ABU01@@Z ENDP		; std::_Pair_base<unsigned int,unsigned int>::_Pair_base<unsigned int,unsigned int>
_TEXT	ENDS
PUBLIC	??$_Val_type@PAUTexCoordSet@@@std@@YAPAUTexCoordSet@@PAU1@@Z ; std::_Val_type<TexCoordSet *>
; Function compile flags: /Ogtp
;	COMDAT ??$_Val_type@PAUTexCoordSet@@@std@@YAPAUTexCoordSet@@PAU1@@Z
_TEXT	SEGMENT
___formal$ = 8						; size = 4
??$_Val_type@PAUTexCoordSet@@@std@@YAPAUTexCoordSet@@PAU1@@Z PROC ; std::_Val_type<TexCoordSet *>, COMDAT
; File c:\program files (x86)\microsoft visual studio 10.0\vc\include\xutility
; Line 802
	xor	eax, eax
; Line 803
	ret	0
??$_Val_type@PAUTexCoordSet@@@std@@YAPAUTexCoordSet@@PAU1@@Z ENDP ; std::_Val_type<TexCoordSet *>
_TEXT	ENDS
PUBLIC	??$_Val_type@PAU?$pair@II@std@@@std@@YAPAU?$pair@II@0@PAU10@@Z ; std::_Val_type<std::pair<unsigned int,unsigned int> *>
; Function compile flags: /Ogtp
;	COMDAT ??$_Val_type@PAU?$pair@II@std@@@std@@YAPAU?$pair@II@0@PAU10@@Z
_TEXT	SEGMENT
___formal$ = 8						; size = 4
??$_Val_type@PAU?$pair@II@std@@@std@@YAPAU?$pair@II@0@PAU10@@Z PROC ; std::_Val_type<std::pair<unsigned int,unsigned int> *>, COMDAT
; Line 802
	xor	eax, eax
; Line 803
	ret	0
??$_Val_type@PAU?$pair@II@std@@@std@@YAPAU?$pair@II@0@PAU10@@Z ENDP ; std::_Val_type<std::pair<unsigned int,unsigned int> *>
_TEXT	ENDS
PUBLIC	??$_Val_type@PAH@std@@YAPAHPAH@Z		; std::_Val_type<int *>
; Function compile flags: /Ogtp
;	COMDAT ??$_Val_type@PAH@std@@YAPAHPAH@Z
_TEXT	SEGMENT
___formal$ = 8						; size = 4
??$_Val_type@PAH@std@@YAPAHPAH@Z PROC			; std::_Val_type<int *>, COMDAT
; Line 802
	xor	eax, eax
; Line 803
	ret	0
??$_Val_type@PAH@std@@YAPAHPAH@Z ENDP			; std::_Val_type<int *>
_TEXT	ENDS
PUBLIC	??$_Uninit_move@HHH@std@@YAPAHPAH00AAV?$allocator@H@0@0U_Scalar_ptr_iterator_tag@0@@Z ; std::_Uninit_move<int,int,int>
EXTRN	__imp__memmove:PROC
; Function compile flags: /Ogtp
;	COMDAT ??$_Uninit_move@HHH@std@@YAPAHPAH00AAV?$allocator@H@0@0U_Scalar_ptr_iterator_tag@0@@Z
_TEXT	SEGMENT
__First$ = 8						; size = 4
__Last$ = 12						; size = 4
__Dest$ = 16						; size = 4
___formal$ = 20						; size = 4
___formal$ = 24						; size = 4
___formal$ = 28						; size = 1
??$_Uninit_move@HHH@std@@YAPAHPAH00AAV?$allocator@H@0@0U_Scalar_ptr_iterator_tag@0@@Z PROC ; std::_Uninit_move<int,int,int>, COMDAT
; File c:\program files (x86)\microsoft visual studio 10.0\vc\include\memory
; Line 456
	push	ebp
	mov	ebp, esp
; Line 459
	mov	ecx, DWORD PTR __First$[ebp]
	mov	eax, DWORD PTR __Last$[ebp]
	sub	eax, ecx
	push	esi
	sar	eax, 2
; Line 461
	lea	esi, DWORD PTR [eax*4]
	mov	eax, DWORD PTR __Dest$[ebp]
	push	esi
	push	ecx
	push	eax
	call	DWORD PTR __imp__memmove
	add	esp, 12					; 0000000cH
	add	eax, esi
	pop	esi
; Line 462
	pop	ebp
	ret	0
??$_Uninit_move@HHH@std@@YAPAHPAH00AAV?$allocator@H@0@0U_Scalar_ptr_iterator_tag@0@@Z ENDP ; std::_Uninit_move<int,int,int>
_TEXT	ENDS
PUBLIC	??$_Val_type@PAVVec3D@@@std@@YAPAVVec3D@@PAV1@@Z ; std::_Val_type<Vec3D *>
; Function compile flags: /Ogtp
;	COMDAT ??$_Val_type@PAVVec3D@@@std@@YAPAVVec3D@@PAV1@@Z
_TEXT	SEGMENT
___formal$ = 8						; size = 4
??$_Val_type@PAVVec3D@@@std@@YAPAVVec3D@@PAV1@@Z PROC	; std::_Val_type<Vec3D *>, COMDAT
; File c:\program files (x86)\microsoft visual studio 10.0\vc\include\xutility
; Line 802
	xor	eax, eax
; Line 803
	ret	0
??$_Val_type@PAVVec3D@@@std@@YAPAVVec3D@@PAV1@@Z ENDP	; std::_Val_type<Vec3D *>
_TEXT	ENDS
PUBLIC	??$_Val_type@PAM@std@@YAPAMPAM@Z		; std::_Val_type<float *>
; Function compile flags: /Ogtp
;	COMDAT ??$_Val_type@PAM@std@@YAPAMPAM@Z
_TEXT	SEGMENT
___formal$ = 8						; size = 4
??$_Val_type@PAM@std@@YAPAMPAM@Z PROC			; std::_Val_type<float *>, COMDAT
; Line 802
	xor	eax, eax
; Line 803
	ret	0
??$_Val_type@PAM@std@@YAPAMPAM@Z ENDP			; std::_Val_type<float *>
_TEXT	ENDS
PUBLIC	??$_Uninit_move@MMM@std@@YAPAMPAM00AAV?$allocator@M@0@0U_Scalar_ptr_iterator_tag@0@@Z ; std::_Uninit_move<float,float,float>
; Function compile flags: /Ogtp
;	COMDAT ??$_Uninit_move@MMM@std@@YAPAMPAM00AAV?$allocator@M@0@0U_Scalar_ptr_iterator_tag@0@@Z
_TEXT	SEGMENT
__First$ = 8						; size = 4
__Last$ = 12						; size = 4
__Dest$ = 16						; size = 4
___formal$ = 20						; size = 4
___formal$ = 24						; size = 4
___formal$ = 28						; size = 1
??$_Uninit_move@MMM@std@@YAPAMPAM00AAV?$allocator@M@0@0U_Scalar_ptr_iterator_tag@0@@Z PROC ; std::_Uninit_move<float,float,float>, COMDAT
; File c:\program files (x86)\microsoft visual studio 10.0\vc\include\memory
; Line 456
	push	ebp
	mov	ebp, esp
; Line 459
	mov	ecx, DWORD PTR __First$[ebp]
	mov	eax, DWORD PTR __Last$[ebp]
	sub	eax, ecx
	push	esi
	sar	eax, 2
; Line 461
	lea	esi, DWORD PTR [eax*4]
	mov	eax, DWORD PTR __Dest$[ebp]
	push	esi
	push	ecx
	push	eax
	call	DWORD PTR __imp__memmove
	add	esp, 12					; 0000000cH
	add	eax, esi
	pop	esi
; Line 462
	pop	ebp
	ret	0
??$_Uninit_move@MMM@std@@YAPAMPAM00AAV?$allocator@M@0@0U_Scalar_ptr_iterator_tag@0@@Z ENDP ; std::_Uninit_move<float,float,float>
_TEXT	ENDS
PUBLIC	??$_Destroy@U?$pair@II@std@@@std@@YAXPAU?$pair@II@0@@Z ; std::_Destroy<std::pair<unsigned int,unsigned int> >
; Function compile flags: /Ogtp
;	COMDAT ??$_Destroy@U?$pair@II@std@@@std@@YAXPAU?$pair@II@0@@Z
_TEXT	SEGMENT
__Ptr$ = 8						; size = 4
??$_Destroy@U?$pair@II@std@@@std@@YAXPAU?$pair@II@0@@Z PROC ; std::_Destroy<std::pair<unsigned int,unsigned int> >, COMDAT
; File c:\program files (x86)\microsoft visual studio 10.0\vc\include\xmemory
; Line 64
	ret	0
??$_Destroy@U?$pair@II@std@@@std@@YAXPAU?$pair@II@0@@Z ENDP ; std::_Destroy<std::pair<unsigned int,unsigned int> >
_TEXT	ENDS
PUBLIC	??$_Destroy@VVec3D@@@std@@YAXPAVVec3D@@@Z	; std::_Destroy<Vec3D>
; Function compile flags: /Ogtp
;	COMDAT ??$_Destroy@VVec3D@@@std@@YAXPAVVec3D@@@Z
_TEXT	SEGMENT
__Ptr$ = 8						; size = 4
??$_Destroy@VVec3D@@@std@@YAXPAVVec3D@@@Z PROC		; std::_Destroy<Vec3D>, COMDAT
; Line 64
	ret	0
??$_Destroy@VVec3D@@@std@@YAXPAVVec3D@@@Z ENDP		; std::_Destroy<Vec3D>
_TEXT	ENDS
PUBLIC	??$_Destroy@UTexCoordSet@@@std@@YAXPAUTexCoordSet@@@Z ; std::_Destroy<TexCoordSet>
; Function compile flags: /Ogtp
;	COMDAT ??$_Destroy@UTexCoordSet@@@std@@YAXPAUTexCoordSet@@@Z
_TEXT	SEGMENT
__Ptr$ = 8						; size = 4
??$_Destroy@UTexCoordSet@@@std@@YAXPAUTexCoordSet@@@Z PROC ; std::_Destroy<TexCoordSet>, COMDAT
; Line 64
	ret	0
??$_Destroy@UTexCoordSet@@@std@@YAXPAUTexCoordSet@@@Z ENDP ; std::_Destroy<TexCoordSet>
_TEXT	ENDS
PUBLIC	??$forward@AAI@std@@YAAAIAAI@Z			; std::forward<unsigned int &>
; Function compile flags: /Ogtp
;	COMDAT ??$forward@AAI@std@@YAAAIAAI@Z
_TEXT	SEGMENT
__Arg$ = 8						; size = 4
??$forward@AAI@std@@YAAAIAAI@Z PROC			; std::forward<unsigned int &>, COMDAT
; File c:\program files (x86)\microsoft visual studio 10.0\vc\include\utility
; Line 78
	push	ebp
	mov	ebp, esp
; Line 79
	mov	eax, DWORD PTR __Arg$[ebp]
; Line 80
	pop	ebp
	ret	0
??$forward@AAI@std@@YAAAIAAI@Z ENDP			; std::forward<unsigned int &>
_TEXT	ENDS
PUBLIC	??$forward@UTexCoordSet@@@std@@YA$$QAUTexCoordSet@@AAU1@@Z ; std::forward<TexCoordSet>
; Function compile flags: /Ogtp
;	COMDAT ??$forward@UTexCoordSet@@@std@@YA$$QAUTexCoordSet@@AAU1@@Z
_TEXT	SEGMENT
__Arg$ = 8						; size = 4
??$forward@UTexCoordSet@@@std@@YA$$QAUTexCoordSet@@AAU1@@Z PROC ; std::forward<TexCoordSet>, COMDAT
; Line 78
	push	ebp
	mov	ebp, esp
; Line 79
	mov	eax, DWORD PTR __Arg$[ebp]
; Line 80
	pop	ebp
	ret	0
??$forward@UTexCoordSet@@@std@@YA$$QAUTexCoordSet@@AAU1@@Z ENDP ; std::forward<TexCoordSet>
_TEXT	ENDS
PUBLIC	??$forward@U?$pair@II@std@@@std@@YA$$QAU?$pair@II@0@AAU10@@Z ; std::forward<std::pair<unsigned int,unsigned int> >
; Function compile flags: /Ogtp
;	COMDAT ??$forward@U?$pair@II@std@@@std@@YA$$QAU?$pair@II@0@AAU10@@Z
_TEXT	SEGMENT
__Arg$ = 8						; size = 4
??$forward@U?$pair@II@std@@@std@@YA$$QAU?$pair@II@0@AAU10@@Z PROC ; std::forward<std::pair<unsigned int,unsigned int> >, COMDAT
; Line 78
	push	ebp
	mov	ebp, esp
; Line 79
	mov	eax, DWORD PTR __Arg$[ebp]
; Line 80
	pop	ebp
	ret	0
??$forward@U?$pair@II@std@@@std@@YA$$QAU?$pair@II@0@AAU10@@Z ENDP ; std::forward<std::pair<unsigned int,unsigned int> >
_TEXT	ENDS
PUBLIC	??$forward@VVec3D@@@std@@YA$$QAVVec3D@@AAV1@@Z	; std::forward<Vec3D>
; Function compile flags: /Ogtp
;	COMDAT ??$forward@VVec3D@@@std@@YA$$QAVVec3D@@AAV1@@Z
_TEXT	SEGMENT
__Arg$ = 8						; size = 4
??$forward@VVec3D@@@std@@YA$$QAVVec3D@@AAV1@@Z PROC	; std::forward<Vec3D>, COMDAT
; Line 78
	push	ebp
	mov	ebp, esp
; Line 79
	mov	eax, DWORD PTR __Arg$[ebp]
; Line 80
	pop	ebp
	ret	0
??$forward@VVec3D@@@std@@YA$$QAVVec3D@@AAV1@@Z ENDP	; std::forward<Vec3D>
_TEXT	ENDS
PUBLIC	??$forward@I@std@@YA$$QAIAAI@Z			; std::forward<unsigned int>
; Function compile flags: /Ogtp
;	COMDAT ??$forward@I@std@@YA$$QAIAAI@Z
_TEXT	SEGMENT
__Arg$ = 8						; size = 4
??$forward@I@std@@YA$$QAIAAI@Z PROC			; std::forward<unsigned int>, COMDAT
; Line 78
	push	ebp
	mov	ebp, esp
; Line 79
	mov	eax, DWORD PTR __Arg$[ebp]
; Line 80
	pop	ebp
	ret	0
??$forward@I@std@@YA$$QAIAAI@Z ENDP			; std::forward<unsigned int>
_TEXT	ENDS
PUBLIC	??$move@AAI@std@@YA$$QAIAAI@Z			; std::move<unsigned int &>
; Function compile flags: /Ogtp
;	COMDAT ??$move@AAI@std@@YA$$QAIAAI@Z
_TEXT	SEGMENT
__Arg$ = 8						; size = 4
??$move@AAI@std@@YA$$QAIAAI@Z PROC			; std::move<unsigned int &>, COMDAT
; Line 86
	push	ebp
	mov	ebp, esp
; Line 87
	mov	eax, DWORD PTR __Arg$[ebp]
; Line 88
	pop	ebp
	ret	0
??$move@AAI@std@@YA$$QAIAAI@Z ENDP			; std::move<unsigned int &>
_TEXT	ENDS
PUBLIC	??0TexCoordSet@@QAE@XZ				; TexCoordSet::TexCoordSet
; Function compile flags: /Ogtp
;	COMDAT ??0TexCoordSet@@QAE@XZ
_TEXT	SEGMENT
??0TexCoordSet@@QAE@XZ PROC				; TexCoordSet::TexCoordSet, COMDAT
; _this$ = ecx
	mov	eax, ecx
	xor	ecx, ecx
	mov	DWORD PTR [eax], ecx
	mov	DWORD PTR [eax+4], ecx
	mov	DWORD PTR [eax+8], ecx
	mov	DWORD PTR [eax+12], ecx
	mov	DWORD PTR [eax+16], ecx
	mov	DWORD PTR [eax+20], ecx
	mov	DWORD PTR [eax+24], ecx
	mov	DWORD PTR [eax+28], ecx
	ret	0
??0TexCoordSet@@QAE@XZ ENDP				; TexCoordSet::TexCoordSet
_TEXT	ENDS
PUBLIC	??E?$_List_iterator@V?$_List_val@UParticle@@V?$allocator@UParticle@@@std@@@std@@@std@@QAEAAV01@XZ ; std::_List_iterator<std::_List_val<Particle,std::allocator<Particle> > >::operator++
; Function compile flags: /Ogtp
;	COMDAT ??E?$_List_iterator@V?$_List_val@UParticle@@V?$allocator@UParticle@@@std@@@std@@@std@@QAEAAV01@XZ
_TEXT	SEGMENT
??E?$_List_iterator@V?$_List_val@UParticle@@V?$allocator@UParticle@@@std@@@std@@@std@@QAEAAV01@XZ PROC ; std::_List_iterator<std::_List_val<Particle,std::allocator<Particle> > >::operator++, COMDAT
; _this$ = ecx
; File c:\program files (x86)\microsoft visual studio 10.0\vc\include\list
; Line 369
	mov	eax, ecx
; Line 370
	mov	ecx, DWORD PTR [eax]
	mov	edx, DWORD PTR [ecx]
	mov	DWORD PTR [eax], edx
; Line 372
	ret	0
??E?$_List_iterator@V?$_List_val@UParticle@@V?$allocator@UParticle@@@std@@@std@@@std@@QAEAAV01@XZ ENDP ; std::_List_iterator<std::_List_val<Particle,std::allocator<Particle> > >::operator++
_TEXT	ENDS
PUBLIC	??E?$_List_iterator@V?$_List_val@UParticle@@V?$allocator@UParticle@@@std@@@std@@@std@@QAE?AV01@H@Z ; std::_List_iterator<std::_List_val<Particle,std::allocator<Particle> > >::operator++
; Function compile flags: /Ogtp
;	COMDAT ??E?$_List_iterator@V?$_List_val@UParticle@@V?$allocator@UParticle@@@std@@@std@@@std@@QAE?AV01@H@Z
_TEXT	SEGMENT
___$ReturnUdt$ = 8					; size = 4
___formal$ = 12						; size = 4
??E?$_List_iterator@V?$_List_val@UParticle@@V?$allocator@UParticle@@@std@@@std@@@std@@QAE?AV01@H@Z PROC ; std::_List_iterator<std::_List_val<Particle,std::allocator<Particle> > >::operator++, COMDAT
; _this$ = ecx
; Line 375
	push	ebp
	mov	ebp, esp
; Line 376
	mov	edx, DWORD PTR [ecx]
	mov	eax, DWORD PTR ___$ReturnUdt$[ebp]
	mov	DWORD PTR [eax], edx
; Line 377
	mov	edx, DWORD PTR [edx]
	mov	DWORD PTR [ecx], edx
; Line 379
	pop	ebp
	ret	8
??E?$_List_iterator@V?$_List_val@UParticle@@V?$allocator@UParticle@@@std@@@std@@@std@@QAE?AV01@H@Z ENDP ; std::_List_iterator<std::_List_val<Particle,std::allocator<Particle> > >::operator++
_TEXT	ENDS
PUBLIC	??9?$_List_const_iterator@V?$_List_val@UParticle@@V?$allocator@UParticle@@@std@@@std@@@std@@QBE_NABV01@@Z ; std::_List_const_iterator<std::_List_val<Particle,std::allocator<Particle> > >::operator!=
; Function compile flags: /Ogtp
;	COMDAT ??9?$_List_const_iterator@V?$_List_val@UParticle@@V?$allocator@UParticle@@@std@@@std@@@std@@QBE_NABV01@@Z
_TEXT	SEGMENT
__Right$ = 8						; size = 4
??9?$_List_const_iterator@V?$_List_val@UParticle@@V?$allocator@UParticle@@@std@@@std@@@std@@QBE_NABV01@@Z PROC ; std::_List_const_iterator<std::_List_val<Particle,std::allocator<Particle> > >::operator!=, COMDAT
; _this$ = ecx
; Line 299
	push	ebp
	mov	ebp, esp
; Line 300
	mov	eax, DWORD PTR [ecx]
	mov	edx, DWORD PTR __Right$[ebp]
	xor	ecx, ecx
	cmp	eax, DWORD PTR [edx]
	setne	al
; Line 301
	pop	ebp
	ret	4
??9?$_List_const_iterator@V?$_List_val@UParticle@@V?$allocator@UParticle@@@std@@@std@@@std@@QBE_NABV01@@Z ENDP ; std::_List_const_iterator<std::_List_val<Particle,std::allocator<Particle> > >::operator!=
_TEXT	ENDS
PUBLIC	??E?$_List_iterator@V?$_List_val@URibbonSegment@@V?$allocator@URibbonSegment@@@std@@@std@@@std@@QAEAAV01@XZ ; std::_List_iterator<std::_List_val<RibbonSegment,std::allocator<RibbonSegment> > >::operator++
; Function compile flags: /Ogtp
;	COMDAT ??E?$_List_iterator@V?$_List_val@URibbonSegment@@V?$allocator@URibbonSegment@@@std@@@std@@@std@@QAEAAV01@XZ
_TEXT	SEGMENT
??E?$_List_iterator@V?$_List_val@URibbonSegment@@V?$allocator@URibbonSegment@@@std@@@std@@@std@@QAEAAV01@XZ PROC ; std::_List_iterator<std::_List_val<RibbonSegment,std::allocator<RibbonSegment> > >::operator++, COMDAT
; _this$ = ecx
; Line 369
	mov	eax, ecx
; Line 370
	mov	ecx, DWORD PTR [eax]
	mov	edx, DWORD PTR [ecx]
	mov	DWORD PTR [eax], edx
; Line 372
	ret	0
??E?$_List_iterator@V?$_List_val@URibbonSegment@@V?$allocator@URibbonSegment@@@std@@@std@@@std@@QAEAAV01@XZ ENDP ; std::_List_iterator<std::_List_val<RibbonSegment,std::allocator<RibbonSegment> > >::operator++
_TEXT	ENDS
PUBLIC	??E?$_List_iterator@V?$_List_val@URibbonSegment@@V?$allocator@URibbonSegment@@@std@@@std@@@std@@QAE?AV01@H@Z ; std::_List_iterator<std::_List_val<RibbonSegment,std::allocator<RibbonSegment> > >::operator++
; Function compile flags: /Ogtp
;	COMDAT ??E?$_List_iterator@V?$_List_val@URibbonSegment@@V?$allocator@URibbonSegment@@@std@@@std@@@std@@QAE?AV01@H@Z
_TEXT	SEGMENT
___$ReturnUdt$ = 8					; size = 4
___formal$ = 12						; size = 4
??E?$_List_iterator@V?$_List_val@URibbonSegment@@V?$allocator@URibbonSegment@@@std@@@std@@@std@@QAE?AV01@H@Z PROC ; std::_List_iterator<std::_List_val<RibbonSegment,std::allocator<RibbonSegment> > >::operator++, COMDAT
; _this$ = ecx
; Line 375
	push	ebp
	mov	ebp, esp
; Line 376
	mov	edx, DWORD PTR [ecx]
	mov	eax, DWORD PTR ___$ReturnUdt$[ebp]
	mov	DWORD PTR [eax], edx
; Line 377
	mov	edx, DWORD PTR [edx]
	mov	DWORD PTR [ecx], edx
; Line 379
	pop	ebp
	ret	8
??E?$_List_iterator@V?$_List_val@URibbonSegment@@V?$allocator@URibbonSegment@@@std@@@std@@@std@@QAE?AV01@H@Z ENDP ; std::_List_iterator<std::_List_val<RibbonSegment,std::allocator<RibbonSegment> > >::operator++
_TEXT	ENDS
PUBLIC	??F?$_List_iterator@V?$_List_val@URibbonSegment@@V?$allocator@URibbonSegment@@@std@@@std@@@std@@QAEAAV01@XZ ; std::_List_iterator<std::_List_val<RibbonSegment,std::allocator<RibbonSegment> > >::operator--
; Function compile flags: /Ogtp
;	COMDAT ??F?$_List_iterator@V?$_List_val@URibbonSegment@@V?$allocator@URibbonSegment@@@std@@@std@@@std@@QAEAAV01@XZ
_TEXT	SEGMENT
??F?$_List_iterator@V?$_List_val@URibbonSegment@@V?$allocator@URibbonSegment@@@std@@@std@@@std@@QAEAAV01@XZ PROC ; std::_List_iterator<std::_List_val<RibbonSegment,std::allocator<RibbonSegment> > >::operator--, COMDAT
; _this$ = ecx
; Line 382
	mov	eax, ecx
; Line 383
	mov	ecx, DWORD PTR [eax]
	mov	edx, DWORD PTR [ecx+4]
	mov	DWORD PTR [eax], edx
; Line 385
	ret	0
??F?$_List_iterator@V?$_List_val@URibbonSegment@@V?$allocator@URibbonSegment@@@std@@@std@@@std@@QAEAAV01@XZ ENDP ; std::_List_iterator<std::_List_val<RibbonSegment,std::allocator<RibbonSegment> > >::operator--
_TEXT	ENDS
PUBLIC	??9?$_List_const_iterator@V?$_List_val@URibbonSegment@@V?$allocator@URibbonSegment@@@std@@@std@@@std@@QBE_NABV01@@Z ; std::_List_const_iterator<std::_List_val<RibbonSegment,std::allocator<RibbonSegment> > >::operator!=
; Function compile flags: /Ogtp
;	COMDAT ??9?$_List_const_iterator@V?$_List_val@URibbonSegment@@V?$allocator@URibbonSegment@@@std@@@std@@@std@@QBE_NABV01@@Z
_TEXT	SEGMENT
__Right$ = 8						; size = 4
??9?$_List_const_iterator@V?$_List_val@URibbonSegment@@V?$allocator@URibbonSegment@@@std@@@std@@@std@@QBE_NABV01@@Z PROC ; std::_List_const_iterator<std::_List_val<RibbonSegment,std::allocator<RibbonSegment> > >::operator!=, COMDAT
; _this$ = ecx
; Line 299
	push	ebp
	mov	ebp, esp
; Line 300
	mov	eax, DWORD PTR [ecx]
	mov	edx, DWORD PTR __Right$[ebp]
	xor	ecx, ecx
	cmp	eax, DWORD PTR [edx]
	setne	al
; Line 301
	pop	ebp
	ret	4
??9?$_List_const_iterator@V?$_List_val@URibbonSegment@@V?$allocator@URibbonSegment@@@std@@@std@@@std@@QBE_NABV01@@Z ENDP ; std::_List_const_iterator<std::_List_val<RibbonSegment,std::allocator<RibbonSegment> > >::operator!=
_TEXT	ENDS
PUBLIC	??D?$_List_const_iterator@V?$_List_val@UParticle@@V?$allocator@UParticle@@@std@@@std@@@std@@QBEABUParticle@@XZ ; std::_List_const_iterator<std::_List_val<Particle,std::allocator<Particle> > >::operator*
; Function compile flags: /Ogtp
;	COMDAT ??D?$_List_const_iterator@V?$_List_val@UParticle@@V?$allocator@UParticle@@@std@@@std@@@std@@QBEABUParticle@@XZ
_TEXT	SEGMENT
??D?$_List_const_iterator@V?$_List_val@UParticle@@V?$allocator@UParticle@@@std@@@std@@@std@@QBEABUParticle@@XZ PROC ; std::_List_const_iterator<std::_List_val<Particle,std::allocator<Particle> > >::operator*, COMDAT
; _this$ = ecx
; Line 217
	mov	eax, DWORD PTR [ecx]
	add	eax, 8
; Line 218
	ret	0
??D?$_List_const_iterator@V?$_List_val@UParticle@@V?$allocator@UParticle@@@std@@@std@@@std@@QBEABUParticle@@XZ ENDP ; std::_List_const_iterator<std::_List_val<Particle,std::allocator<Particle> > >::operator*
_TEXT	ENDS
PUBLIC	??D?$_List_const_iterator@V?$_List_val@URibbonSegment@@V?$allocator@URibbonSegment@@@std@@@std@@@std@@QBEABURibbonSegment@@XZ ; std::_List_const_iterator<std::_List_val<RibbonSegment,std::allocator<RibbonSegment> > >::operator*
; Function compile flags: /Ogtp
;	COMDAT ??D?$_List_const_iterator@V?$_List_val@URibbonSegment@@V?$allocator@URibbonSegment@@@std@@@std@@@std@@QBEABURibbonSegment@@XZ
_TEXT	SEGMENT
??D?$_List_const_iterator@V?$_List_val@URibbonSegment@@V?$allocator@URibbonSegment@@@std@@@std@@@std@@QBEABURibbonSegment@@XZ PROC ; std::_List_const_iterator<std::_List_val<RibbonSegment,std::allocator<RibbonSegment> > >::operator*, COMDAT
; _this$ = ecx
; Line 217
	mov	eax, DWORD PTR [ecx]
	add	eax, 8
; Line 218
	ret	0
??D?$_List_const_iterator@V?$_List_val@URibbonSegment@@V?$allocator@URibbonSegment@@@std@@@std@@@std@@QBEABURibbonSegment@@XZ ENDP ; std::_List_const_iterator<std::_List_val<RibbonSegment,std::allocator<RibbonSegment> > >::operator*
_TEXT	ENDS
PUBLIC	??0?$pair@II@std@@QAE@XZ			; std::pair<unsigned int,unsigned int>::pair<unsigned int,unsigned int>
; Function compile flags: /Ogtp
;	COMDAT ??0?$pair@II@std@@QAE@XZ
_TEXT	SEGMENT
??0?$pair@II@std@@QAE@XZ PROC				; std::pair<unsigned int,unsigned int>::pair<unsigned int,unsigned int>, COMDAT
; _this$ = ecx
; File c:\program files (x86)\microsoft visual studio 10.0\vc\include\utility
; Line 183
	mov	eax, ecx
	mov	DWORD PTR [eax], 0
	mov	DWORD PTR [eax+4], 0
; Line 184
	ret	0
??0?$pair@II@std@@QAE@XZ ENDP				; std::pair<unsigned int,unsigned int>::pair<unsigned int,unsigned int>
_TEXT	ENDS
PUBLIC	?allocate@?$allocator@U_Node@?$_List_nod@UParticle@@V?$allocator@UParticle@@@std@@@std@@@std@@QAEPAU_Node@?$_List_nod@UParticle@@V?$allocator@UParticle@@@std@@@2@I@Z ; std::allocator<std::_List_nod<Particle,std::allocator<Particle> >::_Node>::allocate
; Function compile flags: /Ogtp
;	COMDAT ?allocate@?$allocator@U_Node@?$_List_nod@UParticle@@V?$allocator@UParticle@@@std@@@std@@@std@@QAEPAU_Node@?$_List_nod@UParticle@@V?$allocator@UParticle@@@std@@@2@I@Z
_TEXT	SEGMENT
$T90639 = -12						; size = 12
$T90631 = 8						; size = 4
__Count$ = 8						; size = 4
?allocate@?$allocator@U_Node@?$_List_nod@UParticle@@V?$allocator@UParticle@@@std@@@std@@@std@@QAEPAU_Node@?$_List_nod@UParticle@@V?$allocator@UParticle@@@std@@@2@I@Z PROC ; std::allocator<std::_List_nod<Particle,std::allocator<Particle> >::_Node>::allocate, COMDAT
; _this$ = ecx
; File c:\program files (x86)\microsoft visual studio 10.0\vc\include\xmemory
; Line 186
	push	ebp
	mov	ebp, esp
; Line 187
	mov	ecx, DWORD PTR __Count$[ebp]
	sub	esp, 12					; 0000000cH
	xor	eax, eax
	test	ecx, ecx
	je	SHORT $LN1@allocate
	cmp	ecx, 48806446				; 02e8ba2eH
	ja	SHORT $LN3@allocate
	imul	ecx, 88					; 00000058H
	push	ecx
	call	??2@YAPAXI@Z				; operator new
	add	esp, 4
	test	eax, eax
	jne	SHORT $LN1@allocate
$LN3@allocate:
	lea	eax, DWORD PTR $T90631[ebp]
	push	eax
	lea	ecx, DWORD PTR $T90639[ebp]
	mov	DWORD PTR $T90631[ebp], 0
	call	DWORD PTR __imp_??0exception@std@@QAE@ABQBD@Z
	push	OFFSET __TI2?AVbad_alloc@std@@
	lea	ecx, DWORD PTR $T90639[ebp]
	push	ecx
	mov	DWORD PTR $T90639[ebp], OFFSET ??_7bad_alloc@std@@6B@
	call	__CxxThrowException@8
$LN13@allocate:
$LN1@allocate:
; Line 188
	mov	esp, ebp
	pop	ebp
	ret	4
$LN12@allocate:
?allocate@?$allocator@U_Node@?$_List_nod@UParticle@@V?$allocator@UParticle@@@std@@@std@@@std@@QAEPAU_Node@?$_List_nod@UParticle@@V?$allocator@UParticle@@@std@@@2@I@Z ENDP ; std::allocator<std::_List_nod<Particle,std::allocator<Particle> >::_Node>::allocate
_TEXT	ENDS
PUBLIC	?max_size@?$vector@UTexCoordSet@@V?$allocator@UTexCoordSet@@@std@@@std@@QBEIXZ ; std::vector<TexCoordSet,std::allocator<TexCoordSet> >::max_size
; Function compile flags: /Ogtp
;	COMDAT ?max_size@?$vector@UTexCoordSet@@V?$allocator@UTexCoordSet@@@std@@@std@@QBEIXZ
_TEXT	SEGMENT
?max_size@?$vector@UTexCoordSet@@V?$allocator@UTexCoordSet@@@std@@@std@@QBEIXZ PROC ; std::vector<TexCoordSet,std::allocator<TexCoordSet> >::max_size, COMDAT
; _this$ = ecx
; File c:\program files (x86)\microsoft visual studio 10.0\vc\include\vector
; Line 884
	mov	eax, 134217727				; 07ffffffH
; Line 885
	ret	0
?max_size@?$vector@UTexCoordSet@@V?$allocator@UTexCoordSet@@@std@@@std@@QBEIXZ ENDP ; std::vector<TexCoordSet,std::allocator<TexCoordSet> >::max_size
_TEXT	ENDS
PUBLIC	?_Grow_to@?$vector@UTexCoordSet@@V?$allocator@UTexCoordSet@@@std@@@std@@IBEII@Z ; std::vector<TexCoordSet,std::allocator<TexCoordSet> >::_Grow_to
; Function compile flags: /Ogtp
;	COMDAT ?_Grow_to@?$vector@UTexCoordSet@@V?$allocator@UTexCoordSet@@@std@@@std@@IBEII@Z
_TEXT	SEGMENT
__Count$ = 8						; size = 4
?_Grow_to@?$vector@UTexCoordSet@@V?$allocator@UTexCoordSet@@@std@@@std@@IBEII@Z PROC ; std::vector<TexCoordSet,std::allocator<TexCoordSet> >::_Grow_to, COMDAT
; _this$ = ecx
; Line 1274
	push	ebp
	mov	ebp, esp
; Line 1275
	mov	eax, DWORD PTR [ecx+8]
	sub	eax, DWORD PTR [ecx]
; Line 1278
	mov	edx, 134217727				; 07ffffffH
	sar	eax, 5
	mov	ecx, eax
	shr	ecx, 1
	sub	edx, ecx
	cmp	edx, eax
	jae	SHORT $LN4@Grow_to
	xor	eax, eax
	jmp	SHORT $LN5@Grow_to
$LN4@Grow_to:
	add	eax, ecx
$LN5@Grow_to:
; Line 1279
	mov	ecx, DWORD PTR __Count$[ebp]
	cmp	eax, ecx
	jae	SHORT $LN1@Grow_to
; Line 1281
	mov	eax, ecx
$LN1@Grow_to:
; Line 1282
	pop	ebp
	ret	4
?_Grow_to@?$vector@UTexCoordSet@@V?$allocator@UTexCoordSet@@@std@@@std@@IBEII@Z ENDP ; std::vector<TexCoordSet,std::allocator<TexCoordSet> >::_Grow_to
_TEXT	ENDS
PUBLIC	??0?$_List_const_iterator@V?$_List_val@UParticle@@V?$allocator@UParticle@@@std@@@std@@@std@@QAE@PAU_Node@?$_List_nod@UParticle@@V?$allocator@UParticle@@@std@@@1@PBV?$_List_val@UParticle@@V?$allocator@UParticle@@@std@@@1@@Z ; std::_List_const_iterator<std::_List_val<Particle,std::allocator<Particle> > >::_List_const_iterator<std::_List_val<Particle,std::allocator<Particle> > >
; Function compile flags: /Ogtp
;	COMDAT ??0?$_List_const_iterator@V?$_List_val@UParticle@@V?$allocator@UParticle@@@std@@@std@@@std@@QAE@PAU_Node@?$_List_nod@UParticle@@V?$allocator@UParticle@@@std@@@1@PBV?$_List_val@UParticle@@V?$allocator@UParticle@@@std@@@1@@Z
_TEXT	SEGMENT
__Pnode$ = 8						; size = 4
__Plist$ = 12						; size = 4
??0?$_List_const_iterator@V?$_List_val@UParticle@@V?$allocator@UParticle@@@std@@@std@@@std@@QAE@PAU_Node@?$_List_nod@UParticle@@V?$allocator@UParticle@@@std@@@1@PBV?$_List_val@UParticle@@V?$allocator@UParticle@@@std@@@1@@Z PROC ; std::_List_const_iterator<std::_List_val<Particle,std::allocator<Particle> > >::_List_const_iterator<std::_List_val<Particle,std::allocator<Particle> > >, COMDAT
; _this$ = ecx
; File c:\program files (x86)\microsoft visual studio 10.0\vc\include\list
; Line 184
	push	ebp
	mov	ebp, esp
	mov	eax, ecx
	mov	ecx, DWORD PTR __Pnode$[ebp]
	mov	DWORD PTR [eax], ecx
; Line 185
	pop	ebp
	ret	8
??0?$_List_const_iterator@V?$_List_val@UParticle@@V?$allocator@UParticle@@@std@@@std@@@std@@QAE@PAU_Node@?$_List_nod@UParticle@@V?$allocator@UParticle@@@std@@@1@PBV?$_List_val@UParticle@@V?$allocator@UParticle@@@std@@@1@@Z ENDP ; std::_List_const_iterator<std::_List_val<Particle,std::allocator<Particle> > >::_List_const_iterator<std::_List_val<Particle,std::allocator<Particle> > >
_TEXT	ENDS
PUBLIC	??0?$_List_const_iterator@V?$_List_val@URibbonSegment@@V?$allocator@URibbonSegment@@@std@@@std@@@std@@QAE@PAU_Node@?$_List_nod@URibbonSegment@@V?$allocator@URibbonSegment@@@std@@@1@PBV?$_List_val@URibbonSegment@@V?$allocator@URibbonSegment@@@std@@@1@@Z ; std::_List_const_iterator<std::_List_val<RibbonSegment,std::allocator<RibbonSegment> > >::_List_const_iterator<std::_List_val<RibbonSegment,std::allocator<RibbonSegment> > >
; Function compile flags: /Ogtp
;	COMDAT ??0?$_List_const_iterator@V?$_List_val@URibbonSegment@@V?$allocator@URibbonSegment@@@std@@@std@@@std@@QAE@PAU_Node@?$_List_nod@URibbonSegment@@V?$allocator@URibbonSegment@@@std@@@1@PBV?$_List_val@URibbonSegment@@V?$allocator@URibbonSegment@@@std@@@1@@Z
_TEXT	SEGMENT
__Pnode$ = 8						; size = 4
__Plist$ = 12						; size = 4
??0?$_List_const_iterator@V?$_List_val@URibbonSegment@@V?$allocator@URibbonSegment@@@std@@@std@@@std@@QAE@PAU_Node@?$_List_nod@URibbonSegment@@V?$allocator@URibbonSegment@@@std@@@1@PBV?$_List_val@URibbonSegment@@V?$allocator@URibbonSegment@@@std@@@1@@Z PROC ; std::_List_const_iterator<std::_List_val<RibbonSegment,std::allocator<RibbonSegment> > >::_List_const_iterator<std::_List_val<RibbonSegment,std::allocator<RibbonSegment> > >, COMDAT
; _this$ = ecx
; Line 184
	push	ebp
	mov	ebp, esp
	mov	eax, ecx
	mov	ecx, DWORD PTR __Pnode$[ebp]
	mov	DWORD PTR [eax], ecx
; Line 185
	pop	ebp
	ret	8
??0?$_List_const_iterator@V?$_List_val@URibbonSegment@@V?$allocator@URibbonSegment@@@std@@@std@@@std@@QAE@PAU_Node@?$_List_nod@URibbonSegment@@V?$allocator@URibbonSegment@@@std@@@1@PBV?$_List_val@URibbonSegment@@V?$allocator@URibbonSegment@@@std@@@1@@Z ENDP ; std::_List_const_iterator<std::_List_val<RibbonSegment,std::allocator<RibbonSegment> > >::_List_const_iterator<std::_List_val<RibbonSegment,std::allocator<RibbonSegment> > >
_TEXT	ENDS
PUBLIC	?max_size@?$vector@U?$pair@II@std@@V?$allocator@U?$pair@II@std@@@2@@std@@QBEIXZ ; std::vector<std::pair<unsigned int,unsigned int>,std::allocator<std::pair<unsigned int,unsigned int> > >::max_size
; Function compile flags: /Ogtp
;	COMDAT ?max_size@?$vector@U?$pair@II@std@@V?$allocator@U?$pair@II@std@@@2@@std@@QBEIXZ
_TEXT	SEGMENT
?max_size@?$vector@U?$pair@II@std@@V?$allocator@U?$pair@II@std@@@2@@std@@QBEIXZ PROC ; std::vector<std::pair<unsigned int,unsigned int>,std::allocator<std::pair<unsigned int,unsigned int> > >::max_size, COMDAT
; _this$ = ecx
; File c:\program files (x86)\microsoft visual studio 10.0\vc\include\vector
; Line 884
	mov	eax, 536870911				; 1fffffffH
; Line 885
	ret	0
?max_size@?$vector@U?$pair@II@std@@V?$allocator@U?$pair@II@std@@@2@@std@@QBEIXZ ENDP ; std::vector<std::pair<unsigned int,unsigned int>,std::allocator<std::pair<unsigned int,unsigned int> > >::max_size
_TEXT	ENDS
PUBLIC	?_Grow_to@?$vector@U?$pair@II@std@@V?$allocator@U?$pair@II@std@@@2@@std@@IBEII@Z ; std::vector<std::pair<unsigned int,unsigned int>,std::allocator<std::pair<unsigned int,unsigned int> > >::_Grow_to
; Function compile flags: /Ogtp
;	COMDAT ?_Grow_to@?$vector@U?$pair@II@std@@V?$allocator@U?$pair@II@std@@@2@@std@@IBEII@Z
_TEXT	SEGMENT
__Count$ = 8						; size = 4
?_Grow_to@?$vector@U?$pair@II@std@@V?$allocator@U?$pair@II@std@@@2@@std@@IBEII@Z PROC ; std::vector<std::pair<unsigned int,unsigned int>,std::allocator<std::pair<unsigned int,unsigned int> > >::_Grow_to, COMDAT
; _this$ = ecx
; Line 1274
	push	ebp
	mov	ebp, esp
; Line 1275
	mov	eax, DWORD PTR [ecx+8]
	sub	eax, DWORD PTR [ecx]
; Line 1278
	mov	edx, 536870911				; 1fffffffH
	sar	eax, 3
	mov	ecx, eax
	shr	ecx, 1
	sub	edx, ecx
	cmp	edx, eax
	jae	SHORT $LN4@Grow_to@2
	xor	eax, eax
	jmp	SHORT $LN5@Grow_to@2
$LN4@Grow_to@2:
	add	eax, ecx
$LN5@Grow_to@2:
; Line 1279
	mov	ecx, DWORD PTR __Count$[ebp]
	cmp	eax, ecx
	jae	SHORT $LN1@Grow_to@2
; Line 1281
	mov	eax, ecx
$LN1@Grow_to@2:
; Line 1282
	pop	ebp
	ret	4
?_Grow_to@?$vector@U?$pair@II@std@@V?$allocator@U?$pair@II@std@@@2@@std@@IBEII@Z ENDP ; std::vector<std::pair<unsigned int,unsigned int>,std::allocator<std::pair<unsigned int,unsigned int> > >::_Grow_to
_TEXT	ENDS
PUBLIC	?max_size@?$vector@HV?$allocator@H@std@@@std@@QBEIXZ ; std::vector<int,std::allocator<int> >::max_size
; Function compile flags: /Ogtp
;	COMDAT ?max_size@?$vector@HV?$allocator@H@std@@@std@@QBEIXZ
_TEXT	SEGMENT
?max_size@?$vector@HV?$allocator@H@std@@@std@@QBEIXZ PROC ; std::vector<int,std::allocator<int> >::max_size, COMDAT
; _this$ = ecx
; Line 884
	mov	eax, 1073741823				; 3fffffffH
; Line 885
	ret	0
?max_size@?$vector@HV?$allocator@H@std@@@std@@QBEIXZ ENDP ; std::vector<int,std::allocator<int> >::max_size
_TEXT	ENDS
PUBLIC	?_Grow_to@?$vector@HV?$allocator@H@std@@@std@@IBEII@Z ; std::vector<int,std::allocator<int> >::_Grow_to
; Function compile flags: /Ogtp
;	COMDAT ?_Grow_to@?$vector@HV?$allocator@H@std@@@std@@IBEII@Z
_TEXT	SEGMENT
__Count$ = 8						; size = 4
?_Grow_to@?$vector@HV?$allocator@H@std@@@std@@IBEII@Z PROC ; std::vector<int,std::allocator<int> >::_Grow_to, COMDAT
; _this$ = ecx
; Line 1274
	push	ebp
	mov	ebp, esp
; Line 1275
	mov	eax, DWORD PTR [ecx+8]
	sub	eax, DWORD PTR [ecx]
; Line 1278
	mov	edx, 1073741823				; 3fffffffH
	sar	eax, 2
	mov	ecx, eax
	shr	ecx, 1
	sub	edx, ecx
	cmp	edx, eax
	jae	SHORT $LN4@Grow_to@3
	xor	eax, eax
	jmp	SHORT $LN5@Grow_to@3
$LN4@Grow_to@3:
	add	eax, ecx
$LN5@Grow_to@3:
; Line 1279
	mov	ecx, DWORD PTR __Count$[ebp]
	cmp	eax, ecx
	jae	SHORT $LN1@Grow_to@3
; Line 1281
	mov	eax, ecx
$LN1@Grow_to@3:
; Line 1282
	pop	ebp
	ret	4
?_Grow_to@?$vector@HV?$allocator@H@std@@@std@@IBEII@Z ENDP ; std::vector<int,std::allocator<int> >::_Grow_to
_TEXT	ENDS
PUBLIC	?max_size@?$vector@VVec3D@@V?$allocator@VVec3D@@@std@@@std@@QBEIXZ ; std::vector<Vec3D,std::allocator<Vec3D> >::max_size
; Function compile flags: /Ogtp
;	COMDAT ?max_size@?$vector@VVec3D@@V?$allocator@VVec3D@@@std@@@std@@QBEIXZ
_TEXT	SEGMENT
?max_size@?$vector@VVec3D@@V?$allocator@VVec3D@@@std@@@std@@QBEIXZ PROC ; std::vector<Vec3D,std::allocator<Vec3D> >::max_size, COMDAT
; _this$ = ecx
; Line 884
	mov	eax, 357913941				; 15555555H
; Line 885
	ret	0
?max_size@?$vector@VVec3D@@V?$allocator@VVec3D@@@std@@@std@@QBEIXZ ENDP ; std::vector<Vec3D,std::allocator<Vec3D> >::max_size
_TEXT	ENDS
PUBLIC	?_Grow_to@?$vector@VVec3D@@V?$allocator@VVec3D@@@std@@@std@@IBEII@Z ; std::vector<Vec3D,std::allocator<Vec3D> >::_Grow_to
; Function compile flags: /Ogtp
;	COMDAT ?_Grow_to@?$vector@VVec3D@@V?$allocator@VVec3D@@@std@@@std@@IBEII@Z
_TEXT	SEGMENT
__Count$ = 8						; size = 4
?_Grow_to@?$vector@VVec3D@@V?$allocator@VVec3D@@@std@@@std@@IBEII@Z PROC ; std::vector<Vec3D,std::allocator<Vec3D> >::_Grow_to, COMDAT
; _this$ = ecx
; Line 1274
	push	ebp
	mov	ebp, esp
; Line 1275
	mov	edx, DWORD PTR [ecx+8]
	sub	edx, DWORD PTR [ecx]
	mov	eax, 715827883				; 2aaaaaabH
	imul	edx
	sar	edx, 1
	mov	eax, edx
	shr	eax, 31					; 0000001fH
	add	eax, edx
; Line 1278
	mov	ecx, eax
	shr	ecx, 1
	mov	edx, 357913941				; 15555555H
	sub	edx, ecx
	cmp	edx, eax
	jae	SHORT $LN4@Grow_to@4
	xor	eax, eax
	jmp	SHORT $LN5@Grow_to@4
$LN4@Grow_to@4:
	add	eax, ecx
$LN5@Grow_to@4:
; Line 1279
	mov	ecx, DWORD PTR __Count$[ebp]
	cmp	eax, ecx
	jae	SHORT $LN1@Grow_to@4
; Line 1281
	mov	eax, ecx
$LN1@Grow_to@4:
; Line 1282
	pop	ebp
	ret	4
?_Grow_to@?$vector@VVec3D@@V?$allocator@VVec3D@@@std@@@std@@IBEII@Z ENDP ; std::vector<Vec3D,std::allocator<Vec3D> >::_Grow_to
_TEXT	ENDS
PUBLIC	?max_size@?$vector@MV?$allocator@M@std@@@std@@QBEIXZ ; std::vector<float,std::allocator<float> >::max_size
; Function compile flags: /Ogtp
;	COMDAT ?max_size@?$vector@MV?$allocator@M@std@@@std@@QBEIXZ
_TEXT	SEGMENT
?max_size@?$vector@MV?$allocator@M@std@@@std@@QBEIXZ PROC ; std::vector<float,std::allocator<float> >::max_size, COMDAT
; _this$ = ecx
; Line 884
	mov	eax, 1073741823				; 3fffffffH
; Line 885
	ret	0
?max_size@?$vector@MV?$allocator@M@std@@@std@@QBEIXZ ENDP ; std::vector<float,std::allocator<float> >::max_size
_TEXT	ENDS
PUBLIC	?_Grow_to@?$vector@MV?$allocator@M@std@@@std@@IBEII@Z ; std::vector<float,std::allocator<float> >::_Grow_to
; Function compile flags: /Ogtp
;	COMDAT ?_Grow_to@?$vector@MV?$allocator@M@std@@@std@@IBEII@Z
_TEXT	SEGMENT
__Count$ = 8						; size = 4
?_Grow_to@?$vector@MV?$allocator@M@std@@@std@@IBEII@Z PROC ; std::vector<float,std::allocator<float> >::_Grow_to, COMDAT
; _this$ = ecx
; Line 1274
	push	ebp
	mov	ebp, esp
; Line 1275
	mov	eax, DWORD PTR [ecx+8]
	sub	eax, DWORD PTR [ecx]
; Line 1278
	mov	edx, 1073741823				; 3fffffffH
	sar	eax, 2
	mov	ecx, eax
	shr	ecx, 1
	sub	edx, ecx
	cmp	edx, eax
	jae	SHORT $LN4@Grow_to@5
	xor	eax, eax
	jmp	SHORT $LN5@Grow_to@5
$LN4@Grow_to@5:
	add	eax, ecx
$LN5@Grow_to@5:
; Line 1279
	mov	ecx, DWORD PTR __Count$[ebp]
	cmp	eax, ecx
	jae	SHORT $LN1@Grow_to@5
; Line 1281
	mov	eax, ecx
$LN1@Grow_to@5:
; Line 1282
	pop	ebp
	ret	4
?_Grow_to@?$vector@MV?$allocator@M@std@@@std@@IBEII@Z ENDP ; std::vector<float,std::allocator<float> >::_Grow_to
_TEXT	ENDS
PUBLIC	?max_size@?$list@UParticle@@V?$allocator@UParticle@@@std@@@std@@QBEIXZ ; std::list<Particle,std::allocator<Particle> >::max_size
; Function compile flags: /Ogtp
;	COMDAT ?max_size@?$list@UParticle@@V?$allocator@UParticle@@@std@@@std@@QBEIXZ
_TEXT	SEGMENT
?max_size@?$list@UParticle@@V?$allocator@UParticle@@@std@@@std@@QBEIXZ PROC ; std::list<Particle,std::allocator<Particle> >::max_size, COMDAT
; _this$ = ecx
; File c:\program files (x86)\microsoft visual studio 10.0\vc\include\list
; Line 882
	mov	eax, 53687091				; 03333333H
; Line 883
	ret	0
?max_size@?$list@UParticle@@V?$allocator@UParticle@@@std@@@std@@QBEIXZ ENDP ; std::list<Particle,std::allocator<Particle> >::max_size
_TEXT	ENDS
PUBLIC	?allocate@?$allocator@UTexCoordSet@@@std@@QAEPAUTexCoordSet@@I@Z ; std::allocator<TexCoordSet>::allocate
; Function compile flags: /Ogtp
;	COMDAT ?allocate@?$allocator@UTexCoordSet@@@std@@QAEPAUTexCoordSet@@I@Z
_TEXT	SEGMENT
$T90866 = -12						; size = 12
$T90860 = 8						; size = 4
__Count$ = 8						; size = 4
?allocate@?$allocator@UTexCoordSet@@@std@@QAEPAUTexCoordSet@@I@Z PROC ; std::allocator<TexCoordSet>::allocate, COMDAT
; _this$ = ecx
; File c:\program files (x86)\microsoft visual studio 10.0\vc\include\xmemory
; Line 186
	push	ebp
	mov	ebp, esp
; Line 187
	mov	ecx, DWORD PTR __Count$[ebp]
	sub	esp, 12					; 0000000cH
	xor	eax, eax
	test	ecx, ecx
	je	SHORT $LN1@allocate@2
	cmp	ecx, 134217727				; 07ffffffH
	ja	SHORT $LN3@allocate@2
	shl	ecx, 5
	push	ecx
	call	??2@YAPAXI@Z				; operator new
	add	esp, 4
	test	eax, eax
	jne	SHORT $LN1@allocate@2
$LN3@allocate@2:
	lea	eax, DWORD PTR $T90860[ebp]
	push	eax
	lea	ecx, DWORD PTR $T90866[ebp]
	mov	DWORD PTR $T90860[ebp], 0
	call	DWORD PTR __imp_??0exception@std@@QAE@ABQBD@Z
	push	OFFSET __TI2?AVbad_alloc@std@@
	lea	ecx, DWORD PTR $T90866[ebp]
	push	ecx
	mov	DWORD PTR $T90866[ebp], OFFSET ??_7bad_alloc@std@@6B@
	call	__CxxThrowException@8
$LN13@allocate@2:
$LN1@allocate@2:
; Line 188
	mov	esp, ebp
	pop	ebp
	ret	4
$LN12@allocate@2:
?allocate@?$allocator@UTexCoordSet@@@std@@QAEPAUTexCoordSet@@I@Z ENDP ; std::allocator<TexCoordSet>::allocate
_TEXT	ENDS
PUBLIC	?max_size@?$list@URibbonSegment@@V?$allocator@URibbonSegment@@@std@@@std@@QBEIXZ ; std::list<RibbonSegment,std::allocator<RibbonSegment> >::max_size
; Function compile flags: /Ogtp
;	COMDAT ?max_size@?$list@URibbonSegment@@V?$allocator@URibbonSegment@@@std@@@std@@QBEIXZ
_TEXT	SEGMENT
?max_size@?$list@URibbonSegment@@V?$allocator@URibbonSegment@@@std@@@std@@QBEIXZ PROC ; std::list<RibbonSegment,std::allocator<RibbonSegment> >::max_size, COMDAT
; _this$ = ecx
; File c:\program files (x86)\microsoft visual studio 10.0\vc\include\list
; Line 882
	mov	eax, 97612893				; 05d1745dH
; Line 883
	ret	0
?max_size@?$list@URibbonSegment@@V?$allocator@URibbonSegment@@@std@@@std@@QBEIXZ ENDP ; std::list<RibbonSegment,std::allocator<RibbonSegment> >::max_size
_TEXT	ENDS
PUBLIC	?allocate@?$allocator@U_Node@?$_List_nod@URibbonSegment@@V?$allocator@URibbonSegment@@@std@@@std@@@std@@QAEPAU_Node@?$_List_nod@URibbonSegment@@V?$allocator@URibbonSegment@@@std@@@2@I@Z ; std::allocator<std::_List_nod<RibbonSegment,std::allocator<RibbonSegment> >::_Node>::allocate
; Function compile flags: /Ogtp
;	COMDAT ?allocate@?$allocator@U_Node@?$_List_nod@URibbonSegment@@V?$allocator@URibbonSegment@@@std@@@std@@@std@@QAEPAU_Node@?$_List_nod@URibbonSegment@@V?$allocator@URibbonSegment@@@std@@@2@I@Z
_TEXT	SEGMENT
$T90902 = -12						; size = 12
$T90894 = 8						; size = 4
__Count$ = 8						; size = 4
?allocate@?$allocator@U_Node@?$_List_nod@URibbonSegment@@V?$allocator@URibbonSegment@@@std@@@std@@@std@@QAEPAU_Node@?$_List_nod@URibbonSegment@@V?$allocator@URibbonSegment@@@std@@@2@I@Z PROC ; std::allocator<std::_List_nod<RibbonSegment,std::allocator<RibbonSegment> >::_Node>::allocate, COMDAT
; _this$ = ecx
; File c:\program files (x86)\microsoft visual studio 10.0\vc\include\xmemory
; Line 186
	push	ebp
	mov	ebp, esp
; Line 187
	mov	ecx, DWORD PTR __Count$[ebp]
	sub	esp, 12					; 0000000cH
	xor	eax, eax
	test	ecx, ecx
	je	SHORT $LN1@allocate@3
	cmp	ecx, 82595524				; 04ec4ec4H
	ja	SHORT $LN3@allocate@3
	imul	ecx, 52					; 00000034H
	push	ecx
	call	??2@YAPAXI@Z				; operator new
	add	esp, 4
	test	eax, eax
	jne	SHORT $LN1@allocate@3
$LN3@allocate@3:
	lea	eax, DWORD PTR $T90894[ebp]
	push	eax
	lea	ecx, DWORD PTR $T90902[ebp]
	mov	DWORD PTR $T90894[ebp], 0
	call	DWORD PTR __imp_??0exception@std@@QAE@ABQBD@Z
	push	OFFSET __TI2?AVbad_alloc@std@@
	lea	ecx, DWORD PTR $T90902[ebp]
	push	ecx
	mov	DWORD PTR $T90902[ebp], OFFSET ??_7bad_alloc@std@@6B@
	call	__CxxThrowException@8
$LN13@allocate@3:
$LN1@allocate@3:
; Line 188
	mov	esp, ebp
	pop	ebp
	ret	4
$LN12@allocate@3:
?allocate@?$allocator@U_Node@?$_List_nod@URibbonSegment@@V?$allocator@URibbonSegment@@@std@@@std@@@std@@QAEPAU_Node@?$_List_nod@URibbonSegment@@V?$allocator@URibbonSegment@@@std@@@2@I@Z ENDP ; std::allocator<std::_List_nod<RibbonSegment,std::allocator<RibbonSegment> >::_Node>::allocate
_TEXT	ENDS
PUBLIC	?allocate@?$allocator@U?$pair@II@std@@@std@@QAEPAU?$pair@II@2@I@Z ; std::allocator<std::pair<unsigned int,unsigned int> >::allocate
; Function compile flags: /Ogtp
;	COMDAT ?allocate@?$allocator@U?$pair@II@std@@@std@@QAEPAU?$pair@II@2@I@Z
_TEXT	SEGMENT
$T90919 = -12						; size = 12
$T90917 = 8						; size = 4
__Count$ = 8						; size = 4
?allocate@?$allocator@U?$pair@II@std@@@std@@QAEPAU?$pair@II@2@I@Z PROC ; std::allocator<std::pair<unsigned int,unsigned int> >::allocate, COMDAT
; _this$ = ecx
; Line 186
	push	ebp
	mov	ebp, esp
; Line 187
	mov	ecx, DWORD PTR __Count$[ebp]
	sub	esp, 12					; 0000000cH
	xor	eax, eax
	test	ecx, ecx
	je	SHORT $LN1@allocate@4
	cmp	ecx, 536870911				; 1fffffffH
	ja	SHORT $LN3@allocate@4
	lea	eax, DWORD PTR [ecx*8]
	push	eax
	call	??2@YAPAXI@Z				; operator new
	add	esp, 4
	test	eax, eax
	jne	SHORT $LN1@allocate@4
$LN3@allocate@4:
	lea	ecx, DWORD PTR $T90917[ebp]
	push	ecx
	lea	ecx, DWORD PTR $T90919[ebp]
	mov	DWORD PTR $T90917[ebp], 0
	call	DWORD PTR __imp_??0exception@std@@QAE@ABQBD@Z
	push	OFFSET __TI2?AVbad_alloc@std@@
	lea	edx, DWORD PTR $T90919[ebp]
	push	edx
	mov	DWORD PTR $T90919[ebp], OFFSET ??_7bad_alloc@std@@6B@
	call	__CxxThrowException@8
$LN13@allocate@4:
$LN1@allocate@4:
; Line 188
	mov	esp, ebp
	pop	ebp
	ret	4
$LN12@allocate@4:
?allocate@?$allocator@U?$pair@II@std@@@std@@QAEPAU?$pair@II@2@I@Z ENDP ; std::allocator<std::pair<unsigned int,unsigned int> >::allocate
_TEXT	ENDS
PUBLIC	?allocate@?$allocator@H@std@@QAEPAHI@Z		; std::allocator<int>::allocate
; Function compile flags: /Ogtp
;	COMDAT ?allocate@?$allocator@H@std@@QAEPAHI@Z
_TEXT	SEGMENT
$T90942 = -12						; size = 12
$T90940 = 8						; size = 4
__Count$ = 8						; size = 4
?allocate@?$allocator@H@std@@QAEPAHI@Z PROC		; std::allocator<int>::allocate, COMDAT
; _this$ = ecx
; Line 186
	push	ebp
	mov	ebp, esp
; Line 187
	mov	ecx, DWORD PTR __Count$[ebp]
	sub	esp, 12					; 0000000cH
	xor	eax, eax
	test	ecx, ecx
	je	SHORT $LN1@allocate@5
	cmp	ecx, 1073741823				; 3fffffffH
	ja	SHORT $LN3@allocate@5
	lea	eax, DWORD PTR [ecx*4]
	push	eax
	call	??2@YAPAXI@Z				; operator new
	add	esp, 4
	test	eax, eax
	jne	SHORT $LN1@allocate@5
$LN3@allocate@5:
	lea	ecx, DWORD PTR $T90940[ebp]
	push	ecx
	lea	ecx, DWORD PTR $T90942[ebp]
	mov	DWORD PTR $T90940[ebp], 0
	call	DWORD PTR __imp_??0exception@std@@QAE@ABQBD@Z
	push	OFFSET __TI2?AVbad_alloc@std@@
	lea	edx, DWORD PTR $T90942[ebp]
	push	edx
	mov	DWORD PTR $T90942[ebp], OFFSET ??_7bad_alloc@std@@6B@
	call	__CxxThrowException@8
$LN13@allocate@5:
$LN1@allocate@5:
; Line 188
	mov	esp, ebp
	pop	ebp
	ret	4
$LN12@allocate@5:
?allocate@?$allocator@H@std@@QAEPAHI@Z ENDP		; std::allocator<int>::allocate
_TEXT	ENDS
PUBLIC	?allocate@?$allocator@VVec3D@@@std@@QAEPAVVec3D@@I@Z ; std::allocator<Vec3D>::allocate
; Function compile flags: /Ogtp
;	COMDAT ?allocate@?$allocator@VVec3D@@@std@@QAEPAVVec3D@@I@Z
_TEXT	SEGMENT
$T90971 = -12						; size = 12
$T90963 = 8						; size = 4
__Count$ = 8						; size = 4
?allocate@?$allocator@VVec3D@@@std@@QAEPAVVec3D@@I@Z PROC ; std::allocator<Vec3D>::allocate, COMDAT
; _this$ = ecx
; Line 186
	push	ebp
	mov	ebp, esp
; Line 187
	mov	ecx, DWORD PTR __Count$[ebp]
	sub	esp, 12					; 0000000cH
	xor	eax, eax
	test	ecx, ecx
	je	SHORT $LN1@allocate@6
	cmp	ecx, 357913941				; 15555555H
	ja	SHORT $LN3@allocate@6
	lea	eax, DWORD PTR [ecx+ecx*2]
	add	eax, eax
	add	eax, eax
	push	eax
	call	??2@YAPAXI@Z				; operator new
	add	esp, 4
	test	eax, eax
	jne	SHORT $LN1@allocate@6
$LN3@allocate@6:
	lea	ecx, DWORD PTR $T90963[ebp]
	push	ecx
	lea	ecx, DWORD PTR $T90971[ebp]
	mov	DWORD PTR $T90963[ebp], 0
	call	DWORD PTR __imp_??0exception@std@@QAE@ABQBD@Z
	push	OFFSET __TI2?AVbad_alloc@std@@
	lea	edx, DWORD PTR $T90971[ebp]
	push	edx
	mov	DWORD PTR $T90971[ebp], OFFSET ??_7bad_alloc@std@@6B@
	call	__CxxThrowException@8
$LN13@allocate@6:
$LN1@allocate@6:
; Line 188
	mov	esp, ebp
	pop	ebp
	ret	4
$LN12@allocate@6:
?allocate@?$allocator@VVec3D@@@std@@QAEPAVVec3D@@I@Z ENDP ; std::allocator<Vec3D>::allocate
_TEXT	ENDS
PUBLIC	?allocate@?$allocator@M@std@@QAEPAMI@Z		; std::allocator<float>::allocate
; Function compile flags: /Ogtp
;	COMDAT ?allocate@?$allocator@M@std@@QAEPAMI@Z
_TEXT	SEGMENT
$T90994 = -12						; size = 12
$T90986 = 8						; size = 4
__Count$ = 8						; size = 4
?allocate@?$allocator@M@std@@QAEPAMI@Z PROC		; std::allocator<float>::allocate, COMDAT
; _this$ = ecx
; Line 186
	push	ebp
	mov	ebp, esp
; Line 187
	mov	ecx, DWORD PTR __Count$[ebp]
	sub	esp, 12					; 0000000cH
	xor	eax, eax
	test	ecx, ecx
	je	SHORT $LN1@allocate@7
	cmp	ecx, 1073741823				; 3fffffffH
	ja	SHORT $LN3@allocate@7
	lea	eax, DWORD PTR [ecx*4]
	push	eax
	call	??2@YAPAXI@Z				; operator new
	add	esp, 4
	test	eax, eax
	jne	SHORT $LN1@allocate@7
$LN3@allocate@7:
	lea	ecx, DWORD PTR $T90986[ebp]
	push	ecx
	lea	ecx, DWORD PTR $T90994[ebp]
	mov	DWORD PTR $T90986[ebp], 0
	call	DWORD PTR __imp_??0exception@std@@QAE@ABQBD@Z
	push	OFFSET __TI2?AVbad_alloc@std@@
	lea	edx, DWORD PTR $T90994[ebp]
	push	edx
	mov	DWORD PTR $T90994[ebp], OFFSET ??_7bad_alloc@std@@6B@
	call	__CxxThrowException@8
$LN13@allocate@7:
$LN1@allocate@7:
; Line 188
	mov	esp, ebp
	pop	ebp
	ret	4
$LN12@allocate@7:
?allocate@?$allocator@M@std@@QAEPAMI@Z ENDP		; std::allocator<float>::allocate
_TEXT	ENDS
PUBLIC	??$lifeRamp@M@@YAMMMABM00@Z			; lifeRamp<float>
; Function compile flags: /Ogtp
;	COMDAT ??$lifeRamp@M@@YAMMMABM00@Z
_TEXT	SEGMENT
tv175 = 8						; size = 4
tv167 = 8						; size = 4
$T91011 = 8						; size = 4
$T91007 = 8						; size = 4
_life$ = 8						; size = 4
_mid$ = 12						; size = 4
_a$ = 16						; size = 4
_b$ = 20						; size = 4
_c$ = 24						; size = 4
??$lifeRamp@M@@YAMMMABM00@Z PROC			; lifeRamp<float>, COMDAT
; File c:\programovani\wow editor\test\src\editor\particle.cpp
; Line 17
	push	ebp
	mov	ebp, esp
; Line 18
	fld	DWORD PTR _life$[ebp]
	fld	DWORD PTR _mid$[ebp]
	fcom	ST(1)
	fnstsw	ax
	test	ah, 1
	jne	SHORT $LN2@lifeRamp
	fdivp	ST(1), ST(0)
	mov	eax, DWORD PTR _a$[ebp]
	mov	ecx, DWORD PTR _b$[ebp]
	fstp	DWORD PTR $T91007[ebp]
	fld	DWORD PTR $T91007[ebp]
	fld	ST(0)
	fld1
	fsubrp	ST(1), ST(0)
	fmul	DWORD PTR [eax]
	fld	DWORD PTR [ecx]
	fmulp	ST(2), ST(0)
	faddp	ST(1), ST(0)
	fstp	DWORD PTR tv175[ebp]
	fld	DWORD PTR tv175[ebp]
; Line 20
	pop	ebp
	ret	0
$LN2@lifeRamp:
; Line 19
	fld	ST(0)
	mov	edx, DWORD PTR _b$[ebp]
	fsubp	ST(2), ST(0)
	mov	eax, DWORD PTR _c$[ebp]
	fld1
	fld	ST(0)
	fsubrp	ST(2), ST(0)
	fxch	ST(2)
	fdivrp	ST(1), ST(0)
	fstp	DWORD PTR $T91011[ebp]
	fld	DWORD PTR $T91011[ebp]
	fld	ST(0)
	fsubp	ST(2), ST(0)
	fld	DWORD PTR [edx]
	fmulp	ST(2), ST(0)
	fmul	DWORD PTR [eax]
	faddp	ST(1), ST(0)
	fstp	DWORD PTR tv167[ebp]
	fld	DWORD PTR tv167[ebp]
; Line 20
	pop	ebp
	ret	0
??$lifeRamp@M@@YAMMMABM00@Z ENDP			; lifeRamp<float>
_TEXT	ENDS
PUBLIC	??$lifeRamp@VVec4D@@@@YA?AVVec4D@@MMABV0@00@Z	; lifeRamp<Vec4D>
; Function compile flags: /Ogtp
;	COMDAT ??$lifeRamp@VVec4D@@@@YA?AVVec4D@@MMABV0@00@Z
_TEXT	SEGMENT
___$ReturnUdt$ = 8					; size = 4
tv163 = 12						; size = 4
tv91 = 12						; size = 4
_life$ = 12						; size = 4
_mid$ = 16						; size = 4
_a$ = 20						; size = 4
_b$ = 24						; size = 4
_c$ = 28						; size = 4
??$lifeRamp@VVec4D@@@@YA?AVVec4D@@MMABV0@00@Z PROC	; lifeRamp<Vec4D>, COMDAT
; Line 17
	push	ebp
	mov	ebp, esp
; Line 18
	fld	DWORD PTR _life$[ebp]
	push	esi
	fld	DWORD PTR _mid$[ebp]
	mov	esi, DWORD PTR ___$ReturnUdt$[ebp]
	fcom	ST(1)
	fnstsw	ax
	test	ah, 1
	mov	eax, DWORD PTR _b$[ebp]
	jne	SHORT $LN2@lifeRamp@2
	fdivp	ST(1), ST(0)
	mov	ecx, DWORD PTR _a$[ebp]
	push	eax
	push	ecx
; Line 19
	push	ecx
	fstp	DWORD PTR tv163[ebp]
	fld	DWORD PTR tv163[ebp]
	fstp	DWORD PTR [esp]
	push	esi
	call	??$interpolate@VVec4D@@@@YA?AVVec4D@@MABV0@0@Z ; interpolate<Vec4D>
	add	esp, 16					; 00000010H
	mov	eax, esi
	pop	esi
; Line 20
	pop	ebp
	ret	0
$LN2@lifeRamp@2:
; Line 19
	fld	ST(0)
	mov	edx, DWORD PTR _c$[ebp]
	fsubp	ST(2), ST(0)
	push	edx
	fld1
	push	eax
	fsubrp	ST(1), ST(0)
	push	ecx
	fdivp	ST(1), ST(0)
	fstp	DWORD PTR tv91[ebp]
	fld	DWORD PTR tv91[ebp]
	fstp	DWORD PTR [esp]
	push	esi
	call	??$interpolate@VVec4D@@@@YA?AVVec4D@@MABV0@0@Z ; interpolate<Vec4D>
	add	esp, 16					; 00000010H
	mov	eax, esi
	pop	esi
; Line 20
	pop	ebp
	ret	0
??$lifeRamp@VVec4D@@@@YA?AVVec4D@@MMABV0@00@Z ENDP	; lifeRamp<Vec4D>
_TEXT	ENDS
PUBLIC	??$_Cons_val@V?$allocator@H@std@@HAAH@std@@YAXAAV?$allocator@H@0@PAHAAH@Z ; std::_Cons_val<std::allocator<int>,int,int &>
; Function compile flags: /Ogtp
;	COMDAT ??$_Cons_val@V?$allocator@H@std@@HAAH@std@@YAXAAV?$allocator@H@0@PAHAAH@Z
_TEXT	SEGMENT
__Alval$ = 8						; size = 4
__Pdest$ = 12						; size = 4
__Src$ = 16						; size = 4
??$_Cons_val@V?$allocator@H@std@@HAAH@std@@YAXAAV?$allocator@H@0@PAHAAH@Z PROC ; std::_Cons_val<std::allocator<int>,int,int &>, COMDAT
; File c:\program files (x86)\microsoft visual studio 10.0\vc\include\xmemory
; Line 279
	push	ebp
	mov	ebp, esp
; Line 280
	mov	eax, DWORD PTR __Pdest$[ebp]
	test	eax, eax
	je	SHORT $LN7@Cons_val
	mov	ecx, DWORD PTR __Src$[ebp]
	mov	edx, DWORD PTR [ecx]
	mov	DWORD PTR [eax], edx
$LN7@Cons_val:
; Line 281
	pop	ebp
	ret	0
??$_Cons_val@V?$allocator@H@std@@HAAH@std@@YAXAAV?$allocator@H@0@PAHAAH@Z ENDP ; std::_Cons_val<std::allocator<int>,int,int &>
_TEXT	ENDS
PUBLIC	??$_Cons_val@V?$allocator@VVec3D@@@std@@VVec3D@@AAV3@@std@@YAXAAV?$allocator@VVec3D@@@0@PAVVec3D@@AAV2@@Z ; std::_Cons_val<std::allocator<Vec3D>,Vec3D,Vec3D &>
; Function compile flags: /Ogtp
;	COMDAT ??$_Cons_val@V?$allocator@VVec3D@@@std@@VVec3D@@AAV3@@std@@YAXAAV?$allocator@VVec3D@@@0@PAVVec3D@@AAV2@@Z
_TEXT	SEGMENT
__Alval$ = 8						; size = 4
__Pdest$ = 12						; size = 4
__Src$ = 16						; size = 4
??$_Cons_val@V?$allocator@VVec3D@@@std@@VVec3D@@AAV3@@std@@YAXAAV?$allocator@VVec3D@@@0@PAVVec3D@@AAV2@@Z PROC ; std::_Cons_val<std::allocator<Vec3D>,Vec3D,Vec3D &>, COMDAT
; Line 279
	push	ebp
	mov	ebp, esp
; Line 280
	mov	eax, DWORD PTR __Pdest$[ebp]
	test	eax, eax
	je	SHORT $LN7@Cons_val@2
	mov	ecx, DWORD PTR __Src$[ebp]
	mov	edx, DWORD PTR [ecx]
	mov	DWORD PTR [eax], edx
	mov	edx, DWORD PTR [ecx+4]
	mov	DWORD PTR [eax+4], edx
	mov	ecx, DWORD PTR [ecx+8]
	mov	DWORD PTR [eax+8], ecx
$LN7@Cons_val@2:
; Line 281
	pop	ebp
	ret	0
??$_Cons_val@V?$allocator@VVec3D@@@std@@VVec3D@@AAV3@@std@@YAXAAV?$allocator@VVec3D@@@0@PAVVec3D@@AAV2@@Z ENDP ; std::_Cons_val<std::allocator<Vec3D>,Vec3D,Vec3D &>
_TEXT	ENDS
PUBLIC	??$_Cons_val@V?$allocator@M@std@@MAAM@std@@YAXAAV?$allocator@M@0@PAMAAM@Z ; std::_Cons_val<std::allocator<float>,float,float &>
; Function compile flags: /Ogtp
;	COMDAT ??$_Cons_val@V?$allocator@M@std@@MAAM@std@@YAXAAV?$allocator@M@0@PAMAAM@Z
_TEXT	SEGMENT
__Alval$ = 8						; size = 4
__Pdest$ = 12						; size = 4
__Src$ = 16						; size = 4
??$_Cons_val@V?$allocator@M@std@@MAAM@std@@YAXAAV?$allocator@M@0@PAMAAM@Z PROC ; std::_Cons_val<std::allocator<float>,float,float &>, COMDAT
; Line 279
	push	ebp
	mov	ebp, esp
; Line 280
	mov	eax, DWORD PTR __Pdest$[ebp]
	test	eax, eax
	je	SHORT $LN7@Cons_val@3
	mov	ecx, DWORD PTR __Src$[ebp]
	mov	edx, DWORD PTR [ecx]
	mov	DWORD PTR [eax], edx
$LN7@Cons_val@3:
; Line 281
	pop	ebp
	ret	0
??$_Cons_val@V?$allocator@M@std@@MAAM@std@@YAXAAV?$allocator@M@0@PAMAAM@Z ENDP ; std::_Cons_val<std::allocator<float>,float,float &>
_TEXT	ENDS
PUBLIC	??$_Destroy_range@V?$allocator@H@std@@@std@@YAXPAH0AAV?$allocator@H@0@@Z ; std::_Destroy_range<std::allocator<int> >
; Function compile flags: /Ogtp
;	COMDAT ??$_Destroy_range@V?$allocator@H@std@@@std@@YAXPAH0AAV?$allocator@H@0@@Z
_TEXT	SEGMENT
__First$ = 8						; size = 4
__Last$ = 12						; size = 4
__Al$ = 16						; size = 4
??$_Destroy_range@V?$allocator@H@std@@@std@@YAXPAH0AAV?$allocator@H@0@@Z PROC ; std::_Destroy_range<std::allocator<int> >, COMDAT
; Line 89
	ret	0
??$_Destroy_range@V?$allocator@H@std@@@std@@YAXPAH0AAV?$allocator@H@0@@Z ENDP ; std::_Destroy_range<std::allocator<int> >
_TEXT	ENDS
PUBLIC	??$_Destroy_range@V?$allocator@M@std@@@std@@YAXPAM0AAV?$allocator@M@0@@Z ; std::_Destroy_range<std::allocator<float> >
; Function compile flags: /Ogtp
;	COMDAT ??$_Destroy_range@V?$allocator@M@std@@@std@@YAXPAM0AAV?$allocator@M@0@@Z
_TEXT	SEGMENT
__First$ = 8						; size = 4
__Last$ = 12						; size = 4
__Al$ = 16						; size = 4
??$_Destroy_range@V?$allocator@M@std@@@std@@YAXPAM0AAV?$allocator@M@0@@Z PROC ; std::_Destroy_range<std::allocator<float> >, COMDAT
; Line 89
	ret	0
??$_Destroy_range@V?$allocator@M@std@@@std@@YAXPAM0AAV?$allocator@M@0@@Z ENDP ; std::_Destroy_range<std::allocator<float> >
_TEXT	ENDS
PUBLIC	?construct@?$allocator@H@std@@QAEXPAHABH@Z	; std::allocator<int>::construct
; Function compile flags: /Ogtp
;	COMDAT ?construct@?$allocator@H@std@@QAEXPAHABH@Z
_TEXT	SEGMENT
__Ptr$ = 8						; size = 4
__Val$ = 12						; size = 4
?construct@?$allocator@H@std@@QAEXPAHABH@Z PROC		; std::allocator<int>::construct, COMDAT
; _this$ = ecx
; Line 196
	push	ebp
	mov	ebp, esp
; Line 197
	mov	eax, DWORD PTR __Ptr$[ebp]
	test	eax, eax
	je	SHORT $LN5@construct@4
	mov	ecx, DWORD PTR __Val$[ebp]
	mov	edx, DWORD PTR [ecx]
	mov	DWORD PTR [eax], edx
$LN5@construct@4:
; Line 198
	pop	ebp
	ret	8
?construct@?$allocator@H@std@@QAEXPAHABH@Z ENDP		; std::allocator<int>::construct
_TEXT	ENDS
PUBLIC	?construct@?$allocator@VVec3D@@@std@@QAEXPAVVec3D@@ABV3@@Z ; std::allocator<Vec3D>::construct
; Function compile flags: /Ogtp
;	COMDAT ?construct@?$allocator@VVec3D@@@std@@QAEXPAVVec3D@@ABV3@@Z
_TEXT	SEGMENT
__Ptr$ = 8						; size = 4
__Val$ = 12						; size = 4
?construct@?$allocator@VVec3D@@@std@@QAEXPAVVec3D@@ABV3@@Z PROC ; std::allocator<Vec3D>::construct, COMDAT
; _this$ = ecx
; Line 196
	push	ebp
	mov	ebp, esp
; Line 197
	mov	eax, DWORD PTR __Ptr$[ebp]
	test	eax, eax
	je	SHORT $LN5@construct@5
	mov	ecx, DWORD PTR __Val$[ebp]
	mov	edx, DWORD PTR [ecx]
	mov	DWORD PTR [eax], edx
	mov	edx, DWORD PTR [ecx+4]
	mov	DWORD PTR [eax+4], edx
	mov	ecx, DWORD PTR [ecx+8]
	mov	DWORD PTR [eax+8], ecx
$LN5@construct@5:
; Line 198
	pop	ebp
	ret	8
?construct@?$allocator@VVec3D@@@std@@QAEXPAVVec3D@@ABV3@@Z ENDP ; std::allocator<Vec3D>::construct
_TEXT	ENDS
PUBLIC	?construct@?$allocator@M@std@@QAEXPAMABM@Z	; std::allocator<float>::construct
; Function compile flags: /Ogtp
;	COMDAT ?construct@?$allocator@M@std@@QAEXPAMABM@Z
_TEXT	SEGMENT
__Ptr$ = 8						; size = 4
__Val$ = 12						; size = 4
?construct@?$allocator@M@std@@QAEXPAMABM@Z PROC		; std::allocator<float>::construct, COMDAT
; _this$ = ecx
; Line 196
	push	ebp
	mov	ebp, esp
; Line 197
	mov	eax, DWORD PTR __Ptr$[ebp]
	test	eax, eax
	je	SHORT $LN5@construct@6
	mov	ecx, DWORD PTR __Val$[ebp]
	mov	edx, DWORD PTR [ecx]
	mov	DWORD PTR [eax], edx
$LN5@construct@6:
; Line 198
	pop	ebp
	ret	8
?construct@?$allocator@M@std@@QAEXPAMABM@Z ENDP		; std::allocator<float>::construct
_TEXT	ENDS
PUBLIC	?construct@?$allocator@UParticle@@@std@@QAEXPAUParticle@@ABU3@@Z ; std::allocator<Particle>::construct
; Function compile flags: /Ogtp
;	COMDAT ?construct@?$allocator@UParticle@@@std@@QAEXPAUParticle@@ABU3@@Z
_TEXT	SEGMENT
__Ptr$ = 8						; size = 4
__Val$ = 12						; size = 4
?construct@?$allocator@UParticle@@@std@@QAEXPAUParticle@@ABU3@@Z PROC ; std::allocator<Particle>::construct, COMDAT
; _this$ = ecx
; Line 196
	push	ebp
	mov	ebp, esp
; Line 197
	mov	ecx, DWORD PTR __Ptr$[ebp]
	test	ecx, ecx
	je	SHORT $LN5@construct@7
	mov	eax, DWORD PTR __Val$[ebp]
	push	eax
	call	??0Particle@@QAE@ABU0@@Z
$LN5@construct@7:
; Line 198
	pop	ebp
	ret	8
?construct@?$allocator@UParticle@@@std@@QAEXPAUParticle@@ABU3@@Z ENDP ; std::allocator<Particle>::construct
_TEXT	ENDS
PUBLIC	?destroy@?$allocator@U_Node@?$_List_nod@UParticle@@V?$allocator@UParticle@@@std@@@std@@@std@@QAEXPAU_Node@?$_List_nod@UParticle@@V?$allocator@UParticle@@@std@@@2@@Z ; std::allocator<std::_List_nod<Particle,std::allocator<Particle> >::_Node>::destroy
; Function compile flags: /Ogtp
;	COMDAT ?destroy@?$allocator@U_Node@?$_List_nod@UParticle@@V?$allocator@UParticle@@@std@@@std@@@std@@QAEXPAU_Node@?$_List_nod@UParticle@@V?$allocator@UParticle@@@std@@@2@@Z
_TEXT	SEGMENT
__Ptr$ = 8						; size = 4
?destroy@?$allocator@U_Node@?$_List_nod@UParticle@@V?$allocator@UParticle@@@std@@@std@@@std@@QAEXPAU_Node@?$_List_nod@UParticle@@V?$allocator@UParticle@@@std@@@2@@Z PROC ; std::allocator<std::_List_nod<Particle,std::allocator<Particle> >::_Node>::destroy, COMDAT
; _this$ = ecx
; Line 214
	ret	4
?destroy@?$allocator@U_Node@?$_List_nod@UParticle@@V?$allocator@UParticle@@@std@@@std@@@std@@QAEXPAU_Node@?$_List_nod@UParticle@@V?$allocator@UParticle@@@std@@@2@@Z ENDP ; std::allocator<std::_List_nod<Particle,std::allocator<Particle> >::_Node>::destroy
_TEXT	ENDS
PUBLIC	?destroy@?$allocator@U_Node@?$_List_nod@URibbonSegment@@V?$allocator@URibbonSegment@@@std@@@std@@@std@@QAEXPAU_Node@?$_List_nod@URibbonSegment@@V?$allocator@URibbonSegment@@@std@@@2@@Z ; std::allocator<std::_List_nod<RibbonSegment,std::allocator<RibbonSegment> >::_Node>::destroy
; Function compile flags: /Ogtp
;	COMDAT ?destroy@?$allocator@U_Node@?$_List_nod@URibbonSegment@@V?$allocator@URibbonSegment@@@std@@@std@@@std@@QAEXPAU_Node@?$_List_nod@URibbonSegment@@V?$allocator@URibbonSegment@@@std@@@2@@Z
_TEXT	SEGMENT
__Ptr$ = 8						; size = 4
?destroy@?$allocator@U_Node@?$_List_nod@URibbonSegment@@V?$allocator@URibbonSegment@@@std@@@std@@@std@@QAEXPAU_Node@?$_List_nod@URibbonSegment@@V?$allocator@URibbonSegment@@@std@@@2@@Z PROC ; std::allocator<std::_List_nod<RibbonSegment,std::allocator<RibbonSegment> >::_Node>::destroy, COMDAT
; _this$ = ecx
; Line 214
	ret	4
?destroy@?$allocator@U_Node@?$_List_nod@URibbonSegment@@V?$allocator@URibbonSegment@@@std@@@std@@@std@@QAEXPAU_Node@?$_List_nod@URibbonSegment@@V?$allocator@URibbonSegment@@@std@@@2@@Z ENDP ; std::allocator<std::_List_nod<RibbonSegment,std::allocator<RibbonSegment> >::_Node>::destroy
_TEXT	ENDS
PUBLIC	??$_Uninitialized_move@PAHPAHV?$allocator@H@std@@@std@@YAPAHPAH00AAV?$allocator@H@0@@Z ; std::_Uninitialized_move<int *,int *,std::allocator<int> >
; Function compile flags: /Ogtp
;	COMDAT ??$_Uninitialized_move@PAHPAHV?$allocator@H@std@@@std@@YAPAHPAH00AAV?$allocator@H@0@@Z
_TEXT	SEGMENT
__First$ = 8						; size = 4
__Last$ = 12						; size = 4
__Dest$ = 16						; size = 4
__Al$ = 20						; size = 4
??$_Uninitialized_move@PAHPAHV?$allocator@H@std@@@std@@YAPAHPAH00AAV?$allocator@H@0@@Z PROC ; std::_Uninitialized_move<int *,int *,std::allocator<int> >, COMDAT
; File c:\program files (x86)\microsoft visual studio 10.0\vc\include\memory
; Line 469
	push	ebp
	mov	ebp, esp
; Line 471
	mov	ecx, DWORD PTR __First$[ebp]
	mov	eax, DWORD PTR __Last$[ebp]
	sub	eax, ecx
	push	esi
	sar	eax, 2
	lea	esi, DWORD PTR [eax*4]
	mov	eax, DWORD PTR __Dest$[ebp]
	push	esi
	push	ecx
	push	eax
	call	DWORD PTR __imp__memmove
	add	esp, 12					; 0000000cH
	add	eax, esi
	pop	esi
; Line 472
	pop	ebp
	ret	0
??$_Uninitialized_move@PAHPAHV?$allocator@H@std@@@std@@YAPAHPAH00AAV?$allocator@H@0@@Z ENDP ; std::_Uninitialized_move<int *,int *,std::allocator<int> >
_TEXT	ENDS
PUBLIC	??$_Uninitialized_move@PAMPAMV?$allocator@M@std@@@std@@YAPAMPAM00AAV?$allocator@M@0@@Z ; std::_Uninitialized_move<float *,float *,std::allocator<float> >
; Function compile flags: /Ogtp
;	COMDAT ??$_Uninitialized_move@PAMPAMV?$allocator@M@std@@@std@@YAPAMPAM00AAV?$allocator@M@0@@Z
_TEXT	SEGMENT
__First$ = 8						; size = 4
__Last$ = 12						; size = 4
__Dest$ = 16						; size = 4
__Al$ = 20						; size = 4
??$_Uninitialized_move@PAMPAMV?$allocator@M@std@@@std@@YAPAMPAM00AAV?$allocator@M@0@@Z PROC ; std::_Uninitialized_move<float *,float *,std::allocator<float> >, COMDAT
; Line 469
	push	ebp
	mov	ebp, esp
; Line 471
	mov	ecx, DWORD PTR __First$[ebp]
	mov	eax, DWORD PTR __Last$[ebp]
	sub	eax, ecx
	push	esi
	sar	eax, 2
	lea	esi, DWORD PTR [eax*4]
	mov	eax, DWORD PTR __Dest$[ebp]
	push	esi
	push	ecx
	push	eax
	call	DWORD PTR __imp__memmove
	add	esp, 12					; 0000000cH
	add	eax, esi
	pop	esi
; Line 472
	pop	ebp
	ret	0
??$_Uninitialized_move@PAMPAMV?$allocator@M@std@@@std@@YAPAMPAM00AAV?$allocator@M@0@@Z ENDP ; std::_Uninitialized_move<float *,float *,std::allocator<float> >
_TEXT	ENDS
PUBLIC	??$_Construct@URibbonSegment@@ABU1@@std@@YAXPAURibbonSegment@@ABU1@@Z ; std::_Construct<RibbonSegment,RibbonSegment const &>
; Function compile flags: /Ogtp
;	COMDAT ??$_Construct@URibbonSegment@@ABU1@@std@@YAXPAURibbonSegment@@ABU1@@Z
_TEXT	SEGMENT
__Ptr$ = 8						; size = 4
__Val$ = 12						; size = 4
??$_Construct@URibbonSegment@@ABU1@@std@@YAXPAURibbonSegment@@ABU1@@Z PROC ; std::_Construct<RibbonSegment,RibbonSegment const &>, COMDAT
; File c:\program files (x86)\microsoft visual studio 10.0\vc\include\xmemory
; Line 46
	push	ebp
	mov	ebp, esp
; Line 48
	mov	eax, DWORD PTR __Ptr$[ebp]
	test	eax, eax
	je	SHORT $LN3@Construct@5
	mov	ecx, DWORD PTR __Val$[ebp]
	mov	edx, DWORD PTR [ecx]
	mov	DWORD PTR [eax], edx
	mov	edx, DWORD PTR [ecx+4]
	mov	DWORD PTR [eax+4], edx
	mov	edx, DWORD PTR [ecx+8]
	mov	DWORD PTR [eax+8], edx
	mov	edx, DWORD PTR [ecx+12]
	mov	DWORD PTR [eax+12], edx
	mov	edx, DWORD PTR [ecx+16]
	mov	DWORD PTR [eax+16], edx
	mov	edx, DWORD PTR [ecx+20]
	mov	DWORD PTR [eax+20], edx
	mov	edx, DWORD PTR [ecx+24]
	mov	DWORD PTR [eax+24], edx
	mov	edx, DWORD PTR [ecx+28]
	mov	DWORD PTR [eax+28], edx
	mov	edx, DWORD PTR [ecx+32]
	mov	DWORD PTR [eax+32], edx
	mov	edx, DWORD PTR [ecx+36]
	mov	DWORD PTR [eax+36], edx
	mov	ecx, DWORD PTR [ecx+40]
	mov	DWORD PTR [eax+40], ecx
$LN3@Construct@5:
; Line 49
	pop	ebp
	ret	0
??$_Construct@URibbonSegment@@ABU1@@std@@YAXPAURibbonSegment@@ABU1@@Z ENDP ; std::_Construct<RibbonSegment,RibbonSegment const &>
_TEXT	ENDS
PUBLIC	??0TexCoordSet@@QAE@ABU0@@Z			; TexCoordSet::TexCoordSet
; Function compile flags: /Ogtp
;	COMDAT ??0TexCoordSet@@QAE@ABU0@@Z
_TEXT	SEGMENT
___that$ = 8						; size = 4
??0TexCoordSet@@QAE@ABU0@@Z PROC			; TexCoordSet::TexCoordSet, COMDAT
; _this$ = ecx
	push	ebp
	mov	ebp, esp
	mov	eax, ecx
	mov	ecx, DWORD PTR ___that$[ebp]
	mov	edx, DWORD PTR [ecx]
	mov	DWORD PTR [eax], edx
	mov	edx, DWORD PTR [ecx+4]
	mov	DWORD PTR [eax+4], edx
	mov	edx, DWORD PTR [ecx+8]
	mov	DWORD PTR [eax+8], edx
	mov	edx, DWORD PTR [ecx+12]
	mov	DWORD PTR [eax+12], edx
	mov	edx, DWORD PTR [ecx+16]
	mov	DWORD PTR [eax+16], edx
	mov	edx, DWORD PTR [ecx+20]
	mov	DWORD PTR [eax+20], edx
	mov	edx, DWORD PTR [ecx+24]
	mov	DWORD PTR [eax+24], edx
	mov	ecx, DWORD PTR [ecx+28]
	mov	DWORD PTR [eax+28], ecx
	pop	ebp
	ret	4
??0TexCoordSet@@QAE@ABU0@@Z ENDP			; TexCoordSet::TexCoordSet
_TEXT	ENDS
PUBLIC	??0?$pair@II@std@@QAE@ABU01@@Z			; std::pair<unsigned int,unsigned int>::pair<unsigned int,unsigned int>
; Function compile flags: /Ogtp
;	COMDAT ??0?$pair@II@std@@QAE@ABU01@@Z
_TEXT	SEGMENT
___that$ = 8						; size = 4
??0?$pair@II@std@@QAE@ABU01@@Z PROC			; std::pair<unsigned int,unsigned int>::pair<unsigned int,unsigned int>, COMDAT
; _this$ = ecx
	push	ebp
	mov	ebp, esp
	mov	eax, ecx
	mov	ecx, DWORD PTR ___that$[ebp]
	mov	edx, DWORD PTR [ecx]
	mov	DWORD PTR [eax], edx
	mov	ecx, DWORD PTR [ecx+4]
	mov	DWORD PTR [eax+4], ecx
	pop	ebp
	ret	4
??0?$pair@II@std@@QAE@ABU01@@Z ENDP			; std::pair<unsigned int,unsigned int>::pair<unsigned int,unsigned int>
_TEXT	ENDS
PUBLIC	?destroy@?$allocator@U?$pair@II@std@@@std@@QAEXPAU?$pair@II@2@@Z ; std::allocator<std::pair<unsigned int,unsigned int> >::destroy
; Function compile flags: /Ogtp
;	COMDAT ?destroy@?$allocator@U?$pair@II@std@@@std@@QAEXPAU?$pair@II@2@@Z
_TEXT	SEGMENT
__Ptr$ = 8						; size = 4
?destroy@?$allocator@U?$pair@II@std@@@std@@QAEXPAU?$pair@II@2@@Z PROC ; std::allocator<std::pair<unsigned int,unsigned int> >::destroy, COMDAT
; _this$ = ecx
; Line 214
	ret	4
?destroy@?$allocator@U?$pair@II@std@@@std@@QAEXPAU?$pair@II@2@@Z ENDP ; std::allocator<std::pair<unsigned int,unsigned int> >::destroy
_TEXT	ENDS
PUBLIC	?destroy@?$allocator@VVec3D@@@std@@QAEXPAVVec3D@@@Z ; std::allocator<Vec3D>::destroy
; Function compile flags: /Ogtp
;	COMDAT ?destroy@?$allocator@VVec3D@@@std@@QAEXPAVVec3D@@@Z
_TEXT	SEGMENT
__Ptr$ = 8						; size = 4
?destroy@?$allocator@VVec3D@@@std@@QAEXPAVVec3D@@@Z PROC ; std::allocator<Vec3D>::destroy, COMDAT
; _this$ = ecx
; Line 214
	ret	4
?destroy@?$allocator@VVec3D@@@std@@QAEXPAVVec3D@@@Z ENDP ; std::allocator<Vec3D>::destroy
_TEXT	ENDS
PUBLIC	?destroy@?$allocator@UTexCoordSet@@@std@@QAEXPAUTexCoordSet@@@Z ; std::allocator<TexCoordSet>::destroy
; Function compile flags: /Ogtp
;	COMDAT ?destroy@?$allocator@UTexCoordSet@@@std@@QAEXPAUTexCoordSet@@@Z
_TEXT	SEGMENT
__Ptr$ = 8						; size = 4
?destroy@?$allocator@UTexCoordSet@@@std@@QAEXPAUTexCoordSet@@@Z PROC ; std::allocator<TexCoordSet>::destroy, COMDAT
; _this$ = ecx
; Line 214
	ret	4
?destroy@?$allocator@UTexCoordSet@@@std@@QAEXPAUTexCoordSet@@@Z ENDP ; std::allocator<TexCoordSet>::destroy
_TEXT	ENDS
PUBLIC	??$?0AAIAAI@?$_Pair_base@II@std@@QAE@AAI0@Z	; std::_Pair_base<unsigned int,unsigned int>::_Pair_base<unsigned int,unsigned int><unsigned int &,unsigned int &>
; Function compile flags: /Ogtp
;	COMDAT ??$?0AAIAAI@?$_Pair_base@II@std@@QAE@AAI0@Z
_TEXT	SEGMENT
__Val1$ = 8						; size = 4
__Val2$ = 12						; size = 4
??$?0AAIAAI@?$_Pair_base@II@std@@QAE@AAI0@Z PROC	; std::_Pair_base<unsigned int,unsigned int>::_Pair_base<unsigned int,unsigned int><unsigned int &,unsigned int &>, COMDAT
; _this$ = ecx
; File c:\program files (x86)\microsoft visual studio 10.0\vc\include\utility
; Line 163
	push	ebp
	mov	ebp, esp
	mov	eax, ecx
	mov	ecx, DWORD PTR __Val1$[ebp]
	mov	edx, DWORD PTR [ecx]
	mov	ecx, DWORD PTR __Val2$[ebp]
	mov	DWORD PTR [eax], edx
	mov	edx, DWORD PTR [ecx]
	mov	DWORD PTR [eax+4], edx
; Line 164
	pop	ebp
	ret	8
??$?0AAIAAI@?$_Pair_base@II@std@@QAE@AAI0@Z ENDP	; std::_Pair_base<unsigned int,unsigned int>::_Pair_base<unsigned int,unsigned int><unsigned int &,unsigned int &>
_TEXT	ENDS
PUBLIC	?construct@?$allocator@VVec3D@@@std@@QAEXPAVVec3D@@$$QAV3@@Z ; std::allocator<Vec3D>::construct
; Function compile flags: /Ogtp
;	COMDAT ?construct@?$allocator@VVec3D@@@std@@QAEXPAVVec3D@@$$QAV3@@Z
_TEXT	SEGMENT
__Ptr$ = 8						; size = 4
__Val$ = 12						; size = 4
?construct@?$allocator@VVec3D@@@std@@QAEXPAVVec3D@@$$QAV3@@Z PROC ; std::allocator<Vec3D>::construct, COMDAT
; _this$ = ecx
; File c:\program files (x86)\microsoft visual studio 10.0\vc\include\xmemory
; Line 201
	push	ebp
	mov	ebp, esp
; Line 202
	mov	eax, DWORD PTR __Ptr$[ebp]
	test	eax, eax
	je	SHORT $LN3@construct@8
	mov	ecx, DWORD PTR __Val$[ebp]
	mov	edx, DWORD PTR [ecx]
	mov	DWORD PTR [eax], edx
	mov	edx, DWORD PTR [ecx+4]
	mov	DWORD PTR [eax+4], edx
	mov	ecx, DWORD PTR [ecx+8]
	mov	DWORD PTR [eax+8], ecx
$LN3@construct@8:
; Line 203
	pop	ebp
	ret	8
?construct@?$allocator@VVec3D@@@std@@QAEXPAVVec3D@@$$QAV3@@Z ENDP ; std::allocator<Vec3D>::construct
_TEXT	ENDS
PUBLIC	?construct@?$allocator@UTexCoordSet@@@std@@QAEXPAUTexCoordSet@@$$QAU3@@Z ; std::allocator<TexCoordSet>::construct
; Function compile flags: /Ogtp
;	COMDAT ?construct@?$allocator@UTexCoordSet@@@std@@QAEXPAUTexCoordSet@@$$QAU3@@Z
_TEXT	SEGMENT
__Ptr$ = 8						; size = 4
__Val$ = 12						; size = 4
?construct@?$allocator@UTexCoordSet@@@std@@QAEXPAUTexCoordSet@@$$QAU3@@Z PROC ; std::allocator<TexCoordSet>::construct, COMDAT
; _this$ = ecx
; Line 201
	push	ebp
	mov	ebp, esp
; Line 202
	mov	eax, DWORD PTR __Ptr$[ebp]
	test	eax, eax
	je	SHORT $LN20@construct@9
	mov	ecx, DWORD PTR __Val$[ebp]
	mov	edx, DWORD PTR [ecx]
	mov	DWORD PTR [eax], edx
	mov	edx, DWORD PTR [ecx+4]
	mov	DWORD PTR [eax+4], edx
	mov	edx, DWORD PTR [ecx+8]
	mov	DWORD PTR [eax+8], edx
	mov	edx, DWORD PTR [ecx+12]
	mov	DWORD PTR [eax+12], edx
	mov	edx, DWORD PTR [ecx+16]
	mov	DWORD PTR [eax+16], edx
	mov	edx, DWORD PTR [ecx+20]
	mov	DWORD PTR [eax+20], edx
	mov	edx, DWORD PTR [ecx+24]
	mov	DWORD PTR [eax+24], edx
	mov	ecx, DWORD PTR [ecx+28]
	mov	DWORD PTR [eax+28], ecx
$LN20@construct@9:
; Line 203
	pop	ebp
	ret	8
?construct@?$allocator@UTexCoordSet@@@std@@QAEXPAUTexCoordSet@@$$QAU3@@Z ENDP ; std::allocator<TexCoordSet>::construct
_TEXT	ENDS
PUBLIC	??0?$_Pair_base@II@std@@QAE@$$QAI0@Z		; std::_Pair_base<unsigned int,unsigned int>::_Pair_base<unsigned int,unsigned int>
; Function compile flags: /Ogtp
;	COMDAT ??0?$_Pair_base@II@std@@QAE@$$QAI0@Z
_TEXT	SEGMENT
__Val1$ = 8						; size = 4
__Val2$ = 12						; size = 4
??0?$_Pair_base@II@std@@QAE@$$QAI0@Z PROC		; std::_Pair_base<unsigned int,unsigned int>::_Pair_base<unsigned int,unsigned int>, COMDAT
; _this$ = ecx
; File c:\program files (x86)\microsoft visual studio 10.0\vc\include\utility
; Line 145
	push	ebp
	mov	ebp, esp
	mov	eax, ecx
	mov	ecx, DWORD PTR __Val1$[ebp]
	mov	edx, DWORD PTR [ecx]
	mov	ecx, DWORD PTR __Val2$[ebp]
	mov	DWORD PTR [eax], edx
	mov	edx, DWORD PTR [ecx]
	mov	DWORD PTR [eax+4], edx
; Line 146
	pop	ebp
	ret	8
??0?$_Pair_base@II@std@@QAE@$$QAI0@Z ENDP		; std::_Pair_base<unsigned int,unsigned int>::_Pair_base<unsigned int,unsigned int>
_TEXT	ENDS
PUBLIC	?getValue@?$Animated@VVec3D@@V1@V?$Identity@VVec3D@@@@@@QAE?AVVec3D@@HH@Z ; Animated<Vec3D,Vec3D,Identity<Vec3D> >::getValue
EXTRN	?globalTime@@3HA:DWORD				; globalTime
; Function compile flags: /Ogtp
;	COMDAT ?getValue@?$Animated@VVec3D@@V1@V?$Identity@VVec3D@@@@@@QAE?AVVec3D@@HH@Z
_TEXT	SEGMENT
_range$78231 = -8					; size = 8
___$ReturnUdt$ = 8					; size = 4
tv643 = 12						; size = 4
tv640 = 12						; size = 4
_r$78245 = 12						; size = 4
_anim$ = 12						; size = 4
_time$ = 16						; size = 4
?getValue@?$Animated@VVec3D@@V1@V?$Identity@VVec3D@@@@@@QAE?AVVec3D@@HH@Z PROC ; Animated<Vec3D,Vec3D,Identity<Vec3D> >::getValue, COMDAT
; _this$ = ecx
; File c:\programovani\wow editor\test\src\editor\animated.h
; Line 102
	push	ebp
	mov	ebp, esp
; Line 103
	mov	eax, DWORD PTR [ecx+4]
	sub	esp, 8
	test	eax, eax
	je	$LN14@getValue
; Line 108
	mov	eax, DWORD PTR [ecx+8]
	push	ebx
	push	esi
	push	edi
	cmp	eax, -1
	je	SHORT $LN13@getValue
; Line 110
	mov	edx, DWORD PTR [ecx+12]
	mov	esi, DWORD PTR [edx+eax*4]
	test	esi, esi
	jne	SHORT $LN12@getValue
	xor	edi, edi
	jmp	SHORT $LN11@getValue
$LN12@getValue:
; Line 111
	mov	eax, DWORD PTR ?globalTime@@3HA		; globalTime
	cdq
	idiv	esi
