; Listing generated by Microsoft (R) Optimizing Compiler Version 16.00.40219.01 

	TITLE	C:\programovani\WoW Editor\Test\src\Editor\Shaders.cpp
	.686P
	.XMM
	include listing.inc
	.model	flat

INCLUDELIB MSVCRT
INCLUDELIB OLDNAMES

PUBLIC	?glVertexAttrib1s@@3P6GXIF@ZA			; glVertexAttrib1s
PUBLIC	?glVertexAttrib1f@@3P6GXIM@ZA			; glVertexAttrib1f
PUBLIC	?glVertexAttrib1d@@3P6GXIN@ZA			; glVertexAttrib1d
PUBLIC	?glVertexAttrib2s@@3P6GXIFF@ZA			; glVertexAttrib2s
PUBLIC	?glVertexAttrib2f@@3P6GXIMM@ZA			; glVertexAttrib2f
PUBLIC	?glVertexAttrib2d@@3P6GXINN@ZA			; glVertexAttrib2d
PUBLIC	?glVertexAttrib3s@@3P6GXIFFF@ZA			; glVertexAttrib3s
PUBLIC	?glVertexAttrib3f@@3P6GXIMMM@ZA			; glVertexAttrib3f
PUBLIC	?glVertexAttrib3d@@3P6GXINNN@ZA			; glVertexAttrib3d
PUBLIC	?glVertexAttrib4s@@3P6GXIFFFF@ZA		; glVertexAttrib4s
PUBLIC	?glVertexAttrib4f@@3P6GXIMMMM@ZA		; glVertexAttrib4f
PUBLIC	?glVertexAttrib4d@@3P6GXINNNN@ZA		; glVertexAttrib4d
PUBLIC	?glVertexAttrib4Nub@@3P6GXIEEEE@ZA		; glVertexAttrib4Nub
PUBLIC	?glVertexAttrib1sv@@3P6GXIPBF@ZA		; glVertexAttrib1sv
PUBLIC	?glVertexAttrib1fv@@3P6GXIPBM@ZA		; glVertexAttrib1fv
PUBLIC	?glVertexAttrib1dv@@3P6GXIPBN@ZA		; glVertexAttrib1dv
PUBLIC	?glVertexAttrib2sv@@3P6GXIPBF@ZA		; glVertexAttrib2sv
PUBLIC	?glVertexAttrib2fv@@3P6GXIPBM@ZA		; glVertexAttrib2fv
PUBLIC	?glVertexAttrib2dv@@3P6GXIPBN@ZA		; glVertexAttrib2dv
PUBLIC	?glVertexAttrib3sv@@3P6GXIPBF@ZA		; glVertexAttrib3sv
PUBLIC	?glVertexAttrib3fv@@3P6GXIPBM@ZA		; glVertexAttrib3fv
PUBLIC	?glVertexAttrib3dv@@3P6GXIPBN@ZA		; glVertexAttrib3dv
PUBLIC	?glVertexAttrib4bv@@3P6GXIPBC@ZA		; glVertexAttrib4bv
PUBLIC	?glVertexAttrib4sv@@3P6GXIPBF@ZA		; glVertexAttrib4sv
PUBLIC	?glVertexAttrib4iv@@3P6GXIPBH@ZA		; glVertexAttrib4iv
PUBLIC	?glVertexAttrib4ubv@@3P6GXIPBE@ZA		; glVertexAttrib4ubv
PUBLIC	?glVertexAttrib4usv@@3P6GXIPBG@ZA		; glVertexAttrib4usv
PUBLIC	?glVertexAttrib4uiv@@3P6GXIPBI@ZA		; glVertexAttrib4uiv
PUBLIC	?glVertexAttrib4fv@@3P6GXIPBM@ZA		; glVertexAttrib4fv
PUBLIC	?glVertexAttrib4dv@@3P6GXIPBN@ZA		; glVertexAttrib4dv
PUBLIC	?glVertexAttrib4Nbv@@3P6GXIPBC@ZA		; glVertexAttrib4Nbv
PUBLIC	?glVertexAttrib4Nsv@@3P6GXIPBF@ZA		; glVertexAttrib4Nsv
PUBLIC	?glVertexAttrib4Niv@@3P6GXIPBH@ZA		; glVertexAttrib4Niv
PUBLIC	?glVertexAttrib4Nubv@@3P6GXIPBE@ZA		; glVertexAttrib4Nubv
PUBLIC	?glVertexAttrib4Nusv@@3P6GXIPBG@ZA		; glVertexAttrib4Nusv
PUBLIC	?glVertexAttrib4Nuiv@@3P6GXIPBI@ZA		; glVertexAttrib4Nuiv
PUBLIC	?glVertexAttribPointer@@3P6GXIHIEHPBX@ZA	; glVertexAttribPointer
PUBLIC	?glEnableVertexAttribArray@@3P6GXI@ZA		; glEnableVertexAttribArray
PUBLIC	?glDisableVertexAttribArray@@3P6GXI@ZA		; glDisableVertexAttribArray
PUBLIC	?glProgramString@@3P6GXIIHPBX@ZA		; glProgramString
PUBLIC	?glBindProgram@@3P6GXII@ZA			; glBindProgram
PUBLIC	?glDeletePrograms@@3P6GXHPBI@ZA			; glDeletePrograms
PUBLIC	?glGenPrograms@@3P6GXHPAI@ZA			; glGenPrograms
PUBLIC	?glProgramEnvParameter4d@@3P6GXIINNNN@ZA	; glProgramEnvParameter4d
PUBLIC	?glProgramEnvParameter4dv@@3P6GXIIPBN@ZA	; glProgramEnvParameter4dv
PUBLIC	?glProgramEnvParameter4f@@3P6GXIIMMMM@ZA	; glProgramEnvParameter4f
PUBLIC	?glProgramEnvParameter4fv@@3P6GXIIPBM@ZA	; glProgramEnvParameter4fv
PUBLIC	?glProgramLocalParameter4d@@3P6GXIINNNN@ZA	; glProgramLocalParameter4d
PUBLIC	?glProgramLocalParameter4dv@@3P6GXIIPBN@ZA	; glProgramLocalParameter4dv
PUBLIC	?glProgramLocalParameter4f@@3P6GXIIMMMM@ZA	; glProgramLocalParameter4f
PUBLIC	?glProgramLocalParameter4fv@@3P6GXIIPBM@ZA	; glProgramLocalParameter4fv
PUBLIC	?glGetProgramEnvParameterdv@@3P6GXIIPAN@ZA	; glGetProgramEnvParameterdv
PUBLIC	?glGetProgramEnvParameterfv@@3P6GXIIPAM@ZA	; glGetProgramEnvParameterfv
PUBLIC	?glGetProgramLocalParameterdv@@3P6GXIIPAN@ZA	; glGetProgramLocalParameterdv
PUBLIC	?glGetProgramLocalParameterfv@@3P6GXIIPAM@ZA	; glGetProgramLocalParameterfv
PUBLIC	?glGetProgramiv@@3P6GXIIPAH@ZA			; glGetProgramiv
PUBLIC	?glGetProgramString@@3P6GXIIPAX@ZA		; glGetProgramString
PUBLIC	?glGetVertexAttribdv@@3P6GXIIPAN@ZA		; glGetVertexAttribdv
PUBLIC	?glGetVertexAttribfv@@3P6GXIIPAM@ZA		; glGetVertexAttribfv
PUBLIC	?glGetVertexAttribiv@@3P6GXIIPAH@ZA		; glGetVertexAttribiv
PUBLIC	?glGetVertexAttribPointerv@@3P6GXIIPAPAX@ZA	; glGetVertexAttribPointerv
PUBLIC	?glIsProgram@@3P6GEI@ZA				; glIsProgram
PUBLIC	?glAreProgramsResidentNV@@3P6GEHPBIPAE@ZA	; glAreProgramsResidentNV
PUBLIC	?glBindProgramNV@@3P6GXII@ZA			; glBindProgramNV
PUBLIC	?glDeleteProgramsNV@@3P6GXHPBI@ZA		; glDeleteProgramsNV
PUBLIC	?glExecuteProgramNV@@3P6GXIIPBM@ZA		; glExecuteProgramNV
PUBLIC	?glGenProgramsNV@@3P6GXHPAI@ZA			; glGenProgramsNV
PUBLIC	?glGetProgramParameterdvNV@@3P6GXIIIPAN@ZA	; glGetProgramParameterdvNV
PUBLIC	?glGetProgramParameterfvNV@@3P6GXIIIPAM@ZA	; glGetProgramParameterfvNV
PUBLIC	?glGetProgramivNV@@3P6GXIIPAH@ZA		; glGetProgramivNV
PUBLIC	?glGetProgramStringNV@@3P6GXIIPAE@ZA		; glGetProgramStringNV
PUBLIC	?glGetTrackMatrixivNV@@3P6GXIIIPAH@ZA		; glGetTrackMatrixivNV
PUBLIC	?glGetVertexAttribdvNV@@3P6GXIIPAN@ZA		; glGetVertexAttribdvNV
PUBLIC	?glGetVertexAttribfvNV@@3P6GXIIPAM@ZA		; glGetVertexAttribfvNV
PUBLIC	?glGetVertexAttribivNV@@3P6GXIIPAH@ZA		; glGetVertexAttribivNV
PUBLIC	?glGetVertexAttribPointervNV@@3P6GXIIPAPAX@ZA	; glGetVertexAttribPointervNV
PUBLIC	?glIsProgramNV@@3P6GEI@ZA			; glIsProgramNV
PUBLIC	?glLoadProgramNV@@3P6GXIIHPBE@ZA		; glLoadProgramNV
PUBLIC	?glProgramParameter4dNV@@3P6GXIINNNN@ZA		; glProgramParameter4dNV
PUBLIC	?glProgramParameter4dvNV@@3P6GXIIPBN@ZA		; glProgramParameter4dvNV
PUBLIC	?glProgramParameter4fNV@@3P6GXIIMMMM@ZA		; glProgramParameter4fNV
PUBLIC	?glProgramParameter4fvNV@@3P6GXIIPBM@ZA		; glProgramParameter4fvNV
PUBLIC	?glProgramParameters4dvNV@@3P6GXIIHPBN@ZA	; glProgramParameters4dvNV
PUBLIC	?glProgramParameters4fvNV@@3P6GXIIHPBM@ZA	; glProgramParameters4fvNV
PUBLIC	?glRequestResidentProgramsNV@@3P6GXHPBI@ZA	; glRequestResidentProgramsNV
PUBLIC	?glTrackMatrixNV@@3P6GXIIII@ZA			; glTrackMatrixNV
_BSS	SEGMENT
?glVertexAttrib1s@@3P6GXIF@ZA DD 01H DUP (?)		; glVertexAttrib1s
?glVertexAttrib1f@@3P6GXIM@ZA DD 01H DUP (?)		; glVertexAttrib1f
?glVertexAttrib1d@@3P6GXIN@ZA DD 01H DUP (?)		; glVertexAttrib1d
?glVertexAttrib2s@@3P6GXIFF@ZA DD 01H DUP (?)		; glVertexAttrib2s
?glVertexAttrib2f@@3P6GXIMM@ZA DD 01H DUP (?)		; glVertexAttrib2f
?glVertexAttrib2d@@3P6GXINN@ZA DD 01H DUP (?)		; glVertexAttrib2d
?glVertexAttrib3s@@3P6GXIFFF@ZA DD 01H DUP (?)		; glVertexAttrib3s
?glVertexAttrib3f@@3P6GXIMMM@ZA DD 01H DUP (?)		; glVertexAttrib3f
?glVertexAttrib3d@@3P6GXINNN@ZA DD 01H DUP (?)		; glVertexAttrib3d
?glVertexAttrib4s@@3P6GXIFFFF@ZA DD 01H DUP (?)		; glVertexAttrib4s
?glVertexAttrib4f@@3P6GXIMMMM@ZA DD 01H DUP (?)		; glVertexAttrib4f
?glVertexAttrib4d@@3P6GXINNNN@ZA DD 01H DUP (?)		; glVertexAttrib4d
?glVertexAttrib4Nub@@3P6GXIEEEE@ZA DD 01H DUP (?)	; glVertexAttrib4Nub
?glVertexAttrib1sv@@3P6GXIPBF@ZA DD 01H DUP (?)		; glVertexAttrib1sv
?glVertexAttrib1fv@@3P6GXIPBM@ZA DD 01H DUP (?)		; glVertexAttrib1fv
?glVertexAttrib1dv@@3P6GXIPBN@ZA DD 01H DUP (?)		; glVertexAttrib1dv
?glVertexAttrib2sv@@3P6GXIPBF@ZA DD 01H DUP (?)		; glVertexAttrib2sv
?glVertexAttrib2fv@@3P6GXIPBM@ZA DD 01H DUP (?)		; glVertexAttrib2fv
?glVertexAttrib2dv@@3P6GXIPBN@ZA DD 01H DUP (?)		; glVertexAttrib2dv
?glVertexAttrib3sv@@3P6GXIPBF@ZA DD 01H DUP (?)		; glVertexAttrib3sv
?glVertexAttrib3fv@@3P6GXIPBM@ZA DD 01H DUP (?)		; glVertexAttrib3fv
?glVertexAttrib3dv@@3P6GXIPBN@ZA DD 01H DUP (?)		; glVertexAttrib3dv
?glVertexAttrib4bv@@3P6GXIPBC@ZA DD 01H DUP (?)		; glVertexAttrib4bv
?glVertexAttrib4sv@@3P6GXIPBF@ZA DD 01H DUP (?)		; glVertexAttrib4sv
?glVertexAttrib4iv@@3P6GXIPBH@ZA DD 01H DUP (?)		; glVertexAttrib4iv
?glVertexAttrib4ubv@@3P6GXIPBE@ZA DD 01H DUP (?)	; glVertexAttrib4ubv
?glVertexAttrib4usv@@3P6GXIPBG@ZA DD 01H DUP (?)	; glVertexAttrib4usv
?glVertexAttrib4uiv@@3P6GXIPBI@ZA DD 01H DUP (?)	; glVertexAttrib4uiv
?glVertexAttrib4fv@@3P6GXIPBM@ZA DD 01H DUP (?)		; glVertexAttrib4fv
?glVertexAttrib4dv@@3P6GXIPBN@ZA DD 01H DUP (?)		; glVertexAttrib4dv
?glVertexAttrib4Nbv@@3P6GXIPBC@ZA DD 01H DUP (?)	; glVertexAttrib4Nbv
?glVertexAttrib4Nsv@@3P6GXIPBF@ZA DD 01H DUP (?)	; glVertexAttrib4Nsv
?glVertexAttrib4Niv@@3P6GXIPBH@ZA DD 01H DUP (?)	; glVertexAttrib4Niv
?glVertexAttrib4Nubv@@3P6GXIPBE@ZA DD 01H DUP (?)	; glVertexAttrib4Nubv
?glVertexAttrib4Nusv@@3P6GXIPBG@ZA DD 01H DUP (?)	; glVertexAttrib4Nusv
?glVertexAttrib4Nuiv@@3P6GXIPBI@ZA DD 01H DUP (?)	; glVertexAttrib4Nuiv
?glVertexAttribPointer@@3P6GXIHIEHPBX@ZA DD 01H DUP (?)	; glVertexAttribPointer
?glEnableVertexAttribArray@@3P6GXI@ZA DD 01H DUP (?)	; glEnableVertexAttribArray
?glDisableVertexAttribArray@@3P6GXI@ZA DD 01H DUP (?)	; glDisableVertexAttribArray
?glProgramString@@3P6GXIIHPBX@ZA DD 01H DUP (?)		; glProgramString
?glBindProgram@@3P6GXII@ZA DD 01H DUP (?)		; glBindProgram
?glDeletePrograms@@3P6GXHPBI@ZA DD 01H DUP (?)		; glDeletePrograms
?glGenPrograms@@3P6GXHPAI@ZA DD 01H DUP (?)		; glGenPrograms
?glProgramEnvParameter4d@@3P6GXIINNNN@ZA DD 01H DUP (?)	; glProgramEnvParameter4d
?glProgramEnvParameter4dv@@3P6GXIIPBN@ZA DD 01H DUP (?)	; glProgramEnvParameter4dv
?glProgramEnvParameter4f@@3P6GXIIMMMM@ZA DD 01H DUP (?)	; glProgramEnvParameter4f
?glProgramEnvParameter4fv@@3P6GXIIPBM@ZA DD 01H DUP (?)	; glProgramEnvParameter4fv
?glProgramLocalParameter4d@@3P6GXIINNNN@ZA DD 01H DUP (?) ; glProgramLocalParameter4d
?glProgramLocalParameter4dv@@3P6GXIIPBN@ZA DD 01H DUP (?) ; glProgramLocalParameter4dv
?glProgramLocalParameter4f@@3P6GXIIMMMM@ZA DD 01H DUP (?) ; glProgramLocalParameter4f
?glProgramLocalParameter4fv@@3P6GXIIPBM@ZA DD 01H DUP (?) ; glProgramLocalParameter4fv
?glGetProgramEnvParameterdv@@3P6GXIIPAN@ZA DD 01H DUP (?) ; glGetProgramEnvParameterdv
?glGetProgramEnvParameterfv@@3P6GXIIPAM@ZA DD 01H DUP (?) ; glGetProgramEnvParameterfv
?glGetProgramLocalParameterdv@@3P6GXIIPAN@ZA DD 01H DUP (?) ; glGetProgramLocalParameterdv
?glGetProgramLocalParameterfv@@3P6GXIIPAM@ZA DD 01H DUP (?) ; glGetProgramLocalParameterfv
?glGetProgramiv@@3P6GXIIPAH@ZA DD 01H DUP (?)		; glGetProgramiv
?glGetProgramString@@3P6GXIIPAX@ZA DD 01H DUP (?)	; glGetProgramString
?glGetVertexAttribdv@@3P6GXIIPAN@ZA DD 01H DUP (?)	; glGetVertexAttribdv
?glGetVertexAttribfv@@3P6GXIIPAM@ZA DD 01H DUP (?)	; glGetVertexAttribfv
?glGetVertexAttribiv@@3P6GXIIPAH@ZA DD 01H DUP (?)	; glGetVertexAttribiv
?glGetVertexAttribPointerv@@3P6GXIIPAPAX@ZA DD 01H DUP (?) ; glGetVertexAttribPointerv
?glIsProgram@@3P6GEI@ZA DD 01H DUP (?)			; glIsProgram
?glAreProgramsResidentNV@@3P6GEHPBIPAE@ZA DD 01H DUP (?) ; glAreProgramsResidentNV
?glBindProgramNV@@3P6GXII@ZA DD 01H DUP (?)		; glBindProgramNV
?glDeleteProgramsNV@@3P6GXHPBI@ZA DD 01H DUP (?)	; glDeleteProgramsNV
?glExecuteProgramNV@@3P6GXIIPBM@ZA DD 01H DUP (?)	; glExecuteProgramNV
?glGenProgramsNV@@3P6GXHPAI@ZA DD 01H DUP (?)		; glGenProgramsNV
?glGetProgramParameterdvNV@@3P6GXIIIPAN@ZA DD 01H DUP (?) ; glGetProgramParameterdvNV
?glGetProgramParameterfvNV@@3P6GXIIIPAM@ZA DD 01H DUP (?) ; glGetProgramParameterfvNV
?glGetProgramivNV@@3P6GXIIPAH@ZA DD 01H DUP (?)		; glGetProgramivNV
?glGetProgramStringNV@@3P6GXIIPAE@ZA DD 01H DUP (?)	; glGetProgramStringNV
?glGetTrackMatrixivNV@@3P6GXIIIPAH@ZA DD 01H DUP (?)	; glGetTrackMatrixivNV
?glGetVertexAttribdvNV@@3P6GXIIPAN@ZA DD 01H DUP (?)	; glGetVertexAttribdvNV
?glGetVertexAttribfvNV@@3P6GXIIPAM@ZA DD 01H DUP (?)	; glGetVertexAttribfvNV
?glGetVertexAttribivNV@@3P6GXIIPAH@ZA DD 01H DUP (?)	; glGetVertexAttribivNV
?glGetVertexAttribPointervNV@@3P6GXIIPAPAX@ZA DD 01H DUP (?) ; glGetVertexAttribPointervNV
?glIsProgramNV@@3P6GEI@ZA DD 01H DUP (?)		; glIsProgramNV
?glLoadProgramNV@@3P6GXIIHPBE@ZA DD 01H DUP (?)		; glLoadProgramNV
?glProgramParameter4dNV@@3P6GXIINNNN@ZA DD 01H DUP (?)	; glProgramParameter4dNV
?glProgramParameter4dvNV@@3P6GXIIPBN@ZA DD 01H DUP (?)	; glProgramParameter4dvNV
?glProgramParameter4fNV@@3P6GXIIMMMM@ZA DD 01H DUP (?)	; glProgramParameter4fNV
?glProgramParameter4fvNV@@3P6GXIIPBM@ZA DD 01H DUP (?)	; glProgramParameter4fvNV
?glProgramParameters4dvNV@@3P6GXIIHPBN@ZA DD 01H DUP (?) ; glProgramParameters4dvNV
?glProgramParameters4fvNV@@3P6GXIIHPBM@ZA DD 01H DUP (?) ; glProgramParameters4fvNV
?glRequestResidentProgramsNV@@3P6GXHPBI@ZA DD 01H DUP (?) ; glRequestResidentProgramsNV
?glTrackMatrixNV@@3P6GXIIII@ZA DD 01H DUP (?)		; glTrackMatrixNV
_BSS	ENDS
CONST	SEGMENT
$SG75569 DB	'glVertexAttrib1sARB', 00H
$SG75572 DB	'glVertexAttrib1fARB', 00H
$SG75575 DB	'glVertexAttrib1dARB', 00H
$SG75578 DB	'glVertexAttrib2sARB', 00H
$SG75581 DB	'glVertexAttrib2fARB', 00H
$SG75584 DB	'glVertexAttrib2dARB', 00H
$SG75587 DB	'glVertexAttrib3sARB', 00H
$SG75590 DB	'glVertexAttrib3fARB', 00H
$SG75593 DB	'glVertexAttrib3dARB', 00H
$SG75596 DB	'glVertexAttrib4sARB', 00H
$SG75599 DB	'glVertexAttrib4fARB', 00H
$SG75602 DB	'glVertexAttrib4dARB', 00H
$SG75605 DB	'glVertexAttrib4NubARB', 00H
	ORG $+2
$SG75608 DB	'glVertexAttrib1svARB', 00H
	ORG $+3
$SG75611 DB	'glVertexAttrib1fvARB', 00H
	ORG $+3
$SG75614 DB	'glVertexAttrib1dvARB', 00H
	ORG $+3
$SG75617 DB	'glVertexAttrib2svARB', 00H
	ORG $+3
$SG75620 DB	'glVertexAttrib2fvARB', 00H
	ORG $+3
$SG75623 DB	'glVertexAttrib2dvARB', 00H
	ORG $+3
$SG75626 DB	'glVertexAttrib3svARB', 00H
	ORG $+3
$SG75629 DB	'glVertexAttrib3fvARB', 00H
	ORG $+3
$SG75632 DB	'glVertexAttrib3dvARB', 00H
	ORG $+3
$SG75635 DB	'glVertexAttrib4bvARB', 00H
	ORG $+3
$SG75638 DB	'glVertexAttrib4svARB', 00H
	ORG $+3
$SG75641 DB	'glVertexAttrib4ivARB', 00H
	ORG $+3
$SG75644 DB	'glVertexAttrib4ubvARB', 00H
	ORG $+2
$SG75647 DB	'glVertexAttrib4usvARB', 00H
	ORG $+2
$SG75650 DB	'glVertexAttrib4uivARB', 00H
	ORG $+2
$SG75653 DB	'glVertexAttrib4fvARB', 00H
	ORG $+3
$SG75656 DB	'glVertexAttrib4dvARB', 00H
	ORG $+3
$SG75659 DB	'glVertexAttrib4NbvARB', 00H
	ORG $+2
$SG75662 DB	'glVertexAttrib4NsvARB', 00H
	ORG $+2
$SG75665 DB	'glVertexAttrib4NivARB', 00H
	ORG $+2
$SG75668 DB	'glVertexAttrib4NubvARB', 00H
	ORG $+1
$SG75671 DB	'glVertexAttrib4NusvARB', 00H
	ORG $+1
$SG75674 DB	'glVertexAttrib4NuivARB', 00H
	ORG $+1
$SG75677 DB	'glVertexAttribPointerARB', 00H
	ORG $+3
$SG75680 DB	'glEnableVertexAttribArrayARB', 00H
	ORG $+3
$SG75683 DB	'glDisableVertexAttribArrayARB', 00H
	ORG $+2
$SG75686 DB	'glProgramStringARB', 00H
	ORG $+1
$SG75689 DB	'glBindProgramARB', 00H
	ORG $+3
$SG75692 DB	'glDeleteProgramsARB', 00H
$SG75695 DB	'glGenProgramsARB', 00H
	ORG $+3
$SG75698 DB	'glProgramEnvParameter4dARB', 00H
	ORG $+1
$SG75701 DB	'glProgramEnvParameter4dvARB', 00H
$SG75704 DB	'glProgramEnvParameter4fARB', 00H
	ORG $+1
$SG75707 DB	'glProgramEnvParameter4fvARB', 00H
$SG75710 DB	'glProgramLocalParameter4dARB', 00H
	ORG $+3
$SG75713 DB	'glProgramLocalParameter4dvARB', 00H
	ORG $+2
$SG75716 DB	'glProgramLocalParameter4fARB', 00H
	ORG $+3
$SG75719 DB	'glProgramLocalParameter4fvARB', 00H
	ORG $+2
$SG75722 DB	'glGetProgramEnvParameterdvARB', 00H
	ORG $+2
$SG75725 DB	'glGetProgramEnvParameterfvARB', 00H
	ORG $+2
$SG75728 DB	'glGetProgramLocalParameterdvARB', 00H
$SG75731 DB	'glGetProgramLocalParameterfvARB', 00H
$SG75734 DB	'glGetProgramivARB', 00H
	ORG $+2
$SG75737 DB	'glGetProgramStringARB', 00H
	ORG $+2
$SG75740 DB	'glGetVertexAttribdvARB', 00H
	ORG $+1
$SG75743 DB	'glGetVertexAttribfvARB', 00H
	ORG $+1
$SG75746 DB	'glGetVertexAttribivARB', 00H
	ORG $+1
$SG75749 DB	'glGetVertexAttribPointervARB', 00H
	ORG $+3
$SG75752 DB	'glIsProgramARB', 00H
CONST	ENDS
PUBLIC	?glExtGetGLProcs_VertexProgram_1_0_ARB@@YAHXZ	; glExtGetGLProcs_VertexProgram_1_0_ARB
EXTRN	__imp__wglGetProcAddress@4:PROC
; Function compile flags: /Ogtp
_TEXT	SEGMENT
?glExtGetGLProcs_VertexProgram_1_0_ARB@@YAHXZ PROC	; glExtGetGLProcs_VertexProgram_1_0_ARB
; File c:\programovani\wow editor\test\src\editor\shaders.cpp
; Line 93
	push	esi
; Line 95
	mov	esi, DWORD PTR __imp__wglGetProcAddress@4
	push	edi
	push	OFFSET $SG75569
	mov	edi, 1
	call	esi
	mov	DWORD PTR ?glVertexAttrib1s@@3P6GXIF@ZA, eax ; glVertexAttrib1s
	test	eax, eax
	jne	SHORT $LN62@glExtGetGL
	xor	edi, edi
$LN62@glExtGetGL:
; Line 96
	push	OFFSET $SG75572
	call	esi
	mov	DWORD PTR ?glVertexAttrib1f@@3P6GXIM@ZA, eax ; glVertexAttrib1f
	test	eax, eax
	jne	SHORT $LN61@glExtGetGL
	xor	edi, edi
$LN61@glExtGetGL:
; Line 97
	push	OFFSET $SG75575
	call	esi
	mov	DWORD PTR ?glVertexAttrib1d@@3P6GXIN@ZA, eax ; glVertexAttrib1d
	test	eax, eax
	jne	SHORT $LN60@glExtGetGL
	xor	edi, edi
$LN60@glExtGetGL:
; Line 98
	push	OFFSET $SG75578
	call	esi
	mov	DWORD PTR ?glVertexAttrib2s@@3P6GXIFF@ZA, eax ; glVertexAttrib2s
	test	eax, eax
	jne	SHORT $LN59@glExtGetGL
	xor	edi, edi
$LN59@glExtGetGL:
; Line 99
	push	OFFSET $SG75581
	call	esi
	mov	DWORD PTR ?glVertexAttrib2f@@3P6GXIMM@ZA, eax ; glVertexAttrib2f
	test	eax, eax
	jne	SHORT $LN58@glExtGetGL
	xor	edi, edi
$LN58@glExtGetGL:
; Line 100
	push	OFFSET $SG75584
	call	esi
	mov	DWORD PTR ?glVertexAttrib2d@@3P6GXINN@ZA, eax ; glVertexAttrib2d
	test	eax, eax
	jne	SHORT $LN57@glExtGetGL
	xor	edi, edi
$LN57@glExtGetGL:
; Line 101
	push	OFFSET $SG75587
	call	esi
	mov	DWORD PTR ?glVertexAttrib3s@@3P6GXIFFF@ZA, eax ; glVertexAttrib3s
	test	eax, eax
	jne	SHORT $LN56@glExtGetGL
	xor	edi, edi
$LN56@glExtGetGL:
; Line 102
	push	OFFSET $SG75590
	call	esi
	mov	DWORD PTR ?glVertexAttrib3f@@3P6GXIMMM@ZA, eax ; glVertexAttrib3f
	test	eax, eax
	jne	SHORT $LN55@glExtGetGL
	xor	edi, edi
$LN55@glExtGetGL:
; Line 103
	push	OFFSET $SG75593
	call	esi
	mov	DWORD PTR ?glVertexAttrib3d@@3P6GXINNN@ZA, eax ; glVertexAttrib3d
	test	eax, eax
	jne	SHORT $LN54@glExtGetGL
	xor	edi, edi
$LN54@glExtGetGL:
; Line 104
	push	OFFSET $SG75596
	call	esi
	mov	DWORD PTR ?glVertexAttrib4s@@3P6GXIFFFF@ZA, eax ; glVertexAttrib4s
	test	eax, eax
	jne	SHORT $LN53@glExtGetGL
	xor	edi, edi
$LN53@glExtGetGL:
; Line 105
	push	OFFSET $SG75599
	call	esi
	mov	DWORD PTR ?glVertexAttrib4f@@3P6GXIMMMM@ZA, eax ; glVertexAttrib4f
	test	eax, eax
	jne	SHORT $LN52@glExtGetGL
	xor	edi, edi
$LN52@glExtGetGL:
; Line 106
	push	OFFSET $SG75602
	call	esi
	mov	DWORD PTR ?glVertexAttrib4d@@3P6GXINNNN@ZA, eax ; glVertexAttrib4d
	test	eax, eax
	jne	SHORT $LN51@glExtGetGL
	xor	edi, edi
$LN51@glExtGetGL:
; Line 107
	push	OFFSET $SG75605
	call	esi
	mov	DWORD PTR ?glVertexAttrib4Nub@@3P6GXIEEEE@ZA, eax ; glVertexAttrib4Nub
	test	eax, eax
	jne	SHORT $LN50@glExtGetGL
	xor	edi, edi
$LN50@glExtGetGL:
; Line 108
	push	OFFSET $SG75608
	call	esi
	mov	DWORD PTR ?glVertexAttrib1sv@@3P6GXIPBF@ZA, eax ; glVertexAttrib1sv
	test	eax, eax
	jne	SHORT $LN49@glExtGetGL
	xor	edi, edi
$LN49@glExtGetGL:
; Line 109
	push	OFFSET $SG75611
	call	esi
	mov	DWORD PTR ?glVertexAttrib1fv@@3P6GXIPBM@ZA, eax ; glVertexAttrib1fv
	test	eax, eax
	jne	SHORT $LN48@glExtGetGL
	xor	edi, edi
$LN48@glExtGetGL:
; Line 110
	push	OFFSET $SG75614
	call	esi
	mov	DWORD PTR ?glVertexAttrib1dv@@3P6GXIPBN@ZA, eax ; glVertexAttrib1dv
	test	eax, eax
	jne	SHORT $LN47@glExtGetGL
	xor	edi, edi
$LN47@glExtGetGL:
; Line 111
	push	OFFSET $SG75617
	call	esi
	mov	DWORD PTR ?glVertexAttrib2sv@@3P6GXIPBF@ZA, eax ; glVertexAttrib2sv
	test	eax, eax
	jne	SHORT $LN46@glExtGetGL
	xor	edi, edi
$LN46@glExtGetGL:
; Line 112
	push	OFFSET $SG75620
	call	esi
	mov	DWORD PTR ?glVertexAttrib2fv@@3P6GXIPBM@ZA, eax ; glVertexAttrib2fv
	test	eax, eax
	jne	SHORT $LN45@glExtGetGL
	xor	edi, edi
$LN45@glExtGetGL:
; Line 113
	push	OFFSET $SG75623
	call	esi
	mov	DWORD PTR ?glVertexAttrib2dv@@3P6GXIPBN@ZA, eax ; glVertexAttrib2dv
	test	eax, eax
	jne	SHORT $LN44@glExtGetGL
	xor	edi, edi
$LN44@glExtGetGL:
; Line 114
	push	OFFSET $SG75626
	call	esi
	mov	DWORD PTR ?glVertexAttrib3sv@@3P6GXIPBF@ZA, eax ; glVertexAttrib3sv
	test	eax, eax
	jne	SHORT $LN43@glExtGetGL
	xor	edi, edi
$LN43@glExtGetGL:
; Line 115
	push	OFFSET $SG75629
	call	esi
	mov	DWORD PTR ?glVertexAttrib3fv@@3P6GXIPBM@ZA, eax ; glVertexAttrib3fv
	test	eax, eax
	jne	SHORT $LN42@glExtGetGL
	xor	edi, edi
$LN42@glExtGetGL:
; Line 116
	push	OFFSET $SG75632
	call	esi
	mov	DWORD PTR ?glVertexAttrib3dv@@3P6GXIPBN@ZA, eax ; glVertexAttrib3dv
	test	eax, eax
	jne	SHORT $LN41@glExtGetGL
	xor	edi, edi
$LN41@glExtGetGL:
; Line 117
	push	OFFSET $SG75635
	call	esi
	mov	DWORD PTR ?glVertexAttrib4bv@@3P6GXIPBC@ZA, eax ; glVertexAttrib4bv
	test	eax, eax
	jne	SHORT $LN40@glExtGetGL
	xor	edi, edi
$LN40@glExtGetGL:
; Line 118
	push	OFFSET $SG75638
	call	esi
	mov	DWORD PTR ?glVertexAttrib4sv@@3P6GXIPBF@ZA, eax ; glVertexAttrib4sv
	test	eax, eax
	jne	SHORT $LN39@glExtGetGL
	xor	edi, edi
$LN39@glExtGetGL:
; Line 119
	push	OFFSET $SG75641
	call	esi
	mov	DWORD PTR ?glVertexAttrib4iv@@3P6GXIPBH@ZA, eax ; glVertexAttrib4iv
	test	eax, eax
	jne	SHORT $LN38@glExtGetGL
	xor	edi, edi
$LN38@glExtGetGL:
; Line 120
	push	OFFSET $SG75644
	call	esi
	mov	DWORD PTR ?glVertexAttrib4ubv@@3P6GXIPBE@ZA, eax ; glVertexAttrib4ubv
	test	eax, eax
	jne	SHORT $LN37@glExtGetGL
	xor	edi, edi
$LN37@glExtGetGL:
; Line 121
	push	OFFSET $SG75647
	call	esi
	mov	DWORD PTR ?glVertexAttrib4usv@@3P6GXIPBG@ZA, eax ; glVertexAttrib4usv
	test	eax, eax
	jne	SHORT $LN36@glExtGetGL
	xor	edi, edi
$LN36@glExtGetGL:
; Line 122
	push	OFFSET $SG75650
	call	esi
	mov	DWORD PTR ?glVertexAttrib4uiv@@3P6GXIPBI@ZA, eax ; glVertexAttrib4uiv
	test	eax, eax
	jne	SHORT $LN35@glExtGetGL
	xor	edi, edi
$LN35@glExtGetGL:
; Line 123
	push	OFFSET $SG75653
	call	esi
	mov	DWORD PTR ?glVertexAttrib4fv@@3P6GXIPBM@ZA, eax ; glVertexAttrib4fv
	test	eax, eax
	jne	SHORT $LN34@glExtGetGL
	xor	edi, edi
$LN34@glExtGetGL:
; Line 124
	push	OFFSET $SG75656
	call	esi
	mov	DWORD PTR ?glVertexAttrib4dv@@3P6GXIPBN@ZA, eax ; glVertexAttrib4dv
	test	eax, eax
	jne	SHORT $LN33@glExtGetGL
	xor	edi, edi
$LN33@glExtGetGL:
; Line 125
	push	OFFSET $SG75659
	call	esi
	mov	DWORD PTR ?glVertexAttrib4Nbv@@3P6GXIPBC@ZA, eax ; glVertexAttrib4Nbv
	test	eax, eax
	jne	SHORT $LN32@glExtGetGL
	xor	edi, edi
$LN32@glExtGetGL:
; Line 126
	push	OFFSET $SG75662
	call	esi
	mov	DWORD PTR ?glVertexAttrib4Nsv@@3P6GXIPBF@ZA, eax ; glVertexAttrib4Nsv
	test	eax, eax
	jne	SHORT $LN31@glExtGetGL
	xor	edi, edi
$LN31@glExtGetGL:
; Line 127
	push	OFFSET $SG75665
	call	esi
	mov	DWORD PTR ?glVertexAttrib4Niv@@3P6GXIPBH@ZA, eax ; glVertexAttrib4Niv
	test	eax, eax
	jne	SHORT $LN30@glExtGetGL
	xor	edi, edi
$LN30@glExtGetGL:
; Line 128
	push	OFFSET $SG75668
	call	esi
	mov	DWORD PTR ?glVertexAttrib4Nubv@@3P6GXIPBE@ZA, eax ; glVertexAttrib4Nubv
	test	eax, eax
	jne	SHORT $LN29@glExtGetGL
	xor	edi, edi
$LN29@glExtGetGL:
; Line 129
	push	OFFSET $SG75671
	call	esi
	mov	DWORD PTR ?glVertexAttrib4Nusv@@3P6GXIPBG@ZA, eax ; glVertexAttrib4Nusv
	test	eax, eax
	jne	SHORT $LN28@glExtGetGL
	xor	edi, edi
$LN28@glExtGetGL:
; Line 130
	push	OFFSET $SG75674
	call	esi
	mov	DWORD PTR ?glVertexAttrib4Nuiv@@3P6GXIPBI@ZA, eax ; glVertexAttrib4Nuiv
	test	eax, eax
	jne	SHORT $LN27@glExtGetGL
	xor	edi, edi
$LN27@glExtGetGL:
; Line 131
	push	OFFSET $SG75677
	call	esi
	mov	DWORD PTR ?glVertexAttribPointer@@3P6GXIHIEHPBX@ZA, eax ; glVertexAttribPointer
	test	eax, eax
	jne	SHORT $LN26@glExtGetGL
	xor	edi, edi
$LN26@glExtGetGL:
; Line 132
	push	OFFSET $SG75680
	call	esi
	mov	DWORD PTR ?glEnableVertexAttribArray@@3P6GXI@ZA, eax ; glEnableVertexAttribArray
	test	eax, eax
	jne	SHORT $LN25@glExtGetGL
	xor	edi, edi
$LN25@glExtGetGL:
; Line 133
	push	OFFSET $SG75683
	call	esi
	mov	DWORD PTR ?glDisableVertexAttribArray@@3P6GXI@ZA, eax ; glDisableVertexAttribArray
	test	eax, eax
	jne	SHORT $LN24@glExtGetGL
	xor	edi, edi
$LN24@glExtGetGL:
; Line 134
	push	OFFSET $SG75686
	call	esi
	mov	DWORD PTR ?glProgramString@@3P6GXIIHPBX@ZA, eax ; glProgramString
	test	eax, eax
	jne	SHORT $LN23@glExtGetGL
	xor	edi, edi
$LN23@glExtGetGL:
; Line 135
	push	OFFSET $SG75689
	call	esi
	mov	DWORD PTR ?glBindProgram@@3P6GXII@ZA, eax ; glBindProgram
	test	eax, eax
	jne	SHORT $LN22@glExtGetGL
	xor	edi, edi
$LN22@glExtGetGL:
; Line 136
	push	OFFSET $SG75692
	call	esi
	mov	DWORD PTR ?glDeletePrograms@@3P6GXHPBI@ZA, eax ; glDeletePrograms
	test	eax, eax
	jne	SHORT $LN21@glExtGetGL
	xor	edi, edi
$LN21@glExtGetGL:
; Line 137
	push	OFFSET $SG75695
	call	esi
	mov	DWORD PTR ?glGenPrograms@@3P6GXHPAI@ZA, eax ; glGenPrograms
	test	eax, eax
	jne	SHORT $LN20@glExtGetGL
	xor	edi, edi
$LN20@glExtGetGL:
; Line 138
	push	OFFSET $SG75698
	call	esi
	mov	DWORD PTR ?glProgramEnvParameter4d@@3P6GXIINNNN@ZA, eax ; glProgramEnvParameter4d
	test	eax, eax
	jne	SHORT $LN19@glExtGetGL
	xor	edi, edi
$LN19@glExtGetGL:
; Line 139
	push	OFFSET $SG75701
	call	esi
	mov	DWORD PTR ?glProgramEnvParameter4dv@@3P6GXIIPBN@ZA, eax ; glProgramEnvParameter4dv
	test	eax, eax
	jne	SHORT $LN18@glExtGetGL
	xor	edi, edi
$LN18@glExtGetGL:
; Line 140
	push	OFFSET $SG75704
	call	esi
	mov	DWORD PTR ?glProgramEnvParameter4f@@3P6GXIIMMMM@ZA, eax ; glProgramEnvParameter4f
	test	eax, eax
	jne	SHORT $LN17@glExtGetGL
	xor	edi, edi
$LN17@glExtGetGL:
; Line 141
	push	OFFSET $SG75707
	call	esi
	mov	DWORD PTR ?glProgramEnvParameter4fv@@3P6GXIIPBM@ZA, eax ; glProgramEnvParameter4fv
	test	eax, eax
	jne	SHORT $LN16@glExtGetGL
	xor	edi, edi
$LN16@glExtGetGL:
; Line 142
	push	OFFSET $SG75710
	call	esi
	mov	DWORD PTR ?glProgramLocalParameter4d@@3P6GXIINNNN@ZA, eax ; glProgramLocalParameter4d
	test	eax, eax
	jne	SHORT $LN15@glExtGetGL
	xor	edi, edi
$LN15@glExtGetGL:
; Line 143
	push	OFFSET $SG75713
	call	esi
	mov	DWORD PTR ?glProgramLocalParameter4dv@@3P6GXIIPBN@ZA, eax ; glProgramLocalParameter4dv
	test	eax, eax
	jne	SHORT $LN14@glExtGetGL
	xor	edi, edi
$LN14@glExtGetGL:
; Line 144
	push	OFFSET $SG75716
	call	esi
	mov	DWORD PTR ?glProgramLocalParameter4f@@3P6GXIIMMMM@ZA, eax ; glProgramLocalParameter4f
	test	eax, eax
	jne	SHORT $LN13@glExtGetGL
	xor	edi, edi
$LN13@glExtGetGL:
; Line 145
	push	OFFSET $SG75719
	call	esi
	mov	DWORD PTR ?glProgramLocalParameter4fv@@3P6GXIIPBM@ZA, eax ; glProgramLocalParameter4fv
	test	eax, eax
	jne	SHORT $LN12@glExtGetGL
	xor	edi, edi
$LN12@glExtGetGL:
; Line 146
	push	OFFSET $SG75722
	call	esi
	mov	DWORD PTR ?glGetProgramEnvParameterdv@@3P6GXIIPAN@ZA, eax ; glGetProgramEnvParameterdv
	test	eax, eax
	jne	SHORT $LN11@glExtGetGL
	xor	edi, edi
$LN11@glExtGetGL:
; Line 147
	push	OFFSET $SG75725
	call	esi
	mov	DWORD PTR ?glGetProgramEnvParameterfv@@3P6GXIIPAM@ZA, eax ; glGetProgramEnvParameterfv
	test	eax, eax
	jne	SHORT $LN10@glExtGetGL
	xor	edi, edi
$LN10@glExtGetGL:
; Line 148
	push	OFFSET $SG75728
	call	esi
	mov	DWORD PTR ?glGetProgramLocalParameterdv@@3P6GXIIPAN@ZA, eax ; glGetProgramLocalParameterdv
	test	eax, eax
	jne	SHORT $LN9@glExtGetGL
	xor	edi, edi
$LN9@glExtGetGL:
; Line 149
	push	OFFSET $SG75731
	call	esi
	mov	DWORD PTR ?glGetProgramLocalParameterfv@@3P6GXIIPAM@ZA, eax ; glGetProgramLocalParameterfv
	test	eax, eax
	jne	SHORT $LN8@glExtGetGL
	xor	edi, edi
$LN8@glExtGetGL:
; Line 150
	push	OFFSET $SG75734
	call	esi
	mov	DWORD PTR ?glGetProgramiv@@3P6GXIIPAH@ZA, eax ; glGetProgramiv
	test	eax, eax
	jne	SHORT $LN7@glExtGetGL
	xor	edi, edi
$LN7@glExtGetGL:
; Line 151
	push	OFFSET $SG75737
	call	esi
	mov	DWORD PTR ?glGetProgramString@@3P6GXIIPAX@ZA, eax ; glGetProgramString
	test	eax, eax
	jne	SHORT $LN6@glExtGetGL
	xor	edi, edi
$LN6@glExtGetGL:
; Line 152
	push	OFFSET $SG75740
	call	esi
	mov	DWORD PTR ?glGetVertexAttribdv@@3P6GXIIPAN@ZA, eax ; glGetVertexAttribdv
	test	eax, eax
	jne	SHORT $LN5@glExtGetGL
	xor	edi, edi
$LN5@glExtGetGL:
; Line 153
	push	OFFSET $SG75743
	call	esi
	mov	DWORD PTR ?glGetVertexAttribfv@@3P6GXIIPAM@ZA, eax ; glGetVertexAttribfv
	test	eax, eax
	jne	SHORT $LN4@glExtGetGL
	xor	edi, edi
$LN4@glExtGetGL:
; Line 154
	push	OFFSET $SG75746
	call	esi
	mov	DWORD PTR ?glGetVertexAttribiv@@3P6GXIIPAH@ZA, eax ; glGetVertexAttribiv
	test	eax, eax
	jne	SHORT $LN3@glExtGetGL
	xor	edi, edi
$LN3@glExtGetGL:
; Line 155
	push	OFFSET $SG75749
	call	esi
	mov	DWORD PTR ?glGetVertexAttribPointerv@@3P6GXIIPAPAX@ZA, eax ; glGetVertexAttribPointerv
	test	eax, eax
	jne	SHORT $LN2@glExtGetGL
	xor	edi, edi
$LN2@glExtGetGL:
; Line 156
	push	OFFSET $SG75752
	call	esi
	mov	DWORD PTR ?glIsProgram@@3P6GEI@ZA, eax	; glIsProgram
	test	eax, eax
	jne	SHORT $LN65@glExtGetGL
	pop	edi
	pop	esi
; Line 159
	ret	0
$LN65@glExtGetGL:
; Line 158
	mov	eax, edi
	pop	edi
	pop	esi
; Line 159
	ret	0
?glExtGetGLProcs_VertexProgram_1_0_ARB@@YAHXZ ENDP	; glExtGetGLProcs_VertexProgram_1_0_ARB
_TEXT	ENDS
END
