; Listing generated by Microsoft (R) Optimizing Compiler Version 16.00.40219.01 

	TITLE	C:\programovani\WoW Editor\Test\src\Editor\Sky.cpp
	.686P
	.XMM
	include listing.inc
	.model	flat

INCLUDELIB MSVCRT
INCLUDELIB OLDNAMES

PUBLIC	?value@?$integral_constant@_N$0A@@tr1@std@@2_NB	; std::tr1::integral_constant<bool,0>::value
PUBLIC	?value@?$integral_constant@_N$00@tr1@std@@2_NB	; std::tr1::integral_constant<bool,1>::value
PUBLIC	?value@?$integral_constant@I$0A@@tr1@std@@2IB	; std::tr1::integral_constant<unsigned int,0>::value
PUBLIC	?_Rank@?$_Arithmetic_traits@_N@std@@2HB		; std::_Arithmetic_traits<bool>::_Rank
PUBLIC	?_Rank@?$_Arithmetic_traits@D@std@@2HB		; std::_Arithmetic_traits<char>::_Rank
PUBLIC	?_Rank@?$_Arithmetic_traits@C@std@@2HB		; std::_Arithmetic_traits<signed char>::_Rank
PUBLIC	?_Rank@?$_Arithmetic_traits@E@std@@2HB		; std::_Arithmetic_traits<unsigned char>::_Rank
PUBLIC	?_Rank@?$_Arithmetic_traits@F@std@@2HB		; std::_Arithmetic_traits<short>::_Rank
PUBLIC	?_Rank@?$_Arithmetic_traits@G@std@@2HB		; std::_Arithmetic_traits<unsigned short>::_Rank
PUBLIC	?_Rank@?$_Arithmetic_traits@H@std@@2HB		; std::_Arithmetic_traits<int>::_Rank
PUBLIC	?_Rank@?$_Arithmetic_traits@I@std@@2HB		; std::_Arithmetic_traits<unsigned int>::_Rank
PUBLIC	?_Rank@?$_Arithmetic_traits@J@std@@2HB		; std::_Arithmetic_traits<long>::_Rank
PUBLIC	?_Rank@?$_Arithmetic_traits@K@std@@2HB		; std::_Arithmetic_traits<unsigned long>::_Rank
PUBLIC	?_Rank@?$_Arithmetic_traits@_J@std@@2HB		; std::_Arithmetic_traits<__int64>::_Rank
PUBLIC	?_Rank@?$_Arithmetic_traits@_K@std@@2HB		; std::_Arithmetic_traits<unsigned __int64>::_Rank
PUBLIC	?_Rank@?$_Arithmetic_traits@M@std@@2HB		; std::_Arithmetic_traits<float>::_Rank
PUBLIC	?_Rank@?$_Arithmetic_traits@N@std@@2HB		; std::_Arithmetic_traits<double>::_Rank
PUBLIC	?_Rank@?$_Arithmetic_traits@O@std@@2HB		; std::_Arithmetic_traits<long double>::_Rank
PUBLIC	?collate@?$_Locbase@H@std@@2HB			; std::_Locbase<int>::collate
PUBLIC	?ctype@?$_Locbase@H@std@@2HB			; std::_Locbase<int>::ctype
PUBLIC	?monetary@?$_Locbase@H@std@@2HB			; std::_Locbase<int>::monetary
PUBLIC	?numeric@?$_Locbase@H@std@@2HB			; std::_Locbase<int>::numeric
PUBLIC	?time@?$_Locbase@H@std@@2HB			; std::_Locbase<int>::time
PUBLIC	?messages@?$_Locbase@H@std@@2HB			; std::_Locbase<int>::messages
PUBLIC	?all@?$_Locbase@H@std@@2HB			; std::_Locbase<int>::all
PUBLIC	?none@?$_Locbase@H@std@@2HB			; std::_Locbase<int>::none
PUBLIC	?skipws@?$_Iosb@H@std@@2W4_Fmtflags@12@B	; std::_Iosb<int>::skipws
PUBLIC	?unitbuf@?$_Iosb@H@std@@2W4_Fmtflags@12@B	; std::_Iosb<int>::unitbuf
PUBLIC	?uppercase@?$_Iosb@H@std@@2W4_Fmtflags@12@B	; std::_Iosb<int>::uppercase
PUBLIC	?showbase@?$_Iosb@H@std@@2W4_Fmtflags@12@B	; std::_Iosb<int>::showbase
PUBLIC	?showpoint@?$_Iosb@H@std@@2W4_Fmtflags@12@B	; std::_Iosb<int>::showpoint
PUBLIC	?showpos@?$_Iosb@H@std@@2W4_Fmtflags@12@B	; std::_Iosb<int>::showpos
PUBLIC	?left@?$_Iosb@H@std@@2W4_Fmtflags@12@B		; std::_Iosb<int>::left
PUBLIC	?right@?$_Iosb@H@std@@2W4_Fmtflags@12@B		; std::_Iosb<int>::right
PUBLIC	?internal@?$_Iosb@H@std@@2W4_Fmtflags@12@B	; std::_Iosb<int>::internal
PUBLIC	?dec@?$_Iosb@H@std@@2W4_Fmtflags@12@B		; std::_Iosb<int>::dec
PUBLIC	?oct@?$_Iosb@H@std@@2W4_Fmtflags@12@B		; std::_Iosb<int>::oct
PUBLIC	?hex@?$_Iosb@H@std@@2W4_Fmtflags@12@B		; std::_Iosb<int>::hex
PUBLIC	?scientific@?$_Iosb@H@std@@2W4_Fmtflags@12@B	; std::_Iosb<int>::scientific
PUBLIC	?fixed@?$_Iosb@H@std@@2W4_Fmtflags@12@B		; std::_Iosb<int>::fixed
PUBLIC	?hexfloat@?$_Iosb@H@std@@2W4_Fmtflags@12@B	; std::_Iosb<int>::hexfloat
PUBLIC	?boolalpha@?$_Iosb@H@std@@2W4_Fmtflags@12@B	; std::_Iosb<int>::boolalpha
PUBLIC	?_Stdio@?$_Iosb@H@std@@2W4_Fmtflags@12@B	; std::_Iosb<int>::_Stdio
PUBLIC	?adjustfield@?$_Iosb@H@std@@2W4_Fmtflags@12@B	; std::_Iosb<int>::adjustfield
PUBLIC	?basefield@?$_Iosb@H@std@@2W4_Fmtflags@12@B	; std::_Iosb<int>::basefield
PUBLIC	?floatfield@?$_Iosb@H@std@@2W4_Fmtflags@12@B	; std::_Iosb<int>::floatfield
PUBLIC	?goodbit@?$_Iosb@H@std@@2W4_Iostate@12@B	; std::_Iosb<int>::goodbit
PUBLIC	?eofbit@?$_Iosb@H@std@@2W4_Iostate@12@B		; std::_Iosb<int>::eofbit
PUBLIC	?failbit@?$_Iosb@H@std@@2W4_Iostate@12@B	; std::_Iosb<int>::failbit
PUBLIC	?badbit@?$_Iosb@H@std@@2W4_Iostate@12@B		; std::_Iosb<int>::badbit
PUBLIC	?_Hardfail@?$_Iosb@H@std@@2W4_Iostate@12@B	; std::_Iosb<int>::_Hardfail
PUBLIC	?in@?$_Iosb@H@std@@2W4_Openmode@12@B		; std::_Iosb<int>::in
PUBLIC	?out@?$_Iosb@H@std@@2W4_Openmode@12@B		; std::_Iosb<int>::out
PUBLIC	?ate@?$_Iosb@H@std@@2W4_Openmode@12@B		; std::_Iosb<int>::ate
PUBLIC	?app@?$_Iosb@H@std@@2W4_Openmode@12@B		; std::_Iosb<int>::app
PUBLIC	?trunc@?$_Iosb@H@std@@2W4_Openmode@12@B		; std::_Iosb<int>::trunc
PUBLIC	?_Nocreate@?$_Iosb@H@std@@2W4_Openmode@12@B	; std::_Iosb<int>::_Nocreate
PUBLIC	?_Noreplace@?$_Iosb@H@std@@2W4_Openmode@12@B	; std::_Iosb<int>::_Noreplace
PUBLIC	?binary@?$_Iosb@H@std@@2W4_Openmode@12@B	; std::_Iosb<int>::binary
PUBLIC	?beg@?$_Iosb@H@std@@2W4_Seekdir@12@B		; std::_Iosb<int>::beg
PUBLIC	?cur@?$_Iosb@H@std@@2W4_Seekdir@12@B		; std::_Iosb<int>::cur
PUBLIC	?end@?$_Iosb@H@std@@2W4_Seekdir@12@B		; std::_Iosb<int>::end
CONST	SEGMENT
_skymul	DD	042100000r			; 36
_rad	DD	043c80000r			; 400
_angles	DD	042b40000r			; 90
	DD	041f00000r			; 30
	DD	041700000r			; 15
	DD	040a00000r			; 5
	DD	000000000r			; 0
	DD	0c1f00000r			; -30
	DD	0c2b40000r			; -90
_skycolors DD	02H
	DD	03H
	DD	04H
	DD	05H
	DD	06H
	DD	07H
	DD	07H
$SG82585 DB	'World\Maps\%s\lights.lit', 00H
	ORG $+3
$SG82588 DB	'World\Maps\Kalimdor\lights.lit', 00H
	ORG $+1
$SG82746 DB	'Environments\Stars\Stars.mdx', 00H
	ORG $+7
$SG82808 DB	'[World of Warcraft Studio - Editor] - Sky %d %d is out o'
	DB	'f bounds!', 0aH, 00H
	ORG $+1
$SG82823 DB	'[no sky]', 00H
CONST	ENDS
;	COMDAT ?end@?$_Iosb@H@std@@2W4_Seekdir@12@B
CONST	SEGMENT
?end@?$_Iosb@H@std@@2W4_Seekdir@12@B DD 02H		; std::_Iosb<int>::end
CONST	ENDS
;	COMDAT ?cur@?$_Iosb@H@std@@2W4_Seekdir@12@B
CONST	SEGMENT
?cur@?$_Iosb@H@std@@2W4_Seekdir@12@B DD 01H		; std::_Iosb<int>::cur
CONST	ENDS
;	COMDAT ?beg@?$_Iosb@H@std@@2W4_Seekdir@12@B
CONST	SEGMENT
?beg@?$_Iosb@H@std@@2W4_Seekdir@12@B DD 00H		; std::_Iosb<int>::beg
CONST	ENDS
;	COMDAT ?binary@?$_Iosb@H@std@@2W4_Openmode@12@B
CONST	SEGMENT
?binary@?$_Iosb@H@std@@2W4_Openmode@12@B DD 020H	; std::_Iosb<int>::binary
CONST	ENDS
;	COMDAT ?_Noreplace@?$_Iosb@H@std@@2W4_Openmode@12@B
CONST	SEGMENT
?_Noreplace@?$_Iosb@H@std@@2W4_Openmode@12@B DD 080H	; std::_Iosb<int>::_Noreplace
CONST	ENDS
;	COMDAT ?_Nocreate@?$_Iosb@H@std@@2W4_Openmode@12@B
CONST	SEGMENT
?_Nocreate@?$_Iosb@H@std@@2W4_Openmode@12@B DD 040H	; std::_Iosb<int>::_Nocreate
CONST	ENDS
;	COMDAT ?trunc@?$_Iosb@H@std@@2W4_Openmode@12@B
CONST	SEGMENT
?trunc@?$_Iosb@H@std@@2W4_Openmode@12@B DD 010H		; std::_Iosb<int>::trunc
CONST	ENDS
;	COMDAT ?app@?$_Iosb@H@std@@2W4_Openmode@12@B
CONST	SEGMENT
?app@?$_Iosb@H@std@@2W4_Openmode@12@B DD 08H		; std::_Iosb<int>::app
CONST	ENDS
;	COMDAT ?ate@?$_Iosb@H@std@@2W4_Openmode@12@B
CONST	SEGMENT
?ate@?$_Iosb@H@std@@2W4_Openmode@12@B DD 04H		; std::_Iosb<int>::ate
CONST	ENDS
;	COMDAT ?out@?$_Iosb@H@std@@2W4_Openmode@12@B
CONST	SEGMENT
?out@?$_Iosb@H@std@@2W4_Openmode@12@B DD 02H		; std::_Iosb<int>::out
CONST	ENDS
;	COMDAT ?in@?$_Iosb@H@std@@2W4_Openmode@12@B
CONST	SEGMENT
?in@?$_Iosb@H@std@@2W4_Openmode@12@B DD 01H		; std::_Iosb<int>::in
CONST	ENDS
;	COMDAT ?_Hardfail@?$_Iosb@H@std@@2W4_Iostate@12@B
CONST	SEGMENT
?_Hardfail@?$_Iosb@H@std@@2W4_Iostate@12@B DD 010H	; std::_Iosb<int>::_Hardfail
CONST	ENDS
;	COMDAT ?badbit@?$_Iosb@H@std@@2W4_Iostate@12@B
CONST	SEGMENT
?badbit@?$_Iosb@H@std@@2W4_Iostate@12@B DD 04H		; std::_Iosb<int>::badbit
CONST	ENDS
;	COMDAT ?failbit@?$_Iosb@H@std@@2W4_Iostate@12@B
CONST	SEGMENT
?failbit@?$_Iosb@H@std@@2W4_Iostate@12@B DD 02H		; std::_Iosb<int>::failbit
CONST	ENDS
;	COMDAT ?eofbit@?$_Iosb@H@std@@2W4_Iostate@12@B
CONST	SEGMENT
?eofbit@?$_Iosb@H@std@@2W4_Iostate@12@B DD 01H		; std::_Iosb<int>::eofbit
CONST	ENDS
;	COMDAT ?goodbit@?$_Iosb@H@std@@2W4_Iostate@12@B
CONST	SEGMENT
?goodbit@?$_Iosb@H@std@@2W4_Iostate@12@B DD 00H		; std::_Iosb<int>::goodbit
CONST	ENDS
;	COMDAT ?floatfield@?$_Iosb@H@std@@2W4_Fmtflags@12@B
CONST	SEGMENT
?floatfield@?$_Iosb@H@std@@2W4_Fmtflags@12@B DD 03000H	; std::_Iosb<int>::floatfield
CONST	ENDS
;	COMDAT ?basefield@?$_Iosb@H@std@@2W4_Fmtflags@12@B
CONST	SEGMENT
?basefield@?$_Iosb@H@std@@2W4_Fmtflags@12@B DD 0e00H	; std::_Iosb<int>::basefield
CONST	ENDS
;	COMDAT ?adjustfield@?$_Iosb@H@std@@2W4_Fmtflags@12@B
CONST	SEGMENT
?adjustfield@?$_Iosb@H@std@@2W4_Fmtflags@12@B DD 01c0H	; std::_Iosb<int>::adjustfield
CONST	ENDS
;	COMDAT ?_Stdio@?$_Iosb@H@std@@2W4_Fmtflags@12@B
CONST	SEGMENT
?_Stdio@?$_Iosb@H@std@@2W4_Fmtflags@12@B DD 08000H	; std::_Iosb<int>::_Stdio
CONST	ENDS
;	COMDAT ?boolalpha@?$_Iosb@H@std@@2W4_Fmtflags@12@B
CONST	SEGMENT
?boolalpha@?$_Iosb@H@std@@2W4_Fmtflags@12@B DD 04000H	; std::_Iosb<int>::boolalpha
CONST	ENDS
;	COMDAT ?hexfloat@?$_Iosb@H@std@@2W4_Fmtflags@12@B
CONST	SEGMENT
?hexfloat@?$_Iosb@H@std@@2W4_Fmtflags@12@B DD 03000H	; std::_Iosb<int>::hexfloat
CONST	ENDS
;	COMDAT ?fixed@?$_Iosb@H@std@@2W4_Fmtflags@12@B
CONST	SEGMENT
?fixed@?$_Iosb@H@std@@2W4_Fmtflags@12@B DD 02000H	; std::_Iosb<int>::fixed
CONST	ENDS
;	COMDAT ?scientific@?$_Iosb@H@std@@2W4_Fmtflags@12@B
CONST	SEGMENT
?scientific@?$_Iosb@H@std@@2W4_Fmtflags@12@B DD 01000H	; std::_Iosb<int>::scientific
CONST	ENDS
;	COMDAT ?hex@?$_Iosb@H@std@@2W4_Fmtflags@12@B
CONST	SEGMENT
?hex@?$_Iosb@H@std@@2W4_Fmtflags@12@B DD 0800H		; std::_Iosb<int>::hex
CONST	ENDS
;	COMDAT ?oct@?$_Iosb@H@std@@2W4_Fmtflags@12@B
CONST	SEGMENT
?oct@?$_Iosb@H@std@@2W4_Fmtflags@12@B DD 0400H		; std::_Iosb<int>::oct
CONST	ENDS
;	COMDAT ?dec@?$_Iosb@H@std@@2W4_Fmtflags@12@B
CONST	SEGMENT
?dec@?$_Iosb@H@std@@2W4_Fmtflags@12@B DD 0200H		; std::_Iosb<int>::dec
CONST	ENDS
;	COMDAT ?internal@?$_Iosb@H@std@@2W4_Fmtflags@12@B
CONST	SEGMENT
?internal@?$_Iosb@H@std@@2W4_Fmtflags@12@B DD 0100H	; std::_Iosb<int>::internal
CONST	ENDS
;	COMDAT ?right@?$_Iosb@H@std@@2W4_Fmtflags@12@B
CONST	SEGMENT
?right@?$_Iosb@H@std@@2W4_Fmtflags@12@B DD 080H		; std::_Iosb<int>::right
CONST	ENDS
;	COMDAT ?left@?$_Iosb@H@std@@2W4_Fmtflags@12@B
CONST	SEGMENT
?left@?$_Iosb@H@std@@2W4_Fmtflags@12@B DD 040H		; std::_Iosb<int>::left
CONST	ENDS
;	COMDAT ?showpos@?$_Iosb@H@std@@2W4_Fmtflags@12@B
CONST	SEGMENT
?showpos@?$_Iosb@H@std@@2W4_Fmtflags@12@B DD 020H	; std::_Iosb<int>::showpos
CONST	ENDS
;	COMDAT ?showpoint@?$_Iosb@H@std@@2W4_Fmtflags@12@B
CONST	SEGMENT
?showpoint@?$_Iosb@H@std@@2W4_Fmtflags@12@B DD 010H	; std::_Iosb<int>::showpoint
CONST	ENDS
;	COMDAT ?showbase@?$_Iosb@H@std@@2W4_Fmtflags@12@B
CONST	SEGMENT
?showbase@?$_Iosb@H@std@@2W4_Fmtflags@12@B DD 08H	; std::_Iosb<int>::showbase
CONST	ENDS
;	COMDAT ?uppercase@?$_Iosb@H@std@@2W4_Fmtflags@12@B
CONST	SEGMENT
?uppercase@?$_Iosb@H@std@@2W4_Fmtflags@12@B DD 04H	; std::_Iosb<int>::uppercase
CONST	ENDS
;	COMDAT ?unitbuf@?$_Iosb@H@std@@2W4_Fmtflags@12@B
CONST	SEGMENT
?unitbuf@?$_Iosb@H@std@@2W4_Fmtflags@12@B DD 02H	; std::_Iosb<int>::unitbuf
CONST	ENDS
;	COMDAT ?skipws@?$_Iosb@H@std@@2W4_Fmtflags@12@B
CONST	SEGMENT
?skipws@?$_Iosb@H@std@@2W4_Fmtflags@12@B DD 01H		; std::_Iosb<int>::skipws
CONST	ENDS
;	COMDAT ?none@?$_Locbase@H@std@@2HB
CONST	SEGMENT
?none@?$_Locbase@H@std@@2HB DD 00H			; std::_Locbase<int>::none
CONST	ENDS
;	COMDAT ?all@?$_Locbase@H@std@@2HB
CONST	SEGMENT
?all@?$_Locbase@H@std@@2HB DD 03fH			; std::_Locbase<int>::all
CONST	ENDS
;	COMDAT ?messages@?$_Locbase@H@std@@2HB
CONST	SEGMENT
?messages@?$_Locbase@H@std@@2HB DD 020H			; std::_Locbase<int>::messages
CONST	ENDS
;	COMDAT ?time@?$_Locbase@H@std@@2HB
CONST	SEGMENT
?time@?$_Locbase@H@std@@2HB DD 010H			; std::_Locbase<int>::time
CONST	ENDS
;	COMDAT ?numeric@?$_Locbase@H@std@@2HB
CONST	SEGMENT
?numeric@?$_Locbase@H@std@@2HB DD 08H			; std::_Locbase<int>::numeric
CONST	ENDS
;	COMDAT ?monetary@?$_Locbase@H@std@@2HB
CONST	SEGMENT
?monetary@?$_Locbase@H@std@@2HB DD 04H			; std::_Locbase<int>::monetary
CONST	ENDS
;	COMDAT ?ctype@?$_Locbase@H@std@@2HB
CONST	SEGMENT
?ctype@?$_Locbase@H@std@@2HB DD 02H			; std::_Locbase<int>::ctype
CONST	ENDS
;	COMDAT ?collate@?$_Locbase@H@std@@2HB
CONST	SEGMENT
?collate@?$_Locbase@H@std@@2HB DD 01H			; std::_Locbase<int>::collate
CONST	ENDS
;	COMDAT ?_Rank@?$_Arithmetic_traits@O@std@@2HB
CONST	SEGMENT
?_Rank@?$_Arithmetic_traits@O@std@@2HB DD 09H		; std::_Arithmetic_traits<long double>::_Rank
CONST	ENDS
;	COMDAT ?_Rank@?$_Arithmetic_traits@N@std@@2HB
CONST	SEGMENT
?_Rank@?$_Arithmetic_traits@N@std@@2HB DD 08H		; std::_Arithmetic_traits<double>::_Rank
CONST	ENDS
;	COMDAT ?_Rank@?$_Arithmetic_traits@M@std@@2HB
CONST	SEGMENT
?_Rank@?$_Arithmetic_traits@M@std@@2HB DD 07H		; std::_Arithmetic_traits<float>::_Rank
CONST	ENDS
;	COMDAT ?_Rank@?$_Arithmetic_traits@_K@std@@2HB
CONST	SEGMENT
?_Rank@?$_Arithmetic_traits@_K@std@@2HB DD 06H		; std::_Arithmetic_traits<unsigned __int64>::_Rank
CONST	ENDS
;	COMDAT ?_Rank@?$_Arithmetic_traits@_J@std@@2HB
CONST	SEGMENT
?_Rank@?$_Arithmetic_traits@_J@std@@2HB DD 06H		; std::_Arithmetic_traits<__int64>::_Rank
CONST	ENDS
;	COMDAT ?_Rank@?$_Arithmetic_traits@K@std@@2HB
CONST	SEGMENT
?_Rank@?$_Arithmetic_traits@K@std@@2HB DD 05H		; std::_Arithmetic_traits<unsigned long>::_Rank
CONST	ENDS
;	COMDAT ?_Rank@?$_Arithmetic_traits@J@std@@2HB
CONST	SEGMENT
?_Rank@?$_Arithmetic_traits@J@std@@2HB DD 05H		; std::_Arithmetic_traits<long>::_Rank
CONST	ENDS
;	COMDAT ?_Rank@?$_Arithmetic_traits@I@std@@2HB
CONST	SEGMENT
?_Rank@?$_Arithmetic_traits@I@std@@2HB DD 04H		; std::_Arithmetic_traits<unsigned int>::_Rank
CONST	ENDS
;	COMDAT ?_Rank@?$_Arithmetic_traits@H@std@@2HB
CONST	SEGMENT
?_Rank@?$_Arithmetic_traits@H@std@@2HB DD 04H		; std::_Arithmetic_traits<int>::_Rank
CONST	ENDS
;	COMDAT ?_Rank@?$_Arithmetic_traits@G@std@@2HB
CONST	SEGMENT
?_Rank@?$_Arithmetic_traits@G@std@@2HB DD 03H		; std::_Arithmetic_traits<unsigned short>::_Rank
CONST	ENDS
;	COMDAT ?_Rank@?$_Arithmetic_traits@F@std@@2HB
CONST	SEGMENT
?_Rank@?$_Arithmetic_traits@F@std@@2HB DD 03H		; std::_Arithmetic_traits<short>::_Rank
CONST	ENDS
;	COMDAT ?_Rank@?$_Arithmetic_traits@E@std@@2HB
CONST	SEGMENT
?_Rank@?$_Arithmetic_traits@E@std@@2HB DD 02H		; std::_Arithmetic_traits<unsigned char>::_Rank
CONST	ENDS
;	COMDAT ?_Rank@?$_Arithmetic_traits@C@std@@2HB
CONST	SEGMENT
?_Rank@?$_Arithmetic_traits@C@std@@2HB DD 02H		; std::_Arithmetic_traits<signed char>::_Rank
CONST	ENDS
;	COMDAT ?_Rank@?$_Arithmetic_traits@D@std@@2HB
CONST	SEGMENT
?_Rank@?$_Arithmetic_traits@D@std@@2HB DD 02H		; std::_Arithmetic_traits<char>::_Rank
CONST	ENDS
;	COMDAT ?_Rank@?$_Arithmetic_traits@_N@std@@2HB
CONST	SEGMENT
?_Rank@?$_Arithmetic_traits@_N@std@@2HB DD 01H		; std::_Arithmetic_traits<bool>::_Rank
CONST	ENDS
;	COMDAT ?value@?$integral_constant@I$0A@@tr1@std@@2IB
CONST	SEGMENT
?value@?$integral_constant@I$0A@@tr1@std@@2IB DD 00H	; std::tr1::integral_constant<unsigned int,0>::value
CONST	ENDS
;	COMDAT ?value@?$integral_constant@_N$00@tr1@std@@2_NB
CONST	SEGMENT
?value@?$integral_constant@_N$00@tr1@std@@2_NB DB 01H	; std::tr1::integral_constant<bool,1>::value
CONST	ENDS
;	COMDAT ?value@?$integral_constant@_N$0A@@tr1@std@@2_NB
CONST	SEGMENT
?value@?$integral_constant@_N$0A@@tr1@std@@2_NB DB 00H	; std::tr1::integral_constant<bool,0>::value
CONST	ENDS
PUBLIC	??_7bad_alloc@std@@6B@				; std::bad_alloc::`vftable'
PUBLIC	??0bad_alloc@std@@QAE@PBD@Z			; std::bad_alloc::bad_alloc
PUBLIC	??_R4bad_alloc@std@@6B@				; std::bad_alloc::`RTTI Complete Object Locator'
PUBLIC	??_R0?AVbad_alloc@std@@@8			; std::bad_alloc `RTTI Type Descriptor'
PUBLIC	??_R3bad_alloc@std@@8				; std::bad_alloc::`RTTI Class Hierarchy Descriptor'
PUBLIC	??_R2bad_alloc@std@@8				; std::bad_alloc::`RTTI Base Class Array'
PUBLIC	??_R1A@?0A@EA@bad_alloc@std@@8			; std::bad_alloc::`RTTI Base Class Descriptor at (0,-1,0,64)'
PUBLIC	??_R1A@?0A@EA@exception@std@@8			; std::exception::`RTTI Base Class Descriptor at (0,-1,0,64)'
PUBLIC	??_R0?AVexception@std@@@8			; std::exception `RTTI Type Descriptor'
PUBLIC	??_R3exception@std@@8				; std::exception::`RTTI Class Hierarchy Descriptor'
PUBLIC	??_R2exception@std@@8				; std::exception::`RTTI Base Class Array'
EXTRN	__imp_??0exception@std@@QAE@ABQBD@Z:PROC
EXTRN	??_7type_info@@6B@:QWORD			; type_info::`vftable'
EXTRN	??_Ebad_alloc@std@@UAEPAXI@Z:PROC		; std::bad_alloc::`vector deleting destructor'
EXTRN	?what@exception@std@@UBEPBDXZ:PROC		; std::exception::what
;	COMDAT ??_R2exception@std@@8
; File c:\program files (x86)\microsoft visual studio 10.0\vc\include\exception
rdata$r	SEGMENT
??_R2exception@std@@8 DD FLAT:??_R1A@?0A@EA@exception@std@@8 ; std::exception::`RTTI Base Class Array'
rdata$r	ENDS
;	COMDAT ??_R3exception@std@@8
rdata$r	SEGMENT
??_R3exception@std@@8 DD 00H				; std::exception::`RTTI Class Hierarchy Descriptor'
	DD	00H
	DD	01H
	DD	FLAT:??_R2exception@std@@8
rdata$r	ENDS
;	COMDAT ??_R0?AVexception@std@@@8
_DATA	SEGMENT
??_R0?AVexception@std@@@8 DD FLAT:??_7type_info@@6B@	; std::exception `RTTI Type Descriptor'
	DD	00H
	DB	'.?AVexception@std@@', 00H
_DATA	ENDS
;	COMDAT ??_R1A@?0A@EA@exception@std@@8
rdata$r	SEGMENT
??_R1A@?0A@EA@exception@std@@8 DD FLAT:??_R0?AVexception@std@@@8 ; std::exception::`RTTI Base Class Descriptor at (0,-1,0,64)'
	DD	00H
	DD	00H
	DD	0ffffffffH
	DD	00H
	DD	040H
	DD	FLAT:??_R3exception@std@@8
rdata$r	ENDS
;	COMDAT ??_R1A@?0A@EA@bad_alloc@std@@8
rdata$r	SEGMENT
??_R1A@?0A@EA@bad_alloc@std@@8 DD FLAT:??_R0?AVbad_alloc@std@@@8 ; std::bad_alloc::`RTTI Base Class Descriptor at (0,-1,0,64)'
	DD	01H
	DD	00H
	DD	0ffffffffH
	DD	00H
	DD	040H
	DD	FLAT:??_R3bad_alloc@std@@8
rdata$r	ENDS
;	COMDAT ??_R2bad_alloc@std@@8
rdata$r	SEGMENT
??_R2bad_alloc@std@@8 DD FLAT:??_R1A@?0A@EA@bad_alloc@std@@8 ; std::bad_alloc::`RTTI Base Class Array'
	DD	FLAT:??_R1A@?0A@EA@exception@std@@8
rdata$r	ENDS
;	COMDAT ??_R3bad_alloc@std@@8
rdata$r	SEGMENT
??_R3bad_alloc@std@@8 DD 00H				; std::bad_alloc::`RTTI Class Hierarchy Descriptor'
	DD	00H
	DD	02H
	DD	FLAT:??_R2bad_alloc@std@@8
rdata$r	ENDS
;	COMDAT ??_R0?AVbad_alloc@std@@@8
_DATA	SEGMENT
??_R0?AVbad_alloc@std@@@8 DD FLAT:??_7type_info@@6B@	; std::bad_alloc `RTTI Type Descriptor'
	DD	00H
	DB	'.?AVbad_alloc@std@@', 00H
_DATA	ENDS
;	COMDAT ??_R4bad_alloc@std@@6B@
rdata$r	SEGMENT
??_R4bad_alloc@std@@6B@ DD 00H				; std::bad_alloc::`RTTI Complete Object Locator'
	DD	00H
	DD	00H
	DD	FLAT:??_R0?AVbad_alloc@std@@@8
	DD	FLAT:??_R3bad_alloc@std@@8
rdata$r	ENDS
;	COMDAT ??_7bad_alloc@std@@6B@
CONST	SEGMENT
??_7bad_alloc@std@@6B@ DD FLAT:??_R4bad_alloc@std@@6B@	; std::bad_alloc::`vftable'
	DD	FLAT:??_Ebad_alloc@std@@UAEPAXI@Z
	DD	FLAT:?what@exception@std@@UBEPBDXZ
; Function compile flags: /Ogtp
CONST	ENDS
;	COMDAT ??0bad_alloc@std@@QAE@PBD@Z
_TEXT	SEGMENT
__Message$ = 8						; size = 4
??0bad_alloc@std@@QAE@PBD@Z PROC			; std::bad_alloc::bad_alloc, COMDAT
; _this$ = ecx
; Line 345
	push	ebp
	mov	ebp, esp
	push	esi
	lea	eax, DWORD PTR __Message$[ebp]
	push	eax
	mov	esi, ecx
	call	DWORD PTR __imp_??0exception@std@@QAE@ABQBD@Z
	mov	DWORD PTR [esi], OFFSET ??_7bad_alloc@std@@6B@
; Line 346
	mov	eax, esi
	pop	esi
	pop	ebp
	ret	4
??0bad_alloc@std@@QAE@PBD@Z ENDP			; std::bad_alloc::bad_alloc
_TEXT	ENDS
PUBLIC	??1bad_alloc@std@@UAE@XZ			; std::bad_alloc::~bad_alloc
EXTRN	__imp_??1exception@std@@UAE@XZ:PROC
; Function compile flags: /Ogtp
;	COMDAT ??1bad_alloc@std@@UAE@XZ
_TEXT	SEGMENT
??1bad_alloc@std@@UAE@XZ PROC				; std::bad_alloc::~bad_alloc, COMDAT
; _this$ = ecx
; Line 354
	mov	DWORD PTR [ecx], OFFSET ??_7bad_alloc@std@@6B@
; Line 355
	jmp	DWORD PTR __imp_??1exception@std@@UAE@XZ
??1bad_alloc@std@@UAE@XZ ENDP				; std::bad_alloc::~bad_alloc
_TEXT	ENDS
EXTRN	??3@YAXPAX@Z:PROC				; operator delete
; Function compile flags: /Ogtp
;	COMDAT ??_Gbad_alloc@std@@UAEPAXI@Z
_TEXT	SEGMENT
___flags$ = 8						; size = 4
??_Gbad_alloc@std@@UAEPAXI@Z PROC			; std::bad_alloc::`scalar deleting destructor', COMDAT
; _this$ = ecx
	push	ebp
	mov	ebp, esp
	push	esi
	mov	esi, ecx
	mov	DWORD PTR [esi], OFFSET ??_7bad_alloc@std@@6B@
	call	DWORD PTR __imp_??1exception@std@@UAE@XZ
	test	BYTE PTR ___flags$[ebp], 1
	je	SHORT $LN6@scalar
	push	esi
	call	??3@YAXPAX@Z				; operator delete
	add	esp, 4
$LN6@scalar:
	mov	eax, esi
	pop	esi
	pop	ebp
	ret	4
??_Gbad_alloc@std@@UAEPAXI@Z ENDP			; std::bad_alloc::`scalar deleting destructor'
_TEXT	ENDS
PUBLIC	??2@YAPAXIPAX@Z					; operator new
; Function compile flags: /Ogtp
;	COMDAT ??2@YAPAXIPAX@Z
_TEXT	SEGMENT
___formal$ = 8						; size = 4
__Where$ = 12						; size = 4
??2@YAPAXIPAX@Z PROC					; operator new, COMDAT
; File c:\program files (x86)\microsoft visual studio 10.0\vc\include\new
; Line 56
	push	ebp
	mov	ebp, esp
; Line 57
	mov	eax, DWORD PTR __Where$[ebp]
; Line 58
	pop	ebp
	ret	0
??2@YAPAXIPAX@Z ENDP					; operator new
_TEXT	ENDS
PUBLIC	??3@YAXPAX0@Z					; operator delete
; Function compile flags: /Ogtp
;	COMDAT ??3@YAXPAX0@Z
_TEXT	SEGMENT
___formal$ = 8						; size = 4
___formal$ = 12						; size = 4
??3@YAXPAX0@Z PROC					; operator delete, COMDAT
; Line 62
	ret	0
??3@YAXPAX0@Z ENDP					; operator delete
_TEXT	ENDS
PUBLIC	?length@?$char_traits@D@std@@SAIPBD@Z		; std::char_traits<char>::length
; Function compile flags: /Ogtp
;	COMDAT ?length@?$char_traits@D@std@@SAIPBD@Z
_TEXT	SEGMENT
__First$ = 8						; size = 4
?length@?$char_traits@D@std@@SAIPBD@Z PROC		; std::char_traits<char>::length, COMDAT
; File c:\program files (x86)\microsoft visual studio 10.0\vc\include\iosfwd
; Line 490
	push	ebp
	mov	ebp, esp
; Line 491
	mov	eax, DWORD PTR __First$[ebp]
	lea	edx, DWORD PTR [eax+1]
	npad	7
$LL3@length:
	mov	cl, BYTE PTR [eax]
	inc	eax
	test	cl, cl
	jne	SHORT $LL3@length
	sub	eax, edx
; Line 492
	pop	ebp
	ret	0
?length@?$char_traits@D@std@@SAIPBD@Z ENDP		; std::char_traits<char>::length
_TEXT	ENDS
PUBLIC	?copy@?$char_traits@D@std@@SAPADPADPBDI@Z	; std::char_traits<char>::copy
EXTRN	_memcpy:PROC
; Function compile flags: /Ogtp
;	COMDAT ?copy@?$char_traits@D@std@@SAPADPADPBDI@Z
_TEXT	SEGMENT
__First1$ = 8						; size = 4
__First2$ = 12						; size = 4
__Count$ = 16						; size = 4
?copy@?$char_traits@D@std@@SAPADPADPBDI@Z PROC		; std::char_traits<char>::copy, COMDAT
; Line 496
	push	ebp
	mov	ebp, esp
; Line 498
	pop	ebp
; Line 497
	jmp	_memcpy
?copy@?$char_traits@D@std@@SAPADPADPBDI@Z ENDP		; std::char_traits<char>::copy
_TEXT	ENDS
PUBLIC	?move@?$char_traits@D@std@@SAPADPADPBDI@Z	; std::char_traits<char>::move
EXTRN	__imp__memmove:PROC
; Function compile flags: /Ogtp
;	COMDAT ?move@?$char_traits@D@std@@SAPADPADPBDI@Z
_TEXT	SEGMENT
__First1$ = 8						; size = 4
__First2$ = 12						; size = 4
__Count$ = 16						; size = 4
?move@?$char_traits@D@std@@SAPADPADPBDI@Z PROC		; std::char_traits<char>::move, COMDAT
; Line 516
	push	ebp
	mov	ebp, esp
; Line 518
	pop	ebp
; Line 517
	jmp	DWORD PTR __imp__memmove
?move@?$char_traits@D@std@@SAPADPADPBDI@Z ENDP		; std::char_traits<char>::move
_TEXT	ENDS
PUBLIC	?assign@?$char_traits@D@std@@SAXAADABD@Z	; std::char_traits<char>::assign
; Function compile flags: /Ogtp
;	COMDAT ?assign@?$char_traits@D@std@@SAXAADABD@Z
_TEXT	SEGMENT
__Left$ = 8						; size = 4
__Right$ = 12						; size = 4
?assign@?$char_traits@D@std@@SAXAADABD@Z PROC		; std::char_traits<char>::assign, COMDAT
; Line 526
	push	ebp
	mov	ebp, esp
; Line 527
	mov	eax, DWORD PTR __Right$[ebp]
	mov	cl, BYTE PTR [eax]
	mov	edx, DWORD PTR __Left$[ebp]
	mov	BYTE PTR [edx], cl
; Line 528
	pop	ebp
	ret	0
?assign@?$char_traits@D@std@@SAXAADABD@Z ENDP		; std::char_traits<char>::assign
_TEXT	ENDS
PUBLIC	_cosf
EXTRN	__fltused:DWORD
EXTRN	__CIcos:PROC
; Function compile flags: /Ogtp
;	COMDAT _cosf
_TEXT	SEGMENT
tv69 = 8						; size = 4
__X$ = 8						; size = 4
_cosf	PROC						; COMDAT
; File c:\program files (x86)\microsoft visual studio 10.0\vc\include\math.h
; Line 410
	push	ebp
	mov	ebp, esp
	fld	DWORD PTR __X$[ebp]
	call	__CIcos
	fstp	DWORD PTR tv69[ebp]
	fld	DWORD PTR tv69[ebp]
	pop	ebp
	ret	0
_cosf	ENDP
_TEXT	ENDS
PUBLIC	_sinf
EXTRN	__CIsin:PROC
; Function compile flags: /Ogtp
;	COMDAT _sinf
_TEXT	SEGMENT
tv69 = 8						; size = 4
__X$ = 8						; size = 4
_sinf	PROC						; COMDAT
; Line 430
	push	ebp
	mov	ebp, esp
	fld	DWORD PTR __X$[ebp]
	call	__CIsin
	fstp	DWORD PTR tv69[ebp]
	fld	DWORD PTR tv69[ebp]
	pop	ebp
	ret	0
_sinf	ENDP
_TEXT	ENDS
PUBLIC	_sqrtf
EXTRN	__CIsqrt:PROC
; Function compile flags: /Ogtp
;	COMDAT _sqrtf
_TEXT	SEGMENT
tv69 = 8						; size = 4
__X$ = 8						; size = 4
_sqrtf	PROC						; COMDAT
; Line 434
	push	ebp
	mov	ebp, esp
	fld	DWORD PTR __X$[ebp]
	call	__CIsqrt
	fstp	DWORD PTR tv69[ebp]
	fld	DWORD PTR tv69[ebp]
	pop	ebp
	ret	0
_sqrtf	ENDP
_TEXT	ENDS
PUBLIC	?sqrt@@YAMM@Z					; sqrt
; Function compile flags: /Ogtp
;	COMDAT ?sqrt@@YAMM@Z
_TEXT	SEGMENT
tv73 = 8						; size = 4
__X$ = 8						; size = 4
?sqrt@@YAMM@Z PROC					; sqrt, COMDAT
; Line 542
	push	ebp
	mov	ebp, esp
	fld	DWORD PTR __X$[ebp]
	call	__CIsqrt
	fstp	DWORD PTR tv73[ebp]
	fld	DWORD PTR tv73[ebp]
	pop	ebp
	ret	0
?sqrt@@YAMM@Z ENDP					; sqrt
_TEXT	ENDS
PUBLIC	?_Adopt@_Iterator_base0@std@@QAEXPBX@Z		; std::_Iterator_base0::_Adopt
; Function compile flags: /Ogtp
;	COMDAT ?_Adopt@_Iterator_base0@std@@QAEXPBX@Z
_TEXT	SEGMENT
___formal$ = 8						; size = 4
?_Adopt@_Iterator_base0@std@@QAEXPBX@Z PROC		; std::_Iterator_base0::_Adopt, COMDAT
; _this$ = ecx
; File c:\program files (x86)\microsoft visual studio 10.0\vc\include\xutility
; Line 49
	ret	4
?_Adopt@_Iterator_base0@std@@QAEXPBX@Z ENDP		; std::_Iterator_base0::_Adopt
_TEXT	ENDS
PUBLIC	??0Vec3D@@QAE@MMM@Z				; Vec3D::Vec3D
; Function compile flags: /Ogtp
;	COMDAT ??0Vec3D@@QAE@MMM@Z
_TEXT	SEGMENT
_x0$ = 8						; size = 4
_y0$ = 12						; size = 4
_z0$ = 16						; size = 4
??0Vec3D@@QAE@MMM@Z PROC				; Vec3D::Vec3D, COMDAT
; _this$ = ecx
; File c:\programovani\wow editor\test\src\editor\vec3d.h
; Line 12
	push	ebp
	mov	ebp, esp
	mov	edx, DWORD PTR _y0$[ebp]
	mov	eax, ecx
	mov	ecx, DWORD PTR _x0$[ebp]
	mov	DWORD PTR [eax], ecx
	mov	ecx, DWORD PTR _z0$[ebp]
	mov	DWORD PTR [eax+4], edx
	mov	DWORD PTR [eax+8], ecx
	pop	ebp
	ret	12					; 0000000cH
??0Vec3D@@QAE@MMM@Z ENDP				; Vec3D::Vec3D
_TEXT	ENDS
PUBLIC	??0Vec3D@@QAE@ABV0@@Z				; Vec3D::Vec3D
; Function compile flags: /Ogtp
;	COMDAT ??0Vec3D@@QAE@ABV0@@Z
_TEXT	SEGMENT
_v$ = 8							; size = 4
??0Vec3D@@QAE@ABV0@@Z PROC				; Vec3D::Vec3D, COMDAT
; _this$ = ecx
; Line 14
	push	ebp
	mov	ebp, esp
	mov	eax, ecx
	mov	ecx, DWORD PTR _v$[ebp]
	mov	edx, DWORD PTR [ecx]
	mov	DWORD PTR [eax], edx
	mov	edx, DWORD PTR [ecx+4]
	mov	DWORD PTR [eax+4], edx
	mov	ecx, DWORD PTR [ecx+8]
	mov	DWORD PTR [eax+8], ecx
	pop	ebp
	ret	4
??0Vec3D@@QAE@ABV0@@Z ENDP				; Vec3D::Vec3D
_TEXT	ENDS
PUBLIC	??4Vec3D@@QAEAAV0@ABV0@@Z			; Vec3D::operator=
; Function compile flags: /Ogtp
;	COMDAT ??4Vec3D@@QAEAAV0@ABV0@@Z
_TEXT	SEGMENT
_v$ = 8							; size = 4
??4Vec3D@@QAEAAV0@ABV0@@Z PROC				; Vec3D::operator=, COMDAT
; _this$ = ecx
; Line 17
	push	ebp
	mov	ebp, esp
	mov	eax, ecx
; Line 18
	mov	ecx, DWORD PTR _v$[ebp]
	mov	edx, DWORD PTR [ecx]
	mov	DWORD PTR [eax], edx
; Line 19
	mov	edx, DWORD PTR [ecx+4]
	mov	DWORD PTR [eax+4], edx
; Line 20
	mov	ecx, DWORD PTR [ecx+8]
	mov	DWORD PTR [eax+8], ecx
; Line 22
	pop	ebp
	ret	4
??4Vec3D@@QAEAAV0@ABV0@@Z ENDP				; Vec3D::operator=
_TEXT	ENDS
PUBLIC	??HVec3D@@QBE?AV0@ABV0@@Z			; Vec3D::operator+
; Function compile flags: /Ogtp
;	COMDAT ??HVec3D@@QBE?AV0@ABV0@@Z
_TEXT	SEGMENT
___$ReturnUdt$ = 8					; size = 4
_v$ = 12						; size = 4
??HVec3D@@QBE?AV0@ABV0@@Z PROC				; Vec3D::operator+, COMDAT
; _this$ = ecx
; Line 25
	push	ebp
	mov	ebp, esp
; Line 26
	mov	edx, DWORD PTR _v$[ebp]
	fld	DWORD PTR [edx]
	mov	eax, DWORD PTR ___$ReturnUdt$[ebp]
	fadd	DWORD PTR [ecx]
	fstp	DWORD PTR [eax]
	fld	DWORD PTR [edx+4]
	fadd	DWORD PTR [ecx+4]
	fstp	DWORD PTR [eax+4]
	fld	DWORD PTR [edx+8]
	fadd	DWORD PTR [ecx+8]
	fstp	DWORD PTR [eax+8]
; Line 28
	pop	ebp
	ret	8
??HVec3D@@QBE?AV0@ABV0@@Z ENDP				; Vec3D::operator+
_TEXT	ENDS
PUBLIC	??GVec3D@@QBE?AV0@ABV0@@Z			; Vec3D::operator-
; Function compile flags: /Ogtp
;	COMDAT ??GVec3D@@QBE?AV0@ABV0@@Z
_TEXT	SEGMENT
___$ReturnUdt$ = 8					; size = 4
_v$ = 12						; size = 4
??GVec3D@@QBE?AV0@ABV0@@Z PROC				; Vec3D::operator-, COMDAT
; _this$ = ecx
; Line 31
	push	ebp
	mov	ebp, esp
; Line 32
	mov	edx, DWORD PTR _v$[ebp]
	fld	DWORD PTR [ecx]
	fsub	DWORD PTR [edx]
	mov	eax, DWORD PTR ___$ReturnUdt$[ebp]
	fstp	DWORD PTR [eax]
	fld	DWORD PTR [ecx+4]
	fsub	DWORD PTR [edx+4]
	fstp	DWORD PTR [eax+4]
	fld	DWORD PTR [ecx+8]
	fsub	DWORD PTR [edx+8]
	fstp	DWORD PTR [eax+8]
; Line 34
	pop	ebp
	ret	8
??GVec3D@@QBE?AV0@ABV0@@Z ENDP				; Vec3D::operator-
_TEXT	ENDS
PUBLIC	??DVec3D@@QBE?AV0@M@Z				; Vec3D::operator*
; Function compile flags: /Ogtp
;	COMDAT ??DVec3D@@QBE?AV0@M@Z
_TEXT	SEGMENT
___$ReturnUdt$ = 8					; size = 4
_d$ = 12						; size = 4
??DVec3D@@QBE?AV0@M@Z PROC				; Vec3D::operator*, COMDAT
; _this$ = ecx
; Line 42
	push	ebp
	mov	ebp, esp
; Line 43
	fld	DWORD PTR [ecx]
	mov	eax, DWORD PTR ___$ReturnUdt$[ebp]
	fld	DWORD PTR _d$[ebp]
	fld	ST(0)
	fmulp	ST(2), ST(0)
	fxch	ST(1)
	fstp	DWORD PTR [eax]
	fld	DWORD PTR [ecx+4]
	fmul	ST(0), ST(1)
	fstp	DWORD PTR [eax+4]
	fmul	DWORD PTR [ecx+8]
	fstp	DWORD PTR [eax+8]
; Line 45
	pop	ebp
	ret	8
??DVec3D@@QBE?AV0@M@Z ENDP				; Vec3D::operator*
_TEXT	ENDS
PUBLIC	??YVec3D@@QAEAAV0@ABV0@@Z			; Vec3D::operator+=
; Function compile flags: /Ogtp
;	COMDAT ??YVec3D@@QAEAAV0@ABV0@@Z
_TEXT	SEGMENT
_v$ = 8							; size = 4
??YVec3D@@QAEAAV0@ABV0@@Z PROC				; Vec3D::operator+=, COMDAT
; _this$ = ecx
; Line 59
	push	ebp
	mov	ebp, esp
	mov	eax, ecx
; Line 60
	mov	ecx, DWORD PTR _v$[ebp]
	fld	DWORD PTR [ecx]
	fadd	DWORD PTR [eax]
	fstp	DWORD PTR [eax]
; Line 61
	fld	DWORD PTR [ecx+4]
	fadd	DWORD PTR [eax+4]
	fstp	DWORD PTR [eax+4]
; Line 62
	fld	DWORD PTR [ecx+8]
	fadd	DWORD PTR [eax+8]
	fstp	DWORD PTR [eax+8]
; Line 64
	pop	ebp
	ret	4
??YVec3D@@QAEAAV0@ABV0@@Z ENDP				; Vec3D::operator+=
_TEXT	ENDS
PUBLIC	?length@Vec3D@@QBEMXZ				; Vec3D::length
; Function compile flags: /Ogtp
;	COMDAT ?length@Vec3D@@QBEMXZ
_TEXT	SEGMENT
tv170 = -4						; size = 4
tv161 = -4						; size = 4
?length@Vec3D@@QBEMXZ PROC				; Vec3D::length, COMDAT
; _this$ = ecx
; Line 88
	push	ebp
	mov	ebp, esp
	push	ecx
; Line 89
	fld	DWORD PTR [ecx+4]
	fld	DWORD PTR [ecx]
	fld	DWORD PTR [ecx+8]
	fld	ST(1)
	fmulp	ST(2), ST(0)
	fld	ST(2)
	fmulp	ST(3), ST(0)
	fxch	ST(1)
	faddp	ST(2), ST(0)
	fmul	ST(0), ST(0)
	faddp	ST(1), ST(0)
	fstp	DWORD PTR tv170[ebp]
	fld	DWORD PTR tv170[ebp]
	call	__CIsqrt
	fstp	DWORD PTR tv161[ebp]
	fld	DWORD PTR tv161[ebp]
; Line 90
	mov	esp, ebp
	pop	ebp
	ret	0
?length@Vec3D@@QBEMXZ ENDP				; Vec3D::length
_TEXT	ENDS
PUBLIC	??BVec3D@@QAEPAMXZ				; Vec3D::operator float *
; Function compile flags: /Ogtp
;	COMDAT ??BVec3D@@QAEPAMXZ
_TEXT	SEGMENT
??BVec3D@@QAEPAMXZ PROC					; Vec3D::operator float *, COMDAT
; _this$ = ecx
; Line 112
	mov	eax, ecx
; Line 114
	ret	0
??BVec3D@@QAEPAMXZ ENDP					; Vec3D::operator float *
_TEXT	ENDS
PUBLIC	?rotate@@YAXMMPAM0M@Z				; rotate
; Function compile flags: /Ogtp
;	COMDAT ?rotate@@YAXMMPAM0M@Z
_TEXT	SEGMENT
_xa$ = -4						; size = 4
_x0$ = 8						; size = 4
_y0$ = 12						; size = 4
tv206 = 16						; size = 4
_x$ = 16						; size = 4
_ya$ = 20						; size = 4
_y$ = 20						; size = 4
tv213 = 24						; size = 4
_angle$ = 24						; size = 4
?rotate@@YAXMMPAM0M@Z PROC				; rotate, COMDAT
; Line 218
	push	ebp
	mov	ebp, esp
	push	ecx
	push	esi
; Line 219
	mov	esi, DWORD PTR _x$[ebp]
	fld	DWORD PTR [esi]
	push	edi
	fsub	DWORD PTR _x0$[ebp]
	mov	edi, DWORD PTR _y$[ebp]
	fstp	DWORD PTR _xa$[ebp]
	fld	DWORD PTR [edi]
	fsub	DWORD PTR _y0$[ebp]
	fstp	DWORD PTR _ya$[ebp]
; Line 220
	fld	DWORD PTR _angle$[ebp]
	call	__CIcos
	fstp	DWORD PTR tv206[ebp]
	fld	DWORD PTR _angle$[ebp]
	call	__CIsin
	fstp	DWORD PTR tv213[ebp]
	fld	DWORD PTR tv206[ebp]
	fld	ST(0)
	fld	DWORD PTR _xa$[ebp]
	fld	ST(0)
	fmulp	ST(2), ST(0)
	fld	DWORD PTR tv213[ebp]
	fld	ST(0)
	fld	DWORD PTR _ya$[ebp]
	fld	ST(0)
	fmulp	ST(2), ST(0)
	fxch	ST(4)
	fsubrp	ST(1), ST(0)
	fadd	DWORD PTR _x0$[ebp]
	fstp	DWORD PTR [esi]
; Line 221
	fmulp	ST(1), ST(0)
	fxch	ST(2)
	fmulp	ST(1), ST(0)
	faddp	ST(1), ST(0)
	fadd	DWORD PTR _y0$[ebp]
	fstp	DWORD PTR [edi]
	pop	edi
	pop	esi
; Line 222
	mov	esp, ebp
	pop	ebp
	ret	0
?rotate@@YAXMMPAM0M@Z ENDP				; rotate
_TEXT	ENDS
PUBLIC	?getPos@MPQFile@@QAEIXZ				; MPQFile::getPos
; Function compile flags: /Ogtp
;	COMDAT ?getPos@MPQFile@@QAEIXZ
_TEXT	SEGMENT
?getPos@MPQFile@@QAEIXZ PROC				; MPQFile::getPos, COMDAT
; _this$ = ecx
; File c:\programovani\wow editor\test\src\editor\mpq.h
; Line 47
	mov	eax, DWORD PTR [ecx+1032]
	ret	0
?getPos@MPQFile@@QAEIXZ ENDP				; MPQFile::getPos
_TEXT	ENDS
PUBLIC	?isEof@MPQFile@@QAE_NXZ				; MPQFile::isEof
; Function compile flags: /Ogtp
;	COMDAT ?isEof@MPQFile@@QAE_NXZ
_TEXT	SEGMENT
?isEof@MPQFile@@QAE_NXZ PROC				; MPQFile::isEof, COMDAT
; _this$ = ecx
; Line 50
	mov	al, BYTE PTR [ecx+1024]
	ret	0
?isEof@MPQFile@@QAE_NXZ ENDP				; MPQFile::isEof
_TEXT	ENDS
PUBLIC	??_H@YGXPAXIHP6EPAX0@Z@Z			; `vector constructor iterator'
; Function compile flags: /Ogtp
;	COMDAT ??_H@YGXPAXIHP6EPAX0@Z@Z
_TEXT	SEGMENT
___t$ = 8						; size = 4
___s$ = 12						; size = 4
___n$ = 16						; size = 4
___f$ = 20						; size = 4
??_H@YGXPAXIHP6EPAX0@Z@Z PROC				; `vector constructor iterator', COMDAT
	push	ebp
	mov	ebp, esp
	push	edi
	mov	edi, DWORD PTR ___n$[ebp]
	dec	edi
	js	SHORT $LN1@vector
	push	ebx
	mov	ebx, DWORD PTR ___f$[ebp]
	push	esi
	mov	esi, DWORD PTR ___t$[ebp]
$LL2@vector:
	mov	ecx, esi
	call	ebx
	add	esi, DWORD PTR ___s$[ebp]
	dec	edi
	jns	SHORT $LL2@vector
	pop	esi
	pop	ebx
$LN1@vector:
	pop	edi
	pop	ebp
	ret	16					; 00000010H
??_H@YGXPAXIHP6EPAX0@Z@Z ENDP				; `vector constructor iterator'
_TEXT	ENDS
PUBLIC	??MSky@@QBE_NABV0@@Z				; Sky::operator<
; Function compile flags: /Ogtp
;	COMDAT ??MSky@@QBE_NABV0@@Z
_TEXT	SEGMENT
_s$ = 8							; size = 4
??MSky@@QBE_NABV0@@Z PROC				; Sky::operator<, COMDAT
; _this$ = ecx
; File c:\programovani\wow editor\test\src\editor\sky.h
; Line 38
	push	ebp
	mov	ebp, esp
; Line 39
	cmp	BYTE PTR [ecx+776], 0
	je	SHORT $LN4@operator
	xor	al, al
; Line 42
	pop	ebp
	ret	4
$LN4@operator:
; Line 40
	mov	eax, DWORD PTR _s$[ebp]
	cmp	BYTE PTR [eax+776], 0
	je	SHORT $LN2@operator
	mov	al, 1
; Line 42
	pop	ebp
	ret	4
$LN2@operator:
; Line 41
	fld	DWORD PTR [ecx+16]
	fld	DWORD PTR [eax+16]
	fcompp
	fnstsw	ax
	test	ah, 65					; 00000041H
	jne	SHORT $LN7@operator
	mov	eax, 1
; Line 42
	pop	ebp
	ret	4
$LN7@operator:
; Line 41
	xor	eax, eax
; Line 42
	pop	ebp
	ret	4
??MSky@@QBE_NABV0@@Z ENDP				; Sky::operator<
_TEXT	ENDS
PUBLIC	??_FVec3D@@QAEXXZ				; Vec3D::`default constructor closure'
; Function compile flags: /Ogtp
;	COMDAT ??_FVec3D@@QAEXXZ
_TEXT	SEGMENT
??_FVec3D@@QAEXXZ PROC					; Vec3D::`default constructor closure', COMDAT
; _this$ = ecx
	xor	eax, eax
	mov	DWORD PTR [ecx], eax
	mov	DWORD PTR [ecx+4], eax
	mov	DWORD PTR [ecx+8], eax
	ret	0
??_FVec3D@@QAEXXZ ENDP					; Vec3D::`default constructor closure'
_TEXT	ENDS
PUBLIC	__real@406fe00000000000
PUBLIC	?init@SkyColor@@QAEXHH@Z			; SkyColor::init
;	COMDAT __real@406fe00000000000
; File c:\programovani\wow editor\test\src\editor\sky.cpp
CONST	SEGMENT
__real@406fe00000000000 DQ 0406fe00000000000r	; 255
; Function compile flags: /Ogtp
CONST	ENDS
_TEXT	SEGMENT
tv176 = 8						; size = 4
tv173 = 8						; size = 4
tv170 = 8						; size = 4
_t$ = 8							; size = 4
_col$ = 12						; size = 4
?init@SkyColor@@QAEXHH@Z PROC				; SkyColor::init
; _this$ = ecx
; Line 8
	push	ebp
	mov	ebp, esp
; Line 9
	mov	eax, DWORD PTR _t$[ebp]
	mov	DWORD PTR [ecx+12], eax
; Line 10
	mov	eax, DWORD PTR _col$[ebp]
	mov	edx, eax
	and	edx, 255				; 000000ffH
	mov	DWORD PTR tv176[ebp], edx
	fild	DWORD PTR tv176[ebp]
; Line 11
	mov	edx, eax
	fld	QWORD PTR __real@406fe00000000000
	sar	edx, 8
	and	edx, 255				; 000000ffH
	fdiv	ST(1), ST(0)
	mov	DWORD PTR tv173[ebp], edx
; Line 12
	sar	eax, 16					; 00000010H
	and	eax, 255				; 000000ffH
	fxch	ST(1)
	fstp	DWORD PTR [ecx+8]
	fild	DWORD PTR tv173[ebp]
	mov	DWORD PTR tv170[ebp], eax
	fdiv	ST(0), ST(1)
	fstp	DWORD PTR [ecx+4]
	fidivr	DWORD PTR tv170[ebp]
	fstp	DWORD PTR [ecx]
; Line 13
	pop	ebp
	ret	8
?init@SkyColor@@QAEXHH@Z ENDP				; SkyColor::init
_TEXT	ENDS
PUBLIC	??0SkyColor@@QAE@XZ				; SkyColor::SkyColor
; Function compile flags: /Ogtp
;	COMDAT ??0SkyColor@@QAE@XZ
_TEXT	SEGMENT
??0SkyColor@@QAE@XZ PROC				; SkyColor::SkyColor, COMDAT
; _this$ = ecx
	mov	eax, ecx
	xor	ecx, ecx
	mov	DWORD PTR [eax], ecx
	mov	DWORD PTR [eax+4], ecx
	mov	DWORD PTR [eax+8], ecx
	ret	0
??0SkyColor@@QAE@XZ ENDP				; SkyColor::SkyColor
_TEXT	ENDS
PUBLIC	__real@0000000000000000
PUBLIC	__real@4079000000000000
PUBLIC	__real@4066800000000000
PUBLIC	__real@400921fb60000000
PUBLIC	__real@3fc921fb60000000
PUBLIC	_this$GSCopy$
PUBLIC	__$ArrayPad$
PUBLIC	?draw@Skies@@QAEXXZ				; Skies::draw
EXTRN	__imp__glEnd@0:PROC
EXTRN	__imp__glColor3fv@4:PROC
EXTRN	__imp__glVertex3fv@4:PROC
EXTRN	__imp__glBegin@4:PROC
EXTRN	___security_cookie:DWORD
EXTRN	@__security_check_cookie@4:PROC
;	COMDAT __real@0000000000000000
; File c:\programovani\wow editor\test\src\editor\vec3d.h
CONST	SEGMENT
__real@0000000000000000 DQ 00000000000000000r	; 0
CONST	ENDS
;	COMDAT __real@4079000000000000
CONST	SEGMENT
__real@4079000000000000 DQ 04079000000000000r	; 400
CONST	ENDS
;	COMDAT __real@4066800000000000
CONST	SEGMENT
__real@4066800000000000 DQ 04066800000000000r	; 180
CONST	ENDS
;	COMDAT __real@400921fb60000000
CONST	SEGMENT
__real@400921fb60000000 DQ 0400921fb60000000r	; 3.14159
CONST	ENDS
;	COMDAT __real@3fc921fb60000000
CONST	SEGMENT
__real@3fc921fb60000000 DQ 03fc921fb60000000r	; 0.19635
; Function compile flags: /Ogtp
CONST	ENDS
_TEXT	SEGMENT
$T97651 = -216						; size = 12
tv974 = -204						; size = 4
tv1015 = -200						; size = 4
tv1022 = -196						; size = 4
tv981 = -192						; size = 4
_this$GSCopy$ = -188					; size = 4
tv998 = -184						; size = 4
_h$82560 = -184						; size = 4
tv1688 = -180						; size = 4
tv1679 = -180						; size = 4
_xa$97766 = -180					; size = 4
_xa$97736 = -180					; size = 4
tv1471 = -176						; size = 4
_ya$97767 = -176					; size = 4
_ya$97737 = -176					; size = 4
$T97768 = -176						; size = 4
$T97738 = -176						; size = 4
_basepos1$ = -172					; size = 84
_basepos2$ = -88					; size = 84
__$ArrayPad$ = -4					; size = 4
?draw@Skies@@QAEXXZ PROC				; Skies::draw
; _this$ = ecx
; File c:\programovani\wow editor\test\src\editor\sky.cpp
; Line 135
	push	ebp
	mov	ebp, esp
	sub	esp, 216				; 000000d8H
	mov	eax, DWORD PTR ___security_cookie
	xor	eax, ebp
	mov	DWORD PTR __$ArrayPad$[ebp], eax
	push	ebx
	push	esi
; Line 138
	xor	esi, esi
	push	edi
; Line 139
	push	7
	mov	DWORD PTR _this$GSCopy$[ebp], ecx
	mov	DWORD PTR _basepos1$[ebp], esi
	mov	DWORD PTR _basepos1$[ebp+4], esi
	mov	DWORD PTR _basepos1$[ebp+8], esi
	mov	DWORD PTR _basepos1$[ebp+12], esi
	mov	DWORD PTR _basepos1$[ebp+16], esi
	mov	DWORD PTR _basepos1$[ebp+20], esi
	mov	DWORD PTR _basepos1$[ebp+24], esi
	mov	DWORD PTR _basepos1$[ebp+28], esi
	mov	DWORD PTR _basepos1$[ebp+32], esi
	mov	DWORD PTR _basepos1$[ebp+36], esi
	mov	DWORD PTR _basepos1$[ebp+40], esi
	mov	DWORD PTR _basepos1$[ebp+44], esi
	mov	DWORD PTR _basepos1$[ebp+48], esi
	mov	DWORD PTR _basepos1$[ebp+52], esi
	mov	DWORD PTR _basepos1$[ebp+56], esi
	mov	DWORD PTR _basepos1$[ebp+60], esi
	mov	DWORD PTR _basepos1$[ebp+64], esi
	mov	DWORD PTR _basepos1$[ebp+68], esi
	mov	DWORD PTR _basepos1$[ebp+72], esi
	mov	DWORD PTR _basepos1$[ebp+76], esi
	mov	DWORD PTR _basepos1$[ebp+80], esi
	mov	DWORD PTR _basepos2$[ebp], esi
	mov	DWORD PTR _basepos2$[ebp+4], esi
	mov	DWORD PTR _basepos2$[ebp+8], esi
	mov	DWORD PTR _basepos2$[ebp+12], esi
	mov	DWORD PTR _basepos2$[ebp+16], esi
	mov	DWORD PTR _basepos2$[ebp+20], esi
	mov	DWORD PTR _basepos2$[ebp+24], esi
	mov	DWORD PTR _basepos2$[ebp+28], esi
	mov	DWORD PTR _basepos2$[ebp+32], esi
	mov	DWORD PTR _basepos2$[ebp+36], esi
	mov	DWORD PTR _basepos2$[ebp+40], esi
	mov	DWORD PTR _basepos2$[ebp+44], esi
	mov	DWORD PTR _basepos2$[ebp+48], esi
	mov	DWORD PTR _basepos2$[ebp+52], esi
	mov	DWORD PTR _basepos2$[ebp+56], esi
	mov	DWORD PTR _basepos2$[ebp+60], esi
	mov	DWORD PTR _basepos2$[ebp+64], esi
	mov	DWORD PTR _basepos2$[ebp+68], esi
	mov	DWORD PTR _basepos2$[ebp+72], esi
	mov	DWORD PTR _basepos2$[ebp+76], esi
	mov	DWORD PTR _basepos2$[ebp+80], esi
	call	DWORD PTR __imp__glBegin@4
; Line 140
	mov	ebx, DWORD PTR __imp__glVertex3fv@4
	xor	edi, edi
	mov	DWORD PTR _h$82560[ebp], edi
	jmp	SHORT $LN9@draw
	npad	11
$LL96@draw:
	xor	esi, esi
$LN9@draw:
; Line 145
	fild	DWORD PTR _h$82560[ebp]
	fmul	QWORD PTR __real@3fc921fb60000000
	fstp	DWORD PTR $T97738[ebp]
	fld	DWORD PTR $T97738[ebp]
	call	__CIsin
	fstp	DWORD PTR tv981[ebp]
	fld	DWORD PTR $T97738[ebp]
	call	__CIcos
	fstp	DWORD PTR tv974[ebp]
	inc	edi
	mov	DWORD PTR tv998[ebp], edi
; Line 146
	fild	DWORD PTR tv998[ebp]
	fmul	QWORD PTR __real@3fc921fb60000000
	fstp	DWORD PTR $T97768[ebp]
	fld	DWORD PTR $T97768[ebp]
	call	__CIsin
	fstp	DWORD PTR tv1022[ebp]
	fld	DWORD PTR $T97768[ebp]
	call	__CIcos
	fstp	DWORD PTR tv1015[ebp]
	mov	edi, OFFSET _angles
	npad	10
$LL6@draw:
; Line 144
	fld	DWORD PTR [edi]
	fmul	QWORD PTR __real@400921fb60000000
	fdiv	QWORD PTR __real@4066800000000000
	fstp	DWORD PTR tv1471[ebp]
	fld	DWORD PTR tv1471[ebp]
	call	__CIcos
	fstp	DWORD PTR tv1688[ebp]
	fld	DWORD PTR tv1688[ebp]
	fmul	QWORD PTR __real@4079000000000000
	fstp	DWORD PTR $T97651[ebp]
	fld	DWORD PTR tv1471[ebp]
	call	__CIsin
	fstp	DWORD PTR tv1679[ebp]
	fld	DWORD PTR tv1679[ebp]
	mov	eax, DWORD PTR $T97651[ebp]
	fmul	QWORD PTR __real@4079000000000000
	xor	edx, edx
	mov	DWORD PTR _basepos1$[ebp+esi], eax
	mov	DWORD PTR _basepos1$[ebp+esi+8], edx
	fstp	DWORD PTR $T97651[ebp+4]
	mov	DWORD PTR _basepos2$[ebp+esi], eax
	mov	ecx, DWORD PTR $T97651[ebp+4]
	mov	DWORD PTR _basepos1$[ebp+esi+4], ecx
; Line 145
	fld	DWORD PTR _basepos1$[ebp+esi]
	fldz
	mov	DWORD PTR _basepos2$[ebp+esi+4], ecx
	fsub	ST(1), ST(0)
	mov	DWORD PTR _basepos2$[ebp+esi+8], edx
	fxch	ST(1)
	add	edi, 4
	add	esi, 12					; 0000000cH
	fstp	DWORD PTR _xa$97736[ebp]
	fld	DWORD PTR _basepos1$[ebp+esi-4]
	fsub	ST(0), ST(1)
	fstp	DWORD PTR _ya$97737[ebp]
	fld	DWORD PTR tv974[ebp]
	fld	ST(0)
	fld	DWORD PTR _xa$97736[ebp]
	fld	ST(0)
	fmulp	ST(2), ST(0)
	fld	DWORD PTR tv981[ebp]
	fld	ST(0)
	fld	DWORD PTR _ya$97737[ebp]
	fld	ST(0)
	fmulp	ST(2), ST(0)
	fxch	ST(4)
	fsubrp	ST(1), ST(0)
	fadd	ST(0), ST(5)
	fstp	DWORD PTR _basepos1$[ebp+esi-12]
	fmulp	ST(1), ST(0)
	fxch	ST(2)
	fmulp	ST(1), ST(0)
	faddp	ST(1), ST(0)
	fadd	ST(0), ST(1)
	fstp	DWORD PTR _basepos1$[ebp+esi-4]
; Line 146
	fld	DWORD PTR _basepos2$[ebp+esi-12]
	fsub	ST(0), ST(1)
	fstp	DWORD PTR _xa$97766[ebp]
	fld	DWORD PTR _basepos2$[ebp+esi-4]
	fsub	ST(0), ST(1)
	fstp	DWORD PTR _ya$97767[ebp]
	fld	DWORD PTR tv1015[ebp]
	fld	ST(0)
	fld	DWORD PTR _xa$97766[ebp]
	fld	ST(0)
	fmulp	ST(2), ST(0)
	fld	DWORD PTR tv1022[ebp]
	fld	ST(0)
	fld	DWORD PTR _ya$97767[ebp]
	fld	ST(0)
	fmulp	ST(2), ST(0)
	fxch	ST(4)
	fsubrp	ST(1), ST(0)
	fadd	ST(0), ST(5)
	fstp	DWORD PTR _basepos2$[ebp+esi-12]
	fmulp	ST(1), ST(0)
	fxch	ST(2)
	fmulp	ST(1), ST(0)
	faddp	ST(1), ST(0)
	faddp	ST(1), ST(0)
	fstp	DWORD PTR _basepos2$[ebp+esi-4]
; Line 142
	cmp	esi, 84					; 00000054H
	jl	$LL6@draw
; Line 149
	mov	edi, OFFSET _skycolors+4
	xor	esi, esi
	npad	9
$LL3@draw:
; Line 151
	mov	eax, DWORD PTR [edi-4]
	mov	ecx, DWORD PTR _this$GSCopy$[ebp]
	lea	eax, DWORD PTR [eax+eax*2+39]
	lea	edx, DWORD PTR [ecx+eax*4]
	push	edx
	call	DWORD PTR __imp__glColor3fv@4
; Line 152
	lea	eax, DWORD PTR _basepos2$[ebp+esi]
	push	eax
	call	ebx
; Line 153
	lea	ecx, DWORD PTR _basepos1$[ebp+esi]
	push	ecx
	call	ebx
; Line 154
	mov	eax, DWORD PTR [edi]
	lea	edx, DWORD PTR [eax+eax*2+39]
	mov	eax, DWORD PTR _this$GSCopy$[ebp]
	lea	ecx, DWORD PTR [eax+edx*4]
	push	ecx
	call	DWORD PTR __imp__glColor3fv@4
; Line 155
	lea	edx, DWORD PTR _basepos1$[ebp+esi+12]
	push	edx
	call	ebx
; Line 156
	lea	eax, DWORD PTR _basepos2$[ebp+esi+12]
	push	eax
	call	ebx
	add	edi, 4
	add	esi, 12					; 0000000cH
	cmp	edi, OFFSET _skycolors+28
	jl	SHORT $LL3@draw
; Line 140
	mov	edi, DWORD PTR tv998[ebp]
	mov	DWORD PTR _h$82560[ebp], edi
	cmp	edi, 32					; 00000020H
	jl	$LL96@draw
; Line 159
	call	DWORD PTR __imp__glEnd@0
; Line 160
	mov	ecx, DWORD PTR __$ArrayPad$[ebp]
	pop	edi
	pop	esi
	xor	ecx, ebp
	pop	ebx
	call	@__security_check_cookie@4
	mov	esp, ebp
	pop	ebp
	ret	0
?draw@Skies@@QAEXXZ ENDP				; Skies::draw
_TEXT	ENDS
PUBLIC	__real@00000000
PUBLIC	?drawSky@Skies@@QAE_NABVVec3D@@@Z		; Skies::drawSky
EXTRN	__imp__glPopMatrix@0:PROC
EXTRN	?draw@Model@@QAEXXZ:PROC			; Model::draw
EXTRN	__imp__glEnable@4:PROC
EXTRN	__imp__glScalef@12:PROC
EXTRN	?gWorld@@3PAVWorld@@A:DWORD			; gWorld
EXTRN	__imp__glTranslatef@12:PROC
EXTRN	__imp__glPushMatrix@0:PROC
;	COMDAT __real@00000000
CONST	SEGMENT
__real@00000000 DD 000000000r			; 0
; Function compile flags: /Ogtp
CONST	ENDS
_TEXT	SEGMENT
_ni$ = 8						; size = 4
_pos$ = 8						; size = 4
?drawSky@Skies@@QAE_NABVVec3D@@@Z PROC			; Skies::drawSky
; _this$ = ecx
; Line 305
	push	ebp
	mov	ebp, esp
	push	esi
	mov	esi, ecx
; Line 306
	cmp	DWORD PTR [esi+16], 0
	jne	SHORT $LN2@drawSky
; Line 307
	xor	al, al
	pop	esi
; Line 329
	pop	ebp
	ret	4
$LN2@drawSky:
	push	edi
; Line 310
	call	DWORD PTR __imp__glPushMatrix@0
; Line 311
	mov	eax, DWORD PTR _pos$[ebp]
	mov	ecx, DWORD PTR [eax+8]
	mov	edx, DWORD PTR [eax+4]
	mov	eax, DWORD PTR [eax]
	sub	esp, 12					; 0000000cH
	mov	DWORD PTR [esp+8], ecx
	mov	DWORD PTR [esp+4], edx
	mov	DWORD PTR [esp], eax
	call	DWORD PTR __imp__glTranslatef@12
; Line 313
	mov	ecx, esi
	call	?draw@Skies@@QAEXXZ			; Skies::draw
; Line 317
	fldz
	mov	ecx, DWORD PTR ?gWorld@@3PAVWorld@@A	; gWorld
	mov	edi, DWORD PTR [ecx+21156]
	mov	DWORD PTR _ni$[ebp], edi
	fcomp	DWORD PTR _ni$[ebp]
	fnstsw	ax
	test	ah, 5
	jp	SHORT $LN1@drawSky
; Line 320
	sub	esp, 12					; 0000000cH
	mov	DWORD PTR [esp+8], 1036831949		; 3dcccccdH
	mov	DWORD PTR [esp+4], 1036831949		; 3dcccccdH
	mov	DWORD PTR [esp], 1036831949		; 3dcccccdH
	call	DWORD PTR __imp__glScalef@12
; Line 321
	push	3553					; 00000de1H
	call	DWORD PTR __imp__glEnable@4
; Line 322
	mov	edx, DWORD PTR [esi+24]
	mov	DWORD PTR [edx+824], edi
; Line 323
	mov	ecx, DWORD PTR [esi+24]
	call	?draw@Model@@QAEXXZ			; Model::draw
$LN1@drawSky:
; Line 326
	call	DWORD PTR __imp__glPopMatrix@0
	pop	edi
; Line 328
	mov	al, 1
	pop	esi
; Line 329
	pop	ebp
	ret	4
?drawSky@Skies@@QAE_NABVVec3D@@@Z ENDP			; Skies::drawSky
_TEXT	ENDS
PUBLIC	?init@OutdoorLightStats@@QAEXAAVMPQFile@@@Z	; OutdoorLightStats::init
EXTRN	?read@MPQFile@@QAEIPAXI@Z:PROC			; MPQFile::read
EXTRN	?seekRelative@MPQFile@@QAEXH@Z:PROC		; MPQFile::seekRelative
EXTRN	__ftol2_sse_excpt:PROC
; Function compile flags: /Ogtp
_TEXT	SEGMENT
tv295 = -8						; size = 4
_m$ = -4						; size = 4
_h$ = 8							; size = 4
_f$ = 8							; size = 4
?init@OutdoorLightStats@@QAEXAAVMPQFile@@@Z PROC	; OutdoorLightStats::init
; _this$ = ecx
; Line 341
	push	ebp
	mov	ebp, esp
	sub	esp, 8
	push	ebx
	push	esi
; Line 344
	mov	esi, DWORD PTR _f$[ebp]
	push	edi
	mov	edi, ecx
	push	4
	mov	ecx, esi
	call	?seekRelative@MPQFile@@QAEXH@Z		; MPQFile::seekRelative
; Line 345
	push	4
	lea	eax, DWORD PTR _h$[ebp]
	push	eax
	mov	ecx, esi
	call	?read@MPQFile@@QAEIPAXI@Z		; MPQFile::read
; Line 346
	push	4
	mov	ecx, esi
	call	?seekRelative@MPQFile@@QAEXH@Z		; MPQFile::seekRelative
; Line 347
	push	4
	lea	ecx, DWORD PTR _m$[ebp]
	push	ecx
	mov	ecx, esi
	call	?read@MPQFile@@QAEIPAXI@Z		; MPQFile::read
; Line 348
	push	4
	mov	ecx, esi
	call	?seekRelative@MPQFile@@QAEXH@Z		; MPQFile::seekRelative
; Line 349
	push	4
	lea	ebx, DWORD PTR [edi+4]
	push	ebx
	mov	ecx, esi
	call	?read@MPQFile@@QAEIPAXI@Z		; MPQFile::read
; Line 351
	push	4
	mov	ecx, esi
	call	?seekRelative@MPQFile@@QAEXH@Z		; MPQFile::seekRelative
; Line 352
	push	4
	lea	edx, DWORD PTR [edi+24]
	push	edx
	mov	ecx, esi
	call	?read@MPQFile@@QAEIPAXI@Z		; MPQFile::read
; Line 353
	push	4
	mov	ecx, esi
	call	?seekRelative@MPQFile@@QAEXH@Z		; MPQFile::seekRelative
; Line 354
	push	4
	lea	eax, DWORD PTR [edi+28]
	push	eax
	mov	ecx, esi
	call	?read@MPQFile@@QAEIPAXI@Z		; MPQFile::read
; Line 355
	push	4
	mov	ecx, esi
	call	?seekRelative@MPQFile@@QAEXH@Z		; MPQFile::seekRelative
; Line 356
	push	4
	lea	ecx, DWORD PTR [edi+32]
	push	ecx
	mov	ecx, esi
	call	?read@MPQFile@@QAEIPAXI@Z		; MPQFile::read
; Line 358
	push	4
	mov	ecx, esi
	call	?seekRelative@MPQFile@@QAEXH@Z		; MPQFile::seekRelative
; Line 359
	push	4
	lea	edx, DWORD PTR [edi+72]
	push	edx
	mov	ecx, esi
	call	?read@MPQFile@@QAEIPAXI@Z		; MPQFile::read
; Line 360
	push	4
	mov	ecx, esi
	call	?seekRelative@MPQFile@@QAEXH@Z		; MPQFile::seekRelative
; Line 361
	push	4
	lea	eax, DWORD PTR [edi+76]
	push	eax
	mov	ecx, esi
	call	?read@MPQFile@@QAEIPAXI@Z		; MPQFile::read
; Line 362
	push	4
	mov	ecx, esi
	call	?seekRelative@MPQFile@@QAEXH@Z		; MPQFile::seekRelative
; Line 363
	push	4
	lea	ecx, DWORD PTR [edi+80]
	push	ecx
	mov	ecx, esi
	call	?read@MPQFile@@QAEIPAXI@Z		; MPQFile::read
; Line 365
	push	4
	mov	ecx, esi
	call	?seekRelative@MPQFile@@QAEXH@Z		; MPQFile::seekRelative
; Line 366
	lea	eax, DWORD PTR [edi+8]
	push	4
	push	eax
	mov	ecx, esi
	mov	DWORD PTR tv295[ebp], eax
	call	?read@MPQFile@@QAEIPAXI@Z		; MPQFile::read
; Line 368
	push	4
	mov	ecx, esi
	call	?seekRelative@MPQFile@@QAEXH@Z		; MPQFile::seekRelative
; Line 369
	push	4
	lea	edx, DWORD PTR [edi+36]
	push	edx
	mov	ecx, esi
	call	?read@MPQFile@@QAEIPAXI@Z		; MPQFile::read
; Line 370
	push	4
	mov	ecx, esi
	call	?seekRelative@MPQFile@@QAEXH@Z		; MPQFile::seekRelative
; Line 371
	push	4
	lea	eax, DWORD PTR [edi+40]
	push	eax
	mov	ecx, esi
	call	?read@MPQFile@@QAEIPAXI@Z		; MPQFile::read
; Line 372
	push	4
	mov	ecx, esi
	call	?seekRelative@MPQFile@@QAEXH@Z		; MPQFile::seekRelative
; Line 373
	push	4
	lea	ecx, DWORD PTR [edi+44]
	push	ecx
	mov	ecx, esi
	call	?read@MPQFile@@QAEIPAXI@Z		; MPQFile::read
; Line 375
	push	4
	mov	ecx, esi
	call	?seekRelative@MPQFile@@QAEXH@Z		; MPQFile::seekRelative
; Line 376
	push	4
	lea	edx, DWORD PTR [edi+84]
	push	edx
	mov	ecx, esi
	call	?read@MPQFile@@QAEIPAXI@Z		; MPQFile::read
; Line 377
	push	4
	mov	ecx, esi
	call	?seekRelative@MPQFile@@QAEXH@Z		; MPQFile::seekRelative
; Line 378
	push	4
	lea	eax, DWORD PTR [edi+88]
	push	eax
	mov	ecx, esi
	call	?read@MPQFile@@QAEIPAXI@Z		; MPQFile::read
; Line 379
	push	4
	mov	ecx, esi
	call	?seekRelative@MPQFile@@QAEXH@Z		; MPQFile::seekRelative
; Line 380
	push	4
	lea	ecx, DWORD PTR [edi+92]
	push	ecx
	mov	ecx, esi
	call	?read@MPQFile@@QAEIPAXI@Z		; MPQFile::read
; Line 382
	push	4
	mov	ecx, esi
	call	?seekRelative@MPQFile@@QAEXH@Z		; MPQFile::seekRelative
; Line 383
	push	4
	lea	edx, DWORD PTR [edi+12]
	push	edx
	mov	ecx, esi
	call	?read@MPQFile@@QAEIPAXI@Z		; MPQFile::read
; Line 385
	push	4
	mov	ecx, esi
	call	?seekRelative@MPQFile@@QAEXH@Z		; MPQFile::seekRelative
; Line 386
	push	4
	lea	eax, DWORD PTR [edi+48]
	push	eax
	mov	ecx, esi
	call	?read@MPQFile@@QAEIPAXI@Z		; MPQFile::read
; Line 387
	push	4
	mov	ecx, esi
	call	?seekRelative@MPQFile@@QAEXH@Z		; MPQFile::seekRelative
; Line 388
	push	4
	lea	ecx, DWORD PTR [edi+52]
	push	ecx
	mov	ecx, esi
	call	?read@MPQFile@@QAEIPAXI@Z		; MPQFile::read
; Line 389
	push	4
	mov	ecx, esi
	call	?seekRelative@MPQFile@@QAEXH@Z		; MPQFile::seekRelative
; Line 390
	push	4
	lea	edx, DWORD PTR [edi+56]
	push	edx
	mov	ecx, esi
	call	?read@MPQFile@@QAEIPAXI@Z		; MPQFile::read
; Line 392
	push	4
	mov	ecx, esi
	call	?seekRelative@MPQFile@@QAEXH@Z		; MPQFile::seekRelative
; Line 393
	push	4
	lea	eax, DWORD PTR [edi+20]
	push	eax
	mov	ecx, esi
	call	?read@MPQFile@@QAEIPAXI@Z		; MPQFile::read
; Line 394
	push	4
	mov	ecx, esi
	call	?seekRelative@MPQFile@@QAEXH@Z		; MPQFile::seekRelative
; Line 395
	push	4
	lea	ecx, DWORD PTR [edi+16]
	push	ecx
	mov	ecx, esi
	call	?read@MPQFile@@QAEIPAXI@Z		; MPQFile::read
; Line 397
	push	4
	mov	ecx, esi
	call	?seekRelative@MPQFile@@QAEXH@Z		; MPQFile::seekRelative
; Line 398
	push	4
	lea	edx, DWORD PTR [edi+60]
	push	edx
	mov	ecx, esi
	call	?read@MPQFile@@QAEIPAXI@Z		; MPQFile::read
; Line 399
	push	4
	mov	ecx, esi
	call	?seekRelative@MPQFile@@QAEXH@Z		; MPQFile::seekRelative
; Line 400
	push	4
	lea	eax, DWORD PTR [edi+64]
	push	eax
	mov	ecx, esi
	call	?read@MPQFile@@QAEIPAXI@Z		; MPQFile::read
; Line 401
	push	4
	mov	ecx, esi
	call	?seekRelative@MPQFile@@QAEXH@Z		; MPQFile::seekRelative
; Line 402
	push	4
	lea	ecx, DWORD PTR [edi+68]
	push	ecx
	mov	ecx, esi
	call	?read@MPQFile@@QAEIPAXI@Z		; MPQFile::read
; Line 404
	fld	DWORD PTR _h$[ebp]
	call	__ftol2_sse_excpt
	fld	DWORD PTR _m$[ebp]
	mov	esi, eax
	shl	esi, 4
	sub	esi, eax
	call	__ftol2_sse_excpt
; Line 407
	fldz
	fcomp	DWORD PTR [ebx]
	lea	edx, DWORD PTR [eax+esi*4]
	add	edx, edx
	mov	DWORD PTR [edi], edx
	fnstsw	ax
	test	ah, 5
	jp	SHORT $LN1@init
; Line 410
	mov	eax, DWORD PTR tv295[ebp]
	mov	DWORD PTR [ebx], 1065353216		; 3f800000H
	mov	DWORD PTR [eax], 0
$LN1@init:
	pop	edi
	pop	esi
	pop	ebx
; Line 412
	mov	esp, ebp
	pop	ebp
	ret	4
?init@OutdoorLightStats@@QAEXAAVMPQFile@@@Z ENDP	; OutdoorLightStats::init
_TEXT	ENDS
PUBLIC	__real@3ff0000000000000
PUBLIC	?interpolate@OutdoorLightStats@@QAEXPAU1@0M@Z	; OutdoorLightStats::interpolate
;	COMDAT __real@3ff0000000000000
; File c:\programovani\wow editor\test\src\editor\vec3d.h
CONST	SEGMENT
__real@3ff0000000000000 DQ 03ff0000000000000r	; 1
; Function compile flags: /Ogtp
CONST	ENDS
_TEXT	SEGMENT
$T97850 = -36						; size = 12
$T97847 = -36						; size = 12
$T97844 = -36						; size = 12
$T97841 = -36						; size = 12
$T97838 = -36						; size = 12
$T97837 = -36						; size = 12
$T97851 = -24						; size = 12
$T97848 = -24						; size = 12
$T97845 = -24						; size = 12
$T97842 = -24						; size = 12
$T97839 = -24						; size = 12
$T97836 = -24						; size = 12
$T97852 = -12						; size = 12
$T97849 = -12						; size = 12
$T97846 = -12						; size = 12
$T97843 = -12						; size = 12
$T97840 = -12						; size = 12
$T97835 = -12						; size = 12
_a$ = 8							; size = 4
_b$ = 12						; size = 4
_ir$ = 16						; size = 4
_r$ = 16						; size = 4
?interpolate@OutdoorLightStats@@QAEXPAU1@0M@Z PROC	; OutdoorLightStats::interpolate
; _this$ = ecx
; File c:\programovani\wow editor\test\src\editor\sky.cpp
; Line 415
	push	ebp
	mov	ebp, esp
	sub	esp, 36					; 00000024H
; Line 416
	fld	DWORD PTR _r$[ebp]
; Line 419
	mov	eax, DWORD PTR _a$[ebp]
	fld	ST(0)
	mov	edx, DWORD PTR _b$[ebp]
	fld1
	mov	DWORD PTR [ecx], 0
	fsubrp	ST(1), ST(0)
	push	esi
	fstp	DWORD PTR _ir$[ebp]
	fld	DWORD PTR [eax+4]
	fld	DWORD PTR _ir$[ebp]
	fld	ST(0)
	fmulp	ST(2), ST(0)
	fld	DWORD PTR [edx+4]
	fmul	ST(0), ST(3)
	faddp	ST(2), ST(0)
	fxch	ST(1)
	fstp	DWORD PTR [ecx+4]
; Line 420
	fld	DWORD PTR [eax+8]
	fmul	ST(0), ST(1)
	fld	DWORD PTR [edx+8]
	fmul	ST(0), ST(3)
	faddp	ST(1), ST(0)
	fstp	DWORD PTR [ecx+8]
; Line 421
	fld	DWORD PTR [eax+12]
	fmul	ST(0), ST(1)
	fld	DWORD PTR [edx+12]
	fmul	ST(0), ST(3)
	faddp	ST(1), ST(0)
	fstp	DWORD PTR [ecx+12]
; Line 422
	fld	DWORD PTR [eax+16]
	fmul	ST(0), ST(1)
	fld	DWORD PTR [edx+16]
	fmul	ST(0), ST(3)
	faddp	ST(1), ST(0)
	fstp	DWORD PTR [ecx+16]
; Line 423
	fld	DWORD PTR [eax+20]
	fmul	ST(0), ST(1)
	fld	DWORD PTR [edx+20]
	fmul	ST(0), ST(3)
	faddp	ST(1), ST(0)
	fstp	DWORD PTR [ecx+20]
; Line 424
	fld	ST(1)
	fmul	DWORD PTR [edx+24]
	fstp	DWORD PTR $T97836[ebp]
	fld	DWORD PTR [edx+28]
	fmul	ST(0), ST(2)
	fstp	DWORD PTR $T97836[ebp+4]
	fld	DWORD PTR [edx+32]
	fmul	ST(0), ST(2)
	fstp	DWORD PTR $T97836[ebp+8]
	fld	DWORD PTR [eax+24]
	fmul	ST(0), ST(1)
	fstp	DWORD PTR $T97835[ebp]
	fld	DWORD PTR [eax+28]
	fmul	ST(0), ST(1)
	fstp	DWORD PTR $T97835[ebp+4]
	fld	DWORD PTR [eax+32]
	fmul	ST(0), ST(1)
	fstp	DWORD PTR $T97835[ebp+8]
	fld	DWORD PTR $T97835[ebp]
	fadd	DWORD PTR $T97836[ebp]
	fstp	DWORD PTR $T97837[ebp]
	fld	DWORD PTR $T97835[ebp+4]
	mov	esi, DWORD PTR $T97837[ebp]
	fadd	DWORD PTR $T97836[ebp+4]
	mov	DWORD PTR [ecx+24], esi
	fstp	DWORD PTR $T97837[ebp+4]
	fld	DWORD PTR $T97835[ebp+8]
	mov	esi, DWORD PTR $T97837[ebp+4]
	fadd	DWORD PTR $T97836[ebp+8]
	mov	DWORD PTR [ecx+28], esi
	fstp	DWORD PTR $T97837[ebp+8]
	mov	esi, DWORD PTR $T97837[ebp+8]
	mov	DWORD PTR [ecx+32], esi
; Line 425
	fld	DWORD PTR [edx+36]
	fmul	ST(0), ST(2)
	fstp	DWORD PTR $T97839[ebp]
	fld	DWORD PTR [edx+40]
	fmul	ST(0), ST(2)
	fstp	DWORD PTR $T97839[ebp+4]
	fld	DWORD PTR [edx+44]
	fmul	ST(0), ST(2)
	fstp	DWORD PTR $T97839[ebp+8]
	fld	DWORD PTR [eax+36]
	fmul	ST(0), ST(1)
	fstp	DWORD PTR $T97838[ebp]
	fld	DWORD PTR [eax+40]
	fmul	ST(0), ST(1)
	fstp	DWORD PTR $T97838[ebp+4]
	fld	DWORD PTR [eax+44]
	fmul	ST(0), ST(1)
	fstp	DWORD PTR $T97838[ebp+8]
	fld	DWORD PTR $T97838[ebp]
	fadd	DWORD PTR $T97839[ebp]
	fstp	DWORD PTR $T97840[ebp]
	fld	DWORD PTR $T97838[ebp+4]
	mov	esi, DWORD PTR $T97840[ebp]
	fadd	DWORD PTR $T97839[ebp+4]
	mov	DWORD PTR [ecx+36], esi
	fstp	DWORD PTR $T97840[ebp+4]
	fld	DWORD PTR $T97838[ebp+8]
	mov	esi, DWORD PTR $T97840[ebp+4]
	fadd	DWORD PTR $T97839[ebp+8]
	mov	DWORD PTR [ecx+40], esi
	fstp	DWORD PTR $T97840[ebp+8]
	mov	esi, DWORD PTR $T97840[ebp+8]
	mov	DWORD PTR [ecx+44], esi
; Line 426
	fld	DWORD PTR [edx+48]
	fmul	ST(0), ST(2)
	fstp	DWORD PTR $T97842[ebp]
	fld	DWORD PTR [edx+52]
	fmul	ST(0), ST(2)
	fstp	DWORD PTR $T97842[ebp+4]
	fld	DWORD PTR [edx+56]
	fmul	ST(0), ST(2)
	fstp	DWORD PTR $T97842[ebp+8]
	fld	ST(0)
	fmul	DWORD PTR [eax+48]
	fstp	DWORD PTR $T97841[ebp]
	fld	DWORD PTR [eax+52]
	fmul	ST(0), ST(1)
	fstp	DWORD PTR $T97841[ebp+4]
	fld	DWORD PTR [eax+56]
	fmul	ST(0), ST(1)
	fstp	DWORD PTR $T97841[ebp+8]
	fld	DWORD PTR $T97841[ebp]
	fadd	DWORD PTR $T97842[ebp]
	fstp	DWORD PTR $T97843[ebp]
	fld	DWORD PTR $T97841[ebp+4]
	mov	esi, DWORD PTR $T97843[ebp]
	fadd	DWORD PTR $T97842[ebp+4]
	mov	DWORD PTR [ecx+48], esi
	fstp	DWORD PTR $T97843[ebp+4]
	fld	DWORD PTR $T97841[ebp+8]
	mov	esi, DWORD PTR $T97843[ebp+4]
	fadd	DWORD PTR $T97842[ebp+8]
	mov	DWORD PTR [ecx+52], esi
	fstp	DWORD PTR $T97843[ebp+8]
	mov	esi, DWORD PTR $T97843[ebp+8]
	mov	DWORD PTR [ecx+56], esi
; Line 427
	fld	DWORD PTR [edx+60]
	fmul	ST(0), ST(2)
	fstp	DWORD PTR $T97845[ebp]
	fld	DWORD PTR [edx+64]
	fmul	ST(0), ST(2)
	fstp	DWORD PTR $T97845[ebp+4]
	fld	DWORD PTR [edx+68]
	fmul	ST(0), ST(2)
	fstp	DWORD PTR $T97845[ebp+8]
	fld	DWORD PTR [eax+60]
	fmul	ST(0), ST(1)
	fstp	DWORD PTR $T97844[ebp]
	fld	DWORD PTR [eax+64]
	fmul	ST(0), ST(1)
	fstp	DWORD PTR $T97844[ebp+4]
	fld	DWORD PTR [eax+68]
	fmul	ST(0), ST(1)
	fstp	DWORD PTR $T97844[ebp+8]
	fld	DWORD PTR $T97844[ebp]
	fadd	DWORD PTR $T97845[ebp]
	fstp	DWORD PTR $T97846[ebp]
	fld	DWORD PTR $T97844[ebp+4]
	mov	esi, DWORD PTR $T97846[ebp]
	fadd	DWORD PTR $T97845[ebp+4]
	mov	DWORD PTR [ecx+60], esi
	fstp	DWORD PTR $T97846[ebp+4]
	fld	DWORD PTR $T97844[ebp+8]
	mov	esi, DWORD PTR $T97846[ebp+4]
	fadd	DWORD PTR $T97845[ebp+8]
	mov	DWORD PTR [ecx+64], esi
	fstp	DWORD PTR $T97846[ebp+8]
	mov	esi, DWORD PTR $T97846[ebp+8]
; Line 428
	fld	ST(1)
	mov	DWORD PTR [ecx+68], esi
	fmul	DWORD PTR [edx+72]
	fstp	DWORD PTR $T97848[ebp]
	fld	DWORD PTR [edx+76]
	fmul	ST(0), ST(2)
	fstp	DWORD PTR $T97848[ebp+4]
	fld	DWORD PTR [edx+80]
	fmul	ST(0), ST(2)
	fstp	DWORD PTR $T97848[ebp+8]
	fld	DWORD PTR [eax+72]
	fmul	ST(0), ST(1)
	fstp	DWORD PTR $T97847[ebp]
	fld	DWORD PTR [eax+76]
	fmul	ST(0), ST(1)
	fstp	DWORD PTR $T97847[ebp+4]
	fld	DWORD PTR [eax+80]
	fmul	ST(0), ST(1)
	fstp	DWORD PTR $T97847[ebp+8]
	fld	DWORD PTR $T97847[ebp]
	fadd	DWORD PTR $T97848[ebp]
	fstp	DWORD PTR $T97849[ebp]
	fld	DWORD PTR $T97847[ebp+4]
	mov	esi, DWORD PTR $T97849[ebp]
	fadd	DWORD PTR $T97848[ebp+4]
	mov	DWORD PTR [ecx+72], esi
	fstp	DWORD PTR $T97849[ebp+4]
	fld	DWORD PTR $T97847[ebp+8]
	mov	esi, DWORD PTR $T97849[ebp+4]
	fadd	DWORD PTR $T97848[ebp+8]
	mov	DWORD PTR [ecx+76], esi
	fstp	DWORD PTR $T97849[ebp+8]
	mov	esi, DWORD PTR $T97849[ebp+8]
	mov	DWORD PTR [ecx+80], esi
; Line 429
	fld	DWORD PTR [edx+84]
	fmul	ST(0), ST(2)
	pop	esi
	fstp	DWORD PTR $T97851[ebp]
	fld	DWORD PTR [edx+88]
	fmul	ST(0), ST(2)
	fstp	DWORD PTR $T97851[ebp+4]
	fld	DWORD PTR [edx+92]
	fmulp	ST(2), ST(0)
	fxch	ST(1)
	fstp	DWORD PTR $T97851[ebp+8]
	fld	DWORD PTR [eax+84]
	fmul	ST(0), ST(1)
	fstp	DWORD PTR $T97850[ebp]
	fld	DWORD PTR [eax+88]
	fmul	ST(0), ST(1)
	fstp	DWORD PTR $T97850[ebp+4]
	fmul	DWORD PTR [eax+92]
	fstp	DWORD PTR $T97850[ebp+8]
	fld	DWORD PTR $T97850[ebp]
	fadd	DWORD PTR $T97851[ebp]
	fstp	DWORD PTR $T97852[ebp]
	fld	DWORD PTR $T97850[ebp+4]
	mov	eax, DWORD PTR $T97852[ebp]
	fadd	DWORD PTR $T97851[ebp+4]
	mov	DWORD PTR [ecx+84], eax
	fstp	DWORD PTR $T97852[ebp+4]
	fld	DWORD PTR $T97850[ebp+8]
	mov	edx, DWORD PTR $T97852[ebp+4]
	fadd	DWORD PTR $T97851[ebp+8]
	mov	DWORD PTR [ecx+88], edx
	fstp	DWORD PTR $T97852[ebp+8]
	mov	eax, DWORD PTR $T97852[ebp+8]
	mov	DWORD PTR [ecx+92], eax
; Line 430
	mov	esp, ebp
	pop	ebp
	ret	12					; 0000000cH
?interpolate@OutdoorLightStats@@QAEXPAU1@0M@Z ENDP	; OutdoorLightStats::interpolate
_TEXT	ENDS
PUBLIC	__$ArrayPad$
PUBLIC	?setupLighting@OutdoorLightStats@@QAEXXZ	; OutdoorLightStats::setupLighting
EXTRN	__imp__glLightModelfv@8:PROC
EXTRN	__imp__glDisable@4:PROC
EXTRN	__imp__glLightfv@12:PROC
; Function compile flags: /Ogtp
_TEXT	SEGMENT
_lp$ = -52						; size = 16
_ld$ = -36						; size = 16
_la$ = -20						; size = 16
__$ArrayPad$ = -4					; size = 4
?setupLighting@OutdoorLightStats@@QAEXXZ PROC		; OutdoorLightStats::setupLighting
; _this$ = ecx
; Line 433
	push	ebp
	mov	ebp, esp
	sub	esp, 52					; 00000034H
	mov	eax, DWORD PTR ___security_cookie
	xor	eax, ebp
	mov	DWORD PTR __$ArrayPad$[ebp], eax
; Line 444
	fldz
	push	ebx
	mov	ebx, DWORD PTR __imp__glEnable@4
	push	esi
	mov	eax, 1065353216				; 3f800000H
	mov	esi, ecx
	fcomp	DWORD PTR [esi+4]
	mov	DWORD PTR _la$[ebp+12], eax
	mov	DWORD PTR _ld$[ebp+12], eax
	xor	eax, eax
	mov	DWORD PTR _lp$[ebp+12], eax
	mov	DWORD PTR _la$[ebp+8], eax
	mov	DWORD PTR _la$[ebp+4], eax
	mov	DWORD PTR _la$[ebp], eax
	fnstsw	ax
	push	edi
	mov	edi, DWORD PTR __imp__glLightfv@12
	test	ah, 5
	jp	SHORT $LN4@setupLight
; Line 446
	fld	DWORD PTR [esi+24]
; Line 449
	mov	eax, DWORD PTR [esi+72]
	fmul	DWORD PTR [esi+4]
; Line 450
	mov	ecx, DWORD PTR [esi+80]
; Line 453
	lea	edx, DWORD PTR _la$[ebp]
	push	edx
	fstp	DWORD PTR _ld$[ebp]
	push	4608					; 00001200H
	fld	DWORD PTR [esi+28]
	push	16384					; 00004000H
	fmul	DWORD PTR [esi+4]
	mov	DWORD PTR _lp$[ebp], eax
	mov	DWORD PTR _lp$[ebp+4], ecx
	fstp	DWORD PTR _ld$[ebp+4]
	fld	DWORD PTR [esi+32]
	fmul	DWORD PTR [esi+4]
	fstp	DWORD PTR _ld$[ebp+8]
	fld	DWORD PTR [esi+76]
	fchs
	fstp	DWORD PTR _lp$[ebp+8]
	call	edi
; Line 454
	lea	eax, DWORD PTR _ld$[ebp]
	push	eax
	push	4609					; 00001201H
	push	16384					; 00004000H
	call	edi
; Line 455
	lea	ecx, DWORD PTR _lp$[ebp]
	push	ecx
	push	4611					; 00001203H
	push	16384					; 00004000H
	call	edi
; Line 456
	push	16384					; 00004000H
	call	ebx
; Line 458
	jmp	SHORT $LN3@setupLight
$LN4@setupLight:
; Line 459
	push	16384					; 00004000H
	call	DWORD PTR __imp__glDisable@4
$LN3@setupLight:
; Line 461
	fldz
	fcomp	DWORD PTR [esi+8]
	fnstsw	ax
	test	ah, 5
	jp	SHORT $LN2@setupLight
; Line 463
	fld	DWORD PTR [esi+36]
; Line 466
	mov	edx, DWORD PTR [esi+84]
	fmul	DWORD PTR [esi+8]
; Line 467
	mov	eax, DWORD PTR [esi+92]
; Line 470
	lea	ecx, DWORD PTR _la$[ebp]
	push	ecx
	fstp	DWORD PTR _ld$[ebp]
	push	4608					; 00001200H
	fld	DWORD PTR [esi+40]
	push	16385					; 00004001H
	fmul	DWORD PTR [esi+8]
	mov	DWORD PTR _lp$[ebp], edx
	mov	DWORD PTR _lp$[ebp+4], eax
	fstp	DWORD PTR _ld$[ebp+4]
	fld	DWORD PTR [esi+44]
	fmul	DWORD PTR [esi+8]
	fstp	DWORD PTR _ld$[ebp+8]
	fld	DWORD PTR [esi+88]
	fchs
	fstp	DWORD PTR _lp$[ebp+8]
	call	edi
; Line 471
	lea	edx, DWORD PTR _ld$[ebp]
	push	edx
	push	4609					; 00001201H
	push	16385					; 00004001H
	call	edi
; Line 472
	lea	eax, DWORD PTR _lp$[ebp]
	push	eax
	push	4611					; 00001203H
	push	16385					; 00004001H
	call	edi
; Line 473
	push	16385					; 00004001H
	call	ebx
; Line 475
	mov	edi, DWORD PTR __imp__glDisable@4
	jmp	SHORT $LN1@setupLight
$LN2@setupLight:
; Line 476
	mov	edi, DWORD PTR __imp__glDisable@4
	push	16385					; 00004001H
	call	edi
$LN1@setupLight:
; Line 479
	fld	DWORD PTR [esi+48]
; Line 491
	push	16386					; 00004002H
	fmul	DWORD PTR [esi+12]
	fstp	DWORD PTR _la$[ebp]
	fld	DWORD PTR [esi+52]
	fmul	DWORD PTR [esi+12]
	fstp	DWORD PTR _la$[ebp+4]
	fld	DWORD PTR [esi+56]
	fmul	DWORD PTR [esi+12]
	fstp	DWORD PTR _la$[ebp+8]
	call	edi
; Line 492
	lea	ecx, DWORD PTR _la$[ebp]
	push	ecx
	push	2899					; 00000b53H
	call	DWORD PTR __imp__glLightModelfv@8
; Line 495
	push	16387					; 00004003H
	call	edi
; Line 496
	push	16388					; 00004004H
	call	edi
; Line 497
	push	16389					; 00004005H
	call	edi
; Line 498
	push	16390					; 00004006H
	call	edi
; Line 499
	push	16391					; 00004007H
	call	edi
; Line 501
	mov	ecx, DWORD PTR __$ArrayPad$[ebp]
	pop	edi
	pop	esi
	xor	ecx, ebp
	pop	ebx
	call	@__security_check_cookie@4
	mov	esp, ebp
	pop	ebp
	ret	0
?setupLighting@OutdoorLightStats@@QAEXXZ ENDP		; OutdoorLightStats::setupLighting
_TEXT	ENDS
PUBLIC	??0OutdoorLightStats@@QAE@XZ			; OutdoorLightStats::OutdoorLightStats
; Function compile flags: /Ogtp
;	COMDAT ??0OutdoorLightStats@@QAE@XZ
_TEXT	SEGMENT
??0OutdoorLightStats@@QAE@XZ PROC			; OutdoorLightStats::OutdoorLightStats, COMDAT
; _this$ = ecx
	mov	eax, ecx
	xor	ecx, ecx
	mov	DWORD PTR [eax+24], ecx
	mov	DWORD PTR [eax+28], ecx
	mov	DWORD PTR [eax+32], ecx
	mov	DWORD PTR [eax+36], ecx
	mov	DWORD PTR [eax+40], ecx
	mov	DWORD PTR [eax+44], ecx
	mov	DWORD PTR [eax+48], ecx
	mov	DWORD PTR [eax+52], ecx
	mov	DWORD PTR [eax+56], ecx
	mov	DWORD PTR [eax+60], ecx
	mov	DWORD PTR [eax+64], ecx
	mov	DWORD PTR [eax+68], ecx
	mov	DWORD PTR [eax+72], ecx
	mov	DWORD PTR [eax+76], ecx
	mov	DWORD PTR [eax+80], ecx
	mov	DWORD PTR [eax+84], ecx
	mov	DWORD PTR [eax+88], ecx
	mov	DWORD PTR [eax+92], ecx
	ret	0
??0OutdoorLightStats@@QAE@XZ ENDP			; OutdoorLightStats::OutdoorLightStats
_TEXT	ENDS
PUBLIC	??0OutdoorLightStats@@QAE@ABU0@@Z		; OutdoorLightStats::OutdoorLightStats
; Function compile flags: /Ogtp
;	COMDAT ??0OutdoorLightStats@@QAE@ABU0@@Z
_TEXT	SEGMENT
___that$ = 8						; size = 4
??0OutdoorLightStats@@QAE@ABU0@@Z PROC			; OutdoorLightStats::OutdoorLightStats, COMDAT
; _this$ = ecx
	push	ebp
	mov	ebp, esp
	mov	eax, ecx
	mov	ecx, DWORD PTR ___that$[ebp]
	mov	edx, DWORD PTR [ecx]
	mov	DWORD PTR [eax], edx
	mov	edx, DWORD PTR [ecx+4]
	mov	DWORD PTR [eax+4], edx
	mov	edx, DWORD PTR [ecx+8]
	mov	DWORD PTR [eax+8], edx
	mov	edx, DWORD PTR [ecx+12]
	mov	DWORD PTR [eax+12], edx
	mov	edx, DWORD PTR [ecx+16]
	mov	DWORD PTR [eax+16], edx
	mov	edx, DWORD PTR [ecx+20]
	mov	DWORD PTR [eax+20], edx
	mov	edx, DWORD PTR [ecx+24]
	mov	DWORD PTR [eax+24], edx
	mov	edx, DWORD PTR [ecx+28]
	mov	DWORD PTR [eax+28], edx
	mov	edx, DWORD PTR [ecx+32]
	mov	DWORD PTR [eax+32], edx
	mov	edx, DWORD PTR [ecx+36]
	mov	DWORD PTR [eax+36], edx
	mov	edx, DWORD PTR [ecx+40]
	mov	DWORD PTR [eax+40], edx
	mov	edx, DWORD PTR [ecx+44]
	mov	DWORD PTR [eax+44], edx
	mov	edx, DWORD PTR [ecx+48]
	mov	DWORD PTR [eax+48], edx
	mov	edx, DWORD PTR [ecx+52]
	mov	DWORD PTR [eax+52], edx
	mov	edx, DWORD PTR [ecx+56]
	mov	DWORD PTR [eax+56], edx
	mov	edx, DWORD PTR [ecx+60]
	mov	DWORD PTR [eax+60], edx
	mov	edx, DWORD PTR [ecx+64]
	mov	DWORD PTR [eax+64], edx
	mov	edx, DWORD PTR [ecx+68]
	mov	DWORD PTR [eax+68], edx
	mov	edx, DWORD PTR [ecx+72]
	mov	DWORD PTR [eax+72], edx
	mov	edx, DWORD PTR [ecx+76]
	mov	DWORD PTR [eax+76], edx
	mov	edx, DWORD PTR [ecx+80]
	mov	DWORD PTR [eax+80], edx
	mov	edx, DWORD PTR [ecx+84]
	mov	DWORD PTR [eax+84], edx
	mov	edx, DWORD PTR [ecx+88]
	mov	DWORD PTR [eax+88], edx
	mov	ecx, DWORD PTR [ecx+92]
	mov	DWORD PTR [eax+92], ecx
	pop	ebp
	ret	4
??0OutdoorLightStats@@QAE@ABU0@@Z ENDP			; OutdoorLightStats::OutdoorLightStats
_TEXT	ENDS
PUBLIC	?size@?$basic_string@DU?$char_traits@D@std@@V?$allocator@D@2@@std@@QBEIXZ ; std::basic_string<char,std::char_traits<char>,std::allocator<char> >::size
; Function compile flags: /Ogtp
;	COMDAT ?size@?$basic_string@DU?$char_traits@D@std@@V?$allocator@D@2@@std@@QBEIXZ
_TEXT	SEGMENT
?size@?$basic_string@DU?$char_traits@D@std@@V?$allocator@D@2@@std@@QBEIXZ PROC ; std::basic_string<char,std::char_traits<char>,std::allocator<char> >::size, COMDAT
; _this$ = ecx
; File c:\program files (x86)\microsoft visual studio 10.0\vc\include\xstring
; Line 1511
	mov	eax, DWORD PTR [ecx+16]
; Line 1512
	ret	0
?size@?$basic_string@DU?$char_traits@D@std@@V?$allocator@D@2@@std@@QBEIXZ ENDP ; std::basic_string<char,std::char_traits<char>,std::allocator<char> >::size
_TEXT	ENDS
PUBLIC	?size@?$vector@USkyColor@@V?$allocator@USkyColor@@@std@@@std@@QBEIXZ ; std::vector<SkyColor,std::allocator<SkyColor> >::size
; Function compile flags: /Ogtp
;	COMDAT ?size@?$vector@USkyColor@@V?$allocator@USkyColor@@@std@@@std@@QBEIXZ
_TEXT	SEGMENT
?size@?$vector@USkyColor@@V?$allocator@USkyColor@@@std@@@std@@QBEIXZ PROC ; std::vector<SkyColor,std::allocator<SkyColor> >::size, COMDAT
; _this$ = ecx
; File c:\program files (x86)\microsoft visual studio 10.0\vc\include\vector
; Line 879
	mov	eax, DWORD PTR [ecx+4]
	sub	eax, DWORD PTR [ecx]
	sar	eax, 4
; Line 880
	ret	0
?size@?$vector@USkyColor@@V?$allocator@USkyColor@@@std@@@std@@QBEIXZ ENDP ; std::vector<SkyColor,std::allocator<SkyColor> >::size
_TEXT	ENDS
PUBLIC	??A?$vector@USkyColor@@V?$allocator@USkyColor@@@std@@@std@@QBEABUSkyColor@@I@Z ; std::vector<SkyColor,std::allocator<SkyColor> >::operator[]
; Function compile flags: /Ogtp
;	COMDAT ??A?$vector@USkyColor@@V?$allocator@USkyColor@@@std@@@std@@QBEABUSkyColor@@I@Z
_TEXT	SEGMENT
__Pos$ = 8						; size = 4
??A?$vector@USkyColor@@V?$allocator@USkyColor@@@std@@@std@@QBEABUSkyColor@@I@Z PROC ; std::vector<SkyColor,std::allocator<SkyColor> >::operator[], COMDAT
; _this$ = ecx
; Line 912
	push	ebp
	mov	ebp, esp
; Line 924
	mov	eax, DWORD PTR __Pos$[ebp]
	shl	eax, 4
	add	eax, DWORD PTR [ecx]
; Line 925
	pop	ebp
	ret	4
??A?$vector@USkyColor@@V?$allocator@USkyColor@@@std@@@std@@QBEABUSkyColor@@I@Z ENDP ; std::vector<SkyColor,std::allocator<SkyColor> >::operator[]
_TEXT	ENDS
PUBLIC	?size@?$vector@VSky@@V?$allocator@VSky@@@std@@@std@@QBEIXZ ; std::vector<Sky,std::allocator<Sky> >::size
; Function compile flags: /Ogtp
;	COMDAT ?size@?$vector@VSky@@V?$allocator@VSky@@@std@@@std@@QBEIXZ
_TEXT	SEGMENT
?size@?$vector@VSky@@V?$allocator@VSky@@@std@@@std@@QBEIXZ PROC ; std::vector<Sky,std::allocator<Sky> >::size, COMDAT
; _this$ = ecx
; Line 878
	push	esi
; Line 879
	mov	esi, DWORD PTR [ecx+4]
	sub	esi, DWORD PTR [ecx]
	mov	eax, -1475706711			; a80a80a9H
	imul	esi
	add	edx, esi
	sar	edx, 9
	mov	eax, edx
	shr	eax, 31					; 0000001fH
	add	eax, edx
	pop	esi
; Line 880
	ret	0
?size@?$vector@VSky@@V?$allocator@VSky@@@std@@@std@@QBEIXZ ENDP ; std::vector<Sky,std::allocator<Sky> >::size
_TEXT	ENDS
PUBLIC	??A?$vector@VSky@@V?$allocator@VSky@@@std@@@std@@QAEAAVSky@@I@Z ; std::vector<Sky,std::allocator<Sky> >::operator[]
; Function compile flags: /Ogtp
;	COMDAT ??A?$vector@VSky@@V?$allocator@VSky@@@std@@@std@@QAEAAVSky@@I@Z
_TEXT	SEGMENT
__Pos$ = 8						; size = 4
??A?$vector@VSky@@V?$allocator@VSky@@@std@@@std@@QAEAAVSky@@I@Z PROC ; std::vector<Sky,std::allocator<Sky> >::operator[], COMDAT
; _this$ = ecx
; Line 928
	push	ebp
	mov	ebp, esp
; Line 940
	mov	eax, DWORD PTR __Pos$[ebp]
	imul	eax, 780				; 0000030cH
	add	eax, DWORD PTR [ecx]
; Line 941
	pop	ebp
	ret	4
??A?$vector@VSky@@V?$allocator@VSky@@@std@@@std@@QAEAAVSky@@I@Z ENDP ; std::vector<Sky,std::allocator<Sky> >::operator[]
_TEXT	ENDS
PUBLIC	??A?$vector@UOutdoorLightStats@@V?$allocator@UOutdoorLightStats@@@std@@@std@@QAEAAUOutdoorLightStats@@I@Z ; std::vector<OutdoorLightStats,std::allocator<OutdoorLightStats> >::operator[]
; Function compile flags: /Ogtp
;	COMDAT ??A?$vector@UOutdoorLightStats@@V?$allocator@UOutdoorLightStats@@@std@@@std@@QAEAAUOutdoorLightStats@@I@Z
_TEXT	SEGMENT
__Pos$ = 8						; size = 4
??A?$vector@UOutdoorLightStats@@V?$allocator@UOutdoorLightStats@@@std@@@std@@QAEAAUOutdoorLightStats@@I@Z PROC ; std::vector<OutdoorLightStats,std::allocator<OutdoorLightStats> >::operator[], COMDAT
; _this$ = ecx
; Line 928
	push	ebp
	mov	ebp, esp
; Line 940
	mov	eax, DWORD PTR __Pos$[ebp]
	lea	eax, DWORD PTR [eax+eax*2]
	shl	eax, 5
	add	eax, DWORD PTR [ecx]
; Line 941
	pop	ebp
	ret	4
??A?$vector@UOutdoorLightStats@@V?$allocator@UOutdoorLightStats@@@std@@@std@@QAEAAUOutdoorLightStats@@I@Z ENDP ; std::vector<OutdoorLightStats,std::allocator<OutdoorLightStats> >::operator[]
_TEXT	ENDS
PUBLIC	?_Myptr@?$basic_string@DU?$char_traits@D@std@@V?$allocator@D@2@@std@@QBEPBDXZ ; std::basic_string<char,std::char_traits<char>,std::allocator<char> >::_Myptr
; Function compile flags: /Ogtp
;	COMDAT ?_Myptr@?$basic_string@DU?$char_traits@D@std@@V?$allocator@D@2@@std@@QBEPBDXZ
_TEXT	SEGMENT
?_Myptr@?$basic_string@DU?$char_traits@D@std@@V?$allocator@D@2@@std@@QBEPBDXZ PROC ; std::basic_string<char,std::char_traits<char>,std::allocator<char> >::_Myptr, COMDAT
; _this$ = ecx
; File c:\program files (x86)\microsoft visual studio 10.0\vc\include\xstring
; Line 2008
	mov	eax, ecx
; Line 2010
	cmp	DWORD PTR [eax+20], 16			; 00000010H
	jb	SHORT $LN4@Myptr
	mov	eax, DWORD PTR [eax]
$LN4@Myptr:
; Line 2011
	ret	0
?_Myptr@?$basic_string@DU?$char_traits@D@std@@V?$allocator@D@2@@std@@QBEPBDXZ ENDP ; std::basic_string<char,std::char_traits<char>,std::allocator<char> >::_Myptr
_TEXT	ENDS
PUBLIC	??1?$_String_val@DV?$allocator@D@std@@@std@@QAE@XZ ; std::_String_val<char,std::allocator<char> >::~_String_val<char,std::allocator<char> >
; Function compile flags: /Ogtp
;	COMDAT ??1?$_String_val@DV?$allocator@D@std@@@std@@QAE@XZ
_TEXT	SEGMENT
??1?$_String_val@DV?$allocator@D@std@@@std@@QAE@XZ PROC	; std::_String_val<char,std::allocator<char> >::~_String_val<char,std::allocator<char> >, COMDAT
; _this$ = ecx
; Line 459
	ret	0
??1?$_String_val@DV?$allocator@D@std@@@std@@QAE@XZ ENDP	; std::_String_val<char,std::allocator<char> >::~_String_val<char,std::allocator<char> >
_TEXT	ENDS
PUBLIC	??0?$allocator@D@std@@QAE@XZ			; std::allocator<char>::allocator<char>
; Function compile flags: /Ogtp
;	COMDAT ??0?$allocator@D@std@@QAE@XZ
_TEXT	SEGMENT
??0?$allocator@D@std@@QAE@XZ PROC			; std::allocator<char>::allocator<char>, COMDAT
; _this$ = ecx
; File c:\program files (x86)\microsoft visual studio 10.0\vc\include\xmemory
; Line 161
	mov	eax, ecx
; Line 163
	ret	0
??0?$allocator@D@std@@QAE@XZ ENDP			; std::allocator<char>::allocator<char>
_TEXT	ENDS
PUBLIC	??0?$allocator@D@std@@QAE@ABV01@@Z		; std::allocator<char>::allocator<char>
; Function compile flags: /Ogtp
;	COMDAT ??0?$allocator@D@std@@QAE@ABV01@@Z
_TEXT	SEGMENT
___formal$ = 8						; size = 4
??0?$allocator@D@std@@QAE@ABV01@@Z PROC			; std::allocator<char>::allocator<char>, COMDAT
; _this$ = ecx
; Line 165
	mov	eax, ecx
; Line 167
	ret	4
??0?$allocator@D@std@@QAE@ABV01@@Z ENDP			; std::allocator<char>::allocator<char>
_TEXT	ENDS
PUBLIC	?_Inside@?$vector@USkyColor@@V?$allocator@USkyColor@@@std@@@std@@IBE_NPBUSkyColor@@@Z ; std::vector<SkyColor,std::allocator<SkyColor> >::_Inside
; Function compile flags: /Ogtp
;	COMDAT ?_Inside@?$vector@USkyColor@@V?$allocator@USkyColor@@@std@@@std@@IBE_NPBUSkyColor@@@Z
_TEXT	SEGMENT
__Ptr$ = 8						; size = 4
?_Inside@?$vector@USkyColor@@V?$allocator@USkyColor@@@std@@@std@@IBE_NPBUSkyColor@@@Z PROC ; std::vector<SkyColor,std::allocator<SkyColor> >::_Inside, COMDAT
; _this$ = ecx
; File c:\program files (x86)\microsoft visual studio 10.0\vc\include\vector
; Line 1285
	push	ebp
	mov	ebp, esp
; Line 1286
	mov	eax, DWORD PTR __Ptr$[ebp]
	cmp	eax, DWORD PTR [ecx+4]
	jae	SHORT $LN3@Inside
	cmp	DWORD PTR [ecx], eax
	ja	SHORT $LN3@Inside
	mov	eax, 1
; Line 1287
	pop	ebp
	ret	4
$LN3@Inside:
; Line 1286
	xor	eax, eax
; Line 1287
	pop	ebp
	ret	4
?_Inside@?$vector@USkyColor@@V?$allocator@USkyColor@@@std@@@std@@IBE_NPBUSkyColor@@@Z ENDP ; std::vector<SkyColor,std::allocator<SkyColor> >::_Inside
_TEXT	ENDS
PUBLIC	?_Orphan_range@?$vector@USkyColor@@V?$allocator@USkyColor@@@std@@@std@@IBEXPAUSkyColor@@0@Z ; std::vector<SkyColor,std::allocator<SkyColor> >::_Orphan_range
; Function compile flags: /Ogtp
;	COMDAT ?_Orphan_range@?$vector@USkyColor@@V?$allocator@USkyColor@@@std@@@std@@IBEXPAUSkyColor@@0@Z
_TEXT	SEGMENT
___formal$ = 8						; size = 4
___formal$ = 12						; size = 4
?_Orphan_range@?$vector@USkyColor@@V?$allocator@USkyColor@@@std@@@std@@IBEXPAUSkyColor@@0@Z PROC ; std::vector<SkyColor,std::allocator<SkyColor> >::_Orphan_range, COMDAT
; _this$ = ecx
; Line 1454
	ret	8
?_Orphan_range@?$vector@USkyColor@@V?$allocator@USkyColor@@@std@@@std@@IBEXPAUSkyColor@@0@Z ENDP ; std::vector<SkyColor,std::allocator<SkyColor> >::_Orphan_range
_TEXT	ENDS
PUBLIC	??1?$_Vector_val@USkyColor@@V?$allocator@USkyColor@@@std@@@std@@QAE@XZ ; std::_Vector_val<SkyColor,std::allocator<SkyColor> >::~_Vector_val<SkyColor,std::allocator<SkyColor> >
; Function compile flags: /Ogtp
;	COMDAT ??1?$_Vector_val@USkyColor@@V?$allocator@USkyColor@@@std@@@std@@QAE@XZ
_TEXT	SEGMENT
??1?$_Vector_val@USkyColor@@V?$allocator@USkyColor@@@std@@@std@@QAE@XZ PROC ; std::_Vector_val<SkyColor,std::allocator<SkyColor> >::~_Vector_val<SkyColor,std::allocator<SkyColor> >, COMDAT
; _this$ = ecx
; Line 434
	ret	0
??1?$_Vector_val@USkyColor@@V?$allocator@USkyColor@@@std@@@std@@QAE@XZ ENDP ; std::_Vector_val<SkyColor,std::allocator<SkyColor> >::~_Vector_val<SkyColor,std::allocator<SkyColor> >
_TEXT	ENDS
PUBLIC	??0?$allocator@USkyColor@@@std@@QAE@XZ		; std::allocator<SkyColor>::allocator<SkyColor>
; Function compile flags: /Ogtp
;	COMDAT ??0?$allocator@USkyColor@@@std@@QAE@XZ
_TEXT	SEGMENT
??0?$allocator@USkyColor@@@std@@QAE@XZ PROC		; std::allocator<SkyColor>::allocator<SkyColor>, COMDAT
; _this$ = ecx
; File c:\program files (x86)\microsoft visual studio 10.0\vc\include\xmemory
; Line 161
	mov	eax, ecx
; Line 163
	ret	0
??0?$allocator@USkyColor@@@std@@QAE@XZ ENDP		; std::allocator<SkyColor>::allocator<SkyColor>
_TEXT	ENDS
PUBLIC	?_Inside@?$vector@VSky@@V?$allocator@VSky@@@std@@@std@@IBE_NPBVSky@@@Z ; std::vector<Sky,std::allocator<Sky> >::_Inside
; Function compile flags: /Ogtp
;	COMDAT ?_Inside@?$vector@VSky@@V?$allocator@VSky@@@std@@@std@@IBE_NPBVSky@@@Z
_TEXT	SEGMENT
__Ptr$ = 8						; size = 4
?_Inside@?$vector@VSky@@V?$allocator@VSky@@@std@@@std@@IBE_NPBVSky@@@Z PROC ; std::vector<Sky,std::allocator<Sky> >::_Inside, COMDAT
; _this$ = ecx
; File c:\program files (x86)\microsoft visual studio 10.0\vc\include\vector
; Line 1285
	push	ebp
	mov	ebp, esp
; Line 1286
	mov	eax, DWORD PTR __Ptr$[ebp]
	cmp	eax, DWORD PTR [ecx+4]
	jae	SHORT $LN3@Inside@2
	cmp	DWORD PTR [ecx], eax
	ja	SHORT $LN3@Inside@2
	mov	eax, 1
; Line 1287
	pop	ebp
	ret	4
$LN3@Inside@2:
; Line 1286
	xor	eax, eax
; Line 1287
	pop	ebp
	ret	4
?_Inside@?$vector@VSky@@V?$allocator@VSky@@@std@@@std@@IBE_NPBVSky@@@Z ENDP ; std::vector<Sky,std::allocator<Sky> >::_Inside
_TEXT	ENDS
PUBLIC	?_Orphan_range@?$vector@VSky@@V?$allocator@VSky@@@std@@@std@@IBEXPAVSky@@0@Z ; std::vector<Sky,std::allocator<Sky> >::_Orphan_range
; Function compile flags: /Ogtp
;	COMDAT ?_Orphan_range@?$vector@VSky@@V?$allocator@VSky@@@std@@@std@@IBEXPAVSky@@0@Z
_TEXT	SEGMENT
___formal$ = 8						; size = 4
___formal$ = 12						; size = 4
?_Orphan_range@?$vector@VSky@@V?$allocator@VSky@@@std@@@std@@IBEXPAVSky@@0@Z PROC ; std::vector<Sky,std::allocator<Sky> >::_Orphan_range, COMDAT
; _this$ = ecx
; Line 1454
	ret	8
?_Orphan_range@?$vector@VSky@@V?$allocator@VSky@@@std@@@std@@IBEXPAVSky@@0@Z ENDP ; std::vector<Sky,std::allocator<Sky> >::_Orphan_range
_TEXT	ENDS
PUBLIC	??1?$_Vector_val@VSky@@V?$allocator@VSky@@@std@@@std@@QAE@XZ ; std::_Vector_val<Sky,std::allocator<Sky> >::~_Vector_val<Sky,std::allocator<Sky> >
; Function compile flags: /Ogtp
;	COMDAT ??1?$_Vector_val@VSky@@V?$allocator@VSky@@@std@@@std@@QAE@XZ
_TEXT	SEGMENT
??1?$_Vector_val@VSky@@V?$allocator@VSky@@@std@@@std@@QAE@XZ PROC ; std::_Vector_val<Sky,std::allocator<Sky> >::~_Vector_val<Sky,std::allocator<Sky> >, COMDAT
; _this$ = ecx
; Line 434
	ret	0
??1?$_Vector_val@VSky@@V?$allocator@VSky@@@std@@@std@@QAE@XZ ENDP ; std::_Vector_val<Sky,std::allocator<Sky> >::~_Vector_val<Sky,std::allocator<Sky> >
_TEXT	ENDS
PUBLIC	??0?$allocator@VSky@@@std@@QAE@XZ		; std::allocator<Sky>::allocator<Sky>
; Function compile flags: /Ogtp
;	COMDAT ??0?$allocator@VSky@@@std@@QAE@XZ
_TEXT	SEGMENT
??0?$allocator@VSky@@@std@@QAE@XZ PROC			; std::allocator<Sky>::allocator<Sky>, COMDAT
; _this$ = ecx
; File c:\program files (x86)\microsoft visual studio 10.0\vc\include\xmemory
; Line 161
	mov	eax, ecx
; Line 163
	ret	0
??0?$allocator@VSky@@@std@@QAE@XZ ENDP			; std::allocator<Sky>::allocator<Sky>
_TEXT	ENDS
PUBLIC	?_Inside@?$vector@UOutdoorLightStats@@V?$allocator@UOutdoorLightStats@@@std@@@std@@IBE_NPBUOutdoorLightStats@@@Z ; std::vector<OutdoorLightStats,std::allocator<OutdoorLightStats> >::_Inside
; Function compile flags: /Ogtp
;	COMDAT ?_Inside@?$vector@UOutdoorLightStats@@V?$allocator@UOutdoorLightStats@@@std@@@std@@IBE_NPBUOutdoorLightStats@@@Z
_TEXT	SEGMENT
__Ptr$ = 8						; size = 4
?_Inside@?$vector@UOutdoorLightStats@@V?$allocator@UOutdoorLightStats@@@std@@@std@@IBE_NPBUOutdoorLightStats@@@Z PROC ; std::vector<OutdoorLightStats,std::allocator<OutdoorLightStats> >::_Inside, COMDAT
; _this$ = ecx
; File c:\program files (x86)\microsoft visual studio 10.0\vc\include\vector
; Line 1285
	push	ebp
	mov	ebp, esp
; Line 1286
	mov	eax, DWORD PTR __Ptr$[ebp]
	cmp	eax, DWORD PTR [ecx+4]
	jae	SHORT $LN3@Inside@3
	cmp	DWORD PTR [ecx], eax
	ja	SHORT $LN3@Inside@3
	mov	eax, 1
; Line 1287
	pop	ebp
	ret	4
$LN3@Inside@3:
; Line 1286
	xor	eax, eax
; Line 1287
	pop	ebp
	ret	4
?_Inside@?$vector@UOutdoorLightStats@@V?$allocator@UOutdoorLightStats@@@std@@@std@@IBE_NPBUOutdoorLightStats@@@Z ENDP ; std::vector<OutdoorLightStats,std::allocator<OutdoorLightStats> >::_Inside
_TEXT	ENDS
PUBLIC	?_Orphan_range@?$vector@UOutdoorLightStats@@V?$allocator@UOutdoorLightStats@@@std@@@std@@IBEXPAUOutdoorLightStats@@0@Z ; std::vector<OutdoorLightStats,std::allocator<OutdoorLightStats> >::_Orphan_range
; Function compile flags: /Ogtp
;	COMDAT ?_Orphan_range@?$vector@UOutdoorLightStats@@V?$allocator@UOutdoorLightStats@@@std@@@std@@IBEXPAUOutdoorLightStats@@0@Z
_TEXT	SEGMENT
___formal$ = 8						; size = 4
___formal$ = 12						; size = 4
?_Orphan_range@?$vector@UOutdoorLightStats@@V?$allocator@UOutdoorLightStats@@@std@@@std@@IBEXPAUOutdoorLightStats@@0@Z PROC ; std::vector<OutdoorLightStats,std::allocator<OutdoorLightStats> >::_Orphan_range, COMDAT
; _this$ = ecx
; Line 1454
	ret	8
?_Orphan_range@?$vector@UOutdoorLightStats@@V?$allocator@UOutdoorLightStats@@@std@@@std@@IBEXPAUOutdoorLightStats@@0@Z ENDP ; std::vector<OutdoorLightStats,std::allocator<OutdoorLightStats> >::_Orphan_range
_TEXT	ENDS
PUBLIC	??1?$_Vector_val@UOutdoorLightStats@@V?$allocator@UOutdoorLightStats@@@std@@@std@@QAE@XZ ; std::_Vector_val<OutdoorLightStats,std::allocator<OutdoorLightStats> >::~_Vector_val<OutdoorLightStats,std::allocator<OutdoorLightStats> >
; Function compile flags: /Ogtp
;	COMDAT ??1?$_Vector_val@UOutdoorLightStats@@V?$allocator@UOutdoorLightStats@@@std@@@std@@QAE@XZ
_TEXT	SEGMENT
??1?$_Vector_val@UOutdoorLightStats@@V?$allocator@UOutdoorLightStats@@@std@@@std@@QAE@XZ PROC ; std::_Vector_val<OutdoorLightStats,std::allocator<OutdoorLightStats> >::~_Vector_val<OutdoorLightStats,std::allocator<OutdoorLightStats> >, COMDAT
; _this$ = ecx
; Line 434
	ret	0
??1?$_Vector_val@UOutdoorLightStats@@V?$allocator@UOutdoorLightStats@@@std@@@std@@QAE@XZ ENDP ; std::_Vector_val<OutdoorLightStats,std::allocator<OutdoorLightStats> >::~_Vector_val<OutdoorLightStats,std::allocator<OutdoorLightStats> >
_TEXT	ENDS
PUBLIC	??0?$allocator@UOutdoorLightStats@@@std@@QAE@XZ	; std::allocator<OutdoorLightStats>::allocator<OutdoorLightStats>
; Function compile flags: /Ogtp
;	COMDAT ??0?$allocator@UOutdoorLightStats@@@std@@QAE@XZ
_TEXT	SEGMENT
??0?$allocator@UOutdoorLightStats@@@std@@QAE@XZ PROC	; std::allocator<OutdoorLightStats>::allocator<OutdoorLightStats>, COMDAT
; _this$ = ecx
; File c:\program files (x86)\microsoft visual studio 10.0\vc\include\xmemory
; Line 161
	mov	eax, ecx
; Line 163
	ret	0
??0?$allocator@UOutdoorLightStats@@@std@@QAE@XZ ENDP	; std::allocator<OutdoorLightStats>::allocator<OutdoorLightStats>
_TEXT	ENDS
PUBLIC	?_Myptr@?$basic_string@DU?$char_traits@D@std@@V?$allocator@D@2@@std@@QAEPADXZ ; std::basic_string<char,std::char_traits<char>,std::allocator<char> >::_Myptr
; Function compile flags: /Ogtp
;	COMDAT ?_Myptr@?$basic_string@DU?$char_traits@D@std@@V?$allocator@D@2@@std@@QAEPADXZ
_TEXT	SEGMENT
?_Myptr@?$basic_string@DU?$char_traits@D@std@@V?$allocator@D@2@@std@@QAEPADXZ PROC ; std::basic_string<char,std::char_traits<char>,std::allocator<char> >::_Myptr, COMDAT
; _this$ = ecx
; File c:\program files (x86)\microsoft visual studio 10.0\vc\include\xstring
; Line 2002
	mov	eax, ecx
; Line 2004
	cmp	DWORD PTR [eax+20], 16			; 00000010H
	jb	SHORT $LN4@Myptr@2
	mov	eax, DWORD PTR [eax]
$LN4@Myptr@2:
; Line 2005
	ret	0
?_Myptr@?$basic_string@DU?$char_traits@D@std@@V?$allocator@D@2@@std@@QAEPADXZ ENDP ; std::basic_string<char,std::char_traits<char>,std::allocator<char> >::_Myptr
_TEXT	ENDS
PUBLIC	??_C@_0BI@CFPLBAOH@invalid?5string?5position?$AA@ ; `string'
PUBLIC	?_Xran@?$basic_string@DU?$char_traits@D@std@@V?$allocator@D@2@@std@@QBEXXZ ; std::basic_string<char,std::char_traits<char>,std::allocator<char> >::_Xran
EXTRN	__imp_?_Xout_of_range@std@@YAXPBD@Z:PROC
;	COMDAT ??_C@_0BI@CFPLBAOH@invalid?5string?5position?$AA@
CONST	SEGMENT
??_C@_0BI@CFPLBAOH@invalid?5string?5position?$AA@ DB 'invalid string posi'
	DB	'tion', 00H					; `string'
; Function compile flags: /Ogtp
CONST	ENDS
;	COMDAT ?_Xran@?$basic_string@DU?$char_traits@D@std@@V?$allocator@D@2@@std@@QBEXXZ
_TEXT	SEGMENT
?_Xran@?$basic_string@DU?$char_traits@D@std@@V?$allocator@D@2@@std@@QBEXXZ PROC ; std::basic_string<char,std::char_traits<char>,std::allocator<char> >::_Xran, COMDAT
; _this$ = ecx
; Line 2020
	push	OFFSET ??_C@_0BI@CFPLBAOH@invalid?5string?5position?$AA@
	call	DWORD PTR __imp_?_Xout_of_range@std@@YAXPBD@Z
$LN4@Xran:
$LN3@Xran:
	int	3
?_Xran@?$basic_string@DU?$char_traits@D@std@@V?$allocator@D@2@@std@@QBEXXZ ENDP ; std::basic_string<char,std::char_traits<char>,std::allocator<char> >::_Xran
_TEXT	ENDS
PUBLIC	?deallocate@?$allocator@D@std@@QAEXPADI@Z	; std::allocator<char>::deallocate
; Function compile flags: /Ogtp
;	COMDAT ?deallocate@?$allocator@D@std@@QAEXPADI@Z
_TEXT	SEGMENT
__Ptr$ = 8						; size = 4
___formal$ = 12						; size = 4
?deallocate@?$allocator@D@std@@QAEXPADI@Z PROC		; std::allocator<char>::deallocate, COMDAT
; _this$ = ecx
; File c:\program files (x86)\microsoft visual studio 10.0\vc\include\xmemory
; Line 181
	push	ebp
	mov	ebp, esp
; Line 182
	mov	eax, DWORD PTR __Ptr$[ebp]
	push	eax
	call	??3@YAXPAX@Z				; operator delete
	add	esp, 4
; Line 183
	pop	ebp
	ret	8
?deallocate@?$allocator@D@std@@QAEXPADI@Z ENDP		; std::allocator<char>::deallocate
_TEXT	ENDS
PUBLIC	?capacity@?$vector@USkyColor@@V?$allocator@USkyColor@@@std@@@std@@QBEIXZ ; std::vector<SkyColor,std::allocator<SkyColor> >::capacity
; Function compile flags: /Ogtp
;	COMDAT ?capacity@?$vector@USkyColor@@V?$allocator@USkyColor@@@std@@@std@@QBEIXZ
_TEXT	SEGMENT
?capacity@?$vector@USkyColor@@V?$allocator@USkyColor@@@std@@@std@@QBEIXZ PROC ; std::vector<SkyColor,std::allocator<SkyColor> >::capacity, COMDAT
; _this$ = ecx
; File c:\program files (x86)\microsoft visual studio 10.0\vc\include\vector
; Line 777
	mov	eax, DWORD PTR [ecx+8]
	sub	eax, DWORD PTR [ecx]
	sar	eax, 4
; Line 778
	ret	0
?capacity@?$vector@USkyColor@@V?$allocator@USkyColor@@@std@@@std@@QBEIXZ ENDP ; std::vector<SkyColor,std::allocator<SkyColor> >::capacity
_TEXT	ENDS
PUBLIC	??_C@_0BD@OLBABOEK@vector?$DMT?$DO?5too?5long?$AA@ ; `string'
PUBLIC	?_Xlen@?$vector@USkyColor@@V?$allocator@USkyColor@@@std@@@std@@IBEXXZ ; std::vector<SkyColor,std::allocator<SkyColor> >::_Xlen
EXTRN	__imp_?_Xlength_error@std@@YAXPBD@Z:PROC
;	COMDAT ??_C@_0BD@OLBABOEK@vector?$DMT?$DO?5too?5long?$AA@
CONST	SEGMENT
??_C@_0BD@OLBABOEK@vector?$DMT?$DO?5too?5long?$AA@ DB 'vector<T> too long'
	DB	00H						; `string'
; Function compile flags: /Ogtp
CONST	ENDS
;	COMDAT ?_Xlen@?$vector@USkyColor@@V?$allocator@USkyColor@@@std@@@std@@IBEXXZ
_TEXT	SEGMENT
?_Xlen@?$vector@USkyColor@@V?$allocator@USkyColor@@@std@@@std@@IBEXXZ PROC ; std::vector<SkyColor,std::allocator<SkyColor> >::_Xlen, COMDAT
; _this$ = ecx
; Line 1427
	push	OFFSET ??_C@_0BD@OLBABOEK@vector?$DMT?$DO?5too?5long?$AA@
	call	DWORD PTR __imp_?_Xlength_error@std@@YAXPBD@Z
$LN4@Xlen:
$LN3@Xlen:
	int	3
?_Xlen@?$vector@USkyColor@@V?$allocator@USkyColor@@@std@@@std@@IBEXXZ ENDP ; std::vector<SkyColor,std::allocator<SkyColor> >::_Xlen
_TEXT	ENDS
PUBLIC	??0?$allocator@USkyColor@@@std@@QAE@ABV01@@Z	; std::allocator<SkyColor>::allocator<SkyColor>
; Function compile flags: /Ogtp
;	COMDAT ??0?$allocator@USkyColor@@@std@@QAE@ABV01@@Z
_TEXT	SEGMENT
___formal$ = 8						; size = 4
??0?$allocator@USkyColor@@@std@@QAE@ABV01@@Z PROC	; std::allocator<SkyColor>::allocator<SkyColor>, COMDAT
; _this$ = ecx
; File c:\program files (x86)\microsoft visual studio 10.0\vc\include\xmemory
; Line 165
	mov	eax, ecx
; Line 167
	ret	4
??0?$allocator@USkyColor@@@std@@QAE@ABV01@@Z ENDP	; std::allocator<SkyColor>::allocator<SkyColor>
_TEXT	ENDS
PUBLIC	?deallocate@?$allocator@USkyColor@@@std@@QAEXPAUSkyColor@@I@Z ; std::allocator<SkyColor>::deallocate
; Function compile flags: /Ogtp
;	COMDAT ?deallocate@?$allocator@USkyColor@@@std@@QAEXPAUSkyColor@@I@Z
_TEXT	SEGMENT
__Ptr$ = 8						; size = 4
___formal$ = 12						; size = 4
?deallocate@?$allocator@USkyColor@@@std@@QAEXPAUSkyColor@@I@Z PROC ; std::allocator<SkyColor>::deallocate, COMDAT
; _this$ = ecx
; Line 181
	push	ebp
	mov	ebp, esp
; Line 182
	mov	eax, DWORD PTR __Ptr$[ebp]
	push	eax
	call	??3@YAXPAX@Z				; operator delete
	add	esp, 4
; Line 183
	pop	ebp
	ret	8
?deallocate@?$allocator@USkyColor@@@std@@QAEXPAUSkyColor@@I@Z ENDP ; std::allocator<SkyColor>::deallocate
_TEXT	ENDS
PUBLIC	?capacity@?$vector@VSky@@V?$allocator@VSky@@@std@@@std@@QBEIXZ ; std::vector<Sky,std::allocator<Sky> >::capacity
; Function compile flags: /Ogtp
;	COMDAT ?capacity@?$vector@VSky@@V?$allocator@VSky@@@std@@@std@@QBEIXZ
_TEXT	SEGMENT
?capacity@?$vector@VSky@@V?$allocator@VSky@@@std@@@std@@QBEIXZ PROC ; std::vector<Sky,std::allocator<Sky> >::capacity, COMDAT
; _this$ = ecx
; File c:\program files (x86)\microsoft visual studio 10.0\vc\include\vector
; Line 776
	push	esi
; Line 777
	mov	esi, DWORD PTR [ecx+8]
	sub	esi, DWORD PTR [ecx]
	mov	eax, -1475706711			; a80a80a9H
	imul	esi
	add	edx, esi
	sar	edx, 9
	mov	eax, edx
	shr	eax, 31					; 0000001fH
	add	eax, edx
	pop	esi
; Line 778
	ret	0
?capacity@?$vector@VSky@@V?$allocator@VSky@@@std@@@std@@QBEIXZ ENDP ; std::vector<Sky,std::allocator<Sky> >::capacity
_TEXT	ENDS
PUBLIC	?_Xlen@?$vector@VSky@@V?$allocator@VSky@@@std@@@std@@IBEXXZ ; std::vector<Sky,std::allocator<Sky> >::_Xlen
; Function compile flags: /Ogtp
;	COMDAT ?_Xlen@?$vector@VSky@@V?$allocator@VSky@@@std@@@std@@IBEXXZ
_TEXT	SEGMENT
?_Xlen@?$vector@VSky@@V?$allocator@VSky@@@std@@@std@@IBEXXZ PROC ; std::vector<Sky,std::allocator<Sky> >::_Xlen, COMDAT
; _this$ = ecx
; Line 1427
	push	OFFSET ??_C@_0BD@OLBABOEK@vector?$DMT?$DO?5too?5long?$AA@
	call	DWORD PTR __imp_?_Xlength_error@std@@YAXPBD@Z
$LN4@Xlen@2:
$LN3@Xlen@2:
	int	3
?_Xlen@?$vector@VSky@@V?$allocator@VSky@@@std@@@std@@IBEXXZ ENDP ; std::vector<Sky,std::allocator<Sky> >::_Xlen
_TEXT	ENDS
PUBLIC	??0?$allocator@VSky@@@std@@QAE@ABV01@@Z		; std::allocator<Sky>::allocator<Sky>
; Function compile flags: /Ogtp
;	COMDAT ??0?$allocator@VSky@@@std@@QAE@ABV01@@Z
_TEXT	SEGMENT
___formal$ = 8						; size = 4
??0?$allocator@VSky@@@std@@QAE@ABV01@@Z PROC		; std::allocator<Sky>::allocator<Sky>, COMDAT
; _this$ = ecx
; File c:\program files (x86)\microsoft visual studio 10.0\vc\include\xmemory
; Line 165
	mov	eax, ecx
; Line 167
	ret	4
??0?$allocator@VSky@@@std@@QAE@ABV01@@Z ENDP		; std::allocator<Sky>::allocator<Sky>
_TEXT	ENDS
PUBLIC	?deallocate@?$allocator@VSky@@@std@@QAEXPAVSky@@I@Z ; std::allocator<Sky>::deallocate
; Function compile flags: /Ogtp
;	COMDAT ?deallocate@?$allocator@VSky@@@std@@QAEXPAVSky@@I@Z
_TEXT	SEGMENT
__Ptr$ = 8						; size = 4
___formal$ = 12						; size = 4
?deallocate@?$allocator@VSky@@@std@@QAEXPAVSky@@I@Z PROC ; std::allocator<Sky>::deallocate, COMDAT
; _this$ = ecx
; Line 181
	push	ebp
	mov	ebp, esp
; Line 182
	mov	eax, DWORD PTR __Ptr$[ebp]
	push	eax
	call	??3@YAXPAX@Z				; operator delete
	add	esp, 4
; Line 183
	pop	ebp
	ret	8
?deallocate@?$allocator@VSky@@@std@@QAEXPAVSky@@I@Z ENDP ; std::allocator<Sky>::deallocate
_TEXT	ENDS
PUBLIC	?capacity@?$vector@UOutdoorLightStats@@V?$allocator@UOutdoorLightStats@@@std@@@std@@QBEIXZ ; std::vector<OutdoorLightStats,std::allocator<OutdoorLightStats> >::capacity
; Function compile flags: /Ogtp
;	COMDAT ?capacity@?$vector@UOutdoorLightStats@@V?$allocator@UOutdoorLightStats@@@std@@@std@@QBEIXZ
_TEXT	SEGMENT
?capacity@?$vector@UOutdoorLightStats@@V?$allocator@UOutdoorLightStats@@@std@@@std@@QBEIXZ PROC ; std::vector<OutdoorLightStats,std::allocator<OutdoorLightStats> >::capacity, COMDAT
; _this$ = ecx
; File c:\program files (x86)\microsoft visual studio 10.0\vc\include\vector
; Line 777
	mov	edx, DWORD PTR [ecx+8]
	sub	edx, DWORD PTR [ecx]
	mov	eax, 715827883				; 2aaaaaabH
	imul	edx
	sar	edx, 4
	mov	eax, edx
	shr	eax, 31					; 0000001fH
	add	eax, edx
; Line 778
	ret	0
?capacity@?$vector@UOutdoorLightStats@@V?$allocator@UOutdoorLightStats@@@std@@@std@@QBEIXZ ENDP ; std::vector<OutdoorLightStats,std::allocator<OutdoorLightStats> >::capacity
_TEXT	ENDS
PUBLIC	?size@?$vector@UOutdoorLightStats@@V?$allocator@UOutdoorLightStats@@@std@@@std@@QBEIXZ ; std::vector<OutdoorLightStats,std::allocator<OutdoorLightStats> >::size
; Function compile flags: /Ogtp
;	COMDAT ?size@?$vector@UOutdoorLightStats@@V?$allocator@UOutdoorLightStats@@@std@@@std@@QBEIXZ
_TEXT	SEGMENT
?size@?$vector@UOutdoorLightStats@@V?$allocator@UOutdoorLightStats@@@std@@@std@@QBEIXZ PROC ; std::vector<OutdoorLightStats,std::allocator<OutdoorLightStats> >::size, COMDAT
; _this$ = ecx
; Line 879
	mov	edx, DWORD PTR [ecx+4]
	sub	edx, DWORD PTR [ecx]
	mov	eax, 715827883				; 2aaaaaabH
	imul	edx
	sar	edx, 4
	mov	eax, edx
	shr	eax, 31					; 0000001fH
	add	eax, edx
; Line 880
	ret	0
?size@?$vector@UOutdoorLightStats@@V?$allocator@UOutdoorLightStats@@@std@@@std@@QBEIXZ ENDP ; std::vector<OutdoorLightStats,std::allocator<OutdoorLightStats> >::size
_TEXT	ENDS
PUBLIC	?_Xlen@?$vector@UOutdoorLightStats@@V?$allocator@UOutdoorLightStats@@@std@@@std@@IBEXXZ ; std::vector<OutdoorLightStats,std::allocator<OutdoorLightStats> >::_Xlen
; Function compile flags: /Ogtp
;	COMDAT ?_Xlen@?$vector@UOutdoorLightStats@@V?$allocator@UOutdoorLightStats@@@std@@@std@@IBEXXZ
_TEXT	SEGMENT
?_Xlen@?$vector@UOutdoorLightStats@@V?$allocator@UOutdoorLightStats@@@std@@@std@@IBEXXZ PROC ; std::vector<OutdoorLightStats,std::allocator<OutdoorLightStats> >::_Xlen, COMDAT
; _this$ = ecx
; Line 1427
	push	OFFSET ??_C@_0BD@OLBABOEK@vector?$DMT?$DO?5too?5long?$AA@
	call	DWORD PTR __imp_?_Xlength_error@std@@YAXPBD@Z
$LN4@Xlen@3:
$LN3@Xlen@3:
	int	3
?_Xlen@?$vector@UOutdoorLightStats@@V?$allocator@UOutdoorLightStats@@@std@@@std@@IBEXXZ ENDP ; std::vector<OutdoorLightStats,std::allocator<OutdoorLightStats> >::_Xlen
_TEXT	ENDS
PUBLIC	??0?$allocator@UOutdoorLightStats@@@std@@QAE@ABV01@@Z ; std::allocator<OutdoorLightStats>::allocator<OutdoorLightStats>
; Function compile flags: /Ogtp
;	COMDAT ??0?$allocator@UOutdoorLightStats@@@std@@QAE@ABV01@@Z
_TEXT	SEGMENT
___formal$ = 8						; size = 4
??0?$allocator@UOutdoorLightStats@@@std@@QAE@ABV01@@Z PROC ; std::allocator<OutdoorLightStats>::allocator<OutdoorLightStats>, COMDAT
; _this$ = ecx
; File c:\program files (x86)\microsoft visual studio 10.0\vc\include\xmemory
; Line 165
	mov	eax, ecx
; Line 167
	ret	4
??0?$allocator@UOutdoorLightStats@@@std@@QAE@ABV01@@Z ENDP ; std::allocator<OutdoorLightStats>::allocator<OutdoorLightStats>
_TEXT	ENDS
PUBLIC	?deallocate@?$allocator@UOutdoorLightStats@@@std@@QAEXPAUOutdoorLightStats@@I@Z ; std::allocator<OutdoorLightStats>::deallocate
; Function compile flags: /Ogtp
;	COMDAT ?deallocate@?$allocator@UOutdoorLightStats@@@std@@QAEXPAUOutdoorLightStats@@I@Z
_TEXT	SEGMENT
__Ptr$ = 8						; size = 4
___formal$ = 12						; size = 4
?deallocate@?$allocator@UOutdoorLightStats@@@std@@QAEXPAUOutdoorLightStats@@I@Z PROC ; std::allocator<OutdoorLightStats>::deallocate, COMDAT
; _this$ = ecx
; Line 181
	push	ebp
	mov	ebp, esp
; Line 182
	mov	eax, DWORD PTR __Ptr$[ebp]
	push	eax
	call	??3@YAXPAX@Z				; operator delete
	add	esp, 4
; Line 183
	pop	ebp
	ret	8
?deallocate@?$allocator@UOutdoorLightStats@@@std@@QAEXPAUOutdoorLightStats@@I@Z ENDP ; std::allocator<OutdoorLightStats>::deallocate
_TEXT	ENDS
PUBLIC	??0?$_Vector_const_iterator@V?$_Vector_val@VSky@@V?$allocator@VSky@@@std@@@std@@@std@@QAE@PAVSky@@PBU_Container_base0@1@@Z ; std::_Vector_const_iterator<std::_Vector_val<Sky,std::allocator<Sky> > >::_Vector_const_iterator<std::_Vector_val<Sky,std::allocator<Sky> > >
; Function compile flags: /Ogtp
;	COMDAT ??0?$_Vector_const_iterator@V?$_Vector_val@VSky@@V?$allocator@VSky@@@std@@@std@@@std@@QAE@PAVSky@@PBU_Container_base0@1@@Z
_TEXT	SEGMENT
__Parg$ = 8						; size = 4
__Pvector$ = 12						; size = 4
??0?$_Vector_const_iterator@V?$_Vector_val@VSky@@V?$allocator@VSky@@@std@@@std@@@std@@QAE@PAVSky@@PBU_Container_base0@1@@Z PROC ; std::_Vector_const_iterator<std::_Vector_val<Sky,std::allocator<Sky> > >::_Vector_const_iterator<std::_Vector_val<Sky,std::allocator<Sky> > >, COMDAT
; _this$ = ecx
; File c:\program files (x86)\microsoft visual studio 10.0\vc\include\vector
; Line 45
	push	ebp
	mov	ebp, esp
	mov	eax, ecx
	mov	ecx, DWORD PTR __Parg$[ebp]
	mov	DWORD PTR [eax], ecx
; Line 47
	pop	ebp
	ret	8
??0?$_Vector_const_iterator@V?$_Vector_val@VSky@@V?$allocator@VSky@@@std@@@std@@@std@@QAE@PAVSky@@PBU_Container_base0@1@@Z ENDP ; std::_Vector_const_iterator<std::_Vector_val<Sky,std::allocator<Sky> > >::_Vector_const_iterator<std::_Vector_val<Sky,std::allocator<Sky> > >
_TEXT	ENDS
PUBLIC	?_Inside@?$basic_string@DU?$char_traits@D@std@@V?$allocator@D@2@@std@@QAE_NPBD@Z ; std::basic_string<char,std::char_traits<char>,std::allocator<char> >::_Inside
; Function compile flags: /Ogtp
;	COMDAT ?_Inside@?$basic_string@DU?$char_traits@D@std@@V?$allocator@D@2@@std@@QAE_NPBD@Z
_TEXT	SEGMENT
__Ptr$ = 8						; size = 4
?_Inside@?$basic_string@DU?$char_traits@D@std@@V?$allocator@D@2@@std@@QAE_NPBD@Z PROC ; std::basic_string<char,std::char_traits<char>,std::allocator<char> >::_Inside, COMDAT
; _this$ = ecx
; File c:\program files (x86)\microsoft visual studio 10.0\vc\include\xstring
; Line 1972
	push	ebp
	mov	ebp, esp
	push	esi
; Line 1973
	mov	esi, DWORD PTR __Ptr$[ebp]
	test	esi, esi
	je	SHORT $LN2@Inside@4
	mov	edx, DWORD PTR [ecx+20]
	cmp	edx, 16					; 00000010H
	jb	SHORT $LN8@Inside@4
	mov	eax, DWORD PTR [ecx]
	jmp	SHORT $LN9@Inside@4
$LN8@Inside@4:
	mov	eax, ecx
$LN9@Inside@4:
	cmp	esi, eax
	jb	SHORT $LN2@Inside@4
	cmp	edx, 16					; 00000010H
	jb	SHORT $LN12@Inside@4
	mov	eax, DWORD PTR [ecx]
	jmp	SHORT $LN13@Inside@4
$LN12@Inside@4:
	mov	eax, ecx
$LN13@Inside@4:
	mov	ecx, DWORD PTR [ecx+16]
	add	ecx, eax
	cmp	ecx, esi
	jbe	SHORT $LN2@Inside@4
; Line 1976
	mov	al, 1
	pop	esi
; Line 1977
	pop	ebp
	ret	4
$LN2@Inside@4:
; Line 1974
	xor	al, al
	pop	esi
; Line 1977
	pop	ebp
	ret	4
?_Inside@?$basic_string@DU?$char_traits@D@std@@V?$allocator@D@2@@std@@QAE_NPBD@Z ENDP ; std::basic_string<char,std::char_traits<char>,std::allocator<char> >::_Inside
_TEXT	ENDS
PUBLIC	??_C@_0BA@JFNIOLAK@string?5too?5long?$AA@	; `string'
PUBLIC	?_Xlen@?$basic_string@DU?$char_traits@D@std@@V?$allocator@D@2@@std@@QBEXXZ ; std::basic_string<char,std::char_traits<char>,std::allocator<char> >::_Xlen
;	COMDAT ??_C@_0BA@JFNIOLAK@string?5too?5long?$AA@
CONST	SEGMENT
??_C@_0BA@JFNIOLAK@string?5too?5long?$AA@ DB 'string too long', 00H ; `string'
; Function compile flags: /Ogtp
CONST	ENDS
;	COMDAT ?_Xlen@?$basic_string@DU?$char_traits@D@std@@V?$allocator@D@2@@std@@QBEXXZ
_TEXT	SEGMENT
?_Xlen@?$basic_string@DU?$char_traits@D@std@@V?$allocator@D@2@@std@@QBEXXZ PROC ; std::basic_string<char,std::char_traits<char>,std::allocator<char> >::_Xlen, COMDAT
; _this$ = ecx
; Line 2015
	push	OFFSET ??_C@_0BA@JFNIOLAK@string?5too?5long?$AA@
	call	DWORD PTR __imp_?_Xlength_error@std@@YAXPBD@Z
$LN4@Xlen@4:
$LN3@Xlen@4:
	int	3
?_Xlen@?$basic_string@DU?$char_traits@D@std@@V?$allocator@D@2@@std@@QBEXXZ ENDP ; std::basic_string<char,std::char_traits<char>,std::allocator<char> >::_Xlen
_TEXT	ENDS
PUBLIC	?max_size@?$allocator@USkyColor@@@std@@QBEIXZ	; std::allocator<SkyColor>::max_size
; Function compile flags: /Ogtp
;	COMDAT ?max_size@?$allocator@USkyColor@@@std@@QBEIXZ
_TEXT	SEGMENT
?max_size@?$allocator@USkyColor@@@std@@QBEIXZ PROC	; std::allocator<SkyColor>::max_size, COMDAT
; _this$ = ecx
; File c:\program files (x86)\microsoft visual studio 10.0\vc\include\xmemory
; Line 219
	mov	eax, 268435455				; 0fffffffH
; Line 220
	ret	0
?max_size@?$allocator@USkyColor@@@std@@QBEIXZ ENDP	; std::allocator<SkyColor>::max_size
_TEXT	ENDS
PUBLIC	?max_size@?$allocator@VSky@@@std@@QBEIXZ	; std::allocator<Sky>::max_size
; Function compile flags: /Ogtp
;	COMDAT ?max_size@?$allocator@VSky@@@std@@QBEIXZ
_TEXT	SEGMENT
?max_size@?$allocator@VSky@@@std@@QBEIXZ PROC		; std::allocator<Sky>::max_size, COMDAT
; _this$ = ecx
; Line 219
	mov	eax, 5506368				; 00540540H
; Line 220
	ret	0
?max_size@?$allocator@VSky@@@std@@QBEIXZ ENDP		; std::allocator<Sky>::max_size
_TEXT	ENDS
PUBLIC	?max_size@?$allocator@UOutdoorLightStats@@@std@@QBEIXZ ; std::allocator<OutdoorLightStats>::max_size
; Function compile flags: /Ogtp
;	COMDAT ?max_size@?$allocator@UOutdoorLightStats@@@std@@QBEIXZ
_TEXT	SEGMENT
?max_size@?$allocator@UOutdoorLightStats@@@std@@QBEIXZ PROC ; std::allocator<OutdoorLightStats>::max_size, COMDAT
; _this$ = ecx
; Line 219
	mov	eax, 44739242				; 02aaaaaaH
; Line 220
	ret	0
?max_size@?$allocator@UOutdoorLightStats@@@std@@QBEIXZ ENDP ; std::allocator<OutdoorLightStats>::max_size
_TEXT	ENDS
PUBLIC	?max_size@?$allocator@D@std@@QBEIXZ		; std::allocator<char>::max_size
; Function compile flags: /Ogtp
;	COMDAT ?max_size@?$allocator@D@std@@QBEIXZ
_TEXT	SEGMENT
?max_size@?$allocator@D@std@@QBEIXZ PROC		; std::allocator<char>::max_size, COMDAT
; _this$ = ecx
; Line 219
	or	eax, -1
; Line 220
	ret	0
?max_size@?$allocator@D@std@@QBEIXZ ENDP		; std::allocator<char>::max_size
_TEXT	ENDS
PUBLIC	??$strcpy_s@$0CA@@@YAHAAY0CA@DPBD@Z		; strcpy_s<32>
EXTRN	__imp__strcpy_s:PROC
; Function compile flags: /Ogtp
;	COMDAT ??$strcpy_s@$0CA@@@YAHAAY0CA@DPBD@Z
_TEXT	SEGMENT
__Dest$ = 8						; size = 4
__Source$ = 12						; size = 4
??$strcpy_s@$0CA@@@YAHAAY0CA@DPBD@Z PROC		; strcpy_s<32>, COMDAT
; File c:\program files (x86)\microsoft visual studio 10.0\vc\include\string.h
; Line 104
	push	ebp
	mov	ebp, esp
	mov	eax, DWORD PTR __Source$[ebp]
	mov	ecx, DWORD PTR __Dest$[ebp]
	push	eax
	push	32					; 00000020H
	push	ecx
	call	DWORD PTR __imp__strcpy_s
	add	esp, 12					; 0000000cH
	pop	ebp
	ret	0
??$strcpy_s@$0CA@@@YAHAAY0CA@DPBD@Z ENDP		; strcpy_s<32>
_TEXT	ENDS
PUBLIC	??$sprintf_s@$0BAA@@@YAHAAY0BAA@DPBDZZ		; sprintf_s<256>
EXTRN	__imp__vsprintf_s:PROC
; Function compile flags: /Ogtp
;	COMDAT ??$sprintf_s@$0BAA@@@YAHAAY0BAA@DPBDZZ
_TEXT	SEGMENT
__Dest$ = 8						; size = 4
__Format$ = 12						; size = 4
??$sprintf_s@$0BAA@@@YAHAAY0BAA@DPBDZZ PROC		; sprintf_s<256>, COMDAT
; File c:\program files (x86)\microsoft visual studio 10.0\vc\include\stdio.h
; Line 323
	push	ebp
	mov	ebp, esp
	mov	ecx, DWORD PTR __Format$[ebp]
	mov	edx, DWORD PTR __Dest$[ebp]
	lea	eax, DWORD PTR __Format$[ebp+4]
	push	eax
	push	ecx
	push	256					; 00000100H
	push	edx
	call	DWORD PTR __imp__vsprintf_s
	add	esp, 16					; 00000010H
	pop	ebp
	ret	0
??$sprintf_s@$0BAA@@@YAHAAY0BAA@DPBDZZ ENDP		; sprintf_s<256>
_TEXT	ENDS
PUBLIC	??$addressof@$$CBUSkyColor@@@std@@YAPBUSkyColor@@ABU1@@Z ; std::addressof<SkyColor const >
; Function compile flags: /Ogtp
;	COMDAT ??$addressof@$$CBUSkyColor@@@std@@YAPBUSkyColor@@ABU1@@Z
_TEXT	SEGMENT
__Val$ = 8						; size = 4
??$addressof@$$CBUSkyColor@@@std@@YAPBUSkyColor@@ABU1@@Z PROC ; std::addressof<SkyColor const >, COMDAT
; File c:\program files (x86)\microsoft visual studio 10.0\vc\include\xmemory
; Line 110
	push	ebp
	mov	ebp, esp
; Line 111
	mov	eax, DWORD PTR __Val$[ebp]
; Line 112
	pop	ebp
	ret	0
??$addressof@$$CBUSkyColor@@@std@@YAPBUSkyColor@@ABU1@@Z ENDP ; std::addressof<SkyColor const >
_TEXT	ENDS
PUBLIC	??$addressof@$$CBVSky@@@std@@YAPBVSky@@ABV1@@Z	; std::addressof<Sky const >
; Function compile flags: /Ogtp
;	COMDAT ??$addressof@$$CBVSky@@@std@@YAPBVSky@@ABV1@@Z
_TEXT	SEGMENT
__Val$ = 8						; size = 4
??$addressof@$$CBVSky@@@std@@YAPBVSky@@ABV1@@Z PROC	; std::addressof<Sky const >, COMDAT
; Line 110
	push	ebp
	mov	ebp, esp
; Line 111
	mov	eax, DWORD PTR __Val$[ebp]
; Line 112
	pop	ebp
	ret	0
??$addressof@$$CBVSky@@@std@@YAPBVSky@@ABV1@@Z ENDP	; std::addressof<Sky const >
_TEXT	ENDS
PUBLIC	??$addressof@$$CBUOutdoorLightStats@@@std@@YAPBUOutdoorLightStats@@ABU1@@Z ; std::addressof<OutdoorLightStats const >
; Function compile flags: /Ogtp
;	COMDAT ??$addressof@$$CBUOutdoorLightStats@@@std@@YAPBUOutdoorLightStats@@ABU1@@Z
_TEXT	SEGMENT
__Val$ = 8						; size = 4
??$addressof@$$CBUOutdoorLightStats@@@std@@YAPBUOutdoorLightStats@@ABU1@@Z PROC ; std::addressof<OutdoorLightStats const >, COMDAT
; Line 110
	push	ebp
	mov	ebp, esp
; Line 111
	mov	eax, DWORD PTR __Val$[ebp]
; Line 112
	pop	ebp
	ret	0
??$addressof@$$CBUOutdoorLightStats@@@std@@YAPBUOutdoorLightStats@@ABU1@@Z ENDP ; std::addressof<OutdoorLightStats const >
_TEXT	ENDS
PUBLIC	__TI2?AVbad_alloc@std@@
PUBLIC	??$_Allocate@USkyColor@@@std@@YAPAUSkyColor@@IPAU1@@Z ; std::_Allocate<SkyColor>
PUBLIC	__CTA2?AVbad_alloc@std@@
PUBLIC	__CT??_R0?AVbad_alloc@std@@@8??0bad_alloc@std@@QAE@ABV01@@Z12
PUBLIC	??0bad_alloc@std@@QAE@ABV01@@Z			; std::bad_alloc::bad_alloc
PUBLIC	__CT??_R0?AVexception@std@@@8??0exception@std@@QAE@ABV01@@Z12
EXTRN	??2@YAPAXI@Z:PROC				; operator new
EXTRN	__CxxThrowException@8:PROC
EXTRN	??0exception@std@@QAE@ABV01@@Z:PROC		; std::exception::exception
;	COMDAT __CT??_R0?AVexception@std@@@8??0exception@std@@QAE@ABV01@@Z12
; File c:\program files (x86)\microsoft visual studio 10.0\vc\include\exception
xdata$x	SEGMENT
__CT??_R0?AVexception@std@@@8??0exception@std@@QAE@ABV01@@Z12 DD 00H
	DD	FLAT:??_R0?AVexception@std@@@8
	DD	00H
	DD	0ffffffffH
	ORG $+4
	DD	0cH
	DD	FLAT:??0exception@std@@QAE@ABV01@@Z
xdata$x	ENDS
;	COMDAT __CT??_R0?AVbad_alloc@std@@@8??0bad_alloc@std@@QAE@ABV01@@Z12
xdata$x	SEGMENT
__CT??_R0?AVbad_alloc@std@@@8??0bad_alloc@std@@QAE@ABV01@@Z12 DD 00H
	DD	FLAT:??_R0?AVbad_alloc@std@@@8
	DD	00H
	DD	0ffffffffH
	ORG $+4
	DD	0cH
	DD	FLAT:??0bad_alloc@std@@QAE@ABV01@@Z
xdata$x	ENDS
;	COMDAT __CTA2?AVbad_alloc@std@@
xdata$x	SEGMENT
__CTA2?AVbad_alloc@std@@ DD 02H
	DD	FLAT:__CT??_R0?AVbad_alloc@std@@@8??0bad_alloc@std@@QAE@ABV01@@Z12
	DD	FLAT:__CT??_R0?AVexception@std@@@8??0exception@std@@QAE@ABV01@@Z12
xdata$x	ENDS
;	COMDAT __TI2?AVbad_alloc@std@@
xdata$x	SEGMENT
__TI2?AVbad_alloc@std@@ DD 00H
	DD	FLAT:??1bad_alloc@std@@UAE@XZ
	DD	00H
	DD	FLAT:__CTA2?AVbad_alloc@std@@
; Function compile flags: /Ogtp
xdata$x	ENDS
;	COMDAT ??$_Allocate@USkyColor@@@std@@YAPAUSkyColor@@IPAU1@@Z
_TEXT	SEGMENT
$T98348 = -12						; size = 12
$T98353 = 8						; size = 4
__Count$ = 8						; size = 4
___formal$ = 12						; size = 4
??$_Allocate@USkyColor@@@std@@YAPAUSkyColor@@IPAU1@@Z PROC ; std::_Allocate<SkyColor>, COMDAT
; File c:\program files (x86)\microsoft visual studio 10.0\vc\include\xmemory
; Line 30
	push	ebp
	mov	ebp, esp
; Line 33
	mov	ecx, DWORD PTR __Count$[ebp]
	sub	esp, 12					; 0000000cH
	xor	eax, eax
	test	ecx, ecx
; Line 35
	je	SHORT $LN5@Allocate
; Line 36
	cmp	ecx, 268435455				; 0fffffffH
	ja	SHORT $LN1@Allocate
	shl	ecx, 4
	push	ecx
	call	??2@YAPAXI@Z				; operator new
	add	esp, 4
	test	eax, eax
; Line 39
	jne	SHORT $LN5@Allocate
$LN1@Allocate:
; Line 37
	lea	eax, DWORD PTR $T98353[ebp]
	push	eax
	lea	ecx, DWORD PTR $T98348[ebp]
	mov	DWORD PTR $T98353[ebp], 0
	call	DWORD PTR __imp_??0exception@std@@QAE@ABQBD@Z
	push	OFFSET __TI2?AVbad_alloc@std@@
	lea	ecx, DWORD PTR $T98348[ebp]
	push	ecx
	mov	DWORD PTR $T98348[ebp], OFFSET ??_7bad_alloc@std@@6B@
	call	__CxxThrowException@8
$LN10@Allocate:
$LN5@Allocate:
; Line 40
	mov	esp, ebp
	pop	ebp
	ret	0
$LN9@Allocate:
??$_Allocate@USkyColor@@@std@@YAPAUSkyColor@@IPAU1@@Z ENDP ; std::_Allocate<SkyColor>
_TEXT	ENDS
PUBLIC	??$_Allocate@VSky@@@std@@YAPAVSky@@IPAV1@@Z	; std::_Allocate<Sky>
; Function compile flags: /Ogtp
;	COMDAT ??$_Allocate@VSky@@@std@@YAPAVSky@@IPAV1@@Z
_TEXT	SEGMENT
$T98358 = -12						; size = 12
$T98362 = 8						; size = 4
__Count$ = 8						; size = 4
___formal$ = 12						; size = 4
??$_Allocate@VSky@@@std@@YAPAVSky@@IPAV1@@Z PROC	; std::_Allocate<Sky>, COMDAT
; Line 30
	push	ebp
	mov	ebp, esp
; Line 33
	mov	ecx, DWORD PTR __Count$[ebp]
	sub	esp, 12					; 0000000cH
	xor	eax, eax
	test	ecx, ecx
; Line 35
	je	SHORT $LN5@Allocate@2
; Line 36
	cmp	ecx, 5506368				; 00540540H
	ja	SHORT $LN1@Allocate@2
	imul	ecx, 780				; 0000030cH
	push	ecx
	call	??2@YAPAXI@Z				; operator new
	add	esp, 4
	test	eax, eax
; Line 39
	jne	SHORT $LN5@Allocate@2
$LN1@Allocate@2:
; Line 37
	lea	eax, DWORD PTR $T98362[ebp]
	push	eax
	lea	ecx, DWORD PTR $T98358[ebp]
	mov	DWORD PTR $T98362[ebp], 0
	call	DWORD PTR __imp_??0exception@std@@QAE@ABQBD@Z
	push	OFFSET __TI2?AVbad_alloc@std@@
	lea	ecx, DWORD PTR $T98358[ebp]
	push	ecx
	mov	DWORD PTR $T98358[ebp], OFFSET ??_7bad_alloc@std@@6B@
	call	__CxxThrowException@8
$LN10@Allocate@2:
$LN5@Allocate@2:
; Line 40
	mov	esp, ebp
	pop	ebp
	ret	0
$LN9@Allocate@2:
??$_Allocate@VSky@@@std@@YAPAVSky@@IPAV1@@Z ENDP	; std::_Allocate<Sky>
_TEXT	ENDS
PUBLIC	??$_Allocate@UOutdoorLightStats@@@std@@YAPAUOutdoorLightStats@@IPAU1@@Z ; std::_Allocate<OutdoorLightStats>
; Function compile flags: /Ogtp
;	COMDAT ??$_Allocate@UOutdoorLightStats@@@std@@YAPAUOutdoorLightStats@@IPAU1@@Z
_TEXT	SEGMENT
$T98367 = -12						; size = 12
$T98371 = 8						; size = 4
__Count$ = 8						; size = 4
___formal$ = 12						; size = 4
??$_Allocate@UOutdoorLightStats@@@std@@YAPAUOutdoorLightStats@@IPAU1@@Z PROC ; std::_Allocate<OutdoorLightStats>, COMDAT
; Line 30
	push	ebp
	mov	ebp, esp
; Line 33
	mov	ecx, DWORD PTR __Count$[ebp]
	sub	esp, 12					; 0000000cH
	xor	eax, eax
	test	ecx, ecx
; Line 35
	je	SHORT $LN5@Allocate@3
; Line 36
	cmp	ecx, 44739242				; 02aaaaaaH
	ja	SHORT $LN1@Allocate@3
	lea	eax, DWORD PTR [ecx+ecx*2]
	shl	eax, 5
	push	eax
	call	??2@YAPAXI@Z				; operator new
	add	esp, 4
	test	eax, eax
; Line 39
	jne	SHORT $LN5@Allocate@3
$LN1@Allocate@3:
; Line 37
	lea	ecx, DWORD PTR $T98371[ebp]
	push	ecx
	lea	ecx, DWORD PTR $T98367[ebp]
	mov	DWORD PTR $T98371[ebp], 0
	call	DWORD PTR __imp_??0exception@std@@QAE@ABQBD@Z
	push	OFFSET __TI2?AVbad_alloc@std@@
	lea	edx, DWORD PTR $T98367[ebp]
	push	edx
	mov	DWORD PTR $T98367[ebp], OFFSET ??_7bad_alloc@std@@6B@
	call	__CxxThrowException@8
$LN10@Allocate@3:
$LN5@Allocate@3:
; Line 40
	mov	esp, ebp
	pop	ebp
	ret	0
$LN9@Allocate@3:
??$_Allocate@UOutdoorLightStats@@@std@@YAPAUOutdoorLightStats@@IPAU1@@Z ENDP ; std::_Allocate<OutdoorLightStats>
_TEXT	ENDS
PUBLIC	??$_Allocate@D@std@@YAPADIPAD@Z			; std::_Allocate<char>
; Function compile flags: /Ogtp
;	COMDAT ??$_Allocate@D@std@@YAPADIPAD@Z
_TEXT	SEGMENT
$T98376 = -12						; size = 12
$T98380 = 8						; size = 4
__Count$ = 8						; size = 4
___formal$ = 12						; size = 4
??$_Allocate@D@std@@YAPADIPAD@Z PROC			; std::_Allocate<char>, COMDAT
; Line 30
	push	ebp
	mov	ebp, esp
; Line 33
	mov	ecx, DWORD PTR __Count$[ebp]
	sub	esp, 12					; 0000000cH
	xor	eax, eax
	test	ecx, ecx
; Line 35
	je	SHORT $LN5@Allocate@4
; Line 36
	cmp	ecx, -1
	ja	SHORT $LN1@Allocate@4
	push	ecx
	call	??2@YAPAXI@Z				; operator new
	add	esp, 4
	test	eax, eax
; Line 39
	jne	SHORT $LN5@Allocate@4
$LN1@Allocate@4:
; Line 37
	lea	eax, DWORD PTR $T98380[ebp]
	push	eax
	lea	ecx, DWORD PTR $T98376[ebp]
	mov	DWORD PTR $T98380[ebp], 0
	call	DWORD PTR __imp_??0exception@std@@QAE@ABQBD@Z
	push	OFFSET __TI2?AVbad_alloc@std@@
	lea	ecx, DWORD PTR $T98376[ebp]
	push	ecx
	mov	DWORD PTR $T98376[ebp], OFFSET ??_7bad_alloc@std@@6B@
	call	__CxxThrowException@8
$LN10@Allocate@4:
$LN5@Allocate@4:
; Line 40
	mov	esp, ebp
	pop	ebp
	ret	0
$LN9@Allocate@4:
??$_Allocate@D@std@@YAPADIPAD@Z ENDP			; std::_Allocate<char>
_TEXT	ENDS
EXTRN	__imp_??0exception@std@@QAE@ABV01@@Z:PROC
; Function compile flags: /Ogtp
;	COMDAT ??0bad_alloc@std@@QAE@ABV01@@Z
_TEXT	SEGMENT
___that$ = 8						; size = 4
??0bad_alloc@std@@QAE@ABV01@@Z PROC			; std::bad_alloc::bad_alloc, COMDAT
; _this$ = ecx
	push	ebp
	mov	ebp, esp
	mov	eax, DWORD PTR ___that$[ebp]
	push	esi
	push	eax
	mov	esi, ecx
	call	DWORD PTR __imp_??0exception@std@@QAE@ABV01@@Z
	mov	DWORD PTR [esi], OFFSET ??_7bad_alloc@std@@6B@
	mov	eax, esi
	pop	esi
	pop	ebp
	ret	4
??0bad_alloc@std@@QAE@ABV01@@Z ENDP			; std::bad_alloc::bad_alloc
_TEXT	ENDS
PUBLIC	?_Compat@?$_Vector_const_iterator@V?$_Vector_val@VSky@@V?$allocator@VSky@@@std@@@std@@@std@@QBEXABV12@@Z ; std::_Vector_const_iterator<std::_Vector_val<Sky,std::allocator<Sky> > >::_Compat
; Function compile flags: /Ogtp
;	COMDAT ?_Compat@?$_Vector_const_iterator@V?$_Vector_val@VSky@@V?$allocator@VSky@@@std@@@std@@@std@@QBEXABV12@@Z
_TEXT	SEGMENT
___formal$ = 8						; size = 4
?_Compat@?$_Vector_const_iterator@V?$_Vector_val@VSky@@V?$allocator@VSky@@@std@@@std@@@std@@QBEXABV12@@Z PROC ; std::_Vector_const_iterator<std::_Vector_val<Sky,std::allocator<Sky> > >::_Compat, COMDAT
; _this$ = ecx
; File c:\program files (x86)\microsoft visual studio 10.0\vc\include\vector
; Line 253
	ret	4
?_Compat@?$_Vector_const_iterator@V?$_Vector_val@VSky@@V?$allocator@VSky@@@std@@@std@@@std@@QBEXABV12@@Z ENDP ; std::_Vector_const_iterator<std::_Vector_val<Sky,std::allocator<Sky> > >::_Compat
_TEXT	ENDS
PUBLIC	??$forward@AAUSkyColor@@@std@@YAAAUSkyColor@@AAU1@@Z ; std::forward<SkyColor &>
; Function compile flags: /Ogtp
;	COMDAT ??$forward@AAUSkyColor@@@std@@YAAAUSkyColor@@AAU1@@Z
_TEXT	SEGMENT
__Arg$ = 8						; size = 4
??$forward@AAUSkyColor@@@std@@YAAAUSkyColor@@AAU1@@Z PROC ; std::forward<SkyColor &>, COMDAT
; File c:\program files (x86)\microsoft visual studio 10.0\vc\include\utility
; Line 78
	push	ebp
	mov	ebp, esp
; Line 79
	mov	eax, DWORD PTR __Arg$[ebp]
; Line 80
	pop	ebp
	ret	0
??$forward@AAUSkyColor@@@std@@YAAAUSkyColor@@AAU1@@Z ENDP ; std::forward<SkyColor &>
_TEXT	ENDS
PUBLIC	??$forward@ABUSkyColor@@@std@@YAABUSkyColor@@ABU1@@Z ; std::forward<SkyColor const &>
; Function compile flags: /Ogtp
;	COMDAT ??$forward@ABUSkyColor@@@std@@YAABUSkyColor@@ABU1@@Z
_TEXT	SEGMENT
__Arg$ = 8						; size = 4
??$forward@ABUSkyColor@@@std@@YAABUSkyColor@@ABU1@@Z PROC ; std::forward<SkyColor const &>, COMDAT
; Line 78
	push	ebp
	mov	ebp, esp
; Line 79
	mov	eax, DWORD PTR __Arg$[ebp]
; Line 80
	pop	ebp
	ret	0
??$forward@ABUSkyColor@@@std@@YAABUSkyColor@@ABU1@@Z ENDP ; std::forward<SkyColor const &>
_TEXT	ENDS
PUBLIC	??$forward@AAVSky@@@std@@YAAAVSky@@AAV1@@Z	; std::forward<Sky &>
; Function compile flags: /Ogtp
;	COMDAT ??$forward@AAVSky@@@std@@YAAAVSky@@AAV1@@Z
_TEXT	SEGMENT
__Arg$ = 8						; size = 4
??$forward@AAVSky@@@std@@YAAAVSky@@AAV1@@Z PROC		; std::forward<Sky &>, COMDAT
; Line 78
	push	ebp
	mov	ebp, esp
; Line 79
	mov	eax, DWORD PTR __Arg$[ebp]
; Line 80
	pop	ebp
	ret	0
??$forward@AAVSky@@@std@@YAAAVSky@@AAV1@@Z ENDP		; std::forward<Sky &>
_TEXT	ENDS
PUBLIC	??$forward@ABVSky@@@std@@YAABVSky@@ABV1@@Z	; std::forward<Sky const &>
; Function compile flags: /Ogtp
;	COMDAT ??$forward@ABVSky@@@std@@YAABVSky@@ABV1@@Z
_TEXT	SEGMENT
__Arg$ = 8						; size = 4
??$forward@ABVSky@@@std@@YAABVSky@@ABV1@@Z PROC		; std::forward<Sky const &>, COMDAT
; Line 78
	push	ebp
	mov	ebp, esp
; Line 79
	mov	eax, DWORD PTR __Arg$[ebp]
; Line 80
	pop	ebp
	ret	0
??$forward@ABVSky@@@std@@YAABVSky@@ABV1@@Z ENDP		; std::forward<Sky const &>
_TEXT	ENDS
PUBLIC	??$forward@AAUOutdoorLightStats@@@std@@YAAAUOutdoorLightStats@@AAU1@@Z ; std::forward<OutdoorLightStats &>
; Function compile flags: /Ogtp
;	COMDAT ??$forward@AAUOutdoorLightStats@@@std@@YAAAUOutdoorLightStats@@AAU1@@Z
_TEXT	SEGMENT
__Arg$ = 8						; size = 4
??$forward@AAUOutdoorLightStats@@@std@@YAAAUOutdoorLightStats@@AAU1@@Z PROC ; std::forward<OutdoorLightStats &>, COMDAT
; Line 78
	push	ebp
	mov	ebp, esp
; Line 79
	mov	eax, DWORD PTR __Arg$[ebp]
; Line 80
	pop	ebp
	ret	0
??$forward@AAUOutdoorLightStats@@@std@@YAAAUOutdoorLightStats@@AAU1@@Z ENDP ; std::forward<OutdoorLightStats &>
_TEXT	ENDS
PUBLIC	??$construct@AAUOutdoorLightStats@@@?$allocator@UOutdoorLightStats@@@std@@QAEXPAUOutdoorLightStats@@AAU2@@Z ; std::allocator<OutdoorLightStats>::construct<OutdoorLightStats &>
; Function compile flags: /Ogtp
;	COMDAT ??$construct@AAUOutdoorLightStats@@@?$allocator@UOutdoorLightStats@@@std@@QAEXPAUOutdoorLightStats@@AAU2@@Z
_TEXT	SEGMENT
__Ptr$ = 8						; size = 4
__Val$ = 12						; size = 4
??$construct@AAUOutdoorLightStats@@@?$allocator@UOutdoorLightStats@@@std@@QAEXPAUOutdoorLightStats@@AAU2@@Z PROC ; std::allocator<OutdoorLightStats>::construct<OutdoorLightStats &>, COMDAT
; _this$ = ecx
; File c:\program files (x86)\microsoft visual studio 10.0\vc\include\xmemory
; Line 206
	push	ebp
	mov	ebp, esp
; Line 208
	mov	ecx, DWORD PTR __Ptr$[ebp]
	test	ecx, ecx
	je	SHORT $LN3@construct
	mov	eax, DWORD PTR __Val$[ebp]
	push	eax
	call	??0OutdoorLightStats@@QAE@ABU0@@Z
$LN3@construct:
; Line 209
	pop	ebp
	ret	8
??$construct@AAUOutdoorLightStats@@@?$allocator@UOutdoorLightStats@@@std@@QAEXPAUOutdoorLightStats@@AAU2@@Z ENDP ; std::allocator<OutdoorLightStats>::construct<OutdoorLightStats &>
_TEXT	ENDS
PUBLIC	??$forward@ABUOutdoorLightStats@@@std@@YAABUOutdoorLightStats@@ABU1@@Z ; std::forward<OutdoorLightStats const &>
; Function compile flags: /Ogtp
;	COMDAT ??$forward@ABUOutdoorLightStats@@@std@@YAABUOutdoorLightStats@@ABU1@@Z
_TEXT	SEGMENT
__Arg$ = 8						; size = 4
??$forward@ABUOutdoorLightStats@@@std@@YAABUOutdoorLightStats@@ABU1@@Z PROC ; std::forward<OutdoorLightStats const &>, COMDAT
; File c:\program files (x86)\microsoft visual studio 10.0\vc\include\utility
; Line 78
	push	ebp
	mov	ebp, esp
; Line 79
	mov	eax, DWORD PTR __Arg$[ebp]
; Line 80
	pop	ebp
	ret	0
??$forward@ABUOutdoorLightStats@@@std@@YAABUOutdoorLightStats@@ABU1@@Z ENDP ; std::forward<OutdoorLightStats const &>
_TEXT	ENDS
PUBLIC	??$_Ptr_cat@USkyColor@@U1@@std@@YA?AU_Nonscalar_ptr_iterator_tag@0@PAUSkyColor@@0@Z ; std::_Ptr_cat<SkyColor,SkyColor>
; Function compile flags: /Ogtp
;	COMDAT ??$_Ptr_cat@USkyColor@@U1@@std@@YA?AU_Nonscalar_ptr_iterator_tag@0@PAUSkyColor@@0@Z
_TEXT	SEGMENT
__Cat$ = -1						; size = 1
___formal$ = 8						; size = 4
___formal$ = 12						; size = 4
??$_Ptr_cat@USkyColor@@U1@@std@@YA?AU_Nonscalar_ptr_iterator_tag@0@PAUSkyColor@@0@Z PROC ; std::_Ptr_cat<SkyColor,SkyColor>, COMDAT
; File c:\program files (x86)\microsoft visual studio 10.0\vc\include\xutility
; Line 528
	push	ebp
	mov	ebp, esp
	push	ecx
; Line 530
	mov	al, BYTE PTR __Cat$[ebp]
; Line 531
	mov	esp, ebp
	pop	ebp
	ret	0
??$_Ptr_cat@USkyColor@@U1@@std@@YA?AU_Nonscalar_ptr_iterator_tag@0@PAUSkyColor@@0@Z ENDP ; std::_Ptr_cat<SkyColor,SkyColor>
_TEXT	ENDS
PUBLIC	??$_Ptr_cat@VSky@@V1@@std@@YA?AU_Nonscalar_ptr_iterator_tag@0@PAVSky@@0@Z ; std::_Ptr_cat<Sky,Sky>
; Function compile flags: /Ogtp
;	COMDAT ??$_Ptr_cat@VSky@@V1@@std@@YA?AU_Nonscalar_ptr_iterator_tag@0@PAVSky@@0@Z
_TEXT	SEGMENT
__Cat$ = -1						; size = 1
___formal$ = 8						; size = 4
___formal$ = 12						; size = 4
??$_Ptr_cat@VSky@@V1@@std@@YA?AU_Nonscalar_ptr_iterator_tag@0@PAVSky@@0@Z PROC ; std::_Ptr_cat<Sky,Sky>, COMDAT
; Line 528
	push	ebp
	mov	ebp, esp
	push	ecx
; Line 530
	mov	al, BYTE PTR __Cat$[ebp]
; Line 531
	mov	esp, ebp
	pop	ebp
	ret	0
??$_Ptr_cat@VSky@@V1@@std@@YA?AU_Nonscalar_ptr_iterator_tag@0@PAVSky@@0@Z ENDP ; std::_Ptr_cat<Sky,Sky>
_TEXT	ENDS
PUBLIC	??$_Ptr_cat@UOutdoorLightStats@@U1@@std@@YA?AU_Nonscalar_ptr_iterator_tag@0@PAUOutdoorLightStats@@0@Z ; std::_Ptr_cat<OutdoorLightStats,OutdoorLightStats>
; Function compile flags: /Ogtp
;	COMDAT ??$_Ptr_cat@UOutdoorLightStats@@U1@@std@@YA?AU_Nonscalar_ptr_iterator_tag@0@PAUOutdoorLightStats@@0@Z
_TEXT	SEGMENT
__Cat$ = -1						; size = 1
___formal$ = 8						; size = 4
___formal$ = 12						; size = 4
??$_Ptr_cat@UOutdoorLightStats@@U1@@std@@YA?AU_Nonscalar_ptr_iterator_tag@0@PAUOutdoorLightStats@@0@Z PROC ; std::_Ptr_cat<OutdoorLightStats,OutdoorLightStats>, COMDAT
; Line 528
	push	ebp
	mov	ebp, esp
	push	ecx
; Line 530
	mov	al, BYTE PTR __Cat$[ebp]
; Line 531
	mov	esp, ebp
	pop	ebp
	ret	0
??$_Ptr_cat@UOutdoorLightStats@@U1@@std@@YA?AU_Nonscalar_ptr_iterator_tag@0@PAUOutdoorLightStats@@0@Z ENDP ; std::_Ptr_cat<OutdoorLightStats,OutdoorLightStats>
_TEXT	ENDS
PUBLIC	??$_Construct@UOutdoorLightStats@@ABU1@@std@@YAXPAUOutdoorLightStats@@ABU1@@Z ; std::_Construct<OutdoorLightStats,OutdoorLightStats const &>
; Function compile flags: /Ogtp
;	COMDAT ??$_Construct@UOutdoorLightStats@@ABU1@@std@@YAXPAUOutdoorLightStats@@ABU1@@Z
_TEXT	SEGMENT
__Ptr$ = 8						; size = 4
__Val$ = 12						; size = 4
??$_Construct@UOutdoorLightStats@@ABU1@@std@@YAXPAUOutdoorLightStats@@ABU1@@Z PROC ; std::_Construct<OutdoorLightStats,OutdoorLightStats const &>, COMDAT
; File c:\program files (x86)\microsoft visual studio 10.0\vc\include\xmemory
; Line 46
	push	ebp
	mov	ebp, esp
; Line 48
	mov	ecx, DWORD PTR __Ptr$[ebp]
	test	ecx, ecx
	je	SHORT $LN3@Construct
	mov	eax, DWORD PTR __Val$[ebp]
	push	eax
	call	??0OutdoorLightStats@@QAE@ABU0@@Z
$LN3@Construct:
; Line 49
	pop	ebp
	ret	0
??$_Construct@UOutdoorLightStats@@ABU1@@std@@YAXPAUOutdoorLightStats@@ABU1@@Z ENDP ; std::_Construct<OutdoorLightStats,OutdoorLightStats const &>
_TEXT	ENDS
PUBLIC	??0SkyColor@@QAE@ABU0@@Z			; SkyColor::SkyColor
; Function compile flags: /Ogtp
;	COMDAT ??0SkyColor@@QAE@ABU0@@Z
_TEXT	SEGMENT
___that$ = 8						; size = 4
??0SkyColor@@QAE@ABU0@@Z PROC				; SkyColor::SkyColor, COMDAT
; _this$ = ecx
	push	ebp
	mov	ebp, esp
	mov	eax, ecx
	mov	ecx, DWORD PTR ___that$[ebp]
	mov	edx, DWORD PTR [ecx]
	mov	DWORD PTR [eax], edx
	mov	edx, DWORD PTR [ecx+4]
	mov	DWORD PTR [eax+4], edx
	mov	edx, DWORD PTR [ecx+8]
	mov	DWORD PTR [eax+8], edx
	mov	ecx, DWORD PTR [ecx+12]
	mov	DWORD PTR [eax+12], ecx
	pop	ebp
	ret	4
??0SkyColor@@QAE@ABU0@@Z ENDP				; SkyColor::SkyColor
_TEXT	ENDS
PUBLIC	?_Unchecked@?$_Vector_iterator@V?$_Vector_val@VSky@@V?$allocator@VSky@@@std@@@std@@@std@@QBEPAVSky@@XZ ; std::_Vector_iterator<std::_Vector_val<Sky,std::allocator<Sky> > >::_Unchecked
; Function compile flags: /Ogtp
;	COMDAT ?_Unchecked@?$_Vector_iterator@V?$_Vector_val@VSky@@V?$allocator@VSky@@@std@@@std@@@std@@QBEPAVSky@@XZ
_TEXT	SEGMENT
?_Unchecked@?$_Vector_iterator@V?$_Vector_val@VSky@@V?$allocator@VSky@@@std@@@std@@@std@@QBEPAVSky@@XZ PROC ; std::_Vector_iterator<std::_Vector_val<Sky,std::allocator<Sky> > >::_Unchecked, COMDAT
; _this$ = ecx
; File c:\program files (x86)\microsoft visual studio 10.0\vc\include\vector
; Line 317
	mov	eax, DWORD PTR [ecx]
; Line 318
	ret	0
?_Unchecked@?$_Vector_iterator@V?$_Vector_val@VSky@@V?$allocator@VSky@@@std@@@std@@@std@@QBEPAVSky@@XZ ENDP ; std::_Vector_iterator<std::_Vector_val<Sky,std::allocator<Sky> > >::_Unchecked
_TEXT	ENDS
PUBLIC	??0?$_Vector_const_iterator@V?$_Vector_val@USkyColor@@V?$allocator@USkyColor@@@std@@@std@@@std@@QAE@PAUSkyColor@@PBU_Container_base0@1@@Z ; std::_Vector_const_iterator<std::_Vector_val<SkyColor,std::allocator<SkyColor> > >::_Vector_const_iterator<std::_Vector_val<SkyColor,std::allocator<SkyColor> > >
; Function compile flags: /Ogtp
;	COMDAT ??0?$_Vector_const_iterator@V?$_Vector_val@USkyColor@@V?$allocator@USkyColor@@@std@@@std@@@std@@QAE@PAUSkyColor@@PBU_Container_base0@1@@Z
_TEXT	SEGMENT
__Parg$ = 8						; size = 4
__Pvector$ = 12						; size = 4
??0?$_Vector_const_iterator@V?$_Vector_val@USkyColor@@V?$allocator@USkyColor@@@std@@@std@@@std@@QAE@PAUSkyColor@@PBU_Container_base0@1@@Z PROC ; std::_Vector_const_iterator<std::_Vector_val<SkyColor,std::allocator<SkyColor> > >::_Vector_const_iterator<std::_Vector_val<SkyColor,std::allocator<SkyColor> > >, COMDAT
; _this$ = ecx
; Line 45
	push	ebp
	mov	ebp, esp
	mov	eax, ecx
	mov	ecx, DWORD PTR __Parg$[ebp]
	mov	DWORD PTR [eax], ecx
; Line 47
	pop	ebp
	ret	8
??0?$_Vector_const_iterator@V?$_Vector_val@USkyColor@@V?$allocator@USkyColor@@@std@@@std@@@std@@QAE@PAUSkyColor@@PBU_Container_base0@1@@Z ENDP ; std::_Vector_const_iterator<std::_Vector_val<SkyColor,std::allocator<SkyColor> > >::_Vector_const_iterator<std::_Vector_val<SkyColor,std::allocator<SkyColor> > >
_TEXT	ENDS
PUBLIC	??$_Val_type@PAUSkyColor@@@std@@YAPAUSkyColor@@PAU1@@Z ; std::_Val_type<SkyColor *>
; Function compile flags: /Ogtp
;	COMDAT ??$_Val_type@PAUSkyColor@@@std@@YAPAUSkyColor@@PAU1@@Z
_TEXT	SEGMENT
___formal$ = 8						; size = 4
??$_Val_type@PAUSkyColor@@@std@@YAPAUSkyColor@@PAU1@@Z PROC ; std::_Val_type<SkyColor *>, COMDAT
; File c:\program files (x86)\microsoft visual studio 10.0\vc\include\xutility
; Line 802
	xor	eax, eax
; Line 803
	ret	0
??$_Val_type@PAUSkyColor@@@std@@YAPAUSkyColor@@PAU1@@Z ENDP ; std::_Val_type<SkyColor *>
_TEXT	ENDS
PUBLIC	??$_Val_type@PAVSky@@@std@@YAPAVSky@@PAV1@@Z	; std::_Val_type<Sky *>
; Function compile flags: /Ogtp
;	COMDAT ??$_Val_type@PAVSky@@@std@@YAPAVSky@@PAV1@@Z
_TEXT	SEGMENT
___formal$ = 8						; size = 4
??$_Val_type@PAVSky@@@std@@YAPAVSky@@PAV1@@Z PROC	; std::_Val_type<Sky *>, COMDAT
; Line 802
	xor	eax, eax
; Line 803
	ret	0
??$_Val_type@PAVSky@@@std@@YAPAVSky@@PAV1@@Z ENDP	; std::_Val_type<Sky *>
_TEXT	ENDS
PUBLIC	??$_Val_type@PAUOutdoorLightStats@@@std@@YAPAUOutdoorLightStats@@PAU1@@Z ; std::_Val_type<OutdoorLightStats *>
; Function compile flags: /Ogtp
;	COMDAT ??$_Val_type@PAUOutdoorLightStats@@@std@@YAPAUOutdoorLightStats@@PAU1@@Z
_TEXT	SEGMENT
___formal$ = 8						; size = 4
??$_Val_type@PAUOutdoorLightStats@@@std@@YAPAUOutdoorLightStats@@PAU1@@Z PROC ; std::_Val_type<OutdoorLightStats *>, COMDAT
; Line 802
	xor	eax, eax
; Line 803
	ret	0
??$_Val_type@PAUOutdoorLightStats@@@std@@YAPAUOutdoorLightStats@@PAU1@@Z ENDP ; std::_Val_type<OutdoorLightStats *>
_TEXT	ENDS
PUBLIC	??$_Unchecked@PAVSky@@@std@@YAPAVSky@@PAV1@@Z	; std::_Unchecked<Sky *>
; Function compile flags: /Ogtp
;	COMDAT ??$_Unchecked@PAVSky@@@std@@YAPAVSky@@PAV1@@Z
_TEXT	SEGMENT
__Src$ = 8						; size = 4
??$_Unchecked@PAVSky@@@std@@YAPAVSky@@PAV1@@Z PROC	; std::_Unchecked<Sky *>, COMDAT
; Line 278
	push	ebp
	mov	ebp, esp
; Line 279
	mov	eax, DWORD PTR __Src$[ebp]
; Line 280
	pop	ebp
	ret	0
??$_Unchecked@PAVSky@@@std@@YAPAVSky@@PAV1@@Z ENDP	; std::_Unchecked<Sky *>
_TEXT	ENDS
PUBLIC	??$_Dist_type@PAVSky@@@std@@YAPAHPAVSky@@@Z	; std::_Dist_type<Sky *>
; Function compile flags: /Ogtp
;	COMDAT ??$_Dist_type@PAVSky@@@std@@YAPAHPAVSky@@@Z
_TEXT	SEGMENT
___formal$ = 8						; size = 4
??$_Dist_type@PAVSky@@@std@@YAPAHPAVSky@@@Z PROC	; std::_Dist_type<Sky *>, COMDAT
; Line 862
	xor	eax, eax
; Line 863
	ret	0
??$_Dist_type@PAVSky@@@std@@YAPAHPAVSky@@@Z ENDP	; std::_Dist_type<Sky *>
_TEXT	ENDS
PUBLIC	??$_Destroy@USkyColor@@@std@@YAXPAUSkyColor@@@Z	; std::_Destroy<SkyColor>
; Function compile flags: /Ogtp
;	COMDAT ??$_Destroy@USkyColor@@@std@@YAXPAUSkyColor@@@Z
_TEXT	SEGMENT
__Ptr$ = 8						; size = 4
??$_Destroy@USkyColor@@@std@@YAXPAUSkyColor@@@Z PROC	; std::_Destroy<SkyColor>, COMDAT
; File c:\program files (x86)\microsoft visual studio 10.0\vc\include\xmemory
; Line 64
	ret	0
??$_Destroy@USkyColor@@@std@@YAXPAUSkyColor@@@Z ENDP	; std::_Destroy<SkyColor>
_TEXT	ENDS
PUBLIC	??$_Destroy@UOutdoorLightStats@@@std@@YAXPAUOutdoorLightStats@@@Z ; std::_Destroy<OutdoorLightStats>
; Function compile flags: /Ogtp
;	COMDAT ??$_Destroy@UOutdoorLightStats@@@std@@YAXPAUOutdoorLightStats@@@Z
_TEXT	SEGMENT
__Ptr$ = 8						; size = 4
??$_Destroy@UOutdoorLightStats@@@std@@YAXPAUOutdoorLightStats@@@Z PROC ; std::_Destroy<OutdoorLightStats>, COMDAT
; Line 64
	ret	0
??$_Destroy@UOutdoorLightStats@@@std@@YAXPAUOutdoorLightStats@@@Z ENDP ; std::_Destroy<OutdoorLightStats>
_TEXT	ENDS
PUBLIC	??0?$_Vector_iterator@V?$_Vector_val@USkyColor@@V?$allocator@USkyColor@@@std@@@std@@@std@@QAE@PAUSkyColor@@PBU_Container_base0@1@@Z ; std::_Vector_iterator<std::_Vector_val<SkyColor,std::allocator<SkyColor> > >::_Vector_iterator<std::_Vector_val<SkyColor,std::allocator<SkyColor> > >
; Function compile flags: /Ogtp
;	COMDAT ??0?$_Vector_iterator@V?$_Vector_val@USkyColor@@V?$allocator@USkyColor@@@std@@@std@@@std@@QAE@PAUSkyColor@@PBU_Container_base0@1@@Z
_TEXT	SEGMENT
__Parg$ = 8						; size = 4
__Pvector$ = 12						; size = 4
??0?$_Vector_iterator@V?$_Vector_val@USkyColor@@V?$allocator@USkyColor@@@std@@@std@@@std@@QAE@PAUSkyColor@@PBU_Container_base0@1@@Z PROC ; std::_Vector_iterator<std::_Vector_val<SkyColor,std::allocator<SkyColor> > >::_Vector_iterator<std::_Vector_val<SkyColor,std::allocator<SkyColor> > >, COMDAT
; _this$ = ecx
; File c:\program files (x86)\microsoft visual studio 10.0\vc\include\vector
; Line 304
	push	ebp
	mov	ebp, esp
	mov	eax, ecx
	mov	ecx, DWORD PTR __Parg$[ebp]
	mov	DWORD PTR [eax], ecx
; Line 305
	pop	ebp
	ret	8
??0?$_Vector_iterator@V?$_Vector_val@USkyColor@@V?$allocator@USkyColor@@@std@@@std@@@std@@QAE@PAUSkyColor@@PBU_Container_base0@1@@Z ENDP ; std::_Vector_iterator<std::_Vector_val<SkyColor,std::allocator<SkyColor> > >::_Vector_iterator<std::_Vector_val<SkyColor,std::allocator<SkyColor> > >
_TEXT	ENDS
PUBLIC	?_Compat@?$_Vector_const_iterator@V?$_Vector_val@USkyColor@@V?$allocator@USkyColor@@@std@@@std@@@std@@QBEXABV12@@Z ; std::_Vector_const_iterator<std::_Vector_val<SkyColor,std::allocator<SkyColor> > >::_Compat
; Function compile flags: /Ogtp
;	COMDAT ?_Compat@?$_Vector_const_iterator@V?$_Vector_val@USkyColor@@V?$allocator@USkyColor@@@std@@@std@@@std@@QBEXABV12@@Z
_TEXT	SEGMENT
___formal$ = 8						; size = 4
?_Compat@?$_Vector_const_iterator@V?$_Vector_val@USkyColor@@V?$allocator@USkyColor@@@std@@@std@@@std@@QBEXABV12@@Z PROC ; std::_Vector_const_iterator<std::_Vector_val<SkyColor,std::allocator<SkyColor> > >::_Compat, COMDAT
; _this$ = ecx
; Line 253
	ret	4
?_Compat@?$_Vector_const_iterator@V?$_Vector_val@USkyColor@@V?$allocator@USkyColor@@@std@@@std@@@std@@QBEXABV12@@Z ENDP ; std::_Vector_const_iterator<std::_Vector_val<SkyColor,std::allocator<SkyColor> > >::_Compat
_TEXT	ENDS
PUBLIC	??$forward@AAPAVSky@@@std@@YAAAPAVSky@@AAPAV1@@Z ; std::forward<Sky * &>
; Function compile flags: /Ogtp
;	COMDAT ??$forward@AAPAVSky@@@std@@YAAAPAVSky@@AAPAV1@@Z
_TEXT	SEGMENT
__Arg$ = 8						; size = 4
??$forward@AAPAVSky@@@std@@YAAAPAVSky@@AAPAV1@@Z PROC	; std::forward<Sky * &>, COMDAT
; File c:\program files (x86)\microsoft visual studio 10.0\vc\include\utility
; Line 78
	push	ebp
	mov	ebp, esp
; Line 79
	mov	eax, DWORD PTR __Arg$[ebp]
; Line 80
	pop	ebp
	ret	0
??$forward@AAPAVSky@@@std@@YAAAPAVSky@@AAPAV1@@Z ENDP	; std::forward<Sky * &>
_TEXT	ENDS
PUBLIC	??$?0AAPAVSky@@AAPAV0@@?$_Pair_base@PAVSky@@PAV1@@std@@QAE@AAPAVSky@@0@Z ; std::_Pair_base<Sky *,Sky *>::_Pair_base<Sky *,Sky *><Sky * &,Sky * &>
; Function compile flags: /Ogtp
;	COMDAT ??$?0AAPAVSky@@AAPAV0@@?$_Pair_base@PAVSky@@PAV1@@std@@QAE@AAPAVSky@@0@Z
_TEXT	SEGMENT
__Val1$ = 8						; size = 4
__Val2$ = 12						; size = 4
??$?0AAPAVSky@@AAPAV0@@?$_Pair_base@PAVSky@@PAV1@@std@@QAE@AAPAVSky@@0@Z PROC ; std::_Pair_base<Sky *,Sky *>::_Pair_base<Sky *,Sky *><Sky * &,Sky * &>, COMDAT
; _this$ = ecx
; Line 163
	push	ebp
	mov	ebp, esp
	mov	eax, ecx
	mov	ecx, DWORD PTR __Val1$[ebp]
	mov	edx, DWORD PTR [ecx]
	mov	ecx, DWORD PTR __Val2$[ebp]
	mov	DWORD PTR [eax], edx
	mov	edx, DWORD PTR [ecx]
	mov	DWORD PTR [eax+4], edx
; Line 164
	pop	ebp
	ret	8
??$?0AAPAVSky@@AAPAV0@@?$_Pair_base@PAVSky@@PAV1@@std@@QAE@AAPAVSky@@0@Z ENDP ; std::_Pair_base<Sky *,Sky *>::_Pair_base<Sky *,Sky *><Sky * &,Sky * &>
_TEXT	ENDS
PUBLIC	??$_Move@AAVSky@@@std@@YA$$QAVSky@@AAV1@@Z	; std::_Move<Sky &>
; Function compile flags: /Ogtp
;	COMDAT ??$_Move@AAVSky@@@std@@YA$$QAVSky@@AAV1@@Z
_TEXT	SEGMENT
__Arg$ = 8						; size = 4
??$_Move@AAVSky@@@std@@YA$$QAVSky@@AAV1@@Z PROC		; std::_Move<Sky &>, COMDAT
; Line 94
	push	ebp
	mov	ebp, esp
; Line 95
	mov	eax, DWORD PTR __Arg$[ebp]
; Line 96
	pop	ebp
	ret	0
??$_Move@AAVSky@@@std@@YA$$QAVSky@@AAV1@@Z ENDP		; std::_Move<Sky &>
_TEXT	ENDS
PUBLIC	??$forward@USkyColor@@@std@@YA$$QAUSkyColor@@AAU1@@Z ; std::forward<SkyColor>
; Function compile flags: /Ogtp
;	COMDAT ??$forward@USkyColor@@@std@@YA$$QAUSkyColor@@AAU1@@Z
_TEXT	SEGMENT
__Arg$ = 8						; size = 4
??$forward@USkyColor@@@std@@YA$$QAUSkyColor@@AAU1@@Z PROC ; std::forward<SkyColor>, COMDAT
; Line 78
	push	ebp
	mov	ebp, esp
; Line 79
	mov	eax, DWORD PTR __Arg$[ebp]
; Line 80
	pop	ebp
	ret	0
??$forward@USkyColor@@@std@@YA$$QAUSkyColor@@AAU1@@Z ENDP ; std::forward<SkyColor>
_TEXT	ENDS
PUBLIC	??$forward@VSky@@@std@@YA$$QAVSky@@AAV1@@Z	; std::forward<Sky>
; Function compile flags: /Ogtp
;	COMDAT ??$forward@VSky@@@std@@YA$$QAVSky@@AAV1@@Z
_TEXT	SEGMENT
__Arg$ = 8						; size = 4
??$forward@VSky@@@std@@YA$$QAVSky@@AAV1@@Z PROC		; std::forward<Sky>, COMDAT
; Line 78
	push	ebp
	mov	ebp, esp
; Line 79
	mov	eax, DWORD PTR __Arg$[ebp]
; Line 80
	pop	ebp
	ret	0
??$forward@VSky@@@std@@YA$$QAVSky@@AAV1@@Z ENDP		; std::forward<Sky>
_TEXT	ENDS
PUBLIC	??$forward@UOutdoorLightStats@@@std@@YA$$QAUOutdoorLightStats@@AAU1@@Z ; std::forward<OutdoorLightStats>
; Function compile flags: /Ogtp
;	COMDAT ??$forward@UOutdoorLightStats@@@std@@YA$$QAUOutdoorLightStats@@AAU1@@Z
_TEXT	SEGMENT
__Arg$ = 8						; size = 4
??$forward@UOutdoorLightStats@@@std@@YA$$QAUOutdoorLightStats@@AAU1@@Z PROC ; std::forward<OutdoorLightStats>, COMDAT
; Line 78
	push	ebp
	mov	ebp, esp
; Line 79
	mov	eax, DWORD PTR __Arg$[ebp]
; Line 80
	pop	ebp
	ret	0
??$forward@UOutdoorLightStats@@@std@@YA$$QAUOutdoorLightStats@@AAU1@@Z ENDP ; std::forward<OutdoorLightStats>
_TEXT	ENDS
PUBLIC	??$_Ptr_cat@V?$_Vector_const_iterator@V?$_Vector_val@USkyColor@@V?$allocator@USkyColor@@@std@@@std@@@std@@PAUSkyColor@@@std@@YA?AU_Nonscalar_ptr_iterator_tag@0@AAV?$_Vector_const_iterator@V?$_Vector_val@USkyColor@@V?$allocator@USkyColor@@@std@@@std@@@0@AAPAUSkyColor@@@Z ; std::_Ptr_cat<std::_Vector_const_iterator<std::_Vector_val<SkyColor,std::allocator<SkyColor> > >,SkyColor *>
; Function compile flags: /Ogtp
;	COMDAT ??$_Ptr_cat@V?$_Vector_const_iterator@V?$_Vector_val@USkyColor@@V?$allocator@USkyColor@@@std@@@std@@@std@@PAUSkyColor@@@std@@YA?AU_Nonscalar_ptr_iterator_tag@0@AAV?$_Vector_const_iterator@V?$_Vector_val@USkyColor@@V?$allocator@USkyColor@@@std@@@std@@@0@AAPAUSkyColor@@@Z
_TEXT	SEGMENT
__Cat$ = -1						; size = 1
___formal$ = 8						; size = 4
___formal$ = 12						; size = 4
??$_Ptr_cat@V?$_Vector_const_iterator@V?$_Vector_val@USkyColor@@V?$allocator@USkyColor@@@std@@@std@@@std@@PAUSkyColor@@@std@@YA?AU_Nonscalar_ptr_iterator_tag@0@AAV?$_Vector_const_iterator@V?$_Vector_val@USkyColor@@V?$allocator@USkyColor@@@std@@@std@@@0@AAPAUSkyColor@@@Z PROC ; std::_Ptr_cat<std::_Vector_const_iterator<std::_Vector_val<SkyColor,std::allocator<SkyColor> > >,SkyColor *>, COMDAT
; File c:\program files (x86)\microsoft visual studio 10.0\vc\include\xutility
; Line 497
	push	ebp
	mov	ebp, esp
	push	ecx
; Line 499
	mov	al, BYTE PTR __Cat$[ebp]
; Line 500
	mov	esp, ebp
	pop	ebp
	ret	0
??$_Ptr_cat@V?$_Vector_const_iterator@V?$_Vector_val@USkyColor@@V?$allocator@USkyColor@@@std@@@std@@@std@@PAUSkyColor@@@std@@YA?AU_Nonscalar_ptr_iterator_tag@0@AAV?$_Vector_const_iterator@V?$_Vector_val@USkyColor@@V?$allocator@USkyColor@@@std@@@std@@@0@AAPAUSkyColor@@@Z ENDP ; std::_Ptr_cat<std::_Vector_const_iterator<std::_Vector_val<SkyColor,std::allocator<SkyColor> > >,SkyColor *>
_TEXT	ENDS
PUBLIC	??D?$_Vector_const_iterator@V?$_Vector_val@USkyColor@@V?$allocator@USkyColor@@@std@@@std@@@std@@QBEABUSkyColor@@XZ ; std::_Vector_const_iterator<std::_Vector_val<SkyColor,std::allocator<SkyColor> > >::operator*
; Function compile flags: /Ogtp
;	COMDAT ??D?$_Vector_const_iterator@V?$_Vector_val@USkyColor@@V?$allocator@USkyColor@@@std@@@std@@@std@@QBEABUSkyColor@@XZ
_TEXT	SEGMENT
??D?$_Vector_const_iterator@V?$_Vector_val@USkyColor@@V?$allocator@USkyColor@@@std@@@std@@@std@@QBEABUSkyColor@@XZ PROC ; std::_Vector_const_iterator<std::_Vector_val<SkyColor,std::allocator<SkyColor> > >::operator*, COMDAT
; _this$ = ecx
; File c:\program files (x86)\microsoft visual studio 10.0\vc\include\vector
; Line 84
	mov	eax, DWORD PTR [ecx]
; Line 85
	ret	0
??D?$_Vector_const_iterator@V?$_Vector_val@USkyColor@@V?$allocator@USkyColor@@@std@@@std@@@std@@QBEABUSkyColor@@XZ ENDP ; std::_Vector_const_iterator<std::_Vector_val<SkyColor,std::allocator<SkyColor> > >::operator*
_TEXT	ENDS
PUBLIC	??E?$_Vector_const_iterator@V?$_Vector_val@USkyColor@@V?$allocator@USkyColor@@@std@@@std@@@std@@QAEAAV01@XZ ; std::_Vector_const_iterator<std::_Vector_val<SkyColor,std::allocator<SkyColor> > >::operator++
; Function compile flags: /Ogtp
;	COMDAT ??E?$_Vector_const_iterator@V?$_Vector_val@USkyColor@@V?$allocator@USkyColor@@@std@@@std@@@std@@QAEAAV01@XZ
_TEXT	SEGMENT
??E?$_Vector_const_iterator@V?$_Vector_val@USkyColor@@V?$allocator@USkyColor@@@std@@@std@@@std@@QAEAAV01@XZ PROC ; std::_Vector_const_iterator<std::_Vector_val<SkyColor,std::allocator<SkyColor> > >::operator++, COMDAT
; _this$ = ecx
; Line 93
	mov	eax, ecx
; Line 110
	add	DWORD PTR [eax], 16			; 00000010H
; Line 112
	ret	0
??E?$_Vector_const_iterator@V?$_Vector_val@USkyColor@@V?$allocator@USkyColor@@@std@@@std@@@std@@QAEAAV01@XZ ENDP ; std::_Vector_const_iterator<std::_Vector_val<SkyColor,std::allocator<SkyColor> > >::operator++
_TEXT	ENDS
PUBLIC	??4SkyColor@@QAEAAU0@ABU0@@Z			; SkyColor::operator=
; Function compile flags: /Ogtp
;	COMDAT ??4SkyColor@@QAEAAU0@ABU0@@Z
_TEXT	SEGMENT
___that$ = 8						; size = 4
??4SkyColor@@QAEAAU0@ABU0@@Z PROC			; SkyColor::operator=, COMDAT
; _this$ = ecx
	push	ebp
	mov	ebp, esp
	mov	eax, ecx
	mov	ecx, DWORD PTR ___that$[ebp]
	mov	edx, DWORD PTR [ecx]
	mov	DWORD PTR [eax], edx
	mov	edx, DWORD PTR [ecx+4]
	mov	DWORD PTR [eax+4], edx
	mov	edx, DWORD PTR [ecx+8]
	mov	DWORD PTR [eax+8], edx
	mov	ecx, DWORD PTR [ecx+12]
	mov	DWORD PTR [eax+12], ecx
	pop	ebp
	ret	4
??4SkyColor@@QAEAAU0@ABU0@@Z ENDP			; SkyColor::operator=
_TEXT	ENDS
PUBLIC	??$move@AAVSky@@@std@@YA$$QAVSky@@AAV1@@Z	; std::move<Sky &>
; Function compile flags: /Ogtp
;	COMDAT ??$move@AAVSky@@@std@@YA$$QAVSky@@AAV1@@Z
_TEXT	SEGMENT
__Arg$ = 8						; size = 4
??$move@AAVSky@@@std@@YA$$QAVSky@@AAV1@@Z PROC		; std::move<Sky &>, COMDAT
; File c:\program files (x86)\microsoft visual studio 10.0\vc\include\utility
; Line 86
	push	ebp
	mov	ebp, esp
; Line 87
	mov	eax, DWORD PTR __Arg$[ebp]
; Line 88
	pop	ebp
	ret	0
??$move@AAVSky@@@std@@YA$$QAVSky@@AAV1@@Z ENDP		; std::move<Sky &>
_TEXT	ENDS
PUBLIC	??$move@AAUSkyColor@@@std@@YA$$QAUSkyColor@@AAU1@@Z ; std::move<SkyColor &>
; Function compile flags: /Ogtp
;	COMDAT ??$move@AAUSkyColor@@@std@@YA$$QAUSkyColor@@AAU1@@Z
_TEXT	SEGMENT
__Arg$ = 8						; size = 4
??$move@AAUSkyColor@@@std@@YA$$QAUSkyColor@@AAU1@@Z PROC ; std::move<SkyColor &>, COMDAT
; Line 86
	push	ebp
	mov	ebp, esp
; Line 87
	mov	eax, DWORD PTR __Arg$[ebp]
; Line 88
	pop	ebp
	ret	0
??$move@AAUSkyColor@@@std@@YA$$QAUSkyColor@@AAU1@@Z ENDP ; std::move<SkyColor &>
_TEXT	ENDS
PUBLIC	?colorFor@Sky@@QBE?AVVec3D@@HH@Z		; Sky::colorFor
; Function compile flags: /Ogtp
_TEXT	SEGMENT
$T98517 = -36						; size = 12
_c1$ = -24						; size = 12
$T98516 = -12						; size = 12
_c2$ = -12						; size = 12
___$ReturnUdt$ = 8					; size = 4
_r$ = 12						; size = 4
tv671 = 16						; size = 4
tv668 = 16						; size = 4
$T98608 = 16						; size = 4
_tt$ = 16						; size = 4
_t$ = 16						; size = 4
?colorFor@Sky@@QBE?AVVec3D@@HH@Z PROC			; Sky::colorFor
; _this$ = ecx
; File c:\programovani\wow editor\test\src\editor\sky.cpp
; Line 79
	push	ebp
	mov	ebp, esp
; Line 80
	mov	eax, DWORD PTR _r$[ebp]
	sub	esp, 36					; 00000024H
	push	edi
	mov	edi, DWORD PTR [ecx+eax*4+596]
	xor	edx, edx
	cmp	edi, edx
	jge	SHORT $LN9@colorFor
; Line 82
	mov	eax, DWORD PTR ___$ReturnUdt$[ebp]
	mov	DWORD PTR [eax], edx
	mov	DWORD PTR [eax+4], edx
	mov	DWORD PTR [eax+8], edx
	pop	edi
; Line 123
	mov	esp, ebp
	pop	ebp
	ret	12					; 0000000cH
$LN9@colorFor:
; Line 86
	add	eax, eax
	mov	edx, DWORD PTR [ecx+eax*8+20]
	lea	ecx, DWORD PTR [ecx+eax*8+20]
	mov	eax, DWORD PTR [ecx+4]
	sub	eax, edx
	sar	eax, 4
	push	esi
; Line 88
	mov	esi, DWORD PTR _t$[ebp]
	dec	eax
	cmp	esi, edi
	jge	SHORT $LN8@colorFor
; Line 91
	mov	ecx, edx
	shl	eax, 4
	mov	edx, DWORD PTR [eax+ecx]
	add	eax, ecx
	mov	DWORD PTR _c1$[ebp], edx
	mov	edx, DWORD PTR [eax+4]
	mov	DWORD PTR _c1$[ebp+4], edx
	mov	edx, DWORD PTR [eax+8]
	mov	DWORD PTR _c1$[ebp+8], edx
; Line 92
	mov	edx, DWORD PTR [ecx]
	mov	DWORD PTR _c2$[ebp], edx
	mov	edx, DWORD PTR [ecx+4]
	mov	DWORD PTR _c2$[ebp+4], edx
	mov	edx, DWORD PTR [ecx+8]
	mov	DWORD PTR _c2$[ebp+8], edx
; Line 93
	mov	edx, DWORD PTR [eax+12]
; Line 94
	mov	eax, DWORD PTR [ecx+12]
	add	eax, 2880				; 00000b40H
; Line 95
	add	esi, 2880				; 00000b40H
; Line 97
	jmp	SHORT $LN1@colorFor
$LN8@colorFor:
	push	ebx
; Line 99
	mov	ebx, eax
	add	ebx, ebx
	mov	edi, eax
	lea	edx, DWORD PTR [edx+ebx*8+12]
	npad	4
$LL6@colorFor:
; Line 101
	cmp	DWORD PTR [edx], esi
	jle	SHORT $LN65@colorFor
; Line 99
	dec	edi
	sub	edx, 16					; 00000010H
	jmp	SHORT $LL6@colorFor
$LN65@colorFor:
; Line 103
	mov	edx, DWORD PTR [ecx]
; Line 108
	mov	ecx, DWORD PTR [ecx]
	mov	esi, edi
	shl	esi, 4
	mov	ebx, DWORD PTR [edx+esi]
	add	edx, esi
	mov	DWORD PTR _c1$[ebp], ebx
	mov	ebx, DWORD PTR [edx+4]
	mov	DWORD PTR _c1$[ebp+4], ebx
	mov	ebx, DWORD PTR [edx+8]
	mov	edx, DWORD PTR [edx+12]
	mov	DWORD PTR _c1$[ebp+8], ebx
	pop	ebx
	cmp	edi, eax
	jne	SHORT $LN2@colorFor
	mov	eax, DWORD PTR [ecx]
	mov	DWORD PTR _c2$[ebp], eax
	mov	eax, DWORD PTR [ecx+4]
	mov	DWORD PTR _c2$[ebp+4], eax
	mov	eax, DWORD PTR [ecx+8]
	mov	DWORD PTR _c2$[ebp+8], eax
; Line 109
	mov	eax, DWORD PTR [ecx+12]
	add	eax, 2880				; 00000b40H
; Line 111
	jmp	SHORT $LN67@colorFor
$LN2@colorFor:
; Line 113
	mov	eax, DWORD PTR [esi+ecx+16]
	add	esi, ecx
	mov	ecx, DWORD PTR [esi+20]
	mov	DWORD PTR _c2$[ebp], eax
	mov	eax, DWORD PTR [esi+24]
	mov	DWORD PTR _c2$[ebp+8], eax
; Line 114
	mov	eax, DWORD PTR [esi+28]
	mov	DWORD PTR _c2$[ebp+4], ecx
$LN67@colorFor:
	mov	esi, DWORD PTR _t$[ebp]
$LN1@colorFor:
; Line 121
	sub	esi, edx
	mov	DWORD PTR tv671[ebp], esi
	fild	DWORD PTR tv671[ebp]
	sub	eax, edx
	mov	DWORD PTR tv668[ebp], eax
; Line 122
	mov	eax, DWORD PTR ___$ReturnUdt$[ebp]
	fidiv	DWORD PTR tv668[ebp]
	pop	esi
	pop	edi
	fstp	DWORD PTR _tt$[ebp]
	fld	DWORD PTR _c2$[ebp]
	fld	DWORD PTR _tt$[ebp]
	fld	ST(0)
	fmulp	ST(2), ST(0)
	fxch	ST(1)
	fstp	DWORD PTR $T98517[ebp]
	fld	DWORD PTR _c2$[ebp+4]
	fmul	ST(0), ST(1)
	fstp	DWORD PTR $T98517[ebp+4]
	fld	DWORD PTR _c2$[ebp+8]
	fmul	ST(0), ST(1)
	fstp	DWORD PTR $T98517[ebp+8]
	fld1
	fsubrp	ST(1), ST(0)
	fstp	DWORD PTR $T98608[ebp]
	fld	DWORD PTR $T98608[ebp]
	fld	ST(0)
	fmul	DWORD PTR _c1$[ebp]
	fstp	DWORD PTR $T98516[ebp]
	fld	ST(0)
	fmul	DWORD PTR _c1$[ebp+4]
	fstp	DWORD PTR $T98516[ebp+4]
	fmul	DWORD PTR _c1$[ebp+8]
	fstp	DWORD PTR $T98516[ebp+8]
	fld	DWORD PTR $T98516[ebp]
	fadd	DWORD PTR $T98517[ebp]
	fstp	DWORD PTR [eax]
	fld	DWORD PTR $T98516[ebp+4]
	fadd	DWORD PTR $T98517[ebp+4]
	fstp	DWORD PTR [eax+4]
	fld	DWORD PTR $T98516[ebp+8]
	fadd	DWORD PTR $T98517[ebp+8]
	fstp	DWORD PTR [eax+8]
; Line 123
	mov	esp, ebp
	pop	ebp
	ret	12					; 0000000cH
?colorFor@Sky@@QBE?AVVec3D@@HH@Z ENDP			; Sky::colorFor
_TEXT	ENDS
PUBLIC	?findSkyWeights@Skies@@QAEXVVec3D@@@Z		; Skies::findSkyWeights
; Function compile flags: /Ogtp
_TEXT	SEGMENT
$T98626 = -28						; size = 12
tv474 = -16						; size = 4
tv467 = -16						; size = 4
_r$82776 = -16						; size = 4
_dist$82767 = -16					; size = 4
tv535 = -12						; size = 4
_i$82762 = -8						; size = 4
tv549 = -4						; size = 4
_pos$ = 8						; size = 12
?findSkyWeights@Skies@@QAEXVVec3D@@@Z PROC		; Skies::findSkyWeights
; _this$ = ecx
; Line 216
	push	ebp
	mov	ebp, esp
	sub	esp, 28					; 0000001cH
	push	esi
	mov	esi, ecx
; Line 217
	mov	ecx, DWORD PTR [esi+4]
	push	edi
	mov	edi, DWORD PTR [esi]
	sub	ecx, edi
	mov	eax, -1475706711			; a80a80a9H
	imul	ecx
	add	edx, ecx
	sar	edx, 9
	mov	eax, edx
	shr	eax, 31					; 0000001fH
	lea	eax, DWORD PTR [edx+eax-1]
; Line 218
	mov	ecx, eax
	imul	ecx, 780				; 0000030cH
	mov	DWORD PTR [ecx+edi+772], 1065353216	; 3f800000H
; Line 219
	mov	DWORD PTR [esi+20], eax
; Line 220
	dec	eax
	mov	DWORD PTR _i$82762[ebp], eax
	js	$LN11@findSkyWei
; Line 217
	lea	edi, DWORD PTR [eax+1]
	imul	edi, 780				; 0000030cH
	push	ebx
	lea	ebx, DWORD PTR [eax+1]
	mov	DWORD PTR tv535[ebp], ebx
	mov	DWORD PTR tv549[ebp], edi
	jmp	SHORT $LN13@findSkyWei
	npad	5
$LL46@findSkyWei:
	mov	edi, DWORD PTR tv549[ebp]
$LN13@findSkyWei:
; Line 222
	mov	edx, DWORD PTR [esi]
; Line 223
	fld	DWORD PTR _pos$[ebp]
	fsub	DWORD PTR [edi+edx-780]
	lea	edi, DWORD PTR [edi+edx-780]
	fstp	DWORD PTR $T98626[ebp]
	fld	DWORD PTR _pos$[ebp+4]
	fsub	DWORD PTR [edi+4]
	fstp	DWORD PTR $T98626[ebp+4]
	fld	DWORD PTR _pos$[ebp+8]
	fsub	DWORD PTR [edi+8]
	fstp	DWORD PTR $T98626[ebp+8]
	fld	DWORD PTR $T98626[ebp]
	fld	DWORD PTR $T98626[ebp+4]
	fld	DWORD PTR $T98626[ebp+8]
	fld	ST(1)
	fmulp	ST(2), ST(0)
	fld	ST(2)
	fmulp	ST(3), ST(0)
	fxch	ST(1)
	faddp	ST(2), ST(0)
	fmul	ST(0), ST(0)
	faddp	ST(1), ST(0)
	fstp	DWORD PTR tv474[ebp]
	fld	DWORD PTR tv474[ebp]
	call	__CIsqrt
	fstp	DWORD PTR tv467[ebp]
	fld	DWORD PTR tv467[ebp]
	fstp	DWORD PTR _dist$82767[ebp]
; Line 224
	fld	DWORD PTR _dist$82767[ebp]
	fld	DWORD PTR [edi+12]
	fcomp	ST(1)
	fnstsw	ax
	test	ah, 65					; 00000041H
	jne	SHORT $LN10@findSkyWei
; Line 228
	mov	eax, DWORD PTR _i$82762[ebp]
	fstp	ST(0)
	mov	DWORD PTR [edi+772], 1065353216		; 3f800000H
; Line 229
	mov	ecx, DWORD PTR [esi+4]
	sub	ecx, DWORD PTR [esi]
	mov	DWORD PTR [esi+20], eax
	mov	eax, -1475706711			; a80a80a9H
	imul	ecx
	add	edx, ecx
	sar	edx, 9
	mov	ecx, edx
	shr	ecx, 31					; 0000001fH
	add	ecx, edx
	mov	edi, ebx
	cmp	ebx, ecx
	jae	$LN12@findSkyWei
; Line 227
	mov	ebx, DWORD PTR tv549[ebp]
	npad	2
$LL9@findSkyWei:
; Line 229
	mov	edx, DWORD PTR [esi]
	mov	DWORD PTR [ebx+edx+772], 0
	mov	ecx, DWORD PTR [esi+4]
	sub	ecx, DWORD PTR [esi]
	mov	eax, -1475706711			; a80a80a9H
	imul	ecx
	add	edx, ecx
	sar	edx, 9
	mov	eax, edx
	shr	eax, 31					; 0000001fH
	inc	edi
	add	eax, edx
	add	ebx, 780				; 0000030cH
	cmp	edi, eax
	jb	SHORT $LL9@findSkyWei
; Line 231
	mov	ebx, DWORD PTR tv535[ebp]
	jmp	$LN12@findSkyWei
$LN10@findSkyWei:
	fld	DWORD PTR [edi+16]
	fcomp	ST(1)
	fnstsw	ax
	test	ah, 65					; 00000041H
	jne	$LN52@findSkyWei
; Line 234
	fsub	DWORD PTR [edi+12]
; Line 236
	mov	eax, -1475706711			; a80a80a9H
	fld	DWORD PTR [edi+16]
	fsub	DWORD PTR [edi+12]
	fdivp	ST(1), ST(0)
	fstp	DWORD PTR _r$82776[ebp]
	fld	DWORD PTR _r$82776[ebp]
	fld	ST(0)
	fld1
	fsubrp	ST(1), ST(0)
	fstp	DWORD PTR [edi+772]
	mov	ecx, DWORD PTR [esi+4]
	sub	ecx, DWORD PTR [esi]
	mov	edi, ebx
	imul	ecx
	add	edx, ecx
	sar	edx, 9
	mov	ecx, edx
	shr	ecx, 31					; 0000001fH
	add	ecx, edx
	cmp	ebx, ecx
	jae	SHORT $LN55@findSkyWei
; Line 234
	mov	ebx, DWORD PTR tv549[ebp]
$LN4@findSkyWei:
; Line 236
	mov	edx, DWORD PTR [esi]
	fld	DWORD PTR [ebx+edx+772]
	lea	eax, DWORD PTR [ebx+edx+772]
	fmul	ST(0), ST(1)
	inc	edi
	add	ebx, 780				; 0000030cH
	fstp	DWORD PTR [eax]
	mov	ecx, DWORD PTR [esi+4]
	sub	ecx, DWORD PTR [esi]
	mov	eax, -1475706711			; a80a80a9H
	imul	ecx
	add	edx, ecx
	sar	edx, 9
	mov	eax, edx
	shr	eax, 31					; 0000001fH
	add	eax, edx
	cmp	edi, eax
	jb	SHORT $LN4@findSkyWei
; Line 238
	mov	ebx, DWORD PTR tv535[ebp]
	jmp	SHORT $LN55@findSkyWei
$LN52@findSkyWei:
; Line 239
	mov	DWORD PTR [edi+772], 0
$LN55@findSkyWei:
	fstp	ST(0)
$LN12@findSkyWei:
; Line 220
	mov	eax, DWORD PTR _i$82762[ebp]
	sub	DWORD PTR tv549[ebp], 780		; 0000030cH
	dec	eax
	dec	ebx
	mov	DWORD PTR _i$82762[ebp], eax
	mov	DWORD PTR tv535[ebp], ebx
	test	eax, eax
	jns	$LL46@findSkyWei
	pop	ebx
$LN11@findSkyWei:
	pop	edi
	pop	esi
; Line 242
	mov	esp, ebp
	pop	ebp
	ret	12					; 0000000cH
?findSkyWeights@Skies@@QAEXVVec3D@@@Z ENDP		; Skies::findSkyWeights
_TEXT	ENDS
PUBLIC	__real@3f800000
PUBLIC	?initSky@Skies@@QAEXVVec3D@@H@Z			; Skies::initSky
EXTRN	?gLog@@YAXPADZZ:PROC				; gLog
;	COMDAT __real@3f800000
; File c:\programovani\wow editor\test\src\editor\vec3d.h
CONST	SEGMENT
__real@3f800000 DD 03f800000r			; 1
; Function compile flags: /Ogtp
CONST	ENDS
_TEXT	SEGMENT
$T98702 = -76						; size = 12
$T98701 = -64						; size = 12
$T98700 = -52						; size = 12
$T98699 = -40						; size = 12
$T98703 = -28						; size = 12
$T98754 = -16						; size = 4
_this$ = -12						; size = 4
_j$82794 = -8						; size = 4
tv645 = -4						; size = 4
_pos$ = 8						; size = 12
_t$ = 20						; size = 4
?initSky@Skies@@QAEXVVec3D@@H@Z PROC			; Skies::initSky
; _this$ = ecx
; File c:\programovani\wow editor\test\src\editor\sky.cpp
; Line 245
	push	ebp
	mov	ebp, esp
	sub	esp, 76					; 0000004cH
	push	ebx
	push	esi
	mov	ebx, ecx
; Line 246
	xor	esi, esi
	push	edi
	mov	DWORD PTR _this$[ebp], ebx
	cmp	DWORD PTR [ebx+16], esi
	je	$LN7@initSky
; Line 249
	mov	ecx, DWORD PTR _pos$[ebp]
	sub	esp, 12					; 0000000cH
	mov	eax, esp
	mov	DWORD PTR [eax], ecx
	mov	edx, DWORD PTR _pos$[ebp+4]
	mov	DWORD PTR [eax+4], edx
	mov	ecx, DWORD PTR _pos$[ebp+8]
	mov	DWORD PTR [eax+8], ecx
	mov	ecx, ebx
	call	?findSkyWeights@Skies@@QAEXVVec3D@@@Z	; Skies::findSkyWeights
	lea	eax, DWORD PTR [ebx+164]
	lea	ecx, DWORD PTR [esi+18]
	npad	1
$LL12@initSky:
; Line 252
	mov	DWORD PTR [eax-8], esi
	mov	DWORD PTR [eax-4], esi
	mov	DWORD PTR [eax], esi
	add	eax, 12					; 0000000cH
	dec	ecx
	jne	SHORT $LL12@initSky
; Line 255
	mov	edi, DWORD PTR [ebx]
	mov	ecx, DWORD PTR [ebx+4]
	sub	ecx, edi
	mov	eax, -1475706711			; a80a80a9H
	imul	ecx
	add	edx, ecx
	sar	edx, 9
	mov	eax, edx
	shr	eax, 31					; 0000001fH
	add	eax, edx
	mov	DWORD PTR _j$82794[ebp], esi
	je	$LN7@initSky
	mov	DWORD PTR tv645[ebp], esi
$LL49@initSky:
; Line 257
	fldz
	mov	ecx, DWORD PTR tv645[ebp]
	fcomp	DWORD PTR [ecx+edi+772]
	fnstsw	ax
	test	ah, 5
	jp	$LN8@initSky
; Line 259
	lea	edi, DWORD PTR [ebx+164]
$LL5@initSky:
; Line 261
	mov	edx, DWORD PTR [ebx]
	mov	ecx, DWORD PTR _t$[ebp]
	mov	ebx, DWORD PTR tv645[ebp]
	push	ecx
	add	ebx, edx
	push	esi
	lea	edx, DWORD PTR $T98699[ebp]
	push	edx
	mov	ecx, ebx
	call	?colorFor@Sky@@QBE?AVVec3D@@HH@Z	; Sky::colorFor
	fld1
	fcomp	DWORD PTR [eax]
	fnstsw	ax
	test	ah, 5
	jnp	$LN1@initSky
	mov	eax, DWORD PTR _t$[ebp]
	push	eax
	push	esi
	lea	ecx, DWORD PTR $T98700[ebp]
	push	ecx
	mov	ecx, ebx
	call	?colorFor@Sky@@QBE?AVVec3D@@HH@Z	; Sky::colorFor
	fld1
	fcomp	DWORD PTR [eax+4]
	fnstsw	ax
	test	ah, 5
	jnp	SHORT $LN1@initSky
	mov	edx, DWORD PTR _t$[ebp]
	push	edx
	push	esi
	lea	eax, DWORD PTR $T98701[ebp]
	push	eax
	mov	ecx, ebx
	call	?colorFor@Sky@@QBE?AVVec3D@@HH@Z	; Sky::colorFor
	fld1
	fcomp	DWORD PTR [eax+8]
	fnstsw	ax
	test	ah, 5
	jnp	SHORT $LN1@initSky
; Line 266
	mov	edx, DWORD PTR _t$[ebp]
	mov	ecx, DWORD PTR [ebx+772]
	push	edx
	push	esi
	lea	eax, DWORD PTR $T98702[ebp]
	mov	DWORD PTR $T98754[ebp], ecx
	push	eax
	mov	ecx, ebx
	call	?colorFor@Sky@@QBE?AVVec3D@@HH@Z	; Sky::colorFor
	fld	DWORD PTR [eax]
	fld	DWORD PTR $T98754[ebp]
	fld	ST(0)
	fmulp	ST(2), ST(0)
	fxch	ST(1)
	fstp	DWORD PTR $T98703[ebp]
	fld	DWORD PTR [eax+4]
	fmul	ST(0), ST(1)
	fstp	DWORD PTR $T98703[ebp+4]
	fmul	DWORD PTR [eax+8]
	fstp	DWORD PTR $T98703[ebp+8]
	fld	DWORD PTR [edi-8]
	fadd	DWORD PTR $T98703[ebp]
	fstp	DWORD PTR [edi-8]
	fld	DWORD PTR [edi-4]
	fadd	DWORD PTR $T98703[ebp+4]
	fstp	DWORD PTR [edi-4]
	fld	DWORD PTR [edi]
	fadd	DWORD PTR $T98703[ebp+8]
	fstp	DWORD PTR [edi]
; Line 267
	jmp	SHORT $LN4@initSky
$LN1@initSky:
; Line 263
	mov	ecx, DWORD PTR _j$82794[ebp]
	push	esi
	push	ecx
	push	OFFSET $SG82808
	call	?gLog@@YAXPADZZ				; gLog
	add	esp, 12					; 0000000cH
$LN4@initSky:
; Line 259
	mov	ebx, DWORD PTR _this$[ebp]
	inc	esi
	add	edi, 12					; 0000000cH
	cmp	esi, 18					; 00000012H
	jl	$LL5@initSky
	xor	esi, esi
$LN8@initSky:
; Line 255
	mov	edi, DWORD PTR [ebx]
	mov	ecx, DWORD PTR [ebx+4]
	inc	DWORD PTR _j$82794[ebp]
	add	DWORD PTR tv645[ebp], 780		; 0000030cH
	sub	ecx, edi
	mov	eax, -1475706711			; a80a80a9H
	imul	ecx
	add	edx, ecx
	sar	edx, 9
	mov	eax, edx
	shr	eax, 31					; 0000001fH
	add	eax, edx
	cmp	DWORD PTR _j$82794[ebp], eax
	jb	$LL49@initSky
$LN7@initSky:
; Line 270
	pop	edi
	pop	esi
	pop	ebx
	mov	esp, ebp
	pop	ebp
	ret	16					; 00000010H
?initSky@Skies@@QAEXVVec3D@@H@Z ENDP			; Skies::initSky
_TEXT	ENDS
PUBLIC	?getSkyName@Skies@@QAEPADXZ			; Skies::getSkyName
; Function compile flags: /Ogtp
_TEXT	SEGMENT
?getSkyName@Skies@@QAEPADXZ PROC			; Skies::getSkyName
; _this$ = ecx
; Line 333
	mov	eax, DWORD PTR [ecx+20]
	cmp	eax, -1
	jne	SHORT $LN2@getSkyName
; Line 334
	mov	eax, OFFSET $SG82823
; Line 337
	ret	0
$LN2@getSkyName:
; Line 336
	mov	ecx, DWORD PTR [ecx]
	imul	eax, 780				; 0000030cH
	lea	eax, DWORD PTR [eax+ecx+740]
; Line 337
	ret	0
?getSkyName@Skies@@QAEPADXZ ENDP			; Skies::getSkyName
_TEXT	ENDS
PUBLIC	__real@405e000000000000
PUBLIC	?getLightStats@OutdoorLighting@@QAE?AUOutdoorLightStats@@H@Z ; OutdoorLighting::getLightStats
;	COMDAT __real@405e000000000000
; File c:\program files (x86)\microsoft visual studio 10.0\vc\include\vector
CONST	SEGMENT
__real@405e000000000000 DQ 0405e000000000000r	; 120
; Function compile flags: /Ogtp
CONST	ENDS
_TEXT	SEGMENT
tv209 = 8						; size = 4
tv206 = 8						; size = 4
___$ReturnUdt$ = 8					; size = 4
_time$ = 12						; size = 4
?getLightStats@OutdoorLighting@@QAE?AUOutdoorLightStats@@H@Z PROC ; OutdoorLighting::getLightStats
; _this$ = ecx
; File c:\programovani\wow editor\test\src\editor\sky.cpp
; Line 527
	push	ebp
	mov	ebp, esp
; Line 531
	xor	eax, eax
	push	ebx
; Line 539
	mov	ebx, DWORD PTR [ecx]
	mov	ecx, DWORD PTR ___$ReturnUdt$[ebp]
	mov	DWORD PTR [ecx+24], eax
	mov	DWORD PTR [ecx+28], eax
	mov	DWORD PTR [ecx+32], eax
	mov	DWORD PTR [ecx+36], eax
	mov	DWORD PTR [ecx+40], eax
	mov	DWORD PTR [ecx+44], eax
	mov	DWORD PTR [ecx+48], eax
	mov	DWORD PTR [ecx+52], eax
	mov	DWORD PTR [ecx+56], eax
	mov	DWORD PTR [ecx+60], eax
	mov	DWORD PTR [ecx+64], eax
	mov	DWORD PTR [ecx+68], eax
	mov	DWORD PTR [ecx+72], eax
	mov	DWORD PTR [ecx+76], eax
	mov	DWORD PTR [ecx+80], eax
	mov	DWORD PTR [ecx+84], eax
	mov	DWORD PTR [ecx+88], eax
	mov	DWORD PTR [ecx+92], eax
	push	esi
	push	edi
	mov	edi, DWORD PTR _time$[ebp]
	mov	eax, -2004318071			; 88888889H
	imul	edi
	add	edx, edi
	sar	edx, 6
	mov	esi, edx
	shr	esi, 31					; 0000001fH
	add	esi, edx
	mov	eax, esi
	shl	eax, 4
	sub	eax, esi
	add	eax, eax
	add	eax, eax
	add	eax, eax
	sub	edi, eax
; Line 541
	mov	DWORD PTR tv209[ebp], edi
	lea	eax, DWORD PTR [esi+1]
	cdq
	fild	DWORD PTR tv209[ebp]
	mov	edi, 24					; 00000018H
	idiv	edi
	fdiv	QWORD PTR __real@405e000000000000
	push	ecx
	lea	eax, DWORD PTR [esi+esi*2]
	shl	eax, 5
	add	eax, ebx
	fstp	DWORD PTR tv206[ebp]
	fld	DWORD PTR tv206[ebp]
	fstp	DWORD PTR [esp]
	lea	edx, DWORD PTR [edx+edx*2]
	shl	edx, 5
	add	edx, ebx
	push	edx
	push	eax
	call	?interpolate@OutdoorLightStats@@QAEXPAU1@0M@Z ; OutdoorLightStats::interpolate
	pop	edi
	pop	esi
; Line 543
	mov	eax, ecx
	pop	ebx
; Line 544
	pop	ebp
	ret	8
?getLightStats@OutdoorLighting@@QAE?AUOutdoorLightStats@@H@Z ENDP ; OutdoorLighting::getLightStats
_TEXT	ENDS
PUBLIC	??0?$_String_val@DV?$allocator@D@std@@@std@@QAE@V?$allocator@D@1@@Z ; std::_String_val<char,std::allocator<char> >::_String_val<char,std::allocator<char> >
; Function compile flags: /Ogtp
;	COMDAT ??0?$_String_val@DV?$allocator@D@std@@@std@@QAE@V?$allocator@D@1@@Z
_TEXT	SEGMENT
__Al$ = 8						; size = 1
??0?$_String_val@DV?$allocator@D@std@@@std@@QAE@V?$allocator@D@1@@Z PROC ; std::_String_val<char,std::allocator<char> >::_String_val<char,std::allocator<char> >, COMDAT
; _this$ = ecx
; File c:\program files (x86)\microsoft visual studio 10.0\vc\include\xstring
; Line 454
	mov	eax, ecx
; Line 455
	ret	4
??0?$_String_val@DV?$allocator@D@std@@@std@@QAE@V?$allocator@D@1@@Z ENDP ; std::_String_val<char,std::allocator<char> >::_String_val<char,std::allocator<char> >
_TEXT	ENDS
PUBLIC	??0?$_Vector_val@USkyColor@@V?$allocator@USkyColor@@@std@@@std@@QAE@V?$allocator@USkyColor@@@1@@Z ; std::_Vector_val<SkyColor,std::allocator<SkyColor> >::_Vector_val<SkyColor,std::allocator<SkyColor> >
; Function compile flags: /Ogtp
;	COMDAT ??0?$_Vector_val@USkyColor@@V?$allocator@USkyColor@@@std@@@std@@QAE@V?$allocator@USkyColor@@@1@@Z
_TEXT	SEGMENT
__Al$ = 8						; size = 1
??0?$_Vector_val@USkyColor@@V?$allocator@USkyColor@@@std@@@std@@QAE@V?$allocator@USkyColor@@@1@@Z PROC ; std::_Vector_val<SkyColor,std::allocator<SkyColor> >::_Vector_val<SkyColor,std::allocator<SkyColor> >, COMDAT
; _this$ = ecx
; File c:\program files (x86)\microsoft visual studio 10.0\vc\include\vector
; Line 426
	mov	eax, ecx
; Line 427
	xor	ecx, ecx
	mov	DWORD PTR [eax], ecx
; Line 428
	mov	DWORD PTR [eax+4], ecx
; Line 429
	mov	DWORD PTR [eax+8], ecx
; Line 430
	ret	4
??0?$_Vector_val@USkyColor@@V?$allocator@USkyColor@@@std@@@std@@QAE@V?$allocator@USkyColor@@@1@@Z ENDP ; std::_Vector_val<SkyColor,std::allocator<SkyColor> >::_Vector_val<SkyColor,std::allocator<SkyColor> >
_TEXT	ENDS
PUBLIC	??0?$_Vector_val@VSky@@V?$allocator@VSky@@@std@@@std@@QAE@V?$allocator@VSky@@@1@@Z ; std::_Vector_val<Sky,std::allocator<Sky> >::_Vector_val<Sky,std::allocator<Sky> >
; Function compile flags: /Ogtp
;	COMDAT ??0?$_Vector_val@VSky@@V?$allocator@VSky@@@std@@@std@@QAE@V?$allocator@VSky@@@1@@Z
_TEXT	SEGMENT
__Al$ = 8						; size = 1
??0?$_Vector_val@VSky@@V?$allocator@VSky@@@std@@@std@@QAE@V?$allocator@VSky@@@1@@Z PROC ; std::_Vector_val<Sky,std::allocator<Sky> >::_Vector_val<Sky,std::allocator<Sky> >, COMDAT
; _this$ = ecx
; Line 426
	mov	eax, ecx
; Line 427
	xor	ecx, ecx
	mov	DWORD PTR [eax], ecx
; Line 428
	mov	DWORD PTR [eax+4], ecx
; Line 429
	mov	DWORD PTR [eax+8], ecx
; Line 430
	ret	4
??0?$_Vector_val@VSky@@V?$allocator@VSky@@@std@@@std@@QAE@V?$allocator@VSky@@@1@@Z ENDP ; std::_Vector_val<Sky,std::allocator<Sky> >::_Vector_val<Sky,std::allocator<Sky> >
_TEXT	ENDS
PUBLIC	??0?$_Vector_val@UOutdoorLightStats@@V?$allocator@UOutdoorLightStats@@@std@@@std@@QAE@V?$allocator@UOutdoorLightStats@@@1@@Z ; std::_Vector_val<OutdoorLightStats,std::allocator<OutdoorLightStats> >::_Vector_val<OutdoorLightStats,std::allocator<OutdoorLightStats> >
; Function compile flags: /Ogtp
;	COMDAT ??0?$_Vector_val@UOutdoorLightStats@@V?$allocator@UOutdoorLightStats@@@std@@@std@@QAE@V?$allocator@UOutdoorLightStats@@@1@@Z
_TEXT	SEGMENT
__Al$ = 8						; size = 1
??0?$_Vector_val@UOutdoorLightStats@@V?$allocator@UOutdoorLightStats@@@std@@@std@@QAE@V?$allocator@UOutdoorLightStats@@@1@@Z PROC ; std::_Vector_val<OutdoorLightStats,std::allocator<OutdoorLightStats> >::_Vector_val<OutdoorLightStats,std::allocator<OutdoorLightStats> >, COMDAT
; _this$ = ecx
; Line 426
	mov	eax, ecx
; Line 427
	xor	ecx, ecx
	mov	DWORD PTR [eax], ecx
; Line 428
	mov	DWORD PTR [eax+4], ecx
; Line 429
	mov	DWORD PTR [eax+8], ecx
; Line 430
	ret	4
??0?$_Vector_val@UOutdoorLightStats@@V?$allocator@UOutdoorLightStats@@@std@@@std@@QAE@V?$allocator@UOutdoorLightStats@@@1@@Z ENDP ; std::_Vector_val<OutdoorLightStats,std::allocator<OutdoorLightStats> >::_Vector_val<OutdoorLightStats,std::allocator<OutdoorLightStats> >
_TEXT	ENDS
PUBLIC	??0?$_Vector_iterator@V?$_Vector_val@VSky@@V?$allocator@VSky@@@std@@@std@@@std@@QAE@PAVSky@@PBU_Container_base0@1@@Z ; std::_Vector_iterator<std::_Vector_val<Sky,std::allocator<Sky> > >::_Vector_iterator<std::_Vector_val<Sky,std::allocator<Sky> > >
; Function compile flags: /Ogtp
;	COMDAT ??0?$_Vector_iterator@V?$_Vector_val@VSky@@V?$allocator@VSky@@@std@@@std@@@std@@QAE@PAVSky@@PBU_Container_base0@1@@Z
_TEXT	SEGMENT
__Parg$ = 8						; size = 4
__Pvector$ = 12						; size = 4
??0?$_Vector_iterator@V?$_Vector_val@VSky@@V?$allocator@VSky@@@std@@@std@@@std@@QAE@PAVSky@@PBU_Container_base0@1@@Z PROC ; std::_Vector_iterator<std::_Vector_val<Sky,std::allocator<Sky> > >::_Vector_iterator<std::_Vector_val<Sky,std::allocator<Sky> > >, COMDAT
; _this$ = ecx
; Line 304
	push	ebp
	mov	ebp, esp
	mov	eax, ecx
	mov	ecx, DWORD PTR __Parg$[ebp]
	mov	DWORD PTR [eax], ecx
; Line 305
	pop	ebp
	ret	8
??0?$_Vector_iterator@V?$_Vector_val@VSky@@V?$allocator@VSky@@@std@@@std@@@std@@QAE@PAVSky@@PBU_Container_base0@1@@Z ENDP ; std::_Vector_iterator<std::_Vector_val<Sky,std::allocator<Sky> > >::_Vector_iterator<std::_Vector_val<Sky,std::allocator<Sky> > >
_TEXT	ENDS
PUBLIC	?_Eos@?$basic_string@DU?$char_traits@D@std@@V?$allocator@D@2@@std@@QAEXI@Z ; std::basic_string<char,std::char_traits<char>,std::allocator<char> >::_Eos
; Function compile flags: /Ogtp
;	COMDAT ?_Eos@?$basic_string@DU?$char_traits@D@std@@V?$allocator@D@2@@std@@QAEXI@Z
_TEXT	SEGMENT
__Newsize$ = 8						; size = 4
?_Eos@?$basic_string@DU?$char_traits@D@std@@V?$allocator@D@2@@std@@QAEXI@Z PROC ; std::basic_string<char,std::char_traits<char>,std::allocator<char> >::_Eos, COMDAT
; _this$ = ecx
; File c:\program files (x86)\microsoft visual studio 10.0\vc\include\xstring
; Line 1952
	push	ebp
	mov	ebp, esp
; Line 1953
	cmp	DWORD PTR [ecx+20], 16			; 00000010H
	mov	eax, DWORD PTR __Newsize$[ebp]
	mov	DWORD PTR [ecx+16], eax
	jb	SHORT $LN5@Eos
	mov	ecx, DWORD PTR [ecx]
$LN5@Eos:
	mov	BYTE PTR [ecx+eax], 0
; Line 1954
	pop	ebp
	ret	4
?_Eos@?$basic_string@DU?$char_traits@D@std@@V?$allocator@D@2@@std@@QAEXI@Z ENDP ; std::basic_string<char,std::char_traits<char>,std::allocator<char> >::_Eos
_TEXT	ENDS
PUBLIC	?max_size@?$vector@USkyColor@@V?$allocator@USkyColor@@@std@@@std@@QBEIXZ ; std::vector<SkyColor,std::allocator<SkyColor> >::max_size
; Function compile flags: /Ogtp
;	COMDAT ?max_size@?$vector@USkyColor@@V?$allocator@USkyColor@@@std@@@std@@QBEIXZ
_TEXT	SEGMENT
?max_size@?$vector@USkyColor@@V?$allocator@USkyColor@@@std@@@std@@QBEIXZ PROC ; std::vector<SkyColor,std::allocator<SkyColor> >::max_size, COMDAT
; _this$ = ecx
; File c:\program files (x86)\microsoft visual studio 10.0\vc\include\vector
; Line 884
	mov	eax, 268435455				; 0fffffffH
; Line 885
	ret	0
?max_size@?$vector@USkyColor@@V?$allocator@USkyColor@@@std@@@std@@QBEIXZ ENDP ; std::vector<SkyColor,std::allocator<SkyColor> >::max_size
_TEXT	ENDS
PUBLIC	?_Grow_to@?$vector@USkyColor@@V?$allocator@USkyColor@@@std@@@std@@IBEII@Z ; std::vector<SkyColor,std::allocator<SkyColor> >::_Grow_to
; Function compile flags: /Ogtp
;	COMDAT ?_Grow_to@?$vector@USkyColor@@V?$allocator@USkyColor@@@std@@@std@@IBEII@Z
_TEXT	SEGMENT
__Count$ = 8						; size = 4
?_Grow_to@?$vector@USkyColor@@V?$allocator@USkyColor@@@std@@@std@@IBEII@Z PROC ; std::vector<SkyColor,std::allocator<SkyColor> >::_Grow_to, COMDAT
; _this$ = ecx
; Line 1274
	push	ebp
	mov	ebp, esp
; Line 1275
	mov	eax, DWORD PTR [ecx+8]
	sub	eax, DWORD PTR [ecx]
; Line 1278
	mov	edx, 268435455				; 0fffffffH
	sar	eax, 4
	mov	ecx, eax
	shr	ecx, 1
	sub	edx, ecx
	cmp	edx, eax
	jae	SHORT $LN4@Grow_to
	xor	eax, eax
	jmp	SHORT $LN5@Grow_to
$LN4@Grow_to:
	add	eax, ecx
$LN5@Grow_to:
; Line 1279
	mov	ecx, DWORD PTR __Count$[ebp]
	cmp	eax, ecx
	jae	SHORT $LN1@Grow_to
; Line 1281
	mov	eax, ecx
$LN1@Grow_to:
; Line 1282
	pop	ebp
	ret	4
?_Grow_to@?$vector@USkyColor@@V?$allocator@USkyColor@@@std@@@std@@IBEII@Z ENDP ; std::vector<SkyColor,std::allocator<SkyColor> >::_Grow_to
_TEXT	ENDS
PUBLIC	?max_size@?$vector@VSky@@V?$allocator@VSky@@@std@@@std@@QBEIXZ ; std::vector<Sky,std::allocator<Sky> >::max_size
; Function compile flags: /Ogtp
;	COMDAT ?max_size@?$vector@VSky@@V?$allocator@VSky@@@std@@@std@@QBEIXZ
_TEXT	SEGMENT
?max_size@?$vector@VSky@@V?$allocator@VSky@@@std@@@std@@QBEIXZ PROC ; std::vector<Sky,std::allocator<Sky> >::max_size, COMDAT
; _this$ = ecx
; Line 884
	mov	eax, 5506368				; 00540540H
; Line 885
	ret	0
?max_size@?$vector@VSky@@V?$allocator@VSky@@@std@@@std@@QBEIXZ ENDP ; std::vector<Sky,std::allocator<Sky> >::max_size
_TEXT	ENDS
PUBLIC	?_Grow_to@?$vector@VSky@@V?$allocator@VSky@@@std@@@std@@IBEII@Z ; std::vector<Sky,std::allocator<Sky> >::_Grow_to
; Function compile flags: /Ogtp
;	COMDAT ?_Grow_to@?$vector@VSky@@V?$allocator@VSky@@@std@@@std@@IBEII@Z
_TEXT	SEGMENT
__Count$ = 8						; size = 4
?_Grow_to@?$vector@VSky@@V?$allocator@VSky@@@std@@@std@@IBEII@Z PROC ; std::vector<Sky,std::allocator<Sky> >::_Grow_to, COMDAT
; _this$ = ecx
; Line 1274
	push	ebp
	mov	ebp, esp
	push	esi
; Line 1275
	mov	esi, DWORD PTR [ecx+8]
	sub	esi, DWORD PTR [ecx]
	mov	eax, -1475706711			; a80a80a9H
	imul	esi
	add	edx, esi
	sar	edx, 9
	mov	eax, edx
	shr	eax, 31					; 0000001fH
	add	eax, edx
; Line 1278
	mov	ecx, eax
	shr	ecx, 1
	mov	edx, 5506368				; 00540540H
	sub	edx, ecx
	pop	esi
	cmp	edx, eax
	jae	SHORT $LN4@Grow_to@2
	xor	eax, eax
	jmp	SHORT $LN5@Grow_to@2
$LN4@Grow_to@2:
	add	eax, ecx
$LN5@Grow_to@2:
; Line 1279
	mov	ecx, DWORD PTR __Count$[ebp]
	cmp	eax, ecx
	jae	SHORT $LN1@Grow_to@2
; Line 1281
	mov	eax, ecx
$LN1@Grow_to@2:
; Line 1282
	pop	ebp
	ret	4
?_Grow_to@?$vector@VSky@@V?$allocator@VSky@@@std@@@std@@IBEII@Z ENDP ; std::vector<Sky,std::allocator<Sky> >::_Grow_to
_TEXT	ENDS
PUBLIC	?max_size@?$vector@UOutdoorLightStats@@V?$allocator@UOutdoorLightStats@@@std@@@std@@QBEIXZ ; std::vector<OutdoorLightStats,std::allocator<OutdoorLightStats> >::max_size
; Function compile flags: /Ogtp
;	COMDAT ?max_size@?$vector@UOutdoorLightStats@@V?$allocator@UOutdoorLightStats@@@std@@@std@@QBEIXZ
_TEXT	SEGMENT
?max_size@?$vector@UOutdoorLightStats@@V?$allocator@UOutdoorLightStats@@@std@@@std@@QBEIXZ PROC ; std::vector<OutdoorLightStats,std::allocator<OutdoorLightStats> >::max_size, COMDAT
; _this$ = ecx
; Line 884
	mov	eax, 44739242				; 02aaaaaaH
; Line 885
	ret	0
?max_size@?$vector@UOutdoorLightStats@@V?$allocator@UOutdoorLightStats@@@std@@@std@@QBEIXZ ENDP ; std::vector<OutdoorLightStats,std::allocator<OutdoorLightStats> >::max_size
_TEXT	ENDS
PUBLIC	?_Grow_to@?$vector@UOutdoorLightStats@@V?$allocator@UOutdoorLightStats@@@std@@@std@@IBEII@Z ; std::vector<OutdoorLightStats,std::allocator<OutdoorLightStats> >::_Grow_to
; Function compile flags: /Ogtp
;	COMDAT ?_Grow_to@?$vector@UOutdoorLightStats@@V?$allocator@UOutdoorLightStats@@@std@@@std@@IBEII@Z
_TEXT	SEGMENT
__Count$ = 8						; size = 4
?_Grow_to@?$vector@UOutdoorLightStats@@V?$allocator@UOutdoorLightStats@@@std@@@std@@IBEII@Z PROC ; std::vector<OutdoorLightStats,std::allocator<OutdoorLightStats> >::_Grow_to, COMDAT
; _this$ = ecx
; Line 1274
	push	ebp
	mov	ebp, esp
; Line 1275
	mov	edx, DWORD PTR [ecx+8]
	sub	edx, DWORD PTR [ecx]
	mov	eax, 715827883				; 2aaaaaabH
	imul	edx
	sar	edx, 4
	mov	eax, edx
	shr	eax, 31					; 0000001fH
	add	eax, edx
; Line 1278
	mov	ecx, eax
	shr	ecx, 1
	mov	edx, 44739242				; 02aaaaaaH
	sub	edx, ecx
	cmp	edx, eax
	jae	SHORT $LN4@Grow_to@3
	xor	eax, eax
	jmp	SHORT $LN5@Grow_to@3
$LN4@Grow_to@3:
	add	eax, ecx
$LN5@Grow_to@3:
; Line 1279
	mov	ecx, DWORD PTR __Count$[ebp]
	cmp	eax, ecx
	jae	SHORT $LN1@Grow_to@3
; Line 1281
	mov	eax, ecx
$LN1@Grow_to@3:
; Line 1282
	pop	ebp
	ret	4
?_Grow_to@?$vector@UOutdoorLightStats@@V?$allocator@UOutdoorLightStats@@@std@@@std@@IBEII@Z ENDP ; std::vector<OutdoorLightStats,std::allocator<OutdoorLightStats> >::_Grow_to
_TEXT	ENDS
PUBLIC	?max_size@?$basic_string@DU?$char_traits@D@std@@V?$allocator@D@2@@std@@QBEIXZ ; std::basic_string<char,std::char_traits<char>,std::allocator<char> >::max_size
; Function compile flags: /Ogtp
;	COMDAT ?max_size@?$basic_string@DU?$char_traits@D@std@@V?$allocator@D@2@@std@@QBEIXZ
_TEXT	SEGMENT
?max_size@?$basic_string@DU?$char_traits@D@std@@V?$allocator@D@2@@std@@QBEIXZ PROC ; std::basic_string<char,std::char_traits<char>,std::allocator<char> >::max_size, COMDAT
; _this$ = ecx
; File c:\program files (x86)\microsoft visual studio 10.0\vc\include\xstring
; Line 1517
	mov	eax, -2					; fffffffeH
; Line 1518
	ret	0
?max_size@?$basic_string@DU?$char_traits@D@std@@V?$allocator@D@2@@std@@QBEIXZ ENDP ; std::basic_string<char,std::char_traits<char>,std::allocator<char> >::max_size
_TEXT	ENDS
PUBLIC	?allocate@?$allocator@USkyColor@@@std@@QAEPAUSkyColor@@I@Z ; std::allocator<SkyColor>::allocate
; Function compile flags: /Ogtp
;	COMDAT ?allocate@?$allocator@USkyColor@@@std@@QAEPAUSkyColor@@I@Z
_TEXT	SEGMENT
$T99000 = -12						; size = 12
$T98992 = 8						; size = 4
__Count$ = 8						; size = 4
?allocate@?$allocator@USkyColor@@@std@@QAEPAUSkyColor@@I@Z PROC ; std::allocator<SkyColor>::allocate, COMDAT
; _this$ = ecx
; File c:\program files (x86)\microsoft visual studio 10.0\vc\include\xmemory
; Line 186
	push	ebp
	mov	ebp, esp
; Line 187
	mov	ecx, DWORD PTR __Count$[ebp]
	sub	esp, 12					; 0000000cH
	xor	eax, eax
	test	ecx, ecx
	je	SHORT $LN1@allocate
	cmp	ecx, 268435455				; 0fffffffH
	ja	SHORT $LN3@allocate
	shl	ecx, 4
	push	ecx
	call	??2@YAPAXI@Z				; operator new
	add	esp, 4
	test	eax, eax
	jne	SHORT $LN1@allocate
$LN3@allocate:
	lea	eax, DWORD PTR $T98992[ebp]
	push	eax
	lea	ecx, DWORD PTR $T99000[ebp]
	mov	DWORD PTR $T98992[ebp], 0
	call	DWORD PTR __imp_??0exception@std@@QAE@ABQBD@Z
	push	OFFSET __TI2?AVbad_alloc@std@@
	lea	ecx, DWORD PTR $T99000[ebp]
	push	ecx
	mov	DWORD PTR $T99000[ebp], OFFSET ??_7bad_alloc@std@@6B@
	call	__CxxThrowException@8
$LN13@allocate:
$LN1@allocate:
; Line 188
	mov	esp, ebp
	pop	ebp
	ret	4
$LN12@allocate:
?allocate@?$allocator@USkyColor@@@std@@QAEPAUSkyColor@@I@Z ENDP ; std::allocator<SkyColor>::allocate
_TEXT	ENDS
PUBLIC	?allocate@?$allocator@VSky@@@std@@QAEPAVSky@@I@Z ; std::allocator<Sky>::allocate
; Function compile flags: /Ogtp
;	COMDAT ?allocate@?$allocator@VSky@@@std@@QAEPAVSky@@I@Z
_TEXT	SEGMENT
$T99023 = -12						; size = 12
$T99015 = 8						; size = 4
__Count$ = 8						; size = 4
?allocate@?$allocator@VSky@@@std@@QAEPAVSky@@I@Z PROC	; std::allocator<Sky>::allocate, COMDAT
; _this$ = ecx
; Line 186
	push	ebp
	mov	ebp, esp
; Line 187
	mov	ecx, DWORD PTR __Count$[ebp]
	sub	esp, 12					; 0000000cH
	xor	eax, eax
	test	ecx, ecx
	je	SHORT $LN1@allocate@2
	cmp	ecx, 5506368				; 00540540H
	ja	SHORT $LN3@allocate@2
	imul	ecx, 780				; 0000030cH
	push	ecx
	call	??2@YAPAXI@Z				; operator new
	add	esp, 4
	test	eax, eax
	jne	SHORT $LN1@allocate@2
$LN3@allocate@2:
	lea	eax, DWORD PTR $T99015[ebp]
	push	eax
	lea	ecx, DWORD PTR $T99023[ebp]
	mov	DWORD PTR $T99015[ebp], 0
	call	DWORD PTR __imp_??0exception@std@@QAE@ABQBD@Z
	push	OFFSET __TI2?AVbad_alloc@std@@
	lea	ecx, DWORD PTR $T99023[ebp]
	push	ecx
	mov	DWORD PTR $T99023[ebp], OFFSET ??_7bad_alloc@std@@6B@
	call	__CxxThrowException@8
$LN13@allocate@2:
$LN1@allocate@2:
; Line 188
	mov	esp, ebp
	pop	ebp
	ret	4
$LN12@allocate@2:
?allocate@?$allocator@VSky@@@std@@QAEPAVSky@@I@Z ENDP	; std::allocator<Sky>::allocate
_TEXT	ENDS
PUBLIC	?allocate@?$allocator@UOutdoorLightStats@@@std@@QAEPAUOutdoorLightStats@@I@Z ; std::allocator<OutdoorLightStats>::allocate
; Function compile flags: /Ogtp
;	COMDAT ?allocate@?$allocator@UOutdoorLightStats@@@std@@QAEPAUOutdoorLightStats@@I@Z
_TEXT	SEGMENT
$T99046 = -12						; size = 12
$T99038 = 8						; size = 4
__Count$ = 8						; size = 4
?allocate@?$allocator@UOutdoorLightStats@@@std@@QAEPAUOutdoorLightStats@@I@Z PROC ; std::allocator<OutdoorLightStats>::allocate, COMDAT
; _this$ = ecx
; Line 186
	push	ebp
	mov	ebp, esp
; Line 187
	mov	ecx, DWORD PTR __Count$[ebp]
	sub	esp, 12					; 0000000cH
	xor	eax, eax
	test	ecx, ecx
	je	SHORT $LN1@allocate@3
	cmp	ecx, 44739242				; 02aaaaaaH
	ja	SHORT $LN3@allocate@3
	lea	eax, DWORD PTR [ecx+ecx*2]
	shl	eax, 5
	push	eax
	call	??2@YAPAXI@Z				; operator new
	add	esp, 4
	test	eax, eax
	jne	SHORT $LN1@allocate@3
$LN3@allocate@3:
	lea	ecx, DWORD PTR $T99038[ebp]
	push	ecx
	lea	ecx, DWORD PTR $T99046[ebp]
	mov	DWORD PTR $T99038[ebp], 0
	call	DWORD PTR __imp_??0exception@std@@QAE@ABQBD@Z
	push	OFFSET __TI2?AVbad_alloc@std@@
	lea	edx, DWORD PTR $T99046[ebp]
	push	edx
	mov	DWORD PTR $T99046[ebp], OFFSET ??_7bad_alloc@std@@6B@
	call	__CxxThrowException@8
$LN13@allocate@3:
$LN1@allocate@3:
; Line 188
	mov	esp, ebp
	pop	ebp
	ret	4
$LN12@allocate@3:
?allocate@?$allocator@UOutdoorLightStats@@@std@@QAEPAUOutdoorLightStats@@I@Z ENDP ; std::allocator<OutdoorLightStats>::allocate
_TEXT	ENDS
PUBLIC	?allocate@?$allocator@D@std@@QAEPADI@Z		; std::allocator<char>::allocate
; Function compile flags: /Ogtp
;	COMDAT ?allocate@?$allocator@D@std@@QAEPADI@Z
_TEXT	SEGMENT
$T99069 = -12						; size = 12
$T99061 = 8						; size = 4
__Count$ = 8						; size = 4
?allocate@?$allocator@D@std@@QAEPADI@Z PROC		; std::allocator<char>::allocate, COMDAT
; _this$ = ecx
; Line 186
	push	ebp
	mov	ebp, esp
; Line 187
	mov	ecx, DWORD PTR __Count$[ebp]
	sub	esp, 12					; 0000000cH
	xor	eax, eax
	test	ecx, ecx
	je	SHORT $LN1@allocate@4
	cmp	ecx, -1
	ja	SHORT $LN3@allocate@4
	push	ecx
	call	??2@YAPAXI@Z				; operator new
	add	esp, 4
	test	eax, eax
	jne	SHORT $LN1@allocate@4
$LN3@allocate@4:
	lea	eax, DWORD PTR $T99061[ebp]
	push	eax
	lea	ecx, DWORD PTR $T99069[ebp]
	mov	DWORD PTR $T99061[ebp], 0
	call	DWORD PTR __imp_??0exception@std@@QAE@ABQBD@Z
	push	OFFSET __TI2?AVbad_alloc@std@@
	lea	ecx, DWORD PTR $T99069[ebp]
	push	ecx
	mov	DWORD PTR $T99069[ebp], OFFSET ??_7bad_alloc@std@@6B@
	call	__CxxThrowException@8
$LN13@allocate@4:
$LN1@allocate@4:
; Line 188
	mov	esp, ebp
	pop	ebp
	ret	4
$LN12@allocate@4:
?allocate@?$allocator@D@std@@QAEPADI@Z ENDP		; std::allocator<char>::allocate
_TEXT	ENDS
PUBLIC	??$_Cons_val@V?$allocator@UOutdoorLightStats@@@std@@UOutdoorLightStats@@AAU3@@std@@YAXAAV?$allocator@UOutdoorLightStats@@@0@PAUOutdoorLightStats@@AAU2@@Z ; std::_Cons_val<std::allocator<OutdoorLightStats>,OutdoorLightStats,OutdoorLightStats &>
; Function compile flags: /Ogtp
;	COMDAT ??$_Cons_val@V?$allocator@UOutdoorLightStats@@@std@@UOutdoorLightStats@@AAU3@@std@@YAXAAV?$allocator@UOutdoorLightStats@@@0@PAUOutdoorLightStats@@AAU2@@Z
_TEXT	SEGMENT
__Alval$ = 8						; size = 4
__Pdest$ = 12						; size = 4
__Src$ = 16						; size = 4
??$_Cons_val@V?$allocator@UOutdoorLightStats@@@std@@UOutdoorLightStats@@AAU3@@std@@YAXAAV?$allocator@UOutdoorLightStats@@@0@PAUOutdoorLightStats@@AAU2@@Z PROC ; std::_Cons_val<std::allocator<OutdoorLightStats>,OutdoorLightStats,OutdoorLightStats &>, COMDAT
; Line 279
	push	ebp
	mov	ebp, esp
; Line 280
	mov	ecx, DWORD PTR __Pdest$[ebp]
	test	ecx, ecx
	je	SHORT $LN7@Cons_val
	mov	eax, DWORD PTR __Src$[ebp]
	push	eax
	call	??0OutdoorLightStats@@QAE@ABU0@@Z
$LN7@Cons_val:
; Line 281
	pop	ebp
	ret	0
??$_Cons_val@V?$allocator@UOutdoorLightStats@@@std@@UOutdoorLightStats@@AAU3@@std@@YAXAAV?$allocator@UOutdoorLightStats@@@0@PAUOutdoorLightStats@@AAU2@@Z ENDP ; std::_Cons_val<std::allocator<OutdoorLightStats>,OutdoorLightStats,OutdoorLightStats &>
_TEXT	ENDS
PUBLIC	?construct@?$allocator@UOutdoorLightStats@@@std@@QAEXPAUOutdoorLightStats@@ABU3@@Z ; std::allocator<OutdoorLightStats>::construct
; Function compile flags: /Ogtp
;	COMDAT ?construct@?$allocator@UOutdoorLightStats@@@std@@QAEXPAUOutdoorLightStats@@ABU3@@Z
_TEXT	SEGMENT
__Ptr$ = 8						; size = 4
__Val$ = 12						; size = 4
?construct@?$allocator@UOutdoorLightStats@@@std@@QAEXPAUOutdoorLightStats@@ABU3@@Z PROC ; std::allocator<OutdoorLightStats>::construct, COMDAT
; _this$ = ecx
; Line 196
	push	ebp
	mov	ebp, esp
; Line 197
	mov	ecx, DWORD PTR __Ptr$[ebp]
	test	ecx, ecx
	je	SHORT $LN5@construct@2
	mov	eax, DWORD PTR __Val$[ebp]
	push	eax
	call	??0OutdoorLightStats@@QAE@ABU0@@Z
$LN5@construct@2:
; Line 198
	pop	ebp
	ret	8
?construct@?$allocator@UOutdoorLightStats@@@std@@QAEXPAUOutdoorLightStats@@ABU3@@Z ENDP ; std::allocator<OutdoorLightStats>::construct
_TEXT	ENDS
PUBLIC	??G?$_Vector_const_iterator@V?$_Vector_val@VSky@@V?$allocator@VSky@@@std@@@std@@@std@@QBEHABV01@@Z ; std::_Vector_const_iterator<std::_Vector_val<Sky,std::allocator<Sky> > >::operator-
; Function compile flags: /Ogtp
;	COMDAT ??G?$_Vector_const_iterator@V?$_Vector_val@VSky@@V?$allocator@VSky@@@std@@@std@@@std@@QBEHABV01@@Z
_TEXT	SEGMENT
__Right$ = 8						; size = 4
??G?$_Vector_const_iterator@V?$_Vector_val@VSky@@V?$allocator@VSky@@@std@@@std@@@std@@QBEHABV01@@Z PROC ; std::_Vector_const_iterator<std::_Vector_val<Sky,std::allocator<Sky> > >::operator-, COMDAT
; _this$ = ecx
; File c:\program files (x86)\microsoft visual studio 10.0\vc\include\vector
; Line 190
	push	ebp
	mov	ebp, esp
; Line 192
	mov	eax, DWORD PTR __Right$[ebp]
	mov	ecx, DWORD PTR [ecx]
	sub	ecx, DWORD PTR [eax]
	mov	eax, -1475706711			; a80a80a9H
	imul	ecx
	add	edx, ecx
	sar	edx, 9
	mov	eax, edx
	shr	eax, 31					; 0000001fH
	add	eax, edx
; Line 193
	pop	ebp
	ret	4
??G?$_Vector_const_iterator@V?$_Vector_val@VSky@@V?$allocator@VSky@@@std@@@std@@@std@@QBEHABV01@@Z ENDP ; std::_Vector_const_iterator<std::_Vector_val<Sky,std::allocator<Sky> > >::operator-
_TEXT	ENDS
PUBLIC	??$_Unchecked@V?$_Vector_val@VSky@@V?$allocator@VSky@@@std@@@std@@@std@@YAPAVSky@@V?$_Vector_iterator@V?$_Vector_val@VSky@@V?$allocator@VSky@@@std@@@std@@@0@@Z ; std::_Unchecked<std::_Vector_val<Sky,std::allocator<Sky> > >
; Function compile flags: /Ogtp
;	COMDAT ??$_Unchecked@V?$_Vector_val@VSky@@V?$allocator@VSky@@@std@@@std@@@std@@YAPAVSky@@V?$_Vector_iterator@V?$_Vector_val@VSky@@V?$allocator@VSky@@@std@@@std@@@0@@Z
_TEXT	SEGMENT
__Iter$ = 8						; size = 4
??$_Unchecked@V?$_Vector_val@VSky@@V?$allocator@VSky@@@std@@@std@@@std@@YAPAVSky@@V?$_Vector_iterator@V?$_Vector_val@VSky@@V?$allocator@VSky@@@std@@@std@@@0@@Z PROC ; std::_Unchecked<std::_Vector_val<Sky,std::allocator<Sky> > >, COMDAT
; Line 393
	push	ebp
	mov	ebp, esp
; Line 394
	mov	eax, DWORD PTR __Iter$[ebp]
; Line 395
	pop	ebp
	ret	0
??$_Unchecked@V?$_Vector_val@VSky@@V?$allocator@VSky@@@std@@@std@@@std@@YAPAVSky@@V?$_Vector_iterator@V?$_Vector_val@VSky@@V?$allocator@VSky@@@std@@@std@@@0@@Z ENDP ; std::_Unchecked<std::_Vector_val<Sky,std::allocator<Sky> > >
_TEXT	ENDS
PUBLIC	??$construct@AAUSkyColor@@@?$allocator@USkyColor@@@std@@QAEXPAUSkyColor@@AAU2@@Z ; std::allocator<SkyColor>::construct<SkyColor &>
; Function compile flags: /Ogtp
;	COMDAT ??$construct@AAUSkyColor@@@?$allocator@USkyColor@@@std@@QAEXPAUSkyColor@@AAU2@@Z
_TEXT	SEGMENT
__Ptr$ = 8						; size = 4
__Val$ = 12						; size = 4
??$construct@AAUSkyColor@@@?$allocator@USkyColor@@@std@@QAEXPAUSkyColor@@AAU2@@Z PROC ; std::allocator<SkyColor>::construct<SkyColor &>, COMDAT
; _this$ = ecx
; File c:\program files (x86)\microsoft visual studio 10.0\vc\include\xmemory
; Line 206
	push	ebp
	mov	ebp, esp
; Line 208
	mov	eax, DWORD PTR __Ptr$[ebp]
	test	eax, eax
	je	SHORT $LN3@construct@3
	mov	ecx, DWORD PTR __Val$[ebp]
	mov	edx, DWORD PTR [ecx]
	mov	DWORD PTR [eax], edx
	mov	edx, DWORD PTR [ecx+4]
	mov	DWORD PTR [eax+4], edx
	mov	edx, DWORD PTR [ecx+8]
	mov	DWORD PTR [eax+8], edx
	mov	ecx, DWORD PTR [ecx+12]
	mov	DWORD PTR [eax+12], ecx
$LN3@construct@3:
; Line 209
	pop	ebp
	ret	8
??$construct@AAUSkyColor@@@?$allocator@USkyColor@@@std@@QAEXPAUSkyColor@@AAU2@@Z ENDP ; std::allocator<SkyColor>::construct<SkyColor &>
_TEXT	ENDS
PUBLIC	??$_Construct@USkyColor@@ABU1@@std@@YAXPAUSkyColor@@ABU1@@Z ; std::_Construct<SkyColor,SkyColor const &>
; Function compile flags: /Ogtp
;	COMDAT ??$_Construct@USkyColor@@ABU1@@std@@YAXPAUSkyColor@@ABU1@@Z
_TEXT	SEGMENT
__Ptr$ = 8						; size = 4
__Val$ = 12						; size = 4
??$_Construct@USkyColor@@ABU1@@std@@YAXPAUSkyColor@@ABU1@@Z PROC ; std::_Construct<SkyColor,SkyColor const &>, COMDAT
; Line 46
	push	ebp
	mov	ebp, esp
; Line 48
	mov	eax, DWORD PTR __Ptr$[ebp]
	test	eax, eax
	je	SHORT $LN3@Construct@2
	mov	ecx, DWORD PTR __Val$[ebp]
	mov	edx, DWORD PTR [ecx]
	mov	DWORD PTR [eax], edx
	mov	edx, DWORD PTR [ecx+4]
	mov	DWORD PTR [eax+4], edx
	mov	edx, DWORD PTR [ecx+8]
	mov	DWORD PTR [eax+8], edx
	mov	ecx, DWORD PTR [ecx+12]
	mov	DWORD PTR [eax+12], ecx
$LN3@Construct@2:
; Line 49
	pop	ebp
	ret	0
??$_Construct@USkyColor@@ABU1@@std@@YAXPAUSkyColor@@ABU1@@Z ENDP ; std::_Construct<SkyColor,SkyColor const &>
_TEXT	ENDS
PUBLIC	?begin@?$vector@USkyColor@@V?$allocator@USkyColor@@@std@@@std@@QBE?AV?$_Vector_const_iterator@V?$_Vector_val@USkyColor@@V?$allocator@USkyColor@@@std@@@std@@@2@XZ ; std::vector<SkyColor,std::allocator<SkyColor> >::begin
; Function compile flags: /Ogtp
;	COMDAT ?begin@?$vector@USkyColor@@V?$allocator@USkyColor@@@std@@@std@@QBE?AV?$_Vector_const_iterator@V?$_Vector_val@USkyColor@@V?$allocator@USkyColor@@@std@@@std@@@2@XZ
_TEXT	SEGMENT
___$ReturnUdt$ = 8					; size = 4
?begin@?$vector@USkyColor@@V?$allocator@USkyColor@@@std@@@std@@QBE?AV?$_Vector_const_iterator@V?$_Vector_val@USkyColor@@V?$allocator@USkyColor@@@std@@@std@@@2@XZ PROC ; std::vector<SkyColor,std::allocator<SkyColor> >::begin, COMDAT
; _this$ = ecx
; File c:\program files (x86)\microsoft visual studio 10.0\vc\include\vector
; Line 786
	push	ebp
	mov	ebp, esp
; Line 787
	mov	ecx, DWORD PTR [ecx]
	mov	eax, DWORD PTR ___$ReturnUdt$[ebp]
	mov	DWORD PTR [eax], ecx
; Line 788
	pop	ebp
	ret	4
?begin@?$vector@USkyColor@@V?$allocator@USkyColor@@@std@@@std@@QBE?AV?$_Vector_const_iterator@V?$_Vector_val@USkyColor@@V?$allocator@USkyColor@@@std@@@std@@@2@XZ ENDP ; std::vector<SkyColor,std::allocator<SkyColor> >::begin
_TEXT	ENDS
PUBLIC	?end@?$vector@USkyColor@@V?$allocator@USkyColor@@@std@@@std@@QBE?AV?$_Vector_const_iterator@V?$_Vector_val@USkyColor@@V?$allocator@USkyColor@@@std@@@std@@@2@XZ ; std::vector<SkyColor,std::allocator<SkyColor> >::end
; Function compile flags: /Ogtp
;	COMDAT ?end@?$vector@USkyColor@@V?$allocator@USkyColor@@@std@@@std@@QBE?AV?$_Vector_const_iterator@V?$_Vector_val@USkyColor@@V?$allocator@USkyColor@@@std@@@std@@@2@XZ
_TEXT	SEGMENT
___$ReturnUdt$ = 8					; size = 4
?end@?$vector@USkyColor@@V?$allocator@USkyColor@@@std@@@std@@QBE?AV?$_Vector_const_iterator@V?$_Vector_val@USkyColor@@V?$allocator@USkyColor@@@std@@@std@@@2@XZ PROC ; std::vector<SkyColor,std::allocator<SkyColor> >::end, COMDAT
; _this$ = ecx
; Line 796
	push	ebp
	mov	ebp, esp
; Line 797
	mov	ecx, DWORD PTR [ecx+4]
	mov	eax, DWORD PTR ___$ReturnUdt$[ebp]
	mov	DWORD PTR [eax], ecx
; Line 798
	pop	ebp
	ret	4
?end@?$vector@USkyColor@@V?$allocator@USkyColor@@@std@@@std@@QBE?AV?$_Vector_const_iterator@V?$_Vector_val@USkyColor@@V?$allocator@USkyColor@@@std@@@std@@@2@XZ ENDP ; std::vector<SkyColor,std::allocator<SkyColor> >::end
_TEXT	ENDS
PUBLIC	?_Buy@?$vector@USkyColor@@V?$allocator@USkyColor@@@std@@@std@@IAE_NI@Z ; std::vector<SkyColor,std::allocator<SkyColor> >::_Buy
; Function compile flags: /Ogtp
;	COMDAT ?_Buy@?$vector@USkyColor@@V?$allocator@USkyColor@@@std@@@std@@IAE_NI@Z
_TEXT	SEGMENT
__Capacity$ = 8						; size = 4
?_Buy@?$vector@USkyColor@@V?$allocator@USkyColor@@@std@@@std@@IAE_NI@Z PROC ; std::vector<SkyColor,std::allocator<SkyColor> >::_Buy, COMDAT
; _this$ = ecx
; Line 1250
	push	ebp
	mov	ebp, esp
	push	esi
; Line 1251
	xor	eax, eax
	push	edi
; Line 1255
	mov	edi, DWORD PTR __Capacity$[ebp]
	mov	esi, ecx
	mov	DWORD PTR [esi], eax
	mov	DWORD PTR [esi+4], eax
	mov	DWORD PTR [esi+8], eax
	cmp	edi, eax
	jne	SHORT $LN4@Buy
; Line 1256
	pop	edi
	xor	al, al
	pop	esi
; Line 1266
	pop	ebp
	ret	4
$LN4@Buy:
; Line 1257
	cmp	edi, 268435455				; 0fffffffH
	jbe	SHORT $LN2@Buy
; Line 1258
	push	OFFSET ??_C@_0BD@OLBABOEK@vector?$DMT?$DO?5too?5long?$AA@
	call	DWORD PTR __imp_?_Xlength_error@std@@YAXPBD@Z
$LN17@Buy:
$LN2@Buy:
; Line 1261
	push	edi
	lea	ecx, DWORD PTR [esi+12]
	call	?allocate@?$allocator@USkyColor@@@std@@QAEPAUSkyColor@@I@Z ; std::allocator<SkyColor>::allocate
; Line 1263
	shl	edi, 4
	add	edi, eax
	mov	DWORD PTR [esi+8], edi
	mov	DWORD PTR [esi], eax
	mov	DWORD PTR [esi+4], eax
	pop	edi
; Line 1265
	mov	al, 1
	pop	esi
; Line 1266
	pop	ebp
	ret	4
$LN16@Buy:
?_Buy@?$vector@USkyColor@@V?$allocator@USkyColor@@@std@@@std@@IAE_NI@Z ENDP ; std::vector<SkyColor,std::allocator<SkyColor> >::_Buy
_TEXT	ENDS
PUBLIC	?destroy@?$allocator@USkyColor@@@std@@QAEXPAUSkyColor@@@Z ; std::allocator<SkyColor>::destroy
; Function compile flags: /Ogtp
;	COMDAT ?destroy@?$allocator@USkyColor@@@std@@QAEXPAUSkyColor@@@Z
_TEXT	SEGMENT
__Ptr$ = 8						; size = 4
?destroy@?$allocator@USkyColor@@@std@@QAEXPAUSkyColor@@@Z PROC ; std::allocator<SkyColor>::destroy, COMDAT
; _this$ = ecx
; File c:\program files (x86)\microsoft visual studio 10.0\vc\include\xmemory
; Line 214
	ret	4
?destroy@?$allocator@USkyColor@@@std@@QAEXPAUSkyColor@@@Z ENDP ; std::allocator<SkyColor>::destroy
_TEXT	ENDS
PUBLIC	?destroy@?$allocator@UOutdoorLightStats@@@std@@QAEXPAUOutdoorLightStats@@@Z ; std::allocator<OutdoorLightStats>::destroy
; Function compile flags: /Ogtp
;	COMDAT ?destroy@?$allocator@UOutdoorLightStats@@@std@@QAEXPAUOutdoorLightStats@@@Z
_TEXT	SEGMENT
__Ptr$ = 8						; size = 4
?destroy@?$allocator@UOutdoorLightStats@@@std@@QAEXPAUOutdoorLightStats@@@Z PROC ; std::allocator<OutdoorLightStats>::destroy, COMDAT
; _this$ = ecx
; Line 214
	ret	4
?destroy@?$allocator@UOutdoorLightStats@@@std@@QAEXPAUOutdoorLightStats@@@Z ENDP ; std::allocator<OutdoorLightStats>::destroy
_TEXT	ENDS
PUBLIC	??$?0AAPAVSky@@AAPAV0@@?$pair@PAVSky@@PAV1@@std@@QAE@AAPAVSky@@0@Z ; std::pair<Sky *,Sky *>::pair<Sky *,Sky *><Sky * &,Sky * &>
; Function compile flags: /Ogtp
;	COMDAT ??$?0AAPAVSky@@AAPAV0@@?$pair@PAVSky@@PAV1@@std@@QAE@AAPAVSky@@0@Z
_TEXT	SEGMENT
__Val1$ = 8						; size = 4
__Val2$ = 12						; size = 4
??$?0AAPAVSky@@AAPAV0@@?$pair@PAVSky@@PAV1@@std@@QAE@AAPAVSky@@0@Z PROC ; std::pair<Sky *,Sky *>::pair<Sky *,Sky *><Sky * &,Sky * &>, COMDAT
; _this$ = ecx
; File c:\program files (x86)\microsoft visual studio 10.0\vc\include\utility
; Line 247
	push	ebp
	mov	ebp, esp
	mov	eax, ecx
	mov	ecx, DWORD PTR __Val1$[ebp]
	mov	edx, DWORD PTR [ecx]
	mov	ecx, DWORD PTR __Val2$[ebp]
	mov	DWORD PTR [eax], edx
	mov	edx, DWORD PTR [ecx]
	mov	DWORD PTR [eax+4], edx
; Line 248
	pop	ebp
	ret	8
??$?0AAPAVSky@@AAPAV0@@?$pair@PAVSky@@PAV1@@std@@QAE@AAPAVSky@@0@Z ENDP ; std::pair<Sky *,Sky *>::pair<Sky *,Sky *><Sky * &,Sky * &>
_TEXT	ENDS
PUBLIC	?construct@?$allocator@USkyColor@@@std@@QAEXPAUSkyColor@@$$QAU3@@Z ; std::allocator<SkyColor>::construct
; Function compile flags: /Ogtp
;	COMDAT ?construct@?$allocator@USkyColor@@@std@@QAEXPAUSkyColor@@$$QAU3@@Z
_TEXT	SEGMENT
__Ptr$ = 8						; size = 4
__Val$ = 12						; size = 4
?construct@?$allocator@USkyColor@@@std@@QAEXPAUSkyColor@@$$QAU3@@Z PROC ; std::allocator<SkyColor>::construct, COMDAT
; _this$ = ecx
; File c:\program files (x86)\microsoft visual studio 10.0\vc\include\xmemory
; Line 201
	push	ebp
	mov	ebp, esp
; Line 202
	mov	eax, DWORD PTR __Ptr$[ebp]
	test	eax, eax
	je	SHORT $LN3@construct@4
	mov	ecx, DWORD PTR __Val$[ebp]
	mov	edx, DWORD PTR [ecx]
	mov	DWORD PTR [eax], edx
	mov	edx, DWORD PTR [ecx+4]
	mov	DWORD PTR [eax+4], edx
	mov	edx, DWORD PTR [ecx+8]
	mov	DWORD PTR [eax+8], edx
	mov	ecx, DWORD PTR [ecx+12]
	mov	DWORD PTR [eax+12], ecx
$LN3@construct@4:
; Line 203
	pop	ebp
	ret	8
?construct@?$allocator@USkyColor@@@std@@QAEXPAUSkyColor@@$$QAU3@@Z ENDP ; std::allocator<SkyColor>::construct
_TEXT	ENDS
PUBLIC	?construct@?$allocator@UOutdoorLightStats@@@std@@QAEXPAUOutdoorLightStats@@$$QAU3@@Z ; std::allocator<OutdoorLightStats>::construct
; Function compile flags: /Ogtp
;	COMDAT ?construct@?$allocator@UOutdoorLightStats@@@std@@QAEXPAUOutdoorLightStats@@$$QAU3@@Z
_TEXT	SEGMENT
__Ptr$ = 8						; size = 4
__Val$ = 12						; size = 4
?construct@?$allocator@UOutdoorLightStats@@@std@@QAEXPAUOutdoorLightStats@@$$QAU3@@Z PROC ; std::allocator<OutdoorLightStats>::construct, COMDAT
; _this$ = ecx
; Line 201
	push	ebp
	mov	ebp, esp
; Line 202
	mov	ecx, DWORD PTR __Ptr$[ebp]
	test	ecx, ecx
	je	SHORT $LN3@construct@5
	mov	eax, DWORD PTR __Val$[ebp]
	push	eax
	call	??0OutdoorLightStats@@QAE@ABU0@@Z
$LN3@construct@5:
; Line 203
	pop	ebp
	ret	8
?construct@?$allocator@UOutdoorLightStats@@@std@@QAEXPAUOutdoorLightStats@@$$QAU3@@Z ENDP ; std::allocator<OutdoorLightStats>::construct
_TEXT	ENDS
PUBLIC	?begin@?$vector@USkyColor@@V?$allocator@USkyColor@@@std@@@std@@QAE?AV?$_Vector_iterator@V?$_Vector_val@USkyColor@@V?$allocator@USkyColor@@@std@@@std@@@2@XZ ; std::vector<SkyColor,std::allocator<SkyColor> >::begin
; Function compile flags: /Ogtp
;	COMDAT ?begin@?$vector@USkyColor@@V?$allocator@USkyColor@@@std@@@std@@QAE?AV?$_Vector_iterator@V?$_Vector_val@USkyColor@@V?$allocator@USkyColor@@@std@@@std@@@2@XZ
_TEXT	SEGMENT
___$ReturnUdt$ = 8					; size = 4
?begin@?$vector@USkyColor@@V?$allocator@USkyColor@@@std@@@std@@QAE?AV?$_Vector_iterator@V?$_Vector_val@USkyColor@@V?$allocator@USkyColor@@@std@@@std@@@2@XZ PROC ; std::vector<SkyColor,std::allocator<SkyColor> >::begin, COMDAT
; _this$ = ecx
; File c:\program files (x86)\microsoft visual studio 10.0\vc\include\vector
; Line 781
	push	ebp
	mov	ebp, esp
; Line 782
	mov	ecx, DWORD PTR [ecx]
	mov	eax, DWORD PTR ___$ReturnUdt$[ebp]
	mov	DWORD PTR [eax], ecx
; Line 783
	pop	ebp
	ret	4
?begin@?$vector@USkyColor@@V?$allocator@USkyColor@@@std@@@std@@QAE?AV?$_Vector_iterator@V?$_Vector_val@USkyColor@@V?$allocator@USkyColor@@@std@@@std@@@2@XZ ENDP ; std::vector<SkyColor,std::allocator<SkyColor> >::begin
_TEXT	ENDS
PUBLIC	?end@?$vector@USkyColor@@V?$allocator@USkyColor@@@std@@@std@@QAE?AV?$_Vector_iterator@V?$_Vector_val@USkyColor@@V?$allocator@USkyColor@@@std@@@std@@@2@XZ ; std::vector<SkyColor,std::allocator<SkyColor> >::end
; Function compile flags: /Ogtp
;	COMDAT ?end@?$vector@USkyColor@@V?$allocator@USkyColor@@@std@@@std@@QAE?AV?$_Vector_iterator@V?$_Vector_val@USkyColor@@V?$allocator@USkyColor@@@std@@@std@@@2@XZ
_TEXT	SEGMENT
___$ReturnUdt$ = 8					; size = 4
?end@?$vector@USkyColor@@V?$allocator@USkyColor@@@std@@@std@@QAE?AV?$_Vector_iterator@V?$_Vector_val@USkyColor@@V?$allocator@USkyColor@@@std@@@std@@@2@XZ PROC ; std::vector<SkyColor,std::allocator<SkyColor> >::end, COMDAT
; _this$ = ecx
; Line 791
	push	ebp
	mov	ebp, esp
; Line 792
	mov	ecx, DWORD PTR [ecx+4]
	mov	eax, DWORD PTR ___$ReturnUdt$[ebp]
	mov	DWORD PTR [eax], ecx
; Line 793
	pop	ebp
	ret	4
?end@?$vector@USkyColor@@V?$allocator@USkyColor@@@std@@@std@@QAE?AV?$_Vector_iterator@V?$_Vector_val@USkyColor@@V?$allocator@USkyColor@@@std@@@std@@@2@XZ ENDP ; std::vector<SkyColor,std::allocator<SkyColor> >::end
_TEXT	ENDS
PUBLIC	?_Make_iter@?$vector@USkyColor@@V?$allocator@USkyColor@@@std@@@std@@QBE?AV?$_Vector_iterator@V?$_Vector_val@USkyColor@@V?$allocator@USkyColor@@@std@@@std@@@2@V?$_Vector_const_iterator@V?$_Vector_val@USkyColor@@V?$allocator@USkyColor@@@std@@@std@@@2@@Z ; std::vector<SkyColor,std::allocator<SkyColor> >::_Make_iter
; Function compile flags: /Ogtp
;	COMDAT ?_Make_iter@?$vector@USkyColor@@V?$allocator@USkyColor@@@std@@@std@@QBE?AV?$_Vector_iterator@V?$_Vector_val@USkyColor@@V?$allocator@USkyColor@@@std@@@std@@@2@V?$_Vector_const_iterator@V?$_Vector_val@USkyColor@@V?$allocator@USkyColor@@@std@@@std@@@2@@Z
_TEXT	SEGMENT
___$ReturnUdt$ = 8					; size = 4
__Where$ = 12						; size = 4
?_Make_iter@?$vector@USkyColor@@V?$allocator@USkyColor@@@std@@@std@@QBE?AV?$_Vector_iterator@V?$_Vector_val@USkyColor@@V?$allocator@USkyColor@@@std@@@std@@@2@V?$_Vector_const_iterator@V?$_Vector_val@USkyColor@@V?$allocator@USkyColor@@@std@@@std@@@2@@Z PROC ; std::vector<SkyColor,std::allocator<SkyColor> >::_Make_iter, COMDAT
; _this$ = ecx
; Line 801
	push	ebp
	mov	ebp, esp
; Line 802
	mov	eax, DWORD PTR ___$ReturnUdt$[ebp]
	mov	ecx, DWORD PTR __Where$[ebp]
	mov	DWORD PTR [eax], ecx
; Line 803
	pop	ebp
	ret	8
?_Make_iter@?$vector@USkyColor@@V?$allocator@USkyColor@@@std@@@std@@QBE?AV?$_Vector_iterator@V?$_Vector_val@USkyColor@@V?$allocator@USkyColor@@@std@@@std@@@2@V?$_Vector_const_iterator@V?$_Vector_val@USkyColor@@V?$allocator@USkyColor@@@std@@@std@@@2@@Z ENDP ; std::vector<SkyColor,std::allocator<SkyColor> >::_Make_iter
_TEXT	ENDS
PUBLIC	??8?$_Vector_const_iterator@V?$_Vector_val@USkyColor@@V?$allocator@USkyColor@@@std@@@std@@@std@@QBE_NABV01@@Z ; std::_Vector_const_iterator<std::_Vector_val<SkyColor,std::allocator<SkyColor> > >::operator==
; Function compile flags: /Ogtp
;	COMDAT ??8?$_Vector_const_iterator@V?$_Vector_val@USkyColor@@V?$allocator@USkyColor@@@std@@@std@@@std@@QBE_NABV01@@Z
_TEXT	SEGMENT
__Right$ = 8						; size = 4
??8?$_Vector_const_iterator@V?$_Vector_val@USkyColor@@V?$allocator@USkyColor@@@std@@@std@@@std@@QBE_NABV01@@Z PROC ; std::_Vector_const_iterator<std::_Vector_val<SkyColor,std::allocator<SkyColor> > >::operator==, COMDAT
; _this$ = ecx
; Line 201
	push	ebp
	mov	ebp, esp
; Line 203
	mov	eax, DWORD PTR [ecx]
	mov	edx, DWORD PTR __Right$[ebp]
	xor	ecx, ecx
	cmp	eax, DWORD PTR [edx]
	sete	al
; Line 204
	pop	ebp
	ret	4
??8?$_Vector_const_iterator@V?$_Vector_val@USkyColor@@V?$allocator@USkyColor@@@std@@@std@@@std@@QBE_NABV01@@Z ENDP ; std::_Vector_const_iterator<std::_Vector_val<SkyColor,std::allocator<SkyColor> > >::operator==
_TEXT	ENDS
PUBLIC	??$_Copy_impl@PAUSkyColor@@PAU1@@std@@YAPAUSkyColor@@PAU1@00U_Nonscalar_ptr_iterator_tag@0@@Z ; std::_Copy_impl<SkyColor *,SkyColor *>
; Function compile flags: /Ogtp
;	COMDAT ??$_Copy_impl@PAUSkyColor@@PAU1@@std@@YAPAUSkyColor@@PAU1@00U_Nonscalar_ptr_iterator_tag@0@@Z
_TEXT	SEGMENT
__First$ = 8						; size = 4
__Last$ = 12						; size = 4
__Dest$ = 16						; size = 4
___formal$ = 20						; size = 1
??$_Copy_impl@PAUSkyColor@@PAU1@@std@@YAPAUSkyColor@@PAU1@00U_Nonscalar_ptr_iterator_tag@0@@Z PROC ; std::_Copy_impl<SkyColor *,SkyColor *>, COMDAT
; File c:\program files (x86)\microsoft visual studio 10.0\vc\include\xutility
; Line 2154
	push	ebp
	mov	ebp, esp
; Line 2155
	mov	eax, DWORD PTR __First$[ebp]
	mov	edx, DWORD PTR __Last$[ebp]
	cmp	eax, edx
	je	SHORT $LN12@Copy_impl
	lea	ecx, DWORD PTR [eax+8]
	mov	eax, DWORD PTR __Dest$[ebp]
	push	esi
$LL3@Copy_impl:
; Line 2156
	mov	esi, DWORD PTR [ecx-8]
	mov	DWORD PTR [eax], esi
	mov	esi, DWORD PTR [ecx-4]
	mov	DWORD PTR [eax+4], esi
	mov	esi, DWORD PTR [ecx]
	mov	DWORD PTR [eax+8], esi
	mov	esi, DWORD PTR [ecx+4]
	add	ecx, 16					; 00000010H
	mov	DWORD PTR [eax+12], esi
	lea	esi, DWORD PTR [ecx-8]
	add	eax, 16					; 00000010H
	cmp	esi, edx
	jne	SHORT $LL3@Copy_impl
	pop	esi
; Line 2158
	pop	ebp
	ret	0
$LN12@Copy_impl:
; Line 2157
	mov	eax, DWORD PTR __Dest$[ebp]
; Line 2158
	pop	ebp
	ret	0
??$_Copy_impl@PAUSkyColor@@PAU1@@std@@YAPAUSkyColor@@PAU1@00U_Nonscalar_ptr_iterator_tag@0@@Z ENDP ; std::_Copy_impl<SkyColor *,SkyColor *>
_TEXT	ENDS
PUBLIC	??$_Move@PAUSkyColor@@PAU1@@std@@YAPAUSkyColor@@PAU1@00U_Nonscalar_ptr_iterator_tag@0@@Z ; std::_Move<SkyColor *,SkyColor *>
; Function compile flags: /Ogtp
;	COMDAT ??$_Move@PAUSkyColor@@PAU1@@std@@YAPAUSkyColor@@PAU1@00U_Nonscalar_ptr_iterator_tag@0@@Z
_TEXT	SEGMENT
__First$ = 8						; size = 4
__Last$ = 12						; size = 4
__Dest$ = 16						; size = 4
___formal$ = 20						; size = 1
??$_Move@PAUSkyColor@@PAU1@@std@@YAPAUSkyColor@@PAU1@00U_Nonscalar_ptr_iterator_tag@0@@Z PROC ; std::_Move<SkyColor *,SkyColor *>, COMDAT
; Line 2524
	push	ebp
	mov	ebp, esp
; Line 2525
	mov	eax, DWORD PTR __First$[ebp]
	mov	edx, DWORD PTR __Last$[ebp]
	cmp	eax, edx
	je	SHORT $LN14@Move
	lea	ecx, DWORD PTR [eax+8]
	mov	eax, DWORD PTR __Dest$[ebp]
	push	esi
$LL3@Move:
; Line 2526
	mov	esi, DWORD PTR [ecx-8]
	mov	DWORD PTR [eax], esi
	mov	esi, DWORD PTR [ecx-4]
	mov	DWORD PTR [eax+4], esi
	mov	esi, DWORD PTR [ecx]
	mov	DWORD PTR [eax+8], esi
	mov	esi, DWORD PTR [ecx+4]
	add	ecx, 16					; 00000010H
	mov	DWORD PTR [eax+12], esi
	lea	esi, DWORD PTR [ecx-8]
	add	eax, 16					; 00000010H
	cmp	esi, edx
	jne	SHORT $LL3@Move
	pop	esi
; Line 2528
	pop	ebp
	ret	0
$LN14@Move:
; Line 2527
	mov	eax, DWORD PTR __Dest$[ebp]
; Line 2528
	pop	ebp
	ret	0
??$_Move@PAUSkyColor@@PAU1@@std@@YAPAUSkyColor@@PAU1@00U_Nonscalar_ptr_iterator_tag@0@@Z ENDP ; std::_Move<SkyColor *,SkyColor *>
_TEXT	ENDS
PUBLIC	??0?$vector@USkyColor@@V?$allocator@USkyColor@@@std@@@std@@QAE@XZ ; std::vector<SkyColor,std::allocator<SkyColor> >::vector<SkyColor,std::allocator<SkyColor> >
; Function compile flags: /Ogtp
;	COMDAT ??0?$vector@USkyColor@@V?$allocator@USkyColor@@@std@@@std@@QAE@XZ
_TEXT	SEGMENT
??0?$vector@USkyColor@@V?$allocator@USkyColor@@@std@@@std@@QAE@XZ PROC ; std::vector<SkyColor,std::allocator<SkyColor> >::vector<SkyColor,std::allocator<SkyColor> >, COMDAT
; _this$ = ecx
; File c:\program files (x86)\microsoft visual studio 10.0\vc\include\vector
; Line 507
	mov	eax, ecx
	xor	ecx, ecx
	mov	DWORD PTR [eax], ecx
	mov	DWORD PTR [eax+4], ecx
	mov	DWORD PTR [eax+8], ecx
; Line 508
	ret	0
??0?$vector@USkyColor@@V?$allocator@USkyColor@@@std@@@std@@QAE@XZ ENDP ; std::vector<SkyColor,std::allocator<SkyColor> >::vector<SkyColor,std::allocator<SkyColor> >
_TEXT	ENDS
PUBLIC	??0?$vector@VSky@@V?$allocator@VSky@@@std@@@std@@QAE@XZ ; std::vector<Sky,std::allocator<Sky> >::vector<Sky,std::allocator<Sky> >
; Function compile flags: /Ogtp
;	COMDAT ??0?$vector@VSky@@V?$allocator@VSky@@@std@@@std@@QAE@XZ
_TEXT	SEGMENT
??0?$vector@VSky@@V?$allocator@VSky@@@std@@@std@@QAE@XZ PROC ; std::vector<Sky,std::allocator<Sky> >::vector<Sky,std::allocator<Sky> >, COMDAT
; _this$ = ecx
; Line 507
	mov	eax, ecx
	xor	ecx, ecx
	mov	DWORD PTR [eax], ecx
	mov	DWORD PTR [eax+4], ecx
	mov	DWORD PTR [eax+8], ecx
; Line 508
	ret	0
??0?$vector@VSky@@V?$allocator@VSky@@@std@@@std@@QAE@XZ ENDP ; std::vector<Sky,std::allocator<Sky> >::vector<Sky,std::allocator<Sky> >
_TEXT	ENDS
PUBLIC	?begin@?$vector@VSky@@V?$allocator@VSky@@@std@@@std@@QAE?AV?$_Vector_iterator@V?$_Vector_val@VSky@@V?$allocator@VSky@@@std@@@std@@@2@XZ ; std::vector<Sky,std::allocator<Sky> >::begin
; Function compile flags: /Ogtp
;	COMDAT ?begin@?$vector@VSky@@V?$allocator@VSky@@@std@@@std@@QAE?AV?$_Vector_iterator@V?$_Vector_val@VSky@@V?$allocator@VSky@@@std@@@std@@@2@XZ
_TEXT	SEGMENT
___$ReturnUdt$ = 8					; size = 4
?begin@?$vector@VSky@@V?$allocator@VSky@@@std@@@std@@QAE?AV?$_Vector_iterator@V?$_Vector_val@VSky@@V?$allocator@VSky@@@std@@@std@@@2@XZ PROC ; std::vector<Sky,std::allocator<Sky> >::begin, COMDAT
; _this$ = ecx
; Line 781
	push	ebp
	mov	ebp, esp
; Line 782
	mov	ecx, DWORD PTR [ecx]
	mov	eax, DWORD PTR ___$ReturnUdt$[ebp]
	mov	DWORD PTR [eax], ecx
; Line 783
	pop	ebp
	ret	4
?begin@?$vector@VSky@@V?$allocator@VSky@@@std@@@std@@QAE?AV?$_Vector_iterator@V?$_Vector_val@VSky@@V?$allocator@VSky@@@std@@@std@@@2@XZ ENDP ; std::vector<Sky,std::allocator<Sky> >::begin
_TEXT	ENDS
PUBLIC	?end@?$vector@VSky@@V?$allocator@VSky@@@std@@@std@@QAE?AV?$_Vector_iterator@V?$_Vector_val@VSky@@V?$allocator@VSky@@@std@@@std@@@2@XZ ; std::vector<Sky,std::allocator<Sky> >::end
; Function compile flags: /Ogtp
;	COMDAT ?end@?$vector@VSky@@V?$allocator@VSky@@@std@@@std@@QAE?AV?$_Vector_iterator@V?$_Vector_val@VSky@@V?$allocator@VSky@@@std@@@std@@@2@XZ
_TEXT	SEGMENT
___$ReturnUdt$ = 8					; size = 4
?end@?$vector@VSky@@V?$allocator@VSky@@@std@@@std@@QAE?AV?$_Vector_iterator@V?$_Vector_val@VSky@@V?$allocator@VSky@@@std@@@std@@@2@XZ PROC ; std::vector<Sky,std::allocator<Sky> >::end, COMDAT
; _this$ = ecx
; Line 791
	push	ebp
	mov	ebp, esp
; Line 792
	mov	ecx, DWORD PTR [ecx+4]
	mov	eax, DWORD PTR ___$ReturnUdt$[ebp]
	mov	DWORD PTR [eax], ecx
; Line 793
	pop	ebp
	ret	4
?end@?$vector@VSky@@V?$allocator@VSky@@@std@@@std@@QAE?AV?$_Vector_iterator@V?$_Vector_val@VSky@@V?$allocator@VSky@@@std@@@std@@@2@XZ ENDP ; std::vector<Sky,std::allocator<Sky> >::end
_TEXT	ENDS
PUBLIC	??0?$vector@UOutdoorLightStats@@V?$allocator@UOutdoorLightStats@@@std@@@std@@QAE@XZ ; std::vector<OutdoorLightStats,std::allocator<OutdoorLightStats> >::vector<OutdoorLightStats,std::allocator<OutdoorLightStats> >
; Function compile flags: /Ogtp
;	COMDAT ??0?$vector@UOutdoorLightStats@@V?$allocator@UOutdoorLightStats@@@std@@@std@@QAE@XZ
_TEXT	SEGMENT
??0?$vector@UOutdoorLightStats@@V?$allocator@UOutdoorLightStats@@@std@@@std@@QAE@XZ PROC ; std::vector<OutdoorLightStats,std::allocator<OutdoorLightStats> >::vector<OutdoorLightStats,std::allocator<OutdoorLightStats> >, COMDAT
; _this$ = ecx
; Line 507
	mov	eax, ecx
	xor	ecx, ecx
	mov	DWORD PTR [eax], ecx
	mov	DWORD PTR [eax+4], ecx
	mov	DWORD PTR [eax+8], ecx
; Line 508
	ret	0
??0?$vector@UOutdoorLightStats@@V?$allocator@UOutdoorLightStats@@@std@@@std@@QAE@XZ ENDP ; std::vector<OutdoorLightStats,std::allocator<OutdoorLightStats> >::vector<OutdoorLightStats,std::allocator<OutdoorLightStats> >
_TEXT	ENDS
PUBLIC	?_Tidy@?$basic_string@DU?$char_traits@D@std@@V?$allocator@D@2@@std@@QAEX_NI@Z ; std::basic_string<char,std::char_traits<char>,std::allocator<char> >::_Tidy
; Function compile flags: /Ogtp
;	COMDAT ?_Tidy@?$basic_string@DU?$char_traits@D@std@@V?$allocator@D@2@@std@@QAEX_NI@Z
_TEXT	SEGMENT
__Built$ = 8						; size = 1
__Newsize$ = 12						; size = 4
?_Tidy@?$basic_string@DU?$char_traits@D@std@@V?$allocator@D@2@@std@@QAEX_NI@Z PROC ; std::basic_string<char,std::char_traits<char>,std::allocator<char> >::_Tidy, COMDAT
; _this$ = ecx
; File c:\program files (x86)\microsoft visual studio 10.0\vc\include\xstring
; Line 1987
	push	ebp
	mov	ebp, esp
; Line 1988
	cmp	BYTE PTR __Built$[ebp], 0
	push	esi
	push	edi
	mov	edi, DWORD PTR __Newsize$[ebp]
	mov	esi, ecx
	je	SHORT $LN9@Tidy
; Line 1990
	cmp	DWORD PTR [esi+20], 16			; 00000010H
	jb	SHORT $LN9@Tidy
; Line 1992
	push	ebx
	mov	ebx, DWORD PTR [esi]
; Line 1993
	test	edi, edi
	je	SHORT $LN7@Tidy
; Line 1994
	push	edi
	push	ebx
	push	esi
	call	_memcpy
	add	esp, 12					; 0000000cH
$LN7@Tidy:
; Line 1995
	push	ebx
	call	??3@YAXPAX@Z				; operator delete
	add	esp, 4
	pop	ebx
$LN9@Tidy:
; Line 1998
	mov	DWORD PTR [esi+16], edi
	mov	DWORD PTR [esi+20], 15			; 0000000fH
	mov	BYTE PTR [edi+esi], 0
	pop	edi
	pop	esi
; Line 1999
	pop	ebp
	ret	8
?_Tidy@?$basic_string@DU?$char_traits@D@std@@V?$allocator@D@2@@std@@QAEX_NI@Z ENDP ; std::basic_string<char,std::char_traits<char>,std::allocator<char> >::_Tidy
_TEXT	ENDS
PUBLIC	?erase@?$basic_string@DU?$char_traits@D@std@@V?$allocator@D@2@@std@@QAEAAV12@II@Z ; std::basic_string<char,std::char_traits<char>,std::allocator<char> >::erase
; Function compile flags: /Ogtp
;	COMDAT ?erase@?$basic_string@DU?$char_traits@D@std@@V?$allocator@D@2@@std@@QAEAAV12@II@Z
_TEXT	SEGMENT
__Off$ = 8						; size = 4
__Count$ = 12						; size = 4
?erase@?$basic_string@DU?$char_traits@D@std@@V?$allocator@D@2@@std@@QAEAAV12@II@Z PROC ; std::basic_string<char,std::char_traits<char>,std::allocator<char> >::erase, COMDAT
; _this$ = ecx
; Line 1108
	push	ebp
	mov	ebp, esp
	push	esi
	mov	esi, ecx
; Line 1109
	mov	eax, DWORD PTR [esi+16]
	mov	ecx, DWORD PTR __Off$[ebp]
	push	edi
	cmp	eax, ecx
	jae	SHORT $LN3@erase
; Line 1110
	push	OFFSET ??_C@_0BI@CFPLBAOH@invalid?5string?5position?$AA@
	call	DWORD PTR __imp_?_Xout_of_range@std@@YAXPBD@Z
$LN28@erase:
$LN3@erase:
; Line 1111
	mov	edi, DWORD PTR __Count$[ebp]
	sub	eax, ecx
	cmp	eax, edi
	jae	SHORT $LN2@erase
; Line 1112
	mov	edi, eax
$LN2@erase:
; Line 1113
	test	edi, edi
	je	SHORT $LN25@erase
; Line 1116
	mov	edx, DWORD PTR [esi+20]
	push	ebx
	cmp	edx, 16					; 00000010H
	jb	SHORT $LN11@erase
	mov	ebx, DWORD PTR [esi]
	jmp	SHORT $LN12@erase
$LN11@erase:
	mov	ebx, esi
$LN12@erase:
	cmp	edx, 16					; 00000010H
	jb	SHORT $LN15@erase
	mov	edx, DWORD PTR [esi]
	jmp	SHORT $LN16@erase
$LN15@erase:
	mov	edx, esi
$LN16@erase:
	sub	eax, edi
	add	ebx, ecx
	push	eax
	add	ebx, edi
	add	edx, ecx
	push	ebx
	push	edx
	call	DWORD PTR __imp__memmove
; Line 1117
	mov	eax, DWORD PTR [esi+16]
	add	esp, 12					; 0000000cH
	sub	eax, edi
; Line 1118
	cmp	DWORD PTR [esi+20], 16			; 00000010H
	mov	DWORD PTR [esi+16], eax
	pop	ebx
	jb	SHORT $LN23@erase
	mov	ecx, DWORD PTR [esi]
	mov	BYTE PTR [ecx+eax], 0
	pop	edi
; Line 1120
	mov	eax, esi
	pop	esi
; Line 1121
	pop	ebp
	ret	8
; Line 1118
$LN23@erase:
	mov	ecx, esi
	mov	BYTE PTR [ecx+eax], 0
$LN25@erase:
; Line 1120
	pop	edi
	mov	eax, esi
	pop	esi
; Line 1121
	pop	ebp
	ret	8
$LN27@erase:
?erase@?$basic_string@DU?$char_traits@D@std@@V?$allocator@D@2@@std@@QAEAAV12@II@Z ENDP ; std::basic_string<char,std::char_traits<char>,std::allocator<char> >::erase
_TEXT	ENDS
PUBLIC	?_Copy@?$basic_string@DU?$char_traits@D@std@@V?$allocator@D@2@@std@@QAEXII@Z ; std::basic_string<char,std::char_traits<char>,std::allocator<char> >::_Copy
EXTRN	___CxxFrameHandler3:PROC
;	COMDAT xdata$x
; File c:\program files (x86)\microsoft visual studio 10.0\vc\include\iosfwd
xdata$x	SEGMENT
__catchsym$?_Copy@?$basic_string@DU?$char_traits@D@std@@V?$allocator@D@2@@std@@QAEXII@Z$5 DD 040H
	DD	00H
	DD	00H
	DD	FLAT:__catch$?_Copy@?$basic_string@DU?$char_traits@D@std@@V?$allocator@D@2@@std@@QAEXII@Z$0
__catchsym$?_Copy@?$basic_string@DU?$char_traits@D@std@@V?$allocator@D@2@@std@@QAEXII@Z$4 DD 040H
	DD	00H
	DD	00H
	DD	FLAT:__catch$?_Copy@?$basic_string@DU?$char_traits@D@std@@V?$allocator@D@2@@std@@QAEXII@Z$1
__unwindtable$?_Copy@?$basic_string@DU?$char_traits@D@std@@V?$allocator@D@2@@std@@QAEXII@Z DD 0ffffffffH
	DD	00H
	DD	0ffffffffH
	DD	00H
	DD	01H
	DD	00H
	DD	01H
	DD	00H
__ehfuncinfo$?_Copy@?$basic_string@DU?$char_traits@D@std@@V?$allocator@D@2@@std@@QAEXII@Z DD 019930522H
	DD	04H
	DD	FLAT:__unwindtable$?_Copy@?$basic_string@DU?$char_traits@D@std@@V?$allocator@D@2@@std@@QAEXII@Z
	DD	02H
	DD	FLAT:__tryblocktable$?_Copy@?$basic_string@DU?$char_traits@D@std@@V?$allocator@D@2@@std@@QAEXII@Z
	DD	2 DUP(00H)
	DD	00H
	DD	01H
__tryblocktable$?_Copy@?$basic_string@DU?$char_traits@D@std@@V?$allocator@D@2@@std@@QAEXII@Z DD 02H
	DD	02H
	DD	03H
	DD	01H
	DD	FLAT:__catchsym$?_Copy@?$basic_string@DU?$char_traits@D@std@@V?$allocator@D@2@@std@@QAEXII@Z$4
	DD	00H
	DD	00H
	DD	03H
	DD	01H
	DD	FLAT:__catchsym$?_Copy@?$basic_string@DU?$char_traits@D@std@@V?$allocator@D@2@@std@@QAEXII@Z$5
; Function compile flags: /Ogtp
xdata$x	ENDS
;	COMDAT ?_Copy@?$basic_string@DU?$char_traits@D@std@@V?$allocator@D@2@@std@@QAEXII@Z
_TEXT	SEGMENT
$T99645 = -40						; size = 12
__Newres$ = -28						; size = 4
$T99622 = -24						; size = 4
_this$ = -20						; size = 4
__$EHRec$ = -16						; size = 16
__Ptr$ = 8						; size = 4
__Newsize$ = 8						; size = 4
__Oldlen$ = 12						; size = 4
?_Copy@?$basic_string@DU?$char_traits@D@std@@V?$allocator@D@2@@std@@QAEXII@Z PROC ; std::basic_string<char,std::char_traits<char>,std::allocator<char> >::_Copy, COMDAT
; _this$ = ecx
; File c:\program files (x86)\microsoft visual studio 10.0\vc\include\xstring
; Line 1918
	push	ebp
	mov	ebp, esp
	push	-1
	push	__ehhandler$?_Copy@?$basic_string@DU?$char_traits@D@std@@V?$allocator@D@2@@std@@QAEXII@Z
	mov	eax, DWORD PTR fs:0
	push	eax
	sub	esp, 28					; 0000001cH
	push	ebx
	push	esi
	push	edi
	mov	eax, DWORD PTR ___security_cookie
	xor	eax, ebp
	push	eax
	lea	eax, DWORD PTR __$EHRec$[ebp+4]
	mov	DWORD PTR fs:0, eax
	mov	DWORD PTR __$EHRec$[ebp], esp
	mov	edi, ecx
	mov	DWORD PTR _this$[ebp], edi
; Line 1919
	mov	eax, DWORD PTR __Newsize$[ebp]
	mov	esi, eax
	or	esi, 15					; 0000000fH
; Line 1920
	cmp	esi, -2					; fffffffeH
	jbe	SHORT $LN9@Copy
; Line 1921
	mov	esi, eax
	jmp	SHORT $LN39@Copy
$LN9@Copy:
; Line 1922
	mov	ebx, DWORD PTR [edi+20]
	mov	eax, -1431655765			; aaaaaaabH
	mul	esi
	mov	ecx, ebx
	shr	ecx, 1
	shr	edx, 1
	cmp	ecx, edx
	jbe	SHORT $LN39@Copy
; Line 1924
	mov	eax, -2					; fffffffeH
	sub	eax, ecx
; Line 1926
	lea	esi, DWORD PTR [ecx+ebx]
	cmp	ebx, eax
	jbe	SHORT $LN39@Copy
; Line 1928
	mov	esi, -2					; fffffffeH
$LN39@Copy:
; Line 1931
	xor	eax, eax
; Line 1932
	lea	ecx, DWORD PTR [esi+1]
	mov	DWORD PTR __$EHRec$[ebp+12], eax
	cmp	ecx, eax
	jbe	SHORT $LN47@Copy
	cmp	ecx, -1
	ja	SHORT $LN46@Copy
	push	ecx
	call	??2@YAPAXI@Z				; operator new
	add	esp, 4
	test	eax, eax
	je	SHORT $LN46@Copy
$LN47@Copy:
	mov	DWORD PTR __Ptr$[ebp], eax
	jmp	SHORT $LN19@Copy
$LN46@Copy:
	lea	ecx, DWORD PTR $T99622[ebp]
	push	ecx
	lea	ecx, DWORD PTR $T99645[ebp]
	mov	DWORD PTR $T99622[ebp], 0
	call	DWORD PTR __imp_??0exception@std@@QAE@ABQBD@Z
	push	OFFSET __TI2?AVbad_alloc@std@@
	lea	edx, DWORD PTR $T99645[ebp]
	push	edx
	mov	DWORD PTR $T99645[ebp], OFFSET ??_7bad_alloc@std@@6B@
	call	__CxxThrowException@8
$LN112@Copy:
__catch$?_Copy@?$basic_string@DU?$char_traits@D@std@@V?$allocator@D@2@@std@@QAEXII@Z$0:
; Line 1934
	mov	eax, DWORD PTR __Newsize$[ebp]
; Line 1936
	mov	ecx, DWORD PTR _this$[ebp]
	mov	DWORD PTR __Newres$[ebp], eax
	inc	eax
	mov	DWORD PTR __$EHRec$[ebp], esp
	push	eax
	add	ecx, 24					; 00000018H
	mov	BYTE PTR __$EHRec$[ebp+12], 2
	call	?allocate@?$allocator@D@std@@QAEPADI@Z	; std::allocator<char>::allocate
	mov	DWORD PTR __Ptr$[ebp], eax
; Line 1941
	mov	eax, $LN107@Copy
	ret	0
$LN107@Copy:
	mov	edi, DWORD PTR _this$[ebp]
	mov	esi, DWORD PTR __Newres$[ebp]
$LN19@Copy:
; Line 1943
	mov	ebx, DWORD PTR __Oldlen$[ebp]
	test	ebx, ebx
	je	SHORT $LN78@Copy
; Line 1944
	cmp	DWORD PTR [edi+20], 16			; 00000010H
	jb	SHORT $LN76@Copy
	mov	eax, DWORD PTR [edi]
	jmp	SHORT $LN77@Copy
$LN76@Copy:
	mov	eax, edi
$LN77@Copy:
	push	ebx
	push	eax
	mov	eax, DWORD PTR __Ptr$[ebp]
	push	eax
	call	_memcpy
	add	esp, 12					; 0000000cH
$LN78@Copy:
; Line 1945
	cmp	DWORD PTR [edi+20], 16			; 00000010H
	jb	SHORT $LN88@Copy
	mov	ecx, DWORD PTR [edi]
	push	ecx
	call	??3@YAXPAX@Z				; operator delete
	add	esp, 4
$LN88@Copy:
; Line 1946
	mov	eax, DWORD PTR __Ptr$[ebp]
	mov	BYTE PTR [edi], 0
	mov	DWORD PTR [edi], eax
; Line 1947
	mov	DWORD PTR [edi+20], esi
; Line 1948
	mov	DWORD PTR [edi+16], ebx
	cmp	esi, 16					; 00000010H
	jb	SHORT $LN102@Copy
	mov	edi, eax
$LN102@Copy:
	mov	BYTE PTR [edi+ebx], 0
; Line 1949
	mov	ecx, DWORD PTR __$EHRec$[ebp+4]
	mov	DWORD PTR fs:0, ecx
	pop	ecx
	pop	edi
	pop	esi
	pop	ebx
	mov	esp, ebp
	pop	ebp
	ret	8
__catch$?_Copy@?$basic_string@DU?$char_traits@D@std@@V?$allocator@D@2@@std@@QAEXII@Z$1:
; Line 1938
	mov	esi, DWORD PTR _this$[ebp]
	cmp	DWORD PTR [esi+20], 16			; 00000010H
	jb	SHORT $LN64@Copy
	mov	edx, DWORD PTR [esi]
	push	edx
	call	??3@YAXPAX@Z				; operator delete
	add	esp, 4
$LN64@Copy:
; Line 1939
	push	0
	mov	DWORD PTR [esi+20], 15			; 0000000fH
	mov	DWORD PTR [esi+16], 0
	push	0
	mov	BYTE PTR [esi], 0
	call	__CxxThrowException@8
$LN113@Copy:
$LN111@Copy:
	int	3
_TEXT	ENDS
;	COMDAT text$x
text$x	SEGMENT
__ehhandler$?_Copy@?$basic_string@DU?$char_traits@D@std@@V?$allocator@D@2@@std@@QAEXII@Z:
	mov	edx, DWORD PTR [esp+8]
	lea	eax, DWORD PTR [edx+12]
	mov	ecx, DWORD PTR [edx-44]
	xor	ecx, eax
	call	@__security_check_cookie@4
	mov	eax, OFFSET __ehfuncinfo$?_Copy@?$basic_string@DU?$char_traits@D@std@@V?$allocator@D@2@@std@@QAEXII@Z
	jmp	___CxxFrameHandler3
text$x	ENDS
?_Copy@?$basic_string@DU?$char_traits@D@std@@V?$allocator@D@2@@std@@QAEXII@Z ENDP ; std::basic_string<char,std::char_traits<char>,std::allocator<char> >::_Copy
PUBLIC	??$_Cons_val@V?$allocator@USkyColor@@@std@@USkyColor@@AAU3@@std@@YAXAAV?$allocator@USkyColor@@@0@PAUSkyColor@@AAU2@@Z ; std::_Cons_val<std::allocator<SkyColor>,SkyColor,SkyColor &>
; Function compile flags: /Ogtp
;	COMDAT ??$_Cons_val@V?$allocator@USkyColor@@@std@@USkyColor@@AAU3@@std@@YAXAAV?$allocator@USkyColor@@@0@PAUSkyColor@@AAU2@@Z
_TEXT	SEGMENT
__Alval$ = 8						; size = 4
__Pdest$ = 12						; size = 4
__Src$ = 16						; size = 4
??$_Cons_val@V?$allocator@USkyColor@@@std@@USkyColor@@AAU3@@std@@YAXAAV?$allocator@USkyColor@@@0@PAUSkyColor@@AAU2@@Z PROC ; std::_Cons_val<std::allocator<SkyColor>,SkyColor,SkyColor &>, COMDAT
; File c:\program files (x86)\microsoft visual studio 10.0\vc\include\xmemory
; Line 279
	push	ebp
	mov	ebp, esp
; Line 280
	mov	eax, DWORD PTR __Pdest$[ebp]
	test	eax, eax
	je	SHORT $LN7@Cons_val@2
	mov	ecx, DWORD PTR __Src$[ebp]
	mov	edx, DWORD PTR [ecx]
	mov	DWORD PTR [eax], edx
	mov	edx, DWORD PTR [ecx+4]
	mov	DWORD PTR [eax+4], edx
	mov	edx, DWORD PTR [ecx+8]
	mov	DWORD PTR [eax+8], edx
	mov	ecx, DWORD PTR [ecx+12]
	mov	DWORD PTR [eax+12], ecx
$LN7@Cons_val@2:
; Line 281
	pop	ebp
	ret	0
??$_Cons_val@V?$allocator@USkyColor@@@std@@USkyColor@@AAU3@@std@@YAXAAV?$allocator@USkyColor@@@0@PAUSkyColor@@AAU2@@Z ENDP ; std::_Cons_val<std::allocator<SkyColor>,SkyColor,SkyColor &>
_TEXT	ENDS
PUBLIC	??$_Cons_val@V?$allocator@UOutdoorLightStats@@@std@@UOutdoorLightStats@@ABU3@@std@@YAXAAV?$allocator@UOutdoorLightStats@@@0@PAUOutdoorLightStats@@ABU2@@Z ; std::_Cons_val<std::allocator<OutdoorLightStats>,OutdoorLightStats,OutdoorLightStats const &>
; Function compile flags: /Ogtp
;	COMDAT ??$_Cons_val@V?$allocator@UOutdoorLightStats@@@std@@UOutdoorLightStats@@ABU3@@std@@YAXAAV?$allocator@UOutdoorLightStats@@@0@PAUOutdoorLightStats@@ABU2@@Z
_TEXT	SEGMENT
__Alval$ = 8						; size = 4
__Pdest$ = 12						; size = 4
__Src$ = 16						; size = 4
??$_Cons_val@V?$allocator@UOutdoorLightStats@@@std@@UOutdoorLightStats@@ABU3@@std@@YAXAAV?$allocator@UOutdoorLightStats@@@0@PAUOutdoorLightStats@@ABU2@@Z PROC ; std::_Cons_val<std::allocator<OutdoorLightStats>,OutdoorLightStats,OutdoorLightStats const &>, COMDAT
; Line 279
	push	ebp
	mov	ebp, esp
; Line 280
	mov	ecx, DWORD PTR __Pdest$[ebp]
	test	ecx, ecx
	je	SHORT $LN9@Cons_val@3
	mov	eax, DWORD PTR __Src$[ebp]
	push	eax
	call	??0OutdoorLightStats@@QAE@ABU0@@Z
$LN9@Cons_val@3:
; Line 281
	pop	ebp
	ret	0
??$_Cons_val@V?$allocator@UOutdoorLightStats@@@std@@UOutdoorLightStats@@ABU3@@std@@YAXAAV?$allocator@UOutdoorLightStats@@@0@PAUOutdoorLightStats@@ABU2@@Z ENDP ; std::_Cons_val<std::allocator<OutdoorLightStats>,OutdoorLightStats,OutdoorLightStats const &>
_TEXT	ENDS
PUBLIC	?construct@?$allocator@USkyColor@@@std@@QAEXPAUSkyColor@@ABU3@@Z ; std::allocator<SkyColor>::construct
; Function compile flags: /Ogtp
;	COMDAT ?construct@?$allocator@USkyColor@@@std@@QAEXPAUSkyColor@@ABU3@@Z
_TEXT	SEGMENT
__Ptr$ = 8						; size = 4
__Val$ = 12						; size = 4
?construct@?$allocator@USkyColor@@@std@@QAEXPAUSkyColor@@ABU3@@Z PROC ; std::allocator<SkyColor>::construct, COMDAT
; _this$ = ecx
; Line 196
	push	ebp
	mov	ebp, esp
; Line 197
	mov	eax, DWORD PTR __Ptr$[ebp]
	test	eax, eax
	je	SHORT $LN5@construct@6
	mov	ecx, DWORD PTR __Val$[ebp]
	mov	edx, DWORD PTR [ecx]
	mov	DWORD PTR [eax], edx
	mov	edx, DWORD PTR [ecx+4]
	mov	DWORD PTR [eax+4], edx
	mov	edx, DWORD PTR [ecx+8]
	mov	DWORD PTR [eax+8], edx
	mov	ecx, DWORD PTR [ecx+12]
	mov	DWORD PTR [eax+12], ecx
$LN5@construct@6:
; Line 198
	pop	ebp
	ret	8
?construct@?$allocator@USkyColor@@@std@@QAEXPAUSkyColor@@ABU3@@Z ENDP ; std::allocator<SkyColor>::construct
_TEXT	ENDS
PUBLIC	??G?$_Vector_iterator@V?$_Vector_val@VSky@@V?$allocator@VSky@@@std@@@std@@@std@@QBEHABV?$_Vector_const_iterator@V?$_Vector_val@VSky@@V?$allocator@VSky@@@std@@@std@@@1@@Z ; std::_Vector_iterator<std::_Vector_val<Sky,std::allocator<Sky> > >::operator-
; Function compile flags: /Ogtp
;	COMDAT ??G?$_Vector_iterator@V?$_Vector_val@VSky@@V?$allocator@VSky@@@std@@@std@@@std@@QBEHABV?$_Vector_const_iterator@V?$_Vector_val@VSky@@V?$allocator@VSky@@@std@@@std@@@1@@Z
_TEXT	SEGMENT
__Right$ = 8						; size = 4
??G?$_Vector_iterator@V?$_Vector_val@VSky@@V?$allocator@VSky@@@std@@@std@@@std@@QBEHABV?$_Vector_const_iterator@V?$_Vector_val@VSky@@V?$allocator@VSky@@@std@@@std@@@1@@Z PROC ; std::_Vector_iterator<std::_Vector_val<Sky,std::allocator<Sky> > >::operator-, COMDAT
; _this$ = ecx
; File c:\program files (x86)\microsoft visual studio 10.0\vc\include\vector
; Line 380
	push	ebp
	mov	ebp, esp
; Line 381
	mov	eax, DWORD PTR __Right$[ebp]
	mov	ecx, DWORD PTR [ecx]
	sub	ecx, DWORD PTR [eax]
	mov	eax, -1475706711			; a80a80a9H
	imul	ecx
	add	edx, ecx
	sar	edx, 9
	mov	eax, edx
	shr	eax, 31					; 0000001fH
	add	eax, edx
; Line 382
	pop	ebp
	ret	4
??G?$_Vector_iterator@V?$_Vector_val@VSky@@V?$allocator@VSky@@@std@@@std@@@std@@QBEHABV?$_Vector_const_iterator@V?$_Vector_val@VSky@@V?$allocator@VSky@@@std@@@std@@@1@@Z ENDP ; std::_Vector_iterator<std::_Vector_val<Sky,std::allocator<Sky> > >::operator-
_TEXT	ENDS
PUBLIC	??$_Dest_val@V?$allocator@USkyColor@@@std@@USkyColor@@@std@@YAXAAV?$allocator@USkyColor@@@0@PAUSkyColor@@@Z ; std::_Dest_val<std::allocator<SkyColor>,SkyColor>
; Function compile flags: /Ogtp
;	COMDAT ??$_Dest_val@V?$allocator@USkyColor@@@std@@USkyColor@@@std@@YAXAAV?$allocator@USkyColor@@@0@PAUSkyColor@@@Z
_TEXT	SEGMENT
__Alval$ = 8						; size = 4
__Pdest$ = 12						; size = 4
??$_Dest_val@V?$allocator@USkyColor@@@std@@USkyColor@@@std@@YAXAAV?$allocator@USkyColor@@@0@PAUSkyColor@@@Z PROC ; std::_Dest_val<std::allocator<SkyColor>,SkyColor>, COMDAT
; File c:\program files (x86)\microsoft visual studio 10.0\vc\include\xmemory
; Line 288
	ret	0
??$_Dest_val@V?$allocator@USkyColor@@@std@@USkyColor@@@std@@YAXAAV?$allocator@USkyColor@@@0@PAUSkyColor@@@Z ENDP ; std::_Dest_val<std::allocator<SkyColor>,SkyColor>
_TEXT	ENDS
PUBLIC	??$_Dest_val@V?$allocator@UOutdoorLightStats@@@std@@UOutdoorLightStats@@@std@@YAXAAV?$allocator@UOutdoorLightStats@@@0@PAUOutdoorLightStats@@@Z ; std::_Dest_val<std::allocator<OutdoorLightStats>,OutdoorLightStats>
; Function compile flags: /Ogtp
;	COMDAT ??$_Dest_val@V?$allocator@UOutdoorLightStats@@@std@@UOutdoorLightStats@@@std@@YAXAAV?$allocator@UOutdoorLightStats@@@0@PAUOutdoorLightStats@@@Z
_TEXT	SEGMENT
__Alval$ = 8						; size = 4
__Pdest$ = 12						; size = 4
??$_Dest_val@V?$allocator@UOutdoorLightStats@@@std@@UOutdoorLightStats@@@std@@YAXAAV?$allocator@UOutdoorLightStats@@@0@PAUOutdoorLightStats@@@Z PROC ; std::_Dest_val<std::allocator<OutdoorLightStats>,OutdoorLightStats>, COMDAT
; Line 288
	ret	0
??$_Dest_val@V?$allocator@UOutdoorLightStats@@@std@@UOutdoorLightStats@@@std@@YAXAAV?$allocator@UOutdoorLightStats@@@0@PAUOutdoorLightStats@@@Z ENDP ; std::_Dest_val<std::allocator<OutdoorLightStats>,OutdoorLightStats>
_TEXT	ENDS
PUBLIC	??$_Cons_val@V?$allocator@USkyColor@@@std@@USkyColor@@U3@@std@@YAXAAV?$allocator@USkyColor@@@0@PAUSkyColor@@$$QAU2@@Z ; std::_Cons_val<std::allocator<SkyColor>,SkyColor,SkyColor>
; Function compile flags: /Ogtp
;	COMDAT ??$_Cons_val@V?$allocator@USkyColor@@@std@@USkyColor@@U3@@std@@YAXAAV?$allocator@USkyColor@@@0@PAUSkyColor@@$$QAU2@@Z
_TEXT	SEGMENT
__Alval$ = 8						; size = 4
__Pdest$ = 12						; size = 4
__Src$ = 16						; size = 4
??$_Cons_val@V?$allocator@USkyColor@@@std@@USkyColor@@U3@@std@@YAXAAV?$allocator@USkyColor@@@0@PAUSkyColor@@$$QAU2@@Z PROC ; std::_Cons_val<std::allocator<SkyColor>,SkyColor,SkyColor>, COMDAT
; Line 279
	push	ebp
	mov	ebp, esp
; Line 280
	mov	eax, DWORD PTR __Pdest$[ebp]
	test	eax, eax
	je	SHORT $LN7@Cons_val@4
	mov	ecx, DWORD PTR __Src$[ebp]
	mov	edx, DWORD PTR [ecx]
	mov	DWORD PTR [eax], edx
	mov	edx, DWORD PTR [ecx+4]
	mov	DWORD PTR [eax+4], edx
	mov	edx, DWORD PTR [ecx+8]
	mov	DWORD PTR [eax+8], edx
	mov	ecx, DWORD PTR [ecx+12]
	mov	DWORD PTR [eax+12], ecx
$LN7@Cons_val@4:
; Line 281
	pop	ebp
	ret	0
??$_Cons_val@V?$allocator@USkyColor@@@std@@USkyColor@@U3@@std@@YAXAAV?$allocator@USkyColor@@@0@PAUSkyColor@@$$QAU2@@Z ENDP ; std::_Cons_val<std::allocator<SkyColor>,SkyColor,SkyColor>
_TEXT	ENDS
PUBLIC	??$_Cons_val@V?$allocator@UOutdoorLightStats@@@std@@UOutdoorLightStats@@U3@@std@@YAXAAV?$allocator@UOutdoorLightStats@@@0@PAUOutdoorLightStats@@$$QAU2@@Z ; std::_Cons_val<std::allocator<OutdoorLightStats>,OutdoorLightStats,OutdoorLightStats>
; Function compile flags: /Ogtp
;	COMDAT ??$_Cons_val@V?$allocator@UOutdoorLightStats@@@std@@UOutdoorLightStats@@U3@@std@@YAXAAV?$allocator@UOutdoorLightStats@@@0@PAUOutdoorLightStats@@$$QAU2@@Z
_TEXT	SEGMENT
__Alval$ = 8						; size = 4
__Pdest$ = 12						; size = 4
__Src$ = 16						; size = 4
??$_Cons_val@V?$allocator@UOutdoorLightStats@@@std@@UOutdoorLightStats@@U3@@std@@YAXAAV?$allocator@UOutdoorLightStats@@@0@PAUOutdoorLightStats@@$$QAU2@@Z PROC ; std::_Cons_val<std::allocator<OutdoorLightStats>,OutdoorLightStats,OutdoorLightStats>, COMDAT
; Line 279
	push	ebp
	mov	ebp, esp
; Line 280
	mov	ecx, DWORD PTR __Pdest$[ebp]
	test	ecx, ecx
	je	SHORT $LN7@Cons_val@5
	mov	eax, DWORD PTR __Src$[ebp]
	push	eax
	call	??0OutdoorLightStats@@QAE@ABU0@@Z
$LN7@Cons_val@5:
; Line 281
	pop	ebp
	ret	0
??$_Cons_val@V?$allocator@UOutdoorLightStats@@@std@@UOutdoorLightStats@@U3@@std@@YAXAAV?$allocator@UOutdoorLightStats@@@0@PAUOutdoorLightStats@@$$QAU2@@Z ENDP ; std::_Cons_val<std::allocator<OutdoorLightStats>,OutdoorLightStats,OutdoorLightStats>
_TEXT	ENDS
PUBLIC	??9?$_Vector_const_iterator@V?$_Vector_val@USkyColor@@V?$allocator@USkyColor@@@std@@@std@@@std@@QBE_NABV01@@Z ; std::_Vector_const_iterator<std::_Vector_val<SkyColor,std::allocator<SkyColor> > >::operator!=
; Function compile flags: /Ogtp
;	COMDAT ??9?$_Vector_const_iterator@V?$_Vector_val@USkyColor@@V?$allocator@USkyColor@@@std@@@std@@@std@@QBE_NABV01@@Z
_TEXT	SEGMENT
__Right$ = 8						; size = 4
??9?$_Vector_const_iterator@V?$_Vector_val@USkyColor@@V?$allocator@USkyColor@@@std@@@std@@@std@@QBE_NABV01@@Z PROC ; std::_Vector_const_iterator<std::_Vector_val<SkyColor,std::allocator<SkyColor> > >::operator!=, COMDAT
; _this$ = ecx
; File c:\program files (x86)\microsoft visual studio 10.0\vc\include\vector
; Line 207
	push	ebp
	mov	ebp, esp
; Line 208
	mov	eax, DWORD PTR [ecx]
	mov	edx, DWORD PTR __Right$[ebp]
	xor	ecx, ecx
	cmp	eax, DWORD PTR [edx]
	setne	al
; Line 209
	pop	ebp
	ret	4
??9?$_Vector_const_iterator@V?$_Vector_val@USkyColor@@V?$allocator@USkyColor@@@std@@@std@@@std@@QBE_NABV01@@Z ENDP ; std::_Vector_const_iterator<std::_Vector_val<SkyColor,std::allocator<SkyColor> > >::operator!=
_TEXT	ENDS
PUBLIC	??$_Copy_impl@PAUSkyColor@@PAU1@@std@@YAPAUSkyColor@@PAU1@00@Z ; std::_Copy_impl<SkyColor *,SkyColor *>
; Function compile flags: /Ogtp
;	COMDAT ??$_Copy_impl@PAUSkyColor@@PAU1@@std@@YAPAUSkyColor@@PAU1@00@Z
_TEXT	SEGMENT
__Cat$100008 = -4					; size = 1
__First$ = 8						; size = 4
__Last$ = 12						; size = 4
__Dest$ = 16						; size = 4
??$_Copy_impl@PAUSkyColor@@PAU1@@std@@YAPAUSkyColor@@PAU1@00@Z PROC ; std::_Copy_impl<SkyColor *,SkyColor *>, COMDAT
; File c:\program files (x86)\microsoft visual studio 10.0\vc\include\xutility
; Line 2175
	push	ebp
	mov	ebp, esp
	push	ecx
; Line 2177
	mov	eax, DWORD PTR __Cat$100008[ebp]
	mov	ecx, DWORD PTR __Dest$[ebp]
	mov	edx, DWORD PTR __Last$[ebp]
	push	eax
	mov	eax, DWORD PTR __First$[ebp]
	push	ecx
	push	edx
	push	eax
	call	??$_Copy_impl@PAUSkyColor@@PAU1@@std@@YAPAUSkyColor@@PAU1@00U_Nonscalar_ptr_iterator_tag@0@@Z ; std::_Copy_impl<SkyColor *,SkyColor *>
	add	esp, 16					; 00000010H
; Line 2178
	mov	esp, ebp
	pop	ebp
	ret	0
??$_Copy_impl@PAUSkyColor@@PAU1@@std@@YAPAUSkyColor@@PAU1@00@Z ENDP ; std::_Copy_impl<SkyColor *,SkyColor *>
_TEXT	ENDS
PUBLIC	??$_Move@PAUSkyColor@@PAU1@@std@@YAPAUSkyColor@@PAU1@00@Z ; std::_Move<SkyColor *,SkyColor *>
; Function compile flags: /Ogtp
;	COMDAT ??$_Move@PAUSkyColor@@PAU1@@std@@YAPAUSkyColor@@PAU1@00@Z
_TEXT	SEGMENT
__Cat$100015 = -4					; size = 1
__First$ = 8						; size = 4
__Last$ = 12						; size = 4
__Dest$ = 16						; size = 4
??$_Move@PAUSkyColor@@PAU1@@std@@YAPAUSkyColor@@PAU1@00@Z PROC ; std::_Move<SkyColor *,SkyColor *>, COMDAT
; Line 2545
	push	ebp
	mov	ebp, esp
	push	ecx
; Line 2547
	mov	eax, DWORD PTR __Cat$100015[ebp]
	mov	ecx, DWORD PTR __Dest$[ebp]
	mov	edx, DWORD PTR __Last$[ebp]
	push	eax
	mov	eax, DWORD PTR __First$[ebp]
	push	ecx
	push	edx
	push	eax
	call	??$_Move@PAUSkyColor@@PAU1@@std@@YAPAUSkyColor@@PAU1@00U_Nonscalar_ptr_iterator_tag@0@@Z ; std::_Move<SkyColor *,SkyColor *>
	add	esp, 16					; 00000010H
; Line 2548
	mov	esp, ebp
	pop	ebp
	ret	0
??$_Move@PAUSkyColor@@PAU1@@std@@YAPAUSkyColor@@PAU1@00@Z ENDP ; std::_Move<SkyColor *,SkyColor *>
_TEXT	ENDS
PUBLIC	??$_Uninit_copy@PAUSkyColor@@PAU1@V?$allocator@USkyColor@@@std@@@std@@YAPAUSkyColor@@PAU1@00AAV?$allocator@USkyColor@@@0@U_Nonscalar_ptr_iterator_tag@0@@Z ; std::_Uninit_copy<SkyColor *,SkyColor *,std::allocator<SkyColor> >
; Function compile flags: /Ogtp
;	COMDAT ??$_Uninit_copy@PAUSkyColor@@PAU1@V?$allocator@USkyColor@@@std@@@std@@YAPAUSkyColor@@PAU1@00AAV?$allocator@USkyColor@@@0@U_Nonscalar_ptr_iterator_tag@0@@Z
_TEXT	SEGMENT
__First$ = 8						; size = 4
__Last$ = 12						; size = 4
__Dest$ = 16						; size = 4
__Al$ = 20						; size = 4
___formal$ = 24						; size = 1
??$_Uninit_copy@PAUSkyColor@@PAU1@V?$allocator@USkyColor@@@std@@@std@@YAPAUSkyColor@@PAU1@00AAV?$allocator@USkyColor@@@0@U_Nonscalar_ptr_iterator_tag@0@@Z PROC ; std::_Uninit_copy<SkyColor *,SkyColor *,std::allocator<SkyColor> >, COMDAT
; File c:\program files (x86)\microsoft visual studio 10.0\vc\include\memory
; Line 369
	push	ebp
	mov	ebp, esp
; Line 375
	mov	eax, DWORD PTR __First$[ebp]
	mov	edx, DWORD PTR __Last$[ebp]
	cmp	eax, edx
	je	SHORT $LN33@Uninit_cop
	lea	ecx, DWORD PTR [eax+8]
	mov	eax, DWORD PTR __Dest$[ebp]
	push	esi
$LL6@Uninit_cop:
; Line 376
	test	eax, eax
	je	SHORT $LN20@Uninit_cop
	mov	esi, DWORD PTR [ecx-8]
	mov	DWORD PTR [eax], esi
	mov	esi, DWORD PTR [ecx-4]
	mov	DWORD PTR [eax+4], esi
	mov	esi, DWORD PTR [ecx]
	mov	DWORD PTR [eax+8], esi
	mov	esi, DWORD PTR [ecx+4]
	mov	DWORD PTR [eax+12], esi
$LN20@Uninit_cop:
; Line 375
	add	ecx, 16					; 00000010H
	lea	esi, DWORD PTR [ecx-8]
	add	eax, 16					; 00000010H
	cmp	esi, edx
	jne	SHORT $LL6@Uninit_cop
	pop	esi
; Line 383
	pop	ebp
	ret	0
$LN33@Uninit_cop:
; Line 382
	mov	eax, DWORD PTR __Dest$[ebp]
; Line 383
	pop	ebp
	ret	0
??$_Uninit_copy@PAUSkyColor@@PAU1@V?$allocator@USkyColor@@@std@@@std@@YAPAUSkyColor@@PAU1@00AAV?$allocator@USkyColor@@@0@U_Nonscalar_ptr_iterator_tag@0@@Z ENDP ; std::_Uninit_copy<SkyColor *,SkyColor *,std::allocator<SkyColor> >
_TEXT	ENDS
PUBLIC	??1?$basic_string@DU?$char_traits@D@std@@V?$allocator@D@2@@std@@QAE@XZ ; std::basic_string<char,std::char_traits<char>,std::allocator<char> >::~basic_string<char,std::char_traits<char>,std::allocator<char> >
; Function compile flags: /Ogtp
;	COMDAT ??1?$basic_string@DU?$char_traits@D@std@@V?$allocator@D@2@@std@@QAE@XZ
_TEXT	SEGMENT
??1?$basic_string@DU?$char_traits@D@std@@V?$allocator@D@2@@std@@QAE@XZ PROC ; std::basic_string<char,std::char_traits<char>,std::allocator<char> >::~basic_string<char,std::char_traits<char>,std::allocator<char> >, COMDAT
; _this$ = ecx
; File c:\program files (x86)\microsoft visual studio 10.0\vc\include\xstring
; Line 752
	push	esi
	mov	esi, ecx
; Line 753
	cmp	DWORD PTR [esi+20], 16			; 00000010H
	jb	SHORT $LN11@basic_stri
	mov	eax, DWORD PTR [esi]
	push	eax
	call	??3@YAXPAX@Z				; operator delete
	add	esp, 4
$LN11@basic_stri:
	mov	DWORD PTR [esi+20], 15			; 0000000fH
	mov	DWORD PTR [esi+16], 0
	mov	BYTE PTR [esi], 0
	pop	esi
; Line 754
	ret	0
??1?$basic_string@DU?$char_traits@D@std@@V?$allocator@D@2@@std@@QAE@XZ ENDP ; std::basic_string<char,std::char_traits<char>,std::allocator<char> >::~basic_string<char,std::char_traits<char>,std::allocator<char> >
_TEXT	ENDS
PUBLIC	?_Grow@?$basic_string@DU?$char_traits@D@std@@V?$allocator@D@2@@std@@QAE_NI_N@Z ; std::basic_string<char,std::char_traits<char>,std::allocator<char> >::_Grow
; Function compile flags: /Ogtp
;	COMDAT ?_Grow@?$basic_string@DU?$char_traits@D@std@@V?$allocator@D@2@@std@@QAE_NI_N@Z
_TEXT	SEGMENT
__Newsize$ = 8						; size = 4
__Trim$ = 12						; size = 1
?_Grow@?$basic_string@DU?$char_traits@D@std@@V?$allocator@D@2@@std@@QAE_NI_N@Z PROC ; std::basic_string<char,std::char_traits<char>,std::allocator<char> >::_Grow, COMDAT
; _this$ = ecx
; Line 1958
	push	ebp
	mov	ebp, esp
	push	ebx
; Line 1959
	mov	ebx, DWORD PTR __Newsize$[ebp]
	push	esi
	mov	esi, ecx
	cmp	ebx, -2					; fffffffeH
	jbe	SHORT $LN6@Grow
; Line 1960
	push	OFFSET ??_C@_0BA@JFNIOLAK@string?5too?5long?$AA@
	call	DWORD PTR __imp_?_Xlength_error@std@@YAXPBD@Z
$LN49@Grow:
$LN6@Grow:
; Line 1961
	mov	eax, DWORD PTR [esi+20]
	cmp	eax, ebx
	jae	SHORT $LN5@Grow
; Line 1962
	mov	eax, DWORD PTR [esi+16]
	push	eax
	push	ebx
	call	?_Copy@?$basic_string@DU?$char_traits@D@std@@V?$allocator@D@2@@std@@QAEXII@Z ; std::basic_string<char,std::char_traits<char>,std::allocator<char> >::_Copy
; Line 1968
	xor	ecx, ecx
	cmp	ecx, ebx
	sbb	eax, eax
	pop	esi
	neg	eax
	pop	ebx
; Line 1969
	pop	ebp
	ret	8
$LN5@Grow:
; Line 1963
	cmp	BYTE PTR __Trim$[ebp], 0
	je	SHORT $LN3@Grow
	cmp	ebx, 16					; 00000010H
	jae	SHORT $LN3@Grow
; Line 1965
	push	edi
	mov	edi, DWORD PTR [esi+16]
	cmp	ebx, edi
	jae	SHORT $LN9@Grow
	mov	edi, ebx
$LN9@Grow:
	cmp	eax, 16					; 00000010H
	jb	SHORT $LN30@Grow
	mov	ebx, DWORD PTR [esi]
	test	edi, edi
	je	SHORT $LN28@Grow
	push	edi
	push	ebx
	push	esi
	call	_memcpy
	add	esp, 12					; 0000000cH
$LN28@Grow:
	push	ebx
	call	??3@YAXPAX@Z				; operator delete
	mov	ebx, DWORD PTR __Newsize$[ebp]
	add	esp, 4
$LN30@Grow:
	mov	DWORD PTR [esi+16], edi
	mov	DWORD PTR [esi+20], 15			; 0000000fH
; Line 1968
	xor	ecx, ecx
	mov	BYTE PTR [edi+esi], 0
	cmp	ecx, ebx
	pop	edi
	sbb	eax, eax
	pop	esi
	neg	eax
	pop	ebx
; Line 1969
	pop	ebp
	ret	8
$LN3@Grow:
; Line 1966
	test	ebx, ebx
	jne	SHORT $LN46@Grow
; Line 1967
	mov	DWORD PTR [esi+16], ebx
	cmp	eax, 16					; 00000010H
	jb	SHORT $LN44@Grow
	mov	esi, DWORD PTR [esi]
$LN44@Grow:
	mov	BYTE PTR [esi], 0
$LN46@Grow:
; Line 1968
	xor	ecx, ecx
	cmp	ecx, ebx
	sbb	eax, eax
	pop	esi
	neg	eax
	pop	ebx
; Line 1969
	pop	ebp
	ret	8
$LN48@Grow:
?_Grow@?$basic_string@DU?$char_traits@D@std@@V?$allocator@D@2@@std@@QAE_NI_N@Z ENDP ; std::basic_string<char,std::char_traits<char>,std::allocator<char> >::_Grow
_TEXT	ENDS
PUBLIC	??$_Cons_val@V?$allocator@USkyColor@@@std@@USkyColor@@ABU3@@std@@YAXAAV?$allocator@USkyColor@@@0@PAUSkyColor@@ABU2@@Z ; std::_Cons_val<std::allocator<SkyColor>,SkyColor,SkyColor const &>
; Function compile flags: /Ogtp
;	COMDAT ??$_Cons_val@V?$allocator@USkyColor@@@std@@USkyColor@@ABU3@@std@@YAXAAV?$allocator@USkyColor@@@0@PAUSkyColor@@ABU2@@Z
_TEXT	SEGMENT
__Alval$ = 8						; size = 4
__Pdest$ = 12						; size = 4
__Src$ = 16						; size = 4
??$_Cons_val@V?$allocator@USkyColor@@@std@@USkyColor@@ABU3@@std@@YAXAAV?$allocator@USkyColor@@@0@PAUSkyColor@@ABU2@@Z PROC ; std::_Cons_val<std::allocator<SkyColor>,SkyColor,SkyColor const &>, COMDAT
; File c:\program files (x86)\microsoft visual studio 10.0\vc\include\xmemory
; Line 279
	push	ebp
	mov	ebp, esp
; Line 280
	mov	eax, DWORD PTR __Pdest$[ebp]
	test	eax, eax
	je	SHORT $LN9@Cons_val@6
	mov	ecx, DWORD PTR __Src$[ebp]
	mov	edx, DWORD PTR [ecx]
	mov	DWORD PTR [eax], edx
	mov	edx, DWORD PTR [ecx+4]
	mov	DWORD PTR [eax+4], edx
	mov	edx, DWORD PTR [ecx+8]
	mov	DWORD PTR [eax+8], edx
	mov	ecx, DWORD PTR [ecx+12]
	mov	DWORD PTR [eax+12], ecx
$LN9@Cons_val@6:
; Line 281
	pop	ebp
	ret	0
??$_Cons_val@V?$allocator@USkyColor@@@std@@USkyColor@@ABU3@@std@@YAXAAV?$allocator@USkyColor@@@0@PAUSkyColor@@ABU2@@Z ENDP ; std::_Cons_val<std::allocator<SkyColor>,SkyColor,SkyColor const &>
_TEXT	ENDS
PUBLIC	??$_Destroy_range@V?$allocator@USkyColor@@@std@@@std@@YAXPAUSkyColor@@0AAV?$allocator@USkyColor@@@0@U_Nonscalar_ptr_iterator_tag@0@@Z ; std::_Destroy_range<std::allocator<SkyColor> >
; Function compile flags: /Ogtp
;	COMDAT ??$_Destroy_range@V?$allocator@USkyColor@@@std@@@std@@YAXPAUSkyColor@@0AAV?$allocator@USkyColor@@@0@U_Nonscalar_ptr_iterator_tag@0@@Z
_TEXT	SEGMENT
__First$ = 8						; size = 4
__Last$ = 12						; size = 4
__Al$ = 16						; size = 4
___formal$ = 20						; size = 1
??$_Destroy_range@V?$allocator@USkyColor@@@std@@@std@@YAXPAUSkyColor@@0AAV?$allocator@USkyColor@@@0@U_Nonscalar_ptr_iterator_tag@0@@Z PROC ; std::_Destroy_range<std::allocator<SkyColor> >, COMDAT
; Line 98
	ret	0
??$_Destroy_range@V?$allocator@USkyColor@@@std@@@std@@YAXPAUSkyColor@@0AAV?$allocator@USkyColor@@@0@U_Nonscalar_ptr_iterator_tag@0@@Z ENDP ; std::_Destroy_range<std::allocator<SkyColor> >
_TEXT	ENDS
PUBLIC	??$_Destroy_range@V?$allocator@UOutdoorLightStats@@@std@@@std@@YAXPAUOutdoorLightStats@@0AAV?$allocator@UOutdoorLightStats@@@0@U_Nonscalar_ptr_iterator_tag@0@@Z ; std::_Destroy_range<std::allocator<OutdoorLightStats> >
; Function compile flags: /Ogtp
;	COMDAT ??$_Destroy_range@V?$allocator@UOutdoorLightStats@@@std@@@std@@YAXPAUOutdoorLightStats@@0AAV?$allocator@UOutdoorLightStats@@@0@U_Nonscalar_ptr_iterator_tag@0@@Z
_TEXT	SEGMENT
__First$ = 8						; size = 4
__Last$ = 12						; size = 4
__Al$ = 16						; size = 4
___formal$ = 20						; size = 1
??$_Destroy_range@V?$allocator@UOutdoorLightStats@@@std@@@std@@YAXPAUOutdoorLightStats@@0AAV?$allocator@UOutdoorLightStats@@@0@U_Nonscalar_ptr_iterator_tag@0@@Z PROC ; std::_Destroy_range<std::allocator<OutdoorLightStats> >, COMDAT
; Line 98
	ret	0
??$_Destroy_range@V?$allocator@UOutdoorLightStats@@@std@@@std@@YAXPAUOutdoorLightStats@@0AAV?$allocator@UOutdoorLightStats@@@0@U_Nonscalar_ptr_iterator_tag@0@@Z ENDP ; std::_Destroy_range<std::allocator<OutdoorLightStats> >
_TEXT	ENDS
PUBLIC	??$_Uninit_move@PAUSkyColor@@PAU1@V?$allocator@USkyColor@@@std@@U1@@std@@YAPAUSkyColor@@PAU1@00AAV?$allocator@USkyColor@@@0@0U_Nonscalar_ptr_iterator_tag@0@@Z ; std::_Uninit_move<SkyColor *,SkyColor *,std::allocator<SkyColor>,SkyColor>
; Function compile flags: /Ogtp
;	COMDAT ??$_Uninit_move@PAUSkyColor@@PAU1@V?$allocator@USkyColor@@@std@@U1@@std@@YAPAUSkyColor@@PAU1@00AAV?$allocator@USkyColor@@@0@0U_Nonscalar_ptr_iterator_tag@0@@Z
_TEXT	SEGMENT
__First$ = 8						; size = 4
__Last$ = 12						; size = 4
__Dest$ = 16						; size = 4
__Al$ = 20						; size = 4
___formal$ = 24						; size = 4
___formal$ = 28						; size = 1
??$_Uninit_move@PAUSkyColor@@PAU1@V?$allocator@USkyColor@@@std@@U1@@std@@YAPAUSkyColor@@PAU1@00AAV?$allocator@USkyColor@@@0@0U_Nonscalar_ptr_iterator_tag@0@@Z PROC ; std::_Uninit_move<SkyColor *,SkyColor *,std::allocator<SkyColor>,SkyColor>, COMDAT
; File c:\program files (x86)\microsoft visual studio 10.0\vc\include\memory
; Line 424
	push	ebp
	mov	ebp, esp
; Line 430
	mov	eax, DWORD PTR __First$[ebp]
	mov	edx, DWORD PTR __Last$[ebp]
	cmp	eax, edx
	je	SHORT $LN33@Uninit_mov
	lea	ecx, DWORD PTR [eax+8]
	mov	eax, DWORD PTR __Dest$[ebp]
	push	esi
$LL6@Uninit_mov:
; Line 431
	test	eax, eax
	je	SHORT $LN20@Uninit_mov
	mov	esi, DWORD PTR [ecx-8]
	mov	DWORD PTR [eax], esi
	mov	esi, DWORD PTR [ecx-4]
	mov	DWORD PTR [eax+4], esi
	mov	esi, DWORD PTR [ecx]
	mov	DWORD PTR [eax+8], esi
	mov	esi, DWORD PTR [ecx+4]
	mov	DWORD PTR [eax+12], esi
$LN20@Uninit_mov:
; Line 430
	add	ecx, 16					; 00000010H
	lea	esi, DWORD PTR [ecx-8]
	add	eax, 16					; 00000010H
	cmp	esi, edx
	jne	SHORT $LL6@Uninit_mov
	pop	esi
; Line 438
	pop	ebp
	ret	0
$LN33@Uninit_mov:
; Line 437
	mov	eax, DWORD PTR __Dest$[ebp]
; Line 438
	pop	ebp
	ret	0
??$_Uninit_move@PAUSkyColor@@PAU1@V?$allocator@USkyColor@@@std@@U1@@std@@YAPAUSkyColor@@PAU1@00AAV?$allocator@USkyColor@@@0@0U_Nonscalar_ptr_iterator_tag@0@@Z ENDP ; std::_Uninit_move<SkyColor *,SkyColor *,std::allocator<SkyColor>,SkyColor>
_TEXT	ENDS
PUBLIC	??$_Uninit_move@PAUOutdoorLightStats@@PAU1@V?$allocator@UOutdoorLightStats@@@std@@U1@@std@@YAPAUOutdoorLightStats@@PAU1@00AAV?$allocator@UOutdoorLightStats@@@0@0U_Nonscalar_ptr_iterator_tag@0@@Z ; std::_Uninit_move<OutdoorLightStats *,OutdoorLightStats *,std::allocator<OutdoorLightStats>,OutdoorLightStats>
; Function compile flags: /Ogtp
;	COMDAT ??$_Uninit_move@PAUOutdoorLightStats@@PAU1@V?$allocator@UOutdoorLightStats@@@std@@U1@@std@@YAPAUOutdoorLightStats@@PAU1@00AAV?$allocator@UOutdoorLightStats@@@0@0U_Nonscalar_ptr_iterator_tag@0@@Z
_TEXT	SEGMENT
__First$ = 8						; size = 4
__Last$ = 12						; size = 4
__Dest$ = 16						; size = 4
__Al$ = 20						; size = 4
___formal$ = 24						; size = 4
___formal$ = 28						; size = 1
??$_Uninit_move@PAUOutdoorLightStats@@PAU1@V?$allocator@UOutdoorLightStats@@@std@@U1@@std@@YAPAUOutdoorLightStats@@PAU1@00AAV?$allocator@UOutdoorLightStats@@@0@0U_Nonscalar_ptr_iterator_tag@0@@Z PROC ; std::_Uninit_move<OutdoorLightStats *,OutdoorLightStats *,std::allocator<OutdoorLightStats>,OutdoorLightStats>, COMDAT
; Line 424
	push	ebp
	mov	ebp, esp
	push	ebx
; Line 430
	mov	ebx, DWORD PTR __Last$[ebp]
	push	esi
	mov	esi, DWORD PTR __First$[ebp]
	cmp	esi, ebx
	je	SHORT $LN29@Uninit_mov@2
	push	edi
	mov	edi, DWORD PTR __Dest$[ebp]
$LL6@Uninit_mov@2:
; Line 431
	test	edi, edi
	je	SHORT $LN20@Uninit_mov@2
	push	esi
	mov	ecx, edi
	call	??0OutdoorLightStats@@QAE@ABU0@@Z
$LN20@Uninit_mov@2:
; Line 430
	add	esi, 96					; 00000060H
	add	edi, 96					; 00000060H
	cmp	esi, ebx
	jne	SHORT $LL6@Uninit_mov@2
; Line 437
	mov	eax, edi
	pop	edi
	pop	esi
	pop	ebx
; Line 438
	pop	ebp
	ret	0
$LN29@Uninit_mov@2:
; Line 437
	mov	eax, DWORD PTR __Dest$[ebp]
	pop	esi
	pop	ebx
; Line 438
	pop	ebp
	ret	0
??$_Uninit_move@PAUOutdoorLightStats@@PAU1@V?$allocator@UOutdoorLightStats@@@std@@U1@@std@@YAPAUOutdoorLightStats@@PAU1@00AAV?$allocator@UOutdoorLightStats@@@0@0U_Nonscalar_ptr_iterator_tag@0@@Z ENDP ; std::_Uninit_move<OutdoorLightStats *,OutdoorLightStats *,std::allocator<OutdoorLightStats>,OutdoorLightStats>
_TEXT	ENDS
PUBLIC	??$_Uninit_copy@V?$_Vector_const_iterator@V?$_Vector_val@USkyColor@@V?$allocator@USkyColor@@@std@@@std@@@std@@PAUSkyColor@@V?$allocator@USkyColor@@@2@@std@@YAPAUSkyColor@@V?$_Vector_const_iterator@V?$_Vector_val@USkyColor@@V?$allocator@USkyColor@@@std@@@std@@@0@0PAU1@AAV?$allocator@USkyColor@@@0@U_Nonscalar_ptr_iterator_tag@0@@Z ; std::_Uninit_copy<std::_Vector_const_iterator<std::_Vector_val<SkyColor,std::allocator<SkyColor> > >,SkyColor *,std::allocator<SkyColor> >
; Function compile flags: /Ogtp
;	COMDAT ??$_Uninit_copy@V?$_Vector_const_iterator@V?$_Vector_val@USkyColor@@V?$allocator@USkyColor@@@std@@@std@@@std@@PAUSkyColor@@V?$allocator@USkyColor@@@2@@std@@YAPAUSkyColor@@V?$_Vector_const_iterator@V?$_Vector_val@USkyColor@@V?$allocator@USkyColor@@@std@@@std@@@0@0PAU1@AAV?$allocator@USkyColor@@@0@U_Nonscalar_ptr_iterator_tag@0@@Z
_TEXT	SEGMENT
__First$ = 8						; size = 4
__Last$ = 12						; size = 4
__Dest$ = 16						; size = 4
__Al$ = 20						; size = 4
___formal$ = 24						; size = 1
??$_Uninit_copy@V?$_Vector_const_iterator@V?$_Vector_val@USkyColor@@V?$allocator@USkyColor@@@std@@@std@@@std@@PAUSkyColor@@V?$allocator@USkyColor@@@2@@std@@YAPAUSkyColor@@V?$_Vector_const_iterator@V?$_Vector_val@USkyColor@@V?$allocator@USkyColor@@@std@@@std@@@0@0PAU1@AAV?$allocator@USkyColor@@@0@U_Nonscalar_ptr_iterator_tag@0@@Z PROC ; std::_Uninit_copy<std::_Vector_const_iterator<std::_Vector_val<SkyColor,std::allocator<SkyColor> > >,SkyColor *,std::allocator<SkyColor> >, COMDAT
; Line 369
	push	ebp
	mov	ebp, esp
; Line 375
	mov	ecx, DWORD PTR __First$[ebp]
	mov	edx, DWORD PTR __Last$[ebp]
	mov	eax, DWORD PTR __Dest$[ebp]
	cmp	ecx, edx
	je	SHORT $LN4@Uninit_cop@2
	push	esi
$LL14@Uninit_cop@2:
; Line 376
	test	eax, eax
	je	SHORT $LN35@Uninit_cop@2
	mov	esi, DWORD PTR [ecx]
	mov	DWORD PTR [eax], esi
	mov	esi, DWORD PTR [ecx+4]
	mov	DWORD PTR [eax+4], esi
	mov	esi, DWORD PTR [ecx+8]
	mov	DWORD PTR [eax+8], esi
	mov	esi, DWORD PTR [ecx+12]
	mov	DWORD PTR [eax+12], esi
$LN35@Uninit_cop@2:
; Line 375
	add	ecx, 16					; 00000010H
	add	eax, 16					; 00000010H
	mov	DWORD PTR __First$[ebp], ecx
	cmp	ecx, edx
	jne	SHORT $LL14@Uninit_cop@2
	pop	esi
$LN4@Uninit_cop@2:
; Line 383
	pop	ebp
	ret	0
??$_Uninit_copy@V?$_Vector_const_iterator@V?$_Vector_val@USkyColor@@V?$allocator@USkyColor@@@std@@@std@@@std@@PAUSkyColor@@V?$allocator@USkyColor@@@2@@std@@YAPAUSkyColor@@V?$_Vector_const_iterator@V?$_Vector_val@USkyColor@@V?$allocator@USkyColor@@@std@@@std@@@0@0PAU1@AAV?$allocator@USkyColor@@@0@U_Nonscalar_ptr_iterator_tag@0@@Z ENDP ; std::_Uninit_copy<std::_Vector_const_iterator<std::_Vector_val<SkyColor,std::allocator<SkyColor> > >,SkyColor *,std::allocator<SkyColor> >
_TEXT	ENDS
PUBLIC	??$_Uninitialized_copy@PAUSkyColor@@PAU1@V?$allocator@USkyColor@@@std@@@std@@YAPAUSkyColor@@PAU1@00AAV?$allocator@USkyColor@@@0@@Z ; std::_Uninitialized_copy<SkyColor *,SkyColor *,std::allocator<SkyColor> >
; Function compile flags: /Ogtp
;	COMDAT ??$_Uninitialized_copy@PAUSkyColor@@PAU1@V?$allocator@USkyColor@@@std@@@std@@YAPAUSkyColor@@PAU1@00AAV?$allocator@USkyColor@@@0@@Z
_TEXT	SEGMENT
__Cat$100546 = -4					; size = 1
__First$ = 8						; size = 4
__Last$ = 12						; size = 4
__Dest$ = 16						; size = 4
__Al$ = 20						; size = 4
??$_Uninitialized_copy@PAUSkyColor@@PAU1@V?$allocator@USkyColor@@@std@@@std@@YAPAUSkyColor@@PAU1@00AAV?$allocator@USkyColor@@@0@@Z PROC ; std::_Uninitialized_copy<SkyColor *,SkyColor *,std::allocator<SkyColor> >, COMDAT
; Line 412
	push	ebp
	mov	ebp, esp
	push	ecx
; Line 414
	mov	eax, DWORD PTR __Cat$100546[ebp]
	mov	ecx, DWORD PTR __Al$[ebp]
	mov	edx, DWORD PTR __Dest$[ebp]
	push	eax
	mov	eax, DWORD PTR __Last$[ebp]
	push	ecx
	mov	ecx, DWORD PTR __First$[ebp]
	push	edx
	push	eax
	push	ecx
	call	??$_Uninit_copy@PAUSkyColor@@PAU1@V?$allocator@USkyColor@@@std@@@std@@YAPAUSkyColor@@PAU1@00AAV?$allocator@USkyColor@@@0@U_Nonscalar_ptr_iterator_tag@0@@Z ; std::_Uninit_copy<SkyColor *,SkyColor *,std::allocator<SkyColor> >
	add	esp, 20					; 00000014H
; Line 415
	mov	esp, ebp
	pop	ebp
	ret	0
??$_Uninitialized_copy@PAUSkyColor@@PAU1@V?$allocator@USkyColor@@@std@@@std@@YAPAUSkyColor@@PAU1@00AAV?$allocator@USkyColor@@@0@@Z ENDP ; std::_Uninitialized_copy<SkyColor *,SkyColor *,std::allocator<SkyColor> >
_TEXT	ENDS
PUBLIC	?assign@?$basic_string@DU?$char_traits@D@std@@V?$allocator@D@2@@std@@QAEAAV12@ABV12@II@Z ; std::basic_string<char,std::char_traits<char>,std::allocator<char> >::assign
; Function compile flags: /Ogtp
;	COMDAT ?assign@?$basic_string@DU?$char_traits@D@std@@V?$allocator@D@2@@std@@QAEAAV12@ABV12@II@Z
_TEXT	SEGMENT
__Right$ = 8						; size = 4
__Roff$ = 12						; size = 4
__Count$ = 16						; size = 4
?assign@?$basic_string@DU?$char_traits@D@std@@V?$allocator@D@2@@std@@QAEAAV12@ABV12@II@Z PROC ; std::basic_string<char,std::char_traits<char>,std::allocator<char> >::assign, COMDAT
; _this$ = ecx
; File c:\program files (x86)\microsoft visual studio 10.0\vc\include\xstring
; Line 892
	push	ebp
	mov	ebp, esp
	push	ebx
; Line 893
	mov	ebx, DWORD PTR __Roff$[ebp]
	push	esi
	mov	esi, ecx
	mov	ecx, DWORD PTR __Right$[ebp]
	push	edi
	mov	edi, DWORD PTR [ecx+16]
	cmp	edi, ebx
	jae	SHORT $LN5@assign
; Line 894
	push	OFFSET ??_C@_0BI@CFPLBAOH@invalid?5string?5position?$AA@
	call	DWORD PTR __imp_?_Xout_of_range@std@@YAXPBD@Z
$LN83@assign:
$LN5@assign:
; Line 896
	mov	eax, DWORD PTR __Count$[ebp]
	sub	edi, ebx
	cmp	eax, edi
	jae	SHORT $LN4@assign
; Line 897
	mov	edi, eax
$LN4@assign:
; Line 899
	cmp	esi, ecx
	jne	SHORT $LN3@assign
; Line 900
	push	-1
	add	edi, ebx
	push	edi
	mov	ecx, esi
	call	?erase@?$basic_string@DU?$char_traits@D@std@@V?$allocator@D@2@@std@@QAEAAV12@II@Z ; std::basic_string<char,std::char_traits<char>,std::allocator<char> >::erase
	push	ebx
	push	0
	mov	ecx, esi
	call	?erase@?$basic_string@DU?$char_traits@D@std@@V?$allocator@D@2@@std@@QAEAAV12@II@Z ; std::basic_string<char,std::char_traits<char>,std::allocator<char> >::erase
	pop	edi
; Line 906
	mov	eax, esi
	pop	esi
	pop	ebx
; Line 907
	pop	ebp
	ret	12					; 0000000cH
$LN3@assign:
; Line 901
	cmp	edi, -2					; fffffffeH
	jbe	SHORT $LN20@assign
	push	OFFSET ??_C@_0BA@JFNIOLAK@string?5too?5long?$AA@
	call	DWORD PTR __imp_?_Xlength_error@std@@YAXPBD@Z
$LN84@assign:
$LN20@assign:
	mov	eax, DWORD PTR [esi+20]
	cmp	eax, edi
	jae	SHORT $LN19@assign
	mov	eax, DWORD PTR [esi+16]
	push	eax
	push	edi
	mov	ecx, esi
	call	?_Copy@?$basic_string@DU?$char_traits@D@std@@V?$allocator@D@2@@std@@QAEXII@Z ; std::basic_string<char,std::char_traits<char>,std::allocator<char> >::_Copy
	mov	ecx, DWORD PTR __Right$[ebp]
	test	edi, edi
	je	SHORT $LN78@assign
$LN82@assign:
; Line 903
	mov	eax, 16					; 00000010H
	cmp	DWORD PTR [ecx+20], eax
	jb	SHORT $LN64@assign
	mov	ecx, DWORD PTR [ecx]
$LN64@assign:
	cmp	DWORD PTR [esi+20], eax
	jb	SHORT $LN68@assign
	mov	eax, DWORD PTR [esi]
	jmp	SHORT $LN69@assign
; Line 901
$LN19@assign:
	test	edi, edi
	jne	SHORT $LN82@assign
	mov	DWORD PTR [esi+16], edi
	cmp	eax, 16					; 00000010H
	jb	SHORT $LN58@assign
	mov	eax, DWORD PTR [esi]
	pop	edi
	mov	BYTE PTR [eax], 0
; Line 906
	mov	eax, esi
	pop	esi
	pop	ebx
; Line 907
	pop	ebp
	ret	12					; 0000000cH
; Line 901
$LN58@assign:
	pop	edi
	mov	eax, esi
	pop	esi
	mov	BYTE PTR [eax], 0
	pop	ebx
; Line 907
	pop	ebp
	ret	12					; 0000000cH
; Line 903
$LN68@assign:
	mov	eax, esi
$LN69@assign:
	push	edi
	add	ecx, ebx
	push	ecx
	push	eax
	call	_memcpy
	add	esp, 12					; 0000000cH
; Line 904
	cmp	DWORD PTR [esi+20], 16			; 00000010H
	mov	DWORD PTR [esi+16], edi
	jb	SHORT $LN76@assign
	mov	eax, DWORD PTR [esi]
	mov	BYTE PTR [eax+edi], 0
	pop	edi
; Line 906
	mov	eax, esi
	pop	esi
	pop	ebx
; Line 907
	pop	ebp
	ret	12					; 0000000cH
; Line 904
$LN76@assign:
	mov	eax, esi
	mov	BYTE PTR [eax+edi], 0
$LN78@assign:
; Line 906
	pop	edi
	mov	eax, esi
	pop	esi
	pop	ebx
; Line 907
	pop	ebp
	ret	12					; 0000000cH
$LN80@assign:
?assign@?$basic_string@DU?$char_traits@D@std@@V?$allocator@D@2@@std@@QAEAAV12@ABV12@II@Z ENDP ; std::basic_string<char,std::char_traits<char>,std::allocator<char> >::assign
_TEXT	ENDS
PUBLIC	?assign@?$basic_string@DU?$char_traits@D@std@@V?$allocator@D@2@@std@@QAEAAV12@PBDI@Z ; std::basic_string<char,std::char_traits<char>,std::allocator<char> >::assign
; Function compile flags: /Ogtp
;	COMDAT ?assign@?$basic_string@DU?$char_traits@D@std@@V?$allocator@D@2@@std@@QAEAAV12@PBDI@Z
_TEXT	SEGMENT
__Ptr$ = 8						; size = 4
__Count$ = 12						; size = 4
?assign@?$basic_string@DU?$char_traits@D@std@@V?$allocator@D@2@@std@@QAEAAV12@PBDI@Z PROC ; std::basic_string<char,std::char_traits<char>,std::allocator<char> >::assign, COMDAT
; _this$ = ecx
; Line 910
	push	ebp
	mov	ebp, esp
	push	ebx
; Line 916
	mov	ebx, DWORD PTR __Ptr$[ebp]
	push	esi
	mov	esi, ecx
	test	ebx, ebx
	je	SHORT $LN85@assign@2
	mov	ecx, DWORD PTR [esi+20]
	cmp	ecx, 16					; 00000010H
	jb	SHORT $LN12@assign@2
	mov	eax, DWORD PTR [esi]
	jmp	SHORT $LN13@assign@2
$LN12@assign@2:
	mov	eax, esi
$LN13@assign@2:
	cmp	ebx, eax
	jb	SHORT $LN85@assign@2
	cmp	ecx, 16					; 00000010H
	jb	SHORT $LN16@assign@2
	mov	eax, DWORD PTR [esi]
	jmp	SHORT $LN17@assign@2
$LN16@assign@2:
	mov	eax, esi
$LN17@assign@2:
	mov	edx, DWORD PTR [esi+16]
	add	edx, eax
	cmp	edx, ebx
	jbe	SHORT $LN85@assign@2
; Line 917
	cmp	ecx, 16					; 00000010H
	jb	SHORT $LN20@assign@2
	mov	eax, DWORD PTR [esi]
	mov	ecx, DWORD PTR __Count$[ebp]
	push	ecx
	sub	ebx, eax
	push	ebx
	push	esi
	mov	ecx, esi
	call	?assign@?$basic_string@DU?$char_traits@D@std@@V?$allocator@D@2@@std@@QAEAAV12@ABV12@II@Z ; std::basic_string<char,std::char_traits<char>,std::allocator<char> >::assign
	pop	esi
	pop	ebx
; Line 925
	pop	ebp
	ret	8
; Line 917
$LN20@assign@2:
	mov	ecx, DWORD PTR __Count$[ebp]
	mov	eax, esi
	push	ecx
	sub	ebx, eax
	push	ebx
	push	esi
	mov	ecx, esi
	call	?assign@?$basic_string@DU?$char_traits@D@std@@V?$allocator@D@2@@std@@QAEAAV12@ABV12@II@Z ; std::basic_string<char,std::char_traits<char>,std::allocator<char> >::assign
	pop	esi
	pop	ebx
; Line 925
	pop	ebp
	ret	8
$LN85@assign@2:
	push	edi
; Line 919
	mov	edi, DWORD PTR __Count$[ebp]
	cmp	edi, -2					; fffffffeH
	jbe	SHORT $LN27@assign@2
	push	OFFSET ??_C@_0BA@JFNIOLAK@string?5too?5long?$AA@
	call	DWORD PTR __imp_?_Xlength_error@std@@YAXPBD@Z
$LN89@assign@2:
$LN27@assign@2:
	mov	eax, DWORD PTR [esi+20]
	cmp	eax, edi
	jae	SHORT $LN26@assign@2
	mov	edx, DWORD PTR [esi+16]
	push	edx
	push	edi
	mov	ecx, esi
	call	?_Copy@?$basic_string@DU?$char_traits@D@std@@V?$allocator@D@2@@std@@QAEXII@Z ; std::basic_string<char,std::char_traits<char>,std::allocator<char> >::_Copy
	test	edi, edi
	je	SHORT $LN82@assign@2
$LN88@assign@2:
; Line 921
	cmp	DWORD PTR [esi+20], 16			; 00000010H
	jb	SHORT $LN72@assign@2
	mov	eax, DWORD PTR [esi]
	jmp	SHORT $LN73@assign@2
; Line 919
$LN26@assign@2:
	test	edi, edi
	jne	SHORT $LN88@assign@2
	mov	DWORD PTR [esi+16], edi
	cmp	eax, 16					; 00000010H
	jb	SHORT $LN65@assign@2
	mov	eax, DWORD PTR [esi]
	pop	edi
	mov	BYTE PTR [eax], 0
; Line 924
	mov	eax, esi
	pop	esi
	pop	ebx
; Line 925
	pop	ebp
	ret	8
; Line 919
$LN65@assign@2:
	pop	edi
	mov	eax, esi
	pop	esi
	mov	BYTE PTR [eax], 0
	pop	ebx
; Line 925
	pop	ebp
	ret	8
; Line 921
$LN72@assign@2:
	mov	eax, esi
$LN73@assign@2:
	push	edi
	push	ebx
	push	eax
	call	_memcpy
	add	esp, 12					; 0000000cH
; Line 922
	cmp	DWORD PTR [esi+20], 16			; 00000010H
	mov	DWORD PTR [esi+16], edi
	jb	SHORT $LN80@assign@2
	mov	eax, DWORD PTR [esi]
	mov	BYTE PTR [eax+edi], 0
	pop	edi
; Line 924
	mov	eax, esi
	pop	esi
	pop	ebx
; Line 925
	pop	ebp
	ret	8
; Line 922
$LN80@assign@2:
	mov	eax, esi
	mov	BYTE PTR [eax+edi], 0
$LN82@assign@2:
; Line 924
	pop	edi
	mov	eax, esi
	pop	esi
	pop	ebx
; Line 925
	pop	ebp
	ret	8
$LN86@assign@2:
?assign@?$basic_string@DU?$char_traits@D@std@@V?$allocator@D@2@@std@@QAEAAV12@PBDI@Z ENDP ; std::basic_string<char,std::char_traits<char>,std::allocator<char> >::assign
_TEXT	ENDS
PUBLIC	??$_Destroy_range@V?$allocator@USkyColor@@@std@@@std@@YAXPAUSkyColor@@0AAV?$allocator@USkyColor@@@0@@Z ; std::_Destroy_range<std::allocator<SkyColor> >
; Function compile flags: /Ogtp
;	COMDAT ??$_Destroy_range@V?$allocator@USkyColor@@@std@@@std@@YAXPAUSkyColor@@0AAV?$allocator@USkyColor@@@0@@Z
_TEXT	SEGMENT
__First$ = 8						; size = 4
__Last$ = 12						; size = 4
__Al$ = 16						; size = 4
??$_Destroy_range@V?$allocator@USkyColor@@@std@@@std@@YAXPAUSkyColor@@0AAV?$allocator@USkyColor@@@0@@Z PROC ; std::_Destroy_range<std::allocator<SkyColor> >, COMDAT
; File c:\program files (x86)\microsoft visual studio 10.0\vc\include\xmemory
; Line 89
	ret	0
??$_Destroy_range@V?$allocator@USkyColor@@@std@@@std@@YAXPAUSkyColor@@0AAV?$allocator@USkyColor@@@0@@Z ENDP ; std::_Destroy_range<std::allocator<SkyColor> >
_TEXT	ENDS
PUBLIC	??$_Destroy_range@V?$allocator@UOutdoorLightStats@@@std@@@std@@YAXPAUOutdoorLightStats@@0AAV?$allocator@UOutdoorLightStats@@@0@@Z ; std::_Destroy_range<std::allocator<OutdoorLightStats> >
; Function compile flags: /Ogtp
;	COMDAT ??$_Destroy_range@V?$allocator@UOutdoorLightStats@@@std@@@std@@YAXPAUOutdoorLightStats@@0AAV?$allocator@UOutdoorLightStats@@@0@@Z
_TEXT	SEGMENT
__First$ = 8						; size = 4
__Last$ = 12						; size = 4
__Al$ = 16						; size = 4
??$_Destroy_range@V?$allocator@UOutdoorLightStats@@@std@@@std@@YAXPAUOutdoorLightStats@@0AAV?$allocator@UOutdoorLightStats@@@0@@Z PROC ; std::_Destroy_range<std::allocator<OutdoorLightStats> >, COMDAT
; Line 89
	ret	0
??$_Destroy_range@V?$allocator@UOutdoorLightStats@@@std@@@std@@YAXPAUOutdoorLightStats@@0AAV?$allocator@UOutdoorLightStats@@@0@@Z ENDP ; std::_Destroy_range<std::allocator<OutdoorLightStats> >
_TEXT	ENDS
PUBLIC	??$_Uninitialized_move@PAUSkyColor@@PAU1@V?$allocator@USkyColor@@@std@@@std@@YAPAUSkyColor@@PAU1@00AAV?$allocator@USkyColor@@@0@@Z ; std::_Uninitialized_move<SkyColor *,SkyColor *,std::allocator<SkyColor> >
; Function compile flags: /Ogtp
;	COMDAT ??$_Uninitialized_move@PAUSkyColor@@PAU1@V?$allocator@USkyColor@@@std@@@std@@YAPAUSkyColor@@PAU1@00AAV?$allocator@USkyColor@@@0@@Z
_TEXT	SEGMENT
__Cat$101005 = -4					; size = 1
__First$ = 8						; size = 4
__Last$ = 12						; size = 4
__Dest$ = 16						; size = 4
__Al$ = 20						; size = 4
??$_Uninitialized_move@PAUSkyColor@@PAU1@V?$allocator@USkyColor@@@std@@@std@@YAPAUSkyColor@@PAU1@00AAV?$allocator@USkyColor@@@0@@Z PROC ; std::_Uninitialized_move<SkyColor *,SkyColor *,std::allocator<SkyColor> >, COMDAT
; File c:\program files (x86)\microsoft visual studio 10.0\vc\include\memory
; Line 469
	push	ebp
	mov	ebp, esp
	push	ecx
; Line 471
	mov	eax, DWORD PTR __Cat$101005[ebp]
	mov	ecx, DWORD PTR __Al$[ebp]
	mov	edx, DWORD PTR __Dest$[ebp]
	push	eax
	mov	eax, DWORD PTR __Last$[ebp]
	push	0
	push	ecx
	mov	ecx, DWORD PTR __First$[ebp]
	push	edx
	push	eax
	push	ecx
	call	??$_Uninit_move@PAUSkyColor@@PAU1@V?$allocator@USkyColor@@@std@@U1@@std@@YAPAUSkyColor@@PAU1@00AAV?$allocator@USkyColor@@@0@0U_Nonscalar_ptr_iterator_tag@0@@Z ; std::_Uninit_move<SkyColor *,SkyColor *,std::allocator<SkyColor>,SkyColor>
