; Listing generated by Microsoft (R) Optimizing Compiler Version 16.00.40219.01 

	TITLE	C:\programovani\WoW Editor\Test\src\Editor\TexturingUI.cpp
	.686P
	.XMM
	include listing.inc
	.model	flat

INCLUDELIB MSVCRT
INCLUDELIB OLDNAMES

PUBLIC	?chunkEffectID@@3PAVtextUI@@A			; chunkEffectID
PUBLIC	?chunkHoles@@3PAPAVtextureUI@@A			; chunkHoles
PUBLIC	?fileFilter@@3PA_NA				; fileFilter
PUBLIC	?chunkTextureFlags@@3PAPAVtextUI@@A		; chunkTextureFlags
PUBLIC	?tilesetFilter@@3PA_NA				; tilesetFilter
PUBLIC	?chunkTextureEffectID@@3PAPAVtextUI@@A		; chunkTextureEffectID
PUBLIC	?chunkTextureNames@@3PAPAVtextUI@@A		; chunkTextureNames
PUBLIC	?selectedTexture@@3PAVManagedItem@@A		; selectedTexture
PUBLIC	?chunkTexture@@3PAPAVtextureUI@@A		; chunkTexture
PUBLIC	?filters@@3PAY0PP@DA				; filters
PUBLIC	?chunkNumEffects@@3PAVtextUI@@A			; chunkNumEffects
PUBLIC	?windowSelectedTexture@@3PAVminWindowUI@@A	; windowSelectedTexture
PUBLIC	?textureSelected@@3PAVtextureUI@@A		; textureSelected
PUBLIC	?windowTilesetLoader@@3PAVcloseWindowUI@@A	; windowTilesetLoader
PUBLIC	?chunkLocation@@3PAVtextUI@@A			; chunkLocation
PUBLIC	?CurTextureName@@3PADA				; CurTextureName
PUBLIC	?chunkFlags@@3PAVtextUI@@A			; chunkFlags
PUBLIC	?chunkEffectModels@@3PAPAVtextUI@@A		; chunkEffectModels
PUBLIC	?textSelectedTexture@@3PAVtextUI@@A		; textSelectedTexture
PUBLIC	?theTextures@@3PAPAVManagedItem@@A		; theTextures
PUBLIC	?chunkAreaID@@3PAVtextUI@@A			; chunkAreaID
PUBLIC	?windowMapChunk@@3PAVcloseWindowUI@@A		; windowMapChunk
PUBLIC	?chunkFlagChecks@@3PAPAVcheckboxUI@@A		; chunkFlagChecks
PUBLIC	?curTextures@@3PAPAVtextureUI@@A		; curTextures
PUBLIC	?windowTexturePalette@@3PAVminWindowUI@@A	; windowTexturePalette
PUBLIC	?windowTextureFilter@@3PAVcloseWindowUI@@A	; windowTextureFilter
PUBLIC	?value@?$integral_constant@_N$0A@@tr1@std@@2_NB	; std::tr1::integral_constant<bool,0>::value
PUBLIC	?value@?$integral_constant@_N$00@tr1@std@@2_NB	; std::tr1::integral_constant<bool,1>::value
PUBLIC	?value@?$integral_constant@I$0A@@tr1@std@@2IB	; std::tr1::integral_constant<unsigned int,0>::value
PUBLIC	?_Rank@?$_Arithmetic_traits@_N@std@@2HB		; std::_Arithmetic_traits<bool>::_Rank
PUBLIC	?_Rank@?$_Arithmetic_traits@D@std@@2HB		; std::_Arithmetic_traits<char>::_Rank
PUBLIC	?_Rank@?$_Arithmetic_traits@C@std@@2HB		; std::_Arithmetic_traits<signed char>::_Rank
PUBLIC	?_Rank@?$_Arithmetic_traits@E@std@@2HB		; std::_Arithmetic_traits<unsigned char>::_Rank
PUBLIC	?_Rank@?$_Arithmetic_traits@F@std@@2HB		; std::_Arithmetic_traits<short>::_Rank
PUBLIC	?_Rank@?$_Arithmetic_traits@G@std@@2HB		; std::_Arithmetic_traits<unsigned short>::_Rank
PUBLIC	?_Rank@?$_Arithmetic_traits@H@std@@2HB		; std::_Arithmetic_traits<int>::_Rank
PUBLIC	?_Rank@?$_Arithmetic_traits@I@std@@2HB		; std::_Arithmetic_traits<unsigned int>::_Rank
PUBLIC	?_Rank@?$_Arithmetic_traits@J@std@@2HB		; std::_Arithmetic_traits<long>::_Rank
PUBLIC	?_Rank@?$_Arithmetic_traits@K@std@@2HB		; std::_Arithmetic_traits<unsigned long>::_Rank
PUBLIC	?_Rank@?$_Arithmetic_traits@_J@std@@2HB		; std::_Arithmetic_traits<__int64>::_Rank
PUBLIC	?_Rank@?$_Arithmetic_traits@_K@std@@2HB		; std::_Arithmetic_traits<unsigned __int64>::_Rank
PUBLIC	?_Rank@?$_Arithmetic_traits@M@std@@2HB		; std::_Arithmetic_traits<float>::_Rank
PUBLIC	?_Rank@?$_Arithmetic_traits@N@std@@2HB		; std::_Arithmetic_traits<double>::_Rank
PUBLIC	?_Rank@?$_Arithmetic_traits@O@std@@2HB		; std::_Arithmetic_traits<long double>::_Rank
PUBLIC	?collate@?$_Locbase@H@std@@2HB			; std::_Locbase<int>::collate
PUBLIC	?ctype@?$_Locbase@H@std@@2HB			; std::_Locbase<int>::ctype
PUBLIC	?monetary@?$_Locbase@H@std@@2HB			; std::_Locbase<int>::monetary
PUBLIC	?numeric@?$_Locbase@H@std@@2HB			; std::_Locbase<int>::numeric
PUBLIC	?time@?$_Locbase@H@std@@2HB			; std::_Locbase<int>::time
PUBLIC	?messages@?$_Locbase@H@std@@2HB			; std::_Locbase<int>::messages
PUBLIC	?all@?$_Locbase@H@std@@2HB			; std::_Locbase<int>::all
PUBLIC	?none@?$_Locbase@H@std@@2HB			; std::_Locbase<int>::none
PUBLIC	?skipws@?$_Iosb@H@std@@2W4_Fmtflags@12@B	; std::_Iosb<int>::skipws
PUBLIC	?unitbuf@?$_Iosb@H@std@@2W4_Fmtflags@12@B	; std::_Iosb<int>::unitbuf
PUBLIC	?uppercase@?$_Iosb@H@std@@2W4_Fmtflags@12@B	; std::_Iosb<int>::uppercase
PUBLIC	?showbase@?$_Iosb@H@std@@2W4_Fmtflags@12@B	; std::_Iosb<int>::showbase
PUBLIC	?showpoint@?$_Iosb@H@std@@2W4_Fmtflags@12@B	; std::_Iosb<int>::showpoint
PUBLIC	?showpos@?$_Iosb@H@std@@2W4_Fmtflags@12@B	; std::_Iosb<int>::showpos
PUBLIC	?left@?$_Iosb@H@std@@2W4_Fmtflags@12@B		; std::_Iosb<int>::left
PUBLIC	?right@?$_Iosb@H@std@@2W4_Fmtflags@12@B		; std::_Iosb<int>::right
PUBLIC	?internal@?$_Iosb@H@std@@2W4_Fmtflags@12@B	; std::_Iosb<int>::internal
PUBLIC	?dec@?$_Iosb@H@std@@2W4_Fmtflags@12@B		; std::_Iosb<int>::dec
PUBLIC	?oct@?$_Iosb@H@std@@2W4_Fmtflags@12@B		; std::_Iosb<int>::oct
PUBLIC	?hex@?$_Iosb@H@std@@2W4_Fmtflags@12@B		; std::_Iosb<int>::hex
PUBLIC	?scientific@?$_Iosb@H@std@@2W4_Fmtflags@12@B	; std::_Iosb<int>::scientific
PUBLIC	?fixed@?$_Iosb@H@std@@2W4_Fmtflags@12@B		; std::_Iosb<int>::fixed
PUBLIC	?hexfloat@?$_Iosb@H@std@@2W4_Fmtflags@12@B	; std::_Iosb<int>::hexfloat
PUBLIC	?boolalpha@?$_Iosb@H@std@@2W4_Fmtflags@12@B	; std::_Iosb<int>::boolalpha
PUBLIC	?_Stdio@?$_Iosb@H@std@@2W4_Fmtflags@12@B	; std::_Iosb<int>::_Stdio
PUBLIC	?adjustfield@?$_Iosb@H@std@@2W4_Fmtflags@12@B	; std::_Iosb<int>::adjustfield
PUBLIC	?basefield@?$_Iosb@H@std@@2W4_Fmtflags@12@B	; std::_Iosb<int>::basefield
PUBLIC	?floatfield@?$_Iosb@H@std@@2W4_Fmtflags@12@B	; std::_Iosb<int>::floatfield
PUBLIC	?goodbit@?$_Iosb@H@std@@2W4_Iostate@12@B	; std::_Iosb<int>::goodbit
PUBLIC	?eofbit@?$_Iosb@H@std@@2W4_Iostate@12@B		; std::_Iosb<int>::eofbit
PUBLIC	?failbit@?$_Iosb@H@std@@2W4_Iostate@12@B	; std::_Iosb<int>::failbit
PUBLIC	?badbit@?$_Iosb@H@std@@2W4_Iostate@12@B		; std::_Iosb<int>::badbit
PUBLIC	?_Hardfail@?$_Iosb@H@std@@2W4_Iostate@12@B	; std::_Iosb<int>::_Hardfail
PUBLIC	?in@?$_Iosb@H@std@@2W4_Openmode@12@B		; std::_Iosb<int>::in
PUBLIC	?out@?$_Iosb@H@std@@2W4_Openmode@12@B		; std::_Iosb<int>::out
PUBLIC	?ate@?$_Iosb@H@std@@2W4_Openmode@12@B		; std::_Iosb<int>::ate
PUBLIC	?app@?$_Iosb@H@std@@2W4_Openmode@12@B		; std::_Iosb<int>::app
PUBLIC	?trunc@?$_Iosb@H@std@@2W4_Openmode@12@B		; std::_Iosb<int>::trunc
PUBLIC	?_Nocreate@?$_Iosb@H@std@@2W4_Openmode@12@B	; std::_Iosb<int>::_Nocreate
PUBLIC	?_Noreplace@?$_Iosb@H@std@@2W4_Openmode@12@B	; std::_Iosb<int>::_Noreplace
PUBLIC	?binary@?$_Iosb@H@std@@2W4_Openmode@12@B	; std::_Iosb<int>::binary
PUBLIC	?beg@?$_Iosb@H@std@@2W4_Seekdir@12@B		; std::_Iosb<int>::beg
PUBLIC	?cur@?$_Iosb@H@std@@2W4_Seekdir@12@B		; std::_Iosb<int>::cur
PUBLIC	?end@?$_Iosb@H@std@@2W4_Seekdir@12@B		; std::_Iosb<int>::end
PUBLIC	?AreaID@AreaDB@@2IB				; AreaDB::AreaID
PUBLIC	?Continent@AreaDB@@2IB				; AreaDB::Continent
PUBLIC	?Region@AreaDB@@2IB				; AreaDB::Region
PUBLIC	?Flags@AreaDB@@2IB				; AreaDB::Flags
PUBLIC	?Name@AreaDB@@2IB				; AreaDB::Name
PUBLIC	?texturePaletteCreated@@3_NA			; texturePaletteCreated
_BSS	SEGMENT
?chunkEffectID@@3PAVtextUI@@A DD 01H DUP (?)		; chunkEffectID
?chunkHoles@@3PAPAVtextureUI@@A DD 010H DUP (?)		; chunkHoles
?fileFilter@@3PA_NA DB 019H DUP (?)			; fileFilter
	ALIGN	4

?chunkTextureFlags@@3PAPAVtextUI@@A DD 04H DUP (?)	; chunkTextureFlags
?tilesetFilter@@3PA_NA DB 030H DUP (?)			; tilesetFilter
?chunkTextureEffectID@@3PAPAVtextUI@@A DD 04H DUP (?)	; chunkTextureEffectID
?chunkTextureNames@@3PAPAVtextUI@@A DD 04H DUP (?)	; chunkTextureNames
?selectedTexture@@3PAVManagedItem@@A DD 01H DUP (?)	; selectedTexture
?chunkTexture@@3PAPAVtextureUI@@A DD 04H DUP (?)	; chunkTexture
?filters@@3PAY0PP@DA DB 017e8H DUP (?)			; filters
?chunkNumEffects@@3PAVtextUI@@A DD 01H DUP (?)		; chunkNumEffects
?windowSelectedTexture@@3PAVminWindowUI@@A DD 01H DUP (?) ; windowSelectedTexture
?textureSelected@@3PAVtextureUI@@A DD 01H DUP (?)	; textureSelected
?windowTilesetLoader@@3PAVcloseWindowUI@@A DD 01H DUP (?) ; windowTilesetLoader
?chunkLocation@@3PAVtextUI@@A DD 01H DUP (?)		; chunkLocation
?CurTextureName@@3PADA DB 0100H DUP (?)			; CurTextureName
?chunkFlags@@3PAVtextUI@@A DD 01H DUP (?)		; chunkFlags
?chunkEffectModels@@3PAPAVtextUI@@A DD 04H DUP (?)	; chunkEffectModels
?textSelectedTexture@@3PAVtextUI@@A DD 01H DUP (?)	; textSelectedTexture
?theTextures@@3PAPAVManagedItem@@A DD 08H DUP (?)	; theTextures
?chunkAreaID@@3PAVtextUI@@A DD 01H DUP (?)		; chunkAreaID
?windowMapChunk@@3PAVcloseWindowUI@@A DD 01H DUP (?)	; windowMapChunk
?chunkFlagChecks@@3PAPAVcheckboxUI@@A DD 05H DUP (?)	; chunkFlagChecks
?curTextures@@3PAPAVtextureUI@@A DD 08H DUP (?)		; curTextures
?windowTexturePalette@@3PAVminWindowUI@@A DD 01H DUP (?) ; windowTexturePalette
?windowTextureFilter@@3PAVcloseWindowUI@@A DD 01H DUP (?) ; windowTextureFilter
?texturePaletteCreated@@3_NA DB 01H DUP (?)		; texturePaletteCreated
_BSS	ENDS
CONST	SEGMENT
$SG116346 DB	'rt', 00H
$SG117177 DB	00H
$SG116347 DB	'textures.txt', 00H
	ORG $+3
$SG116355 DB	'rt', 00H
	ORG $+1
$SG116356 DB	'tilesets.txt', 00H
	ORG $+3
$SG116367 DB	'rt', 00H
	ORG $+1
$SG116368 DB	'filters.txt', 00H
$SG116887 DB	'Texture Palette', 00H
$SG116897 DB	'tileset\generic\black.blp', 00H
	ORG $+2
$SG116907 DB	'Interface\Buttons\UI-SpellbookIcon-NextPage-Down.blp', 00H
	ORG $+3
$SG116908 DB	'Interface\Buttons\UI-SpellbookIcon-NextPage-Up.blp', 00H
	ORG $+1
$SG116915 DB	'Interface\Buttons\UI-SpellbookIcon-PrevPage-Down.blp', 00H
	ORG $+3
$SG116916 DB	'Interface\Buttons\UI-SpellbookIcon-PrevPage-Up.blp', 00H
	ORG $+1
$SG116923 DB	'Interface\Buttons\UI-DialogBox-Button-Down.blp', 00H
	ORG $+1
$SG116924 DB	'Interface\Buttons\UI-DialogBox-Button-Up.blp', 00H
	ORG $+3
$SG116925 DB	'Load Textures', 00H
	ORG $+2
$SG116932 DB	'Interface\Buttons\UI-DialogBox-Button-Down.blp', 00H
	ORG $+1
$SG116933 DB	'Interface\Buttons\UI-DialogBox-Button-Up.blp', 00H
	ORG $+3
$SG116934 DB	'Filter Textures', 00H
$SG116941 DB	'Current Texture', 00H
$SG116954 DB	'tileset\generic\black.blp', 00H
	ORG $+2
$SG116965 DB	'tileset\generic\black.blp', 00H
	ORG $+2
$SG116990 DB	'Tileset Loading', 00H
$SG117001 DB	'Interface\Buttons\UI-DialogBox-Button-Down.blp', 00H
	ORG $+1
$SG117002 DB	'Interface\Buttons\UI-DialogBox-Button-Up.blp', 00H
	ORG $+3
$SG117019 DB	'Texture Filtering', 00H
	ORG $+2
$SG117024 DB	'Filename Filters', 00H
	ORG $+3
$SG117037 DB	'Misc (Everything Else)', 00H
	ORG $+1
$SG117042 DB	'Tileset Filters', 00H
$SG117060 DB	'Map Chunk Settings', 00H
	ORG $+1
$SG117069 DB	'Chunk x, y of Tile x, y at (x, y, z)', 00H
	ORG $+3
$SG117074 DB	'AreaID:', 00H
$SG117079 DB	'Flags:', 00H
	ORG $+1
$SG117084 DB	'Shadow', 00H
	ORG $+1
$SG117089 DB	'Impassible', 00H
	ORG $+1
$SG117094 DB	'River', 00H
	ORG $+2
$SG117099 DB	'Ocean', 00H
	ORG $+2
$SG117104 DB	'Magma', 00H
	ORG $+2
$SG117109 DB	'EffectID:', 00H
	ORG $+2
$SG117114 DB	'Num Effects:', 00H
	ORG $+3
$SG117124 DB	'Effect Doodad', 00H
	ORG $+2
$SG117132 DB	'Effect Doodad', 00H
	ORG $+2
$SG117147 DB	'tileset\generic\black.blp', 00H
	ORG $+2
$SG117152 DB	'Texture Name', 00H
	ORG $+3
$SG117157 DB	'Flags -', 00H
$SG117162 DB	'EffectID -', 00H
	ORG $+1
$SG117172 DB	'Chunk %d, %d at (%.2f, %.2f, %.2f)', 00H
	ORG $+1
$SG117178 DB	'AreaID: %s (%d)', 00H
$SG117179 DB	'Flags: %d', 00H
	ORG $+2
$SG117184 DB	'EffectID: %d', 00H
	ORG $+3
$SG117185 DB	'Num Effects: %d', 00H
CONST	ENDS
;	COMDAT ?Name@AreaDB@@2IB
CONST	SEGMENT
?Name@AreaDB@@2IB DD 0bH				; AreaDB::Name
CONST	ENDS
;	COMDAT ?Flags@AreaDB@@2IB
CONST	SEGMENT
?Flags@AreaDB@@2IB DD 03H				; AreaDB::Flags
CONST	ENDS
;	COMDAT ?Region@AreaDB@@2IB
CONST	SEGMENT
?Region@AreaDB@@2IB DD 02H				; AreaDB::Region
CONST	ENDS
;	COMDAT ?Continent@AreaDB@@2IB
CONST	SEGMENT
?Continent@AreaDB@@2IB DD 01H				; AreaDB::Continent
CONST	ENDS
;	COMDAT ?AreaID@AreaDB@@2IB
CONST	SEGMENT
?AreaID@AreaDB@@2IB DD 00H				; AreaDB::AreaID
CONST	ENDS
;	COMDAT ?end@?$_Iosb@H@std@@2W4_Seekdir@12@B
CONST	SEGMENT
?end@?$_Iosb@H@std@@2W4_Seekdir@12@B DD 02H		; std::_Iosb<int>::end
CONST	ENDS
;	COMDAT ?cur@?$_Iosb@H@std@@2W4_Seekdir@12@B
CONST	SEGMENT
?cur@?$_Iosb@H@std@@2W4_Seekdir@12@B DD 01H		; std::_Iosb<int>::cur
CONST	ENDS
;	COMDAT ?beg@?$_Iosb@H@std@@2W4_Seekdir@12@B
CONST	SEGMENT
?beg@?$_Iosb@H@std@@2W4_Seekdir@12@B DD 00H		; std::_Iosb<int>::beg
CONST	ENDS
;	COMDAT ?binary@?$_Iosb@H@std@@2W4_Openmode@12@B
CONST	SEGMENT
?binary@?$_Iosb@H@std@@2W4_Openmode@12@B DD 020H	; std::_Iosb<int>::binary
CONST	ENDS
;	COMDAT ?_Noreplace@?$_Iosb@H@std@@2W4_Openmode@12@B
CONST	SEGMENT
?_Noreplace@?$_Iosb@H@std@@2W4_Openmode@12@B DD 080H	; std::_Iosb<int>::_Noreplace
CONST	ENDS
;	COMDAT ?_Nocreate@?$_Iosb@H@std@@2W4_Openmode@12@B
CONST	SEGMENT
?_Nocreate@?$_Iosb@H@std@@2W4_Openmode@12@B DD 040H	; std::_Iosb<int>::_Nocreate
CONST	ENDS
;	COMDAT ?trunc@?$_Iosb@H@std@@2W4_Openmode@12@B
CONST	SEGMENT
?trunc@?$_Iosb@H@std@@2W4_Openmode@12@B DD 010H		; std::_Iosb<int>::trunc
CONST	ENDS
;	COMDAT ?app@?$_Iosb@H@std@@2W4_Openmode@12@B
CONST	SEGMENT
?app@?$_Iosb@H@std@@2W4_Openmode@12@B DD 08H		; std::_Iosb<int>::app
CONST	ENDS
;	COMDAT ?ate@?$_Iosb@H@std@@2W4_Openmode@12@B
CONST	SEGMENT
?ate@?$_Iosb@H@std@@2W4_Openmode@12@B DD 04H		; std::_Iosb<int>::ate
CONST	ENDS
;	COMDAT ?out@?$_Iosb@H@std@@2W4_Openmode@12@B
CONST	SEGMENT
?out@?$_Iosb@H@std@@2W4_Openmode@12@B DD 02H		; std::_Iosb<int>::out
CONST	ENDS
;	COMDAT ?in@?$_Iosb@H@std@@2W4_Openmode@12@B
CONST	SEGMENT
?in@?$_Iosb@H@std@@2W4_Openmode@12@B DD 01H		; std::_Iosb<int>::in
CONST	ENDS
;	COMDAT ?_Hardfail@?$_Iosb@H@std@@2W4_Iostate@12@B
CONST	SEGMENT
?_Hardfail@?$_Iosb@H@std@@2W4_Iostate@12@B DD 010H	; std::_Iosb<int>::_Hardfail
CONST	ENDS
;	COMDAT ?badbit@?$_Iosb@H@std@@2W4_Iostate@12@B
CONST	SEGMENT
?badbit@?$_Iosb@H@std@@2W4_Iostate@12@B DD 04H		; std::_Iosb<int>::badbit
CONST	ENDS
;	COMDAT ?failbit@?$_Iosb@H@std@@2W4_Iostate@12@B
CONST	SEGMENT
?failbit@?$_Iosb@H@std@@2W4_Iostate@12@B DD 02H		; std::_Iosb<int>::failbit
CONST	ENDS
;	COMDAT ?eofbit@?$_Iosb@H@std@@2W4_Iostate@12@B
CONST	SEGMENT
?eofbit@?$_Iosb@H@std@@2W4_Iostate@12@B DD 01H		; std::_Iosb<int>::eofbit
CONST	ENDS
;	COMDAT ?goodbit@?$_Iosb@H@std@@2W4_Iostate@12@B
CONST	SEGMENT
?goodbit@?$_Iosb@H@std@@2W4_Iostate@12@B DD 00H		; std::_Iosb<int>::goodbit
CONST	ENDS
;	COMDAT ?floatfield@?$_Iosb@H@std@@2W4_Fmtflags@12@B
CONST	SEGMENT
?floatfield@?$_Iosb@H@std@@2W4_Fmtflags@12@B DD 03000H	; std::_Iosb<int>::floatfield
CONST	ENDS
;	COMDAT ?basefield@?$_Iosb@H@std@@2W4_Fmtflags@12@B
CONST	SEGMENT
?basefield@?$_Iosb@H@std@@2W4_Fmtflags@12@B DD 0e00H	; std::_Iosb<int>::basefield
CONST	ENDS
;	COMDAT ?adjustfield@?$_Iosb@H@std@@2W4_Fmtflags@12@B
CONST	SEGMENT
?adjustfield@?$_Iosb@H@std@@2W4_Fmtflags@12@B DD 01c0H	; std::_Iosb<int>::adjustfield
CONST	ENDS
;	COMDAT ?_Stdio@?$_Iosb@H@std@@2W4_Fmtflags@12@B
CONST	SEGMENT
?_Stdio@?$_Iosb@H@std@@2W4_Fmtflags@12@B DD 08000H	; std::_Iosb<int>::_Stdio
CONST	ENDS
;	COMDAT ?boolalpha@?$_Iosb@H@std@@2W4_Fmtflags@12@B
CONST	SEGMENT
?boolalpha@?$_Iosb@H@std@@2W4_Fmtflags@12@B DD 04000H	; std::_Iosb<int>::boolalpha
CONST	ENDS
;	COMDAT ?hexfloat@?$_Iosb@H@std@@2W4_Fmtflags@12@B
CONST	SEGMENT
?hexfloat@?$_Iosb@H@std@@2W4_Fmtflags@12@B DD 03000H	; std::_Iosb<int>::hexfloat
CONST	ENDS
;	COMDAT ?fixed@?$_Iosb@H@std@@2W4_Fmtflags@12@B
CONST	SEGMENT
?fixed@?$_Iosb@H@std@@2W4_Fmtflags@12@B DD 02000H	; std::_Iosb<int>::fixed
CONST	ENDS
;	COMDAT ?scientific@?$_Iosb@H@std@@2W4_Fmtflags@12@B
CONST	SEGMENT
?scientific@?$_Iosb@H@std@@2W4_Fmtflags@12@B DD 01000H	; std::_Iosb<int>::scientific
CONST	ENDS
;	COMDAT ?hex@?$_Iosb@H@std@@2W4_Fmtflags@12@B
CONST	SEGMENT
?hex@?$_Iosb@H@std@@2W4_Fmtflags@12@B DD 0800H		; std::_Iosb<int>::hex
CONST	ENDS
;	COMDAT ?oct@?$_Iosb@H@std@@2W4_Fmtflags@12@B
CONST	SEGMENT
?oct@?$_Iosb@H@std@@2W4_Fmtflags@12@B DD 0400H		; std::_Iosb<int>::oct
CONST	ENDS
;	COMDAT ?dec@?$_Iosb@H@std@@2W4_Fmtflags@12@B
CONST	SEGMENT
?dec@?$_Iosb@H@std@@2W4_Fmtflags@12@B DD 0200H		; std::_Iosb<int>::dec
CONST	ENDS
;	COMDAT ?internal@?$_Iosb@H@std@@2W4_Fmtflags@12@B
CONST	SEGMENT
?internal@?$_Iosb@H@std@@2W4_Fmtflags@12@B DD 0100H	; std::_Iosb<int>::internal
CONST	ENDS
;	COMDAT ?right@?$_Iosb@H@std@@2W4_Fmtflags@12@B
CONST	SEGMENT
?right@?$_Iosb@H@std@@2W4_Fmtflags@12@B DD 080H		; std::_Iosb<int>::right
CONST	ENDS
;	COMDAT ?left@?$_Iosb@H@std@@2W4_Fmtflags@12@B
CONST	SEGMENT
?left@?$_Iosb@H@std@@2W4_Fmtflags@12@B DD 040H		; std::_Iosb<int>::left
CONST	ENDS
;	COMDAT ?showpos@?$_Iosb@H@std@@2W4_Fmtflags@12@B
CONST	SEGMENT
?showpos@?$_Iosb@H@std@@2W4_Fmtflags@12@B DD 020H	; std::_Iosb<int>::showpos
CONST	ENDS
;	COMDAT ?showpoint@?$_Iosb@H@std@@2W4_Fmtflags@12@B
CONST	SEGMENT
?showpoint@?$_Iosb@H@std@@2W4_Fmtflags@12@B DD 010H	; std::_Iosb<int>::showpoint
CONST	ENDS
;	COMDAT ?showbase@?$_Iosb@H@std@@2W4_Fmtflags@12@B
CONST	SEGMENT
?showbase@?$_Iosb@H@std@@2W4_Fmtflags@12@B DD 08H	; std::_Iosb<int>::showbase
CONST	ENDS
;	COMDAT ?uppercase@?$_Iosb@H@std@@2W4_Fmtflags@12@B
CONST	SEGMENT
?uppercase@?$_Iosb@H@std@@2W4_Fmtflags@12@B DD 04H	; std::_Iosb<int>::uppercase
CONST	ENDS
;	COMDAT ?unitbuf@?$_Iosb@H@std@@2W4_Fmtflags@12@B
CONST	SEGMENT
?unitbuf@?$_Iosb@H@std@@2W4_Fmtflags@12@B DD 02H	; std::_Iosb<int>::unitbuf
CONST	ENDS
;	COMDAT ?skipws@?$_Iosb@H@std@@2W4_Fmtflags@12@B
CONST	SEGMENT
?skipws@?$_Iosb@H@std@@2W4_Fmtflags@12@B DD 01H		; std::_Iosb<int>::skipws
CONST	ENDS
;	COMDAT ?none@?$_Locbase@H@std@@2HB
CONST	SEGMENT
?none@?$_Locbase@H@std@@2HB DD 00H			; std::_Locbase<int>::none
CONST	ENDS
;	COMDAT ?all@?$_Locbase@H@std@@2HB
CONST	SEGMENT
?all@?$_Locbase@H@std@@2HB DD 03fH			; std::_Locbase<int>::all
CONST	ENDS
;	COMDAT ?messages@?$_Locbase@H@std@@2HB
CONST	SEGMENT
?messages@?$_Locbase@H@std@@2HB DD 020H			; std::_Locbase<int>::messages
CONST	ENDS
;	COMDAT ?time@?$_Locbase@H@std@@2HB
CONST	SEGMENT
?time@?$_Locbase@H@std@@2HB DD 010H			; std::_Locbase<int>::time
CONST	ENDS
;	COMDAT ?numeric@?$_Locbase@H@std@@2HB
CONST	SEGMENT
?numeric@?$_Locbase@H@std@@2HB DD 08H			; std::_Locbase<int>::numeric
CONST	ENDS
;	COMDAT ?monetary@?$_Locbase@H@std@@2HB
CONST	SEGMENT
?monetary@?$_Locbase@H@std@@2HB DD 04H			; std::_Locbase<int>::monetary
CONST	ENDS
;	COMDAT ?ctype@?$_Locbase@H@std@@2HB
CONST	SEGMENT
?ctype@?$_Locbase@H@std@@2HB DD 02H			; std::_Locbase<int>::ctype
CONST	ENDS
;	COMDAT ?collate@?$_Locbase@H@std@@2HB
CONST	SEGMENT
?collate@?$_Locbase@H@std@@2HB DD 01H			; std::_Locbase<int>::collate
CONST	ENDS
;	COMDAT ?_Rank@?$_Arithmetic_traits@O@std@@2HB
CONST	SEGMENT
?_Rank@?$_Arithmetic_traits@O@std@@2HB DD 09H		; std::_Arithmetic_traits<long double>::_Rank
CONST	ENDS
;	COMDAT ?_Rank@?$_Arithmetic_traits@N@std@@2HB
CONST	SEGMENT
?_Rank@?$_Arithmetic_traits@N@std@@2HB DD 08H		; std::_Arithmetic_traits<double>::_Rank
CONST	ENDS
;	COMDAT ?_Rank@?$_Arithmetic_traits@M@std@@2HB
CONST	SEGMENT
?_Rank@?$_Arithmetic_traits@M@std@@2HB DD 07H		; std::_Arithmetic_traits<float>::_Rank
CONST	ENDS
;	COMDAT ?_Rank@?$_Arithmetic_traits@_K@std@@2HB
CONST	SEGMENT
?_Rank@?$_Arithmetic_traits@_K@std@@2HB DD 06H		; std::_Arithmetic_traits<unsigned __int64>::_Rank
CONST	ENDS
;	COMDAT ?_Rank@?$_Arithmetic_traits@_J@std@@2HB
CONST	SEGMENT
?_Rank@?$_Arithmetic_traits@_J@std@@2HB DD 06H		; std::_Arithmetic_traits<__int64>::_Rank
CONST	ENDS
;	COMDAT ?_Rank@?$_Arithmetic_traits@K@std@@2HB
CONST	SEGMENT
?_Rank@?$_Arithmetic_traits@K@std@@2HB DD 05H		; std::_Arithmetic_traits<unsigned long>::_Rank
CONST	ENDS
;	COMDAT ?_Rank@?$_Arithmetic_traits@J@std@@2HB
CONST	SEGMENT
?_Rank@?$_Arithmetic_traits@J@std@@2HB DD 05H		; std::_Arithmetic_traits<long>::_Rank
CONST	ENDS
;	COMDAT ?_Rank@?$_Arithmetic_traits@I@std@@2HB
CONST	SEGMENT
?_Rank@?$_Arithmetic_traits@I@std@@2HB DD 04H		; std::_Arithmetic_traits<unsigned int>::_Rank
CONST	ENDS
;	COMDAT ?_Rank@?$_Arithmetic_traits@H@std@@2HB
CONST	SEGMENT
?_Rank@?$_Arithmetic_traits@H@std@@2HB DD 04H		; std::_Arithmetic_traits<int>::_Rank
CONST	ENDS
;	COMDAT ?_Rank@?$_Arithmetic_traits@G@std@@2HB
CONST	SEGMENT
?_Rank@?$_Arithmetic_traits@G@std@@2HB DD 03H		; std::_Arithmetic_traits<unsigned short>::_Rank
CONST	ENDS
;	COMDAT ?_Rank@?$_Arithmetic_traits@F@std@@2HB
CONST	SEGMENT
?_Rank@?$_Arithmetic_traits@F@std@@2HB DD 03H		; std::_Arithmetic_traits<short>::_Rank
CONST	ENDS
;	COMDAT ?_Rank@?$_Arithmetic_traits@E@std@@2HB
CONST	SEGMENT
?_Rank@?$_Arithmetic_traits@E@std@@2HB DD 02H		; std::_Arithmetic_traits<unsigned char>::_Rank
CONST	ENDS
;	COMDAT ?_Rank@?$_Arithmetic_traits@C@std@@2HB
CONST	SEGMENT
?_Rank@?$_Arithmetic_traits@C@std@@2HB DD 02H		; std::_Arithmetic_traits<signed char>::_Rank
CONST	ENDS
;	COMDAT ?_Rank@?$_Arithmetic_traits@D@std@@2HB
CONST	SEGMENT
?_Rank@?$_Arithmetic_traits@D@std@@2HB DD 02H		; std::_Arithmetic_traits<char>::_Rank
CONST	ENDS
;	COMDAT ?_Rank@?$_Arithmetic_traits@_N@std@@2HB
CONST	SEGMENT
?_Rank@?$_Arithmetic_traits@_N@std@@2HB DD 01H		; std::_Arithmetic_traits<bool>::_Rank
CONST	ENDS
;	COMDAT ?value@?$integral_constant@I$0A@@tr1@std@@2IB
CONST	SEGMENT
?value@?$integral_constant@I$0A@@tr1@std@@2IB DD 00H	; std::tr1::integral_constant<unsigned int,0>::value
CONST	ENDS
;	COMDAT ?value@?$integral_constant@_N$00@tr1@std@@2_NB
CONST	SEGMENT
?value@?$integral_constant@_N$00@tr1@std@@2_NB DB 01H	; std::tr1::integral_constant<bool,1>::value
CONST	ENDS
;	COMDAT ?value@?$integral_constant@_N$0A@@tr1@std@@2_NB
CONST	SEGMENT
?value@?$integral_constant@_N$0A@@tr1@std@@2_NB DB 00H	; std::tr1::integral_constant<bool,0>::value
CONST	ENDS
PUBLIC	??_7bad_alloc@std@@6B@				; std::bad_alloc::`vftable'
PUBLIC	??0bad_alloc@std@@QAE@PBD@Z			; std::bad_alloc::bad_alloc
PUBLIC	??_R4bad_alloc@std@@6B@				; std::bad_alloc::`RTTI Complete Object Locator'
PUBLIC	??_R0?AVbad_alloc@std@@@8			; std::bad_alloc `RTTI Type Descriptor'
PUBLIC	??_R3bad_alloc@std@@8				; std::bad_alloc::`RTTI Class Hierarchy Descriptor'
PUBLIC	??_R2bad_alloc@std@@8				; std::bad_alloc::`RTTI Base Class Array'
PUBLIC	??_R1A@?0A@EA@bad_alloc@std@@8			; std::bad_alloc::`RTTI Base Class Descriptor at (0,-1,0,64)'
PUBLIC	??_R1A@?0A@EA@exception@std@@8			; std::exception::`RTTI Base Class Descriptor at (0,-1,0,64)'
PUBLIC	??_R0?AVexception@std@@@8			; std::exception `RTTI Type Descriptor'
PUBLIC	??_R3exception@std@@8				; std::exception::`RTTI Class Hierarchy Descriptor'
PUBLIC	??_R2exception@std@@8				; std::exception::`RTTI Base Class Array'
EXTRN	__imp_??0exception@std@@QAE@ABQBD@Z:PROC
EXTRN	??_7type_info@@6B@:QWORD			; type_info::`vftable'
EXTRN	??_Ebad_alloc@std@@UAEPAXI@Z:PROC		; std::bad_alloc::`vector deleting destructor'
EXTRN	?what@exception@std@@UBEPBDXZ:PROC		; std::exception::what
;	COMDAT ??_R2exception@std@@8
; File c:\program files (x86)\microsoft visual studio 10.0\vc\include\exception
rdata$r	SEGMENT
??_R2exception@std@@8 DD FLAT:??_R1A@?0A@EA@exception@std@@8 ; std::exception::`RTTI Base Class Array'
rdata$r	ENDS
;	COMDAT ??_R3exception@std@@8
rdata$r	SEGMENT
??_R3exception@std@@8 DD 00H				; std::exception::`RTTI Class Hierarchy Descriptor'
	DD	00H
	DD	01H
	DD	FLAT:??_R2exception@std@@8
rdata$r	ENDS
;	COMDAT ??_R0?AVexception@std@@@8
_DATA	SEGMENT
??_R0?AVexception@std@@@8 DD FLAT:??_7type_info@@6B@	; std::exception `RTTI Type Descriptor'
	DD	00H
	DB	'.?AVexception@std@@', 00H
_DATA	ENDS
;	COMDAT ??_R1A@?0A@EA@exception@std@@8
rdata$r	SEGMENT
??_R1A@?0A@EA@exception@std@@8 DD FLAT:??_R0?AVexception@std@@@8 ; std::exception::`RTTI Base Class Descriptor at (0,-1,0,64)'
	DD	00H
	DD	00H
	DD	0ffffffffH
	DD	00H
	DD	040H
	DD	FLAT:??_R3exception@std@@8
rdata$r	ENDS
;	COMDAT ??_R1A@?0A@EA@bad_alloc@std@@8
rdata$r	SEGMENT
??_R1A@?0A@EA@bad_alloc@std@@8 DD FLAT:??_R0?AVbad_alloc@std@@@8 ; std::bad_alloc::`RTTI Base Class Descriptor at (0,-1,0,64)'
	DD	01H
	DD	00H
	DD	0ffffffffH
	DD	00H
	DD	040H
	DD	FLAT:??_R3bad_alloc@std@@8
rdata$r	ENDS
;	COMDAT ??_R2bad_alloc@std@@8
rdata$r	SEGMENT
??_R2bad_alloc@std@@8 DD FLAT:??_R1A@?0A@EA@bad_alloc@std@@8 ; std::bad_alloc::`RTTI Base Class Array'
	DD	FLAT:??_R1A@?0A@EA@exception@std@@8
rdata$r	ENDS
;	COMDAT ??_R3bad_alloc@std@@8
rdata$r	SEGMENT
??_R3bad_alloc@std@@8 DD 00H				; std::bad_alloc::`RTTI Class Hierarchy Descriptor'
	DD	00H
	DD	02H
	DD	FLAT:??_R2bad_alloc@std@@8
rdata$r	ENDS
;	COMDAT ??_R0?AVbad_alloc@std@@@8
_DATA	SEGMENT
??_R0?AVbad_alloc@std@@@8 DD FLAT:??_7type_info@@6B@	; std::bad_alloc `RTTI Type Descriptor'
	DD	00H
	DB	'.?AVbad_alloc@std@@', 00H
_DATA	ENDS
;	COMDAT ??_R4bad_alloc@std@@6B@
rdata$r	SEGMENT
??_R4bad_alloc@std@@6B@ DD 00H				; std::bad_alloc::`RTTI Complete Object Locator'
	DD	00H
	DD	00H
	DD	FLAT:??_R0?AVbad_alloc@std@@@8
	DD	FLAT:??_R3bad_alloc@std@@8
rdata$r	ENDS
;	COMDAT ??_7bad_alloc@std@@6B@
CONST	SEGMENT
??_7bad_alloc@std@@6B@ DD FLAT:??_R4bad_alloc@std@@6B@	; std::bad_alloc::`vftable'
	DD	FLAT:??_Ebad_alloc@std@@UAEPAXI@Z
	DD	FLAT:?what@exception@std@@UBEPBDXZ
; Function compile flags: /Ogtp
CONST	ENDS
;	COMDAT ??0bad_alloc@std@@QAE@PBD@Z
_TEXT	SEGMENT
__Message$ = 8						; size = 4
??0bad_alloc@std@@QAE@PBD@Z PROC			; std::bad_alloc::bad_alloc, COMDAT
; _this$ = ecx
; Line 345
	push	ebp
	mov	ebp, esp
	push	esi
	lea	eax, DWORD PTR __Message$[ebp]
	push	eax
	mov	esi, ecx
	call	DWORD PTR __imp_??0exception@std@@QAE@ABQBD@Z
	mov	DWORD PTR [esi], OFFSET ??_7bad_alloc@std@@6B@
; Line 346
	mov	eax, esi
	pop	esi
	pop	ebp
	ret	4
??0bad_alloc@std@@QAE@PBD@Z ENDP			; std::bad_alloc::bad_alloc
_TEXT	ENDS
PUBLIC	??1bad_alloc@std@@UAE@XZ			; std::bad_alloc::~bad_alloc
EXTRN	__imp_??1exception@std@@UAE@XZ:PROC
; Function compile flags: /Ogtp
;	COMDAT ??1bad_alloc@std@@UAE@XZ
_TEXT	SEGMENT
??1bad_alloc@std@@UAE@XZ PROC				; std::bad_alloc::~bad_alloc, COMDAT
; _this$ = ecx
; Line 354
	mov	DWORD PTR [ecx], OFFSET ??_7bad_alloc@std@@6B@
; Line 355
	jmp	DWORD PTR __imp_??1exception@std@@UAE@XZ
??1bad_alloc@std@@UAE@XZ ENDP				; std::bad_alloc::~bad_alloc
_TEXT	ENDS
EXTRN	??3@YAXPAX@Z:PROC				; operator delete
; Function compile flags: /Ogtp
;	COMDAT ??_Gbad_alloc@std@@UAEPAXI@Z
_TEXT	SEGMENT
___flags$ = 8						; size = 4
??_Gbad_alloc@std@@UAEPAXI@Z PROC			; std::bad_alloc::`scalar deleting destructor', COMDAT
; _this$ = ecx
	push	ebp
	mov	ebp, esp
	push	esi
	mov	esi, ecx
	mov	DWORD PTR [esi], OFFSET ??_7bad_alloc@std@@6B@
	call	DWORD PTR __imp_??1exception@std@@UAE@XZ
	test	BYTE PTR ___flags$[ebp], 1
	je	SHORT $LN6@scalar
	push	esi
	call	??3@YAXPAX@Z				; operator delete
	add	esp, 4
$LN6@scalar:
	mov	eax, esi
	pop	esi
	pop	ebp
	ret	4
??_Gbad_alloc@std@@UAEPAXI@Z ENDP			; std::bad_alloc::`scalar deleting destructor'
_TEXT	ENDS
PUBLIC	??2@YAPAXIPAX@Z					; operator new
; Function compile flags: /Ogtp
;	COMDAT ??2@YAPAXIPAX@Z
_TEXT	SEGMENT
___formal$ = 8						; size = 4
__Where$ = 12						; size = 4
??2@YAPAXIPAX@Z PROC					; operator new, COMDAT
; File c:\program files (x86)\microsoft visual studio 10.0\vc\include\new
; Line 56
	push	ebp
	mov	ebp, esp
; Line 57
	mov	eax, DWORD PTR __Where$[ebp]
; Line 58
	pop	ebp
	ret	0
??2@YAPAXIPAX@Z ENDP					; operator new
_TEXT	ENDS
PUBLIC	??3@YAXPAX0@Z					; operator delete
; Function compile flags: /Ogtp
;	COMDAT ??3@YAXPAX0@Z
_TEXT	SEGMENT
___formal$ = 8						; size = 4
___formal$ = 12						; size = 4
??3@YAXPAX0@Z PROC					; operator delete, COMDAT
; Line 62
	ret	0
??3@YAXPAX0@Z ENDP					; operator delete
_TEXT	ENDS
PUBLIC	?length@?$char_traits@D@std@@SAIPBD@Z		; std::char_traits<char>::length
; Function compile flags: /Ogtp
;	COMDAT ?length@?$char_traits@D@std@@SAIPBD@Z
_TEXT	SEGMENT
__First$ = 8						; size = 4
?length@?$char_traits@D@std@@SAIPBD@Z PROC		; std::char_traits<char>::length, COMDAT
; File c:\program files (x86)\microsoft visual studio 10.0\vc\include\iosfwd
; Line 490
	push	ebp
	mov	ebp, esp
; Line 491
	mov	eax, DWORD PTR __First$[ebp]
	lea	edx, DWORD PTR [eax+1]
	npad	7
$LL3@length:
	mov	cl, BYTE PTR [eax]
	inc	eax
	test	cl, cl
	jne	SHORT $LL3@length
	sub	eax, edx
; Line 492
	pop	ebp
	ret	0
?length@?$char_traits@D@std@@SAIPBD@Z ENDP		; std::char_traits<char>::length
_TEXT	ENDS
PUBLIC	?copy@?$char_traits@D@std@@SAPADPADPBDI@Z	; std::char_traits<char>::copy
EXTRN	_memcpy:PROC
; Function compile flags: /Ogtp
;	COMDAT ?copy@?$char_traits@D@std@@SAPADPADPBDI@Z
_TEXT	SEGMENT
__First1$ = 8						; size = 4
__First2$ = 12						; size = 4
__Count$ = 16						; size = 4
?copy@?$char_traits@D@std@@SAPADPADPBDI@Z PROC		; std::char_traits<char>::copy, COMDAT
; Line 496
	push	ebp
	mov	ebp, esp
; Line 498
	pop	ebp
; Line 497
	jmp	_memcpy
?copy@?$char_traits@D@std@@SAPADPADPBDI@Z ENDP		; std::char_traits<char>::copy
_TEXT	ENDS
PUBLIC	?move@?$char_traits@D@std@@SAPADPADPBDI@Z	; std::char_traits<char>::move
EXTRN	__imp__memmove:PROC
; Function compile flags: /Ogtp
;	COMDAT ?move@?$char_traits@D@std@@SAPADPADPBDI@Z
_TEXT	SEGMENT
__First1$ = 8						; size = 4
__First2$ = 12						; size = 4
__Count$ = 16						; size = 4
?move@?$char_traits@D@std@@SAPADPADPBDI@Z PROC		; std::char_traits<char>::move, COMDAT
; Line 516
	push	ebp
	mov	ebp, esp
; Line 518
	pop	ebp
; Line 517
	jmp	DWORD PTR __imp__memmove
?move@?$char_traits@D@std@@SAPADPADPBDI@Z ENDP		; std::char_traits<char>::move
_TEXT	ENDS
PUBLIC	?assign@?$char_traits@D@std@@SAXAADABD@Z	; std::char_traits<char>::assign
; Function compile flags: /Ogtp
;	COMDAT ?assign@?$char_traits@D@std@@SAXAADABD@Z
_TEXT	SEGMENT
__Left$ = 8						; size = 4
__Right$ = 12						; size = 4
?assign@?$char_traits@D@std@@SAXAADABD@Z PROC		; std::char_traits<char>::assign, COMDAT
; Line 526
	push	ebp
	mov	ebp, esp
; Line 527
	mov	eax, DWORD PTR __Right$[ebp]
	mov	cl, BYTE PTR [eax]
	mov	edx, DWORD PTR __Left$[ebp]
	mov	BYTE PTR [edx], cl
; Line 528
	pop	ebp
	ret	0
?assign@?$char_traits@D@std@@SAXAADABD@Z ENDP		; std::char_traits<char>::assign
_TEXT	ENDS
PUBLIC	?_Adopt@_Iterator_base0@std@@QAEXPBX@Z		; std::_Iterator_base0::_Adopt
; Function compile flags: /Ogtp
;	COMDAT ?_Adopt@_Iterator_base0@std@@QAEXPBX@Z
_TEXT	SEGMENT
___formal$ = 8						; size = 4
?_Adopt@_Iterator_base0@std@@QAEXPBX@Z PROC		; std::_Iterator_base0::_Adopt, COMDAT
; _this$ = ecx
; File c:\program files (x86)\microsoft visual studio 10.0\vc\include\xutility
; Line 49
	ret	4
?_Adopt@_Iterator_base0@std@@QAEXPBX@Z ENDP		; std::_Iterator_base0::_Adopt
_TEXT	ENDS
PUBLIC	??_H@YGXPAXIHP6EPAX0@Z@Z			; `vector constructor iterator'
; Function compile flags: /Ogtp
;	COMDAT ??_H@YGXPAXIHP6EPAX0@Z@Z
_TEXT	SEGMENT
___t$ = 8						; size = 4
___s$ = 12						; size = 4
___n$ = 16						; size = 4
___f$ = 20						; size = 4
??_H@YGXPAXIHP6EPAX0@Z@Z PROC				; `vector constructor iterator', COMDAT
	push	ebp
	mov	ebp, esp
	push	edi
	mov	edi, DWORD PTR ___n$[ebp]
	dec	edi
	js	SHORT $LN1@vector
	push	ebx
	mov	ebx, DWORD PTR ___f$[ebp]
	push	esi
	mov	esi, DWORD PTR ___t$[ebp]
$LL2@vector:
	mov	ecx, esi
	call	ebx
	add	esi, DWORD PTR ___s$[ebp]
	dec	edi
	jns	SHORT $LL2@vector
	pop	esi
	pop	ebx
$LN1@vector:
	pop	edi
	pop	ebp
	ret	16					; 00000010H
??_H@YGXPAXIHP6EPAX0@Z@Z ENDP				; `vector constructor iterator'
_TEXT	ENDS
PUBLIC	?setHighlight@textureUI@@QAEX_N@Z		; textureUI::setHighlight
; Function compile flags: /Ogtp
;	COMDAT ?setHighlight@textureUI@@QAEX_N@Z
_TEXT	SEGMENT
_h$ = 8							; size = 1
?setHighlight@textureUI@@QAEX_N@Z PROC			; textureUI::setHighlight, COMDAT
; _this$ = ecx
; File c:\programovani\wow editor\test\src\editor\ui.h
; Line 126
	push	ebp
	mov	ebp, esp
	mov	al, BYTE PTR _h$[ebp]
	mov	BYTE PTR [ecx+56], al
	pop	ebp
	ret	4
?setHighlight@textureUI@@QAEX_N@Z ENDP			; textureUI::setHighlight
_TEXT	ENDS
PUBLIC	?getUInt@Record@DBCFile@@QBEII@Z		; DBCFile::Record::getUInt
; Function compile flags: /Ogtp
;	COMDAT ?getUInt@Record@DBCFile@@QBEII@Z
_TEXT	SEGMENT
_field$ = 8						; size = 4
?getUInt@Record@DBCFile@@QBEII@Z PROC			; DBCFile::Record::getUInt, COMDAT
; _this$ = ecx
; File c:\programovani\wow editor\test\src\editor\dbcfile.h
; Line 44
	push	ebp
	mov	ebp, esp
; Line 46
	mov	eax, DWORD PTR [ecx]
	mov	ecx, DWORD PTR _field$[ebp]
	mov	eax, DWORD PTR [eax+ecx*4]
; Line 47
	pop	ebp
	ret	4
?getUInt@Record@DBCFile@@QBEII@Z ENDP			; DBCFile::Record::getUInt
_TEXT	ENDS
PUBLIC	?getString@Record@DBCFile@@QBEPBDI@Z		; DBCFile::Record::getString
; Function compile flags: /Ogtp
;	COMDAT ?getString@Record@DBCFile@@QBEPBDI@Z
_TEXT	SEGMENT
_field$ = 8						; size = 4
?getString@Record@DBCFile@@QBEPBDI@Z PROC		; DBCFile::Record::getString, COMDAT
; _this$ = ecx
; Line 54
	push	ebp
	mov	ebp, esp
; Line 58
	mov	eax, DWORD PTR [ecx]
	mov	edx, DWORD PTR _field$[ebp]
	mov	ecx, DWORD PTR [ecx+4]
	mov	eax, DWORD PTR [eax+edx*4]
	add	eax, DWORD PTR [ecx+48]
; Line 59
	pop	ebp
	ret	4
?getString@Record@DBCFile@@QBEPBDI@Z ENDP		; DBCFile::Record::getString
_TEXT	ENDS
PUBLIC	?showTextureLoader@@YAXPAVframe@@H@Z		; showTextureLoader
; Function compile flags: /Ogtp
_TEXT	SEGMENT
_button$ = 8						; size = 4
_id$ = 12						; size = 4
?showTextureLoader@@YAXPAVframe@@H@Z PROC		; showTextureLoader
; File c:\programovani\wow editor\test\src\editor\texturingui.cpp
; Line 304
	mov	eax, DWORD PTR ?windowTilesetLoader@@3PAVcloseWindowUI@@A ; windowTilesetLoader
	mov	BYTE PTR [eax+46], 0
; Line 305
	ret	0
?showTextureLoader@@YAXPAVframe@@H@Z ENDP		; showTextureLoader
_TEXT	ENDS
PUBLIC	?showTextureFilter@@YAXPAVframe@@H@Z		; showTextureFilter
; Function compile flags: /Ogtp
_TEXT	SEGMENT
_button$ = 8						; size = 4
_id$ = 12						; size = 4
?showTextureFilter@@YAXPAVframe@@H@Z PROC		; showTextureFilter
; Line 309
	mov	eax, DWORD PTR ?windowTextureFilter@@3PAVcloseWindowUI@@A ; windowTextureFilter
	mov	BYTE PTR [eax+46], 0
; Line 310
	ret	0
?showTextureFilter@@YAXPAVframe@@H@Z ENDP		; showTextureFilter
_TEXT	ENDS
PUBLIC	?size@?$basic_string@DU?$char_traits@D@std@@V?$allocator@D@2@@std@@QBEIXZ ; std::basic_string<char,std::char_traits<char>,std::allocator<char> >::size
; Function compile flags: /Ogtp
;	COMDAT ?size@?$basic_string@DU?$char_traits@D@std@@V?$allocator@D@2@@std@@QBEIXZ
_TEXT	SEGMENT
?size@?$basic_string@DU?$char_traits@D@std@@V?$allocator@D@2@@std@@QBEIXZ PROC ; std::basic_string<char,std::char_traits<char>,std::allocator<char> >::size, COMDAT
; _this$ = ecx
; File c:\program files (x86)\microsoft visual studio 10.0\vc\include\xstring
; Line 1511
	mov	eax, DWORD PTR [ecx+16]
; Line 1512
	ret	0
?size@?$basic_string@DU?$char_traits@D@std@@V?$allocator@D@2@@std@@QBEIXZ ENDP ; std::basic_string<char,std::char_traits<char>,std::allocator<char> >::size
_TEXT	ENDS
PUBLIC	??A?$vector@V?$basic_string@DU?$char_traits@D@std@@V?$allocator@D@2@@std@@V?$allocator@V?$basic_string@DU?$char_traits@D@std@@V?$allocator@D@2@@std@@@2@@std@@QAEAAV?$basic_string@DU?$char_traits@D@std@@V?$allocator@D@2@@1@I@Z ; std::vector<std::basic_string<char,std::char_traits<char>,std::allocator<char> >,std::allocator<std::basic_string<char,std::char_traits<char>,std::allocator<char> > > >::operator[]
; Function compile flags: /Ogtp
;	COMDAT ??A?$vector@V?$basic_string@DU?$char_traits@D@std@@V?$allocator@D@2@@std@@V?$allocator@V?$basic_string@DU?$char_traits@D@std@@V?$allocator@D@2@@std@@@2@@std@@QAEAAV?$basic_string@DU?$char_traits@D@std@@V?$allocator@D@2@@1@I@Z
_TEXT	SEGMENT
__Pos$ = 8						; size = 4
??A?$vector@V?$basic_string@DU?$char_traits@D@std@@V?$allocator@D@2@@std@@V?$allocator@V?$basic_string@DU?$char_traits@D@std@@V?$allocator@D@2@@std@@@2@@std@@QAEAAV?$basic_string@DU?$char_traits@D@std@@V?$allocator@D@2@@1@I@Z PROC ; std::vector<std::basic_string<char,std::char_traits<char>,std::allocator<char> >,std::allocator<std::basic_string<char,std::char_traits<char>,std::allocator<char> > > >::operator[], COMDAT
; _this$ = ecx
; File c:\program files (x86)\microsoft visual studio 10.0\vc\include\vector
; Line 928
	push	ebp
	mov	ebp, esp
; Line 940
	mov	eax, DWORD PTR __Pos$[ebp]
	lea	edx, DWORD PTR [eax*8]
	sub	edx, eax
	mov	eax, DWORD PTR [ecx]
	lea	eax, DWORD PTR [eax+edx*4]
; Line 941
	pop	ebp
	ret	4
??A?$vector@V?$basic_string@DU?$char_traits@D@std@@V?$allocator@D@2@@std@@V?$allocator@V?$basic_string@DU?$char_traits@D@std@@V?$allocator@D@2@@std@@@2@@std@@QAEAAV?$basic_string@DU?$char_traits@D@std@@V?$allocator@D@2@@1@I@Z ENDP ; std::vector<std::basic_string<char,std::char_traits<char>,std::allocator<char> >,std::allocator<std::basic_string<char,std::char_traits<char>,std::allocator<char> > > >::operator[]
_TEXT	ENDS
PUBLIC	??8?$_Tree_const_iterator@V?$_Tree_val@V?$_Tmap_traits@IPAVManagedItem@@U?$less@I@std@@V?$allocator@U?$pair@$$CBIPAVManagedItem@@@std@@@3@$0A@@std@@@std@@@std@@QBE_NABV01@@Z ; std::_Tree_const_iterator<std::_Tree_val<std::_Tmap_traits<unsigned int,ManagedItem *,std::less<unsigned int>,std::allocator<std::pair<unsigned int const ,ManagedItem *> >,0> > >::operator==
; Function compile flags: /Ogtp
;	COMDAT ??8?$_Tree_const_iterator@V?$_Tree_val@V?$_Tmap_traits@IPAVManagedItem@@U?$less@I@std@@V?$allocator@U?$pair@$$CBIPAVManagedItem@@@std@@@3@$0A@@std@@@std@@@std@@QBE_NABV01@@Z
_TEXT	SEGMENT
__Right$ = 8						; size = 4
??8?$_Tree_const_iterator@V?$_Tree_val@V?$_Tmap_traits@IPAVManagedItem@@U?$less@I@std@@V?$allocator@U?$pair@$$CBIPAVManagedItem@@@std@@@3@$0A@@std@@@std@@@std@@QBE_NABV01@@Z PROC ; std::_Tree_const_iterator<std::_Tree_val<std::_Tmap_traits<unsigned int,ManagedItem *,std::less<unsigned int>,std::allocator<std::pair<unsigned int const ,ManagedItem *> >,0> > >::operator==, COMDAT
; _this$ = ecx
; File c:\program files (x86)\microsoft visual studio 10.0\vc\include\xtree
; Line 316
	push	ebp
	mov	ebp, esp
; Line 330
	mov	eax, DWORD PTR [ecx]
	mov	edx, DWORD PTR __Right$[ebp]
	xor	ecx, ecx
	cmp	eax, DWORD PTR [edx]
	sete	al
; Line 331
	pop	ebp
	ret	4
??8?$_Tree_const_iterator@V?$_Tree_val@V?$_Tmap_traits@IPAVManagedItem@@U?$less@I@std@@V?$allocator@U?$pair@$$CBIPAVManagedItem@@@std@@@3@$0A@@std@@@std@@@std@@QBE_NABV01@@Z ENDP ; std::_Tree_const_iterator<std::_Tree_val<std::_Tmap_traits<unsigned int,ManagedItem *,std::less<unsigned int>,std::allocator<std::pair<unsigned int const ,ManagedItem *> >,0> > >::operator==
_TEXT	ENDS
PUBLIC	??9?$_Tree_const_iterator@V?$_Tree_val@V?$_Tmap_traits@IPAVManagedItem@@U?$less@I@std@@V?$allocator@U?$pair@$$CBIPAVManagedItem@@@std@@@3@$0A@@std@@@std@@@std@@QBE_NABV01@@Z ; std::_Tree_const_iterator<std::_Tree_val<std::_Tmap_traits<unsigned int,ManagedItem *,std::less<unsigned int>,std::allocator<std::pair<unsigned int const ,ManagedItem *> >,0> > >::operator!=
; Function compile flags: /Ogtp
;	COMDAT ??9?$_Tree_const_iterator@V?$_Tree_val@V?$_Tmap_traits@IPAVManagedItem@@U?$less@I@std@@V?$allocator@U?$pair@$$CBIPAVManagedItem@@@std@@@3@$0A@@std@@@std@@@std@@QBE_NABV01@@Z
_TEXT	SEGMENT
__Right$ = 8						; size = 4
??9?$_Tree_const_iterator@V?$_Tree_val@V?$_Tmap_traits@IPAVManagedItem@@U?$less@I@std@@V?$allocator@U?$pair@$$CBIPAVManagedItem@@@std@@@3@$0A@@std@@@std@@@std@@QBE_NABV01@@Z PROC ; std::_Tree_const_iterator<std::_Tree_val<std::_Tmap_traits<unsigned int,ManagedItem *,std::less<unsigned int>,std::allocator<std::pair<unsigned int const ,ManagedItem *> >,0> > >::operator!=, COMDAT
; _this$ = ecx
; Line 334
	push	ebp
	mov	ebp, esp
; Line 335
	mov	eax, DWORD PTR [ecx]
	mov	edx, DWORD PTR __Right$[ebp]
	xor	ecx, ecx
	cmp	eax, DWORD PTR [edx]
	setne	al
; Line 336
	pop	ebp
	ret	4
??9?$_Tree_const_iterator@V?$_Tree_val@V?$_Tmap_traits@IPAVManagedItem@@U?$less@I@std@@V?$allocator@U?$pair@$$CBIPAVManagedItem@@@std@@@3@$0A@@std@@@std@@@std@@QBE_NABV01@@Z ENDP ; std::_Tree_const_iterator<std::_Tree_val<std::_Tmap_traits<unsigned int,ManagedItem *,std::less<unsigned int>,std::allocator<std::pair<unsigned int const ,ManagedItem *> >,0> > >::operator!=
_TEXT	ENDS
PUBLIC	?_Myptr@?$basic_string@DU?$char_traits@D@std@@V?$allocator@D@2@@std@@QBEPBDXZ ; std::basic_string<char,std::char_traits<char>,std::allocator<char> >::_Myptr
; Function compile flags: /Ogtp
;	COMDAT ?_Myptr@?$basic_string@DU?$char_traits@D@std@@V?$allocator@D@2@@std@@QBEPBDXZ
_TEXT	SEGMENT
?_Myptr@?$basic_string@DU?$char_traits@D@std@@V?$allocator@D@2@@std@@QBEPBDXZ PROC ; std::basic_string<char,std::char_traits<char>,std::allocator<char> >::_Myptr, COMDAT
; _this$ = ecx
; File c:\program files (x86)\microsoft visual studio 10.0\vc\include\xstring
; Line 2008
	mov	eax, ecx
; Line 2010
	cmp	DWORD PTR [eax+20], 16			; 00000010H
	jb	SHORT $LN4@Myptr
	mov	eax, DWORD PTR [eax]
$LN4@Myptr:
; Line 2011
	ret	0
?_Myptr@?$basic_string@DU?$char_traits@D@std@@V?$allocator@D@2@@std@@QBEPBDXZ ENDP ; std::basic_string<char,std::char_traits<char>,std::allocator<char> >::_Myptr
_TEXT	ENDS
PUBLIC	??1?$_String_val@DV?$allocator@D@std@@@std@@QAE@XZ ; std::_String_val<char,std::allocator<char> >::~_String_val<char,std::allocator<char> >
; Function compile flags: /Ogtp
;	COMDAT ??1?$_String_val@DV?$allocator@D@std@@@std@@QAE@XZ
_TEXT	SEGMENT
??1?$_String_val@DV?$allocator@D@std@@@std@@QAE@XZ PROC	; std::_String_val<char,std::allocator<char> >::~_String_val<char,std::allocator<char> >, COMDAT
; _this$ = ecx
; Line 459
	ret	0
??1?$_String_val@DV?$allocator@D@std@@@std@@QAE@XZ ENDP	; std::_String_val<char,std::allocator<char> >::~_String_val<char,std::allocator<char> >
_TEXT	ENDS
PUBLIC	??0?$allocator@D@std@@QAE@XZ			; std::allocator<char>::allocator<char>
; Function compile flags: /Ogtp
;	COMDAT ??0?$allocator@D@std@@QAE@XZ
_TEXT	SEGMENT
??0?$allocator@D@std@@QAE@XZ PROC			; std::allocator<char>::allocator<char>, COMDAT
; _this$ = ecx
; File c:\program files (x86)\microsoft visual studio 10.0\vc\include\xmemory
; Line 161
	mov	eax, ecx
; Line 163
	ret	0
??0?$allocator@D@std@@QAE@XZ ENDP			; std::allocator<char>::allocator<char>
_TEXT	ENDS
PUBLIC	??0?$allocator@D@std@@QAE@ABV01@@Z		; std::allocator<char>::allocator<char>
; Function compile flags: /Ogtp
;	COMDAT ??0?$allocator@D@std@@QAE@ABV01@@Z
_TEXT	SEGMENT
___formal$ = 8						; size = 4
??0?$allocator@D@std@@QAE@ABV01@@Z PROC			; std::allocator<char>::allocator<char>, COMDAT
; _this$ = ecx
; Line 165
	mov	eax, ecx
; Line 167
	ret	4
??0?$allocator@D@std@@QAE@ABV01@@Z ENDP			; std::allocator<char>::allocator<char>
_TEXT	ENDS
PUBLIC	?_Inside@?$vector@V?$basic_string@DU?$char_traits@D@std@@V?$allocator@D@2@@std@@V?$allocator@V?$basic_string@DU?$char_traits@D@std@@V?$allocator@D@2@@std@@@2@@std@@IBE_NPBV?$basic_string@DU?$char_traits@D@std@@V?$allocator@D@2@@2@@Z ; std::vector<std::basic_string<char,std::char_traits<char>,std::allocator<char> >,std::allocator<std::basic_string<char,std::char_traits<char>,std::allocator<char> > > >::_Inside
; Function compile flags: /Ogtp
;	COMDAT ?_Inside@?$vector@V?$basic_string@DU?$char_traits@D@std@@V?$allocator@D@2@@std@@V?$allocator@V?$basic_string@DU?$char_traits@D@std@@V?$allocator@D@2@@std@@@2@@std@@IBE_NPBV?$basic_string@DU?$char_traits@D@std@@V?$allocator@D@2@@2@@Z
_TEXT	SEGMENT
__Ptr$ = 8						; size = 4
?_Inside@?$vector@V?$basic_string@DU?$char_traits@D@std@@V?$allocator@D@2@@std@@V?$allocator@V?$basic_string@DU?$char_traits@D@std@@V?$allocator@D@2@@std@@@2@@std@@IBE_NPBV?$basic_string@DU?$char_traits@D@std@@V?$allocator@D@2@@2@@Z PROC ; std::vector<std::basic_string<char,std::char_traits<char>,std::allocator<char> >,std::allocator<std::basic_string<char,std::char_traits<char>,std::allocator<char> > > >::_Inside, COMDAT
; _this$ = ecx
; File c:\program files (x86)\microsoft visual studio 10.0\vc\include\vector
; Line 1285
	push	ebp
	mov	ebp, esp
; Line 1286
	mov	eax, DWORD PTR __Ptr$[ebp]
	cmp	eax, DWORD PTR [ecx+4]
	jae	SHORT $LN3@Inside
	cmp	DWORD PTR [ecx], eax
	ja	SHORT $LN3@Inside
	mov	eax, 1
; Line 1287
	pop	ebp
	ret	4
$LN3@Inside:
; Line 1286
	xor	eax, eax
; Line 1287
	pop	ebp
	ret	4
?_Inside@?$vector@V?$basic_string@DU?$char_traits@D@std@@V?$allocator@D@2@@std@@V?$allocator@V?$basic_string@DU?$char_traits@D@std@@V?$allocator@D@2@@std@@@2@@std@@IBE_NPBV?$basic_string@DU?$char_traits@D@std@@V?$allocator@D@2@@2@@Z ENDP ; std::vector<std::basic_string<char,std::char_traits<char>,std::allocator<char> >,std::allocator<std::basic_string<char,std::char_traits<char>,std::allocator<char> > > >::_Inside
_TEXT	ENDS
PUBLIC	?_Orphan_range@?$vector@V?$basic_string@DU?$char_traits@D@std@@V?$allocator@D@2@@std@@V?$allocator@V?$basic_string@DU?$char_traits@D@std@@V?$allocator@D@2@@std@@@2@@std@@IBEXPAV?$basic_string@DU?$char_traits@D@std@@V?$allocator@D@2@@2@0@Z ; std::vector<std::basic_string<char,std::char_traits<char>,std::allocator<char> >,std::allocator<std::basic_string<char,std::char_traits<char>,std::allocator<char> > > >::_Orphan_range
; Function compile flags: /Ogtp
;	COMDAT ?_Orphan_range@?$vector@V?$basic_string@DU?$char_traits@D@std@@V?$allocator@D@2@@std@@V?$allocator@V?$basic_string@DU?$char_traits@D@std@@V?$allocator@D@2@@std@@@2@@std@@IBEXPAV?$basic_string@DU?$char_traits@D@std@@V?$allocator@D@2@@2@0@Z
_TEXT	SEGMENT
___formal$ = 8						; size = 4
___formal$ = 12						; size = 4
?_Orphan_range@?$vector@V?$basic_string@DU?$char_traits@D@std@@V?$allocator@D@2@@std@@V?$allocator@V?$basic_string@DU?$char_traits@D@std@@V?$allocator@D@2@@std@@@2@@std@@IBEXPAV?$basic_string@DU?$char_traits@D@std@@V?$allocator@D@2@@2@0@Z PROC ; std::vector<std::basic_string<char,std::char_traits<char>,std::allocator<char> >,std::allocator<std::basic_string<char,std::char_traits<char>,std::allocator<char> > > >::_Orphan_range, COMDAT
; _this$ = ecx
; Line 1454
	ret	8
?_Orphan_range@?$vector@V?$basic_string@DU?$char_traits@D@std@@V?$allocator@D@2@@std@@V?$allocator@V?$basic_string@DU?$char_traits@D@std@@V?$allocator@D@2@@std@@@2@@std@@IBEXPAV?$basic_string@DU?$char_traits@D@std@@V?$allocator@D@2@@2@0@Z ENDP ; std::vector<std::basic_string<char,std::char_traits<char>,std::allocator<char> >,std::allocator<std::basic_string<char,std::char_traits<char>,std::allocator<char> > > >::_Orphan_range
_TEXT	ENDS
PUBLIC	??1?$_Vector_val@V?$basic_string@DU?$char_traits@D@std@@V?$allocator@D@2@@std@@V?$allocator@V?$basic_string@DU?$char_traits@D@std@@V?$allocator@D@2@@std@@@2@@std@@QAE@XZ ; std::_Vector_val<std::basic_string<char,std::char_traits<char>,std::allocator<char> >,std::allocator<std::basic_string<char,std::char_traits<char>,std::allocator<char> > > >::~_Vector_val<std::basic_string<char,std::char_traits<char>,std::allocator<char> >,std::allocator<std::basic_string<char,std::char_traits<char>,std::allocator<char> > > >
; Function compile flags: /Ogtp
;	COMDAT ??1?$_Vector_val@V?$basic_string@DU?$char_traits@D@std@@V?$allocator@D@2@@std@@V?$allocator@V?$basic_string@DU?$char_traits@D@std@@V?$allocator@D@2@@std@@@2@@std@@QAE@XZ
_TEXT	SEGMENT
??1?$_Vector_val@V?$basic_string@DU?$char_traits@D@std@@V?$allocator@D@2@@std@@V?$allocator@V?$basic_string@DU?$char_traits@D@std@@V?$allocator@D@2@@std@@@2@@std@@QAE@XZ PROC ; std::_Vector_val<std::basic_string<char,std::char_traits<char>,std::allocator<char> >,std::allocator<std::basic_string<char,std::char_traits<char>,std::allocator<char> > > >::~_Vector_val<std::basic_string<char,std::char_traits<char>,std::allocator<char> >,std::allocator<std::basic_string<char,std::char_traits<char>,std::allocator<char> > > >, COMDAT
; _this$ = ecx
; Line 434
	ret	0
??1?$_Vector_val@V?$basic_string@DU?$char_traits@D@std@@V?$allocator@D@2@@std@@V?$allocator@V?$basic_string@DU?$char_traits@D@std@@V?$allocator@D@2@@std@@@2@@std@@QAE@XZ ENDP ; std::_Vector_val<std::basic_string<char,std::char_traits<char>,std::allocator<char> >,std::allocator<std::basic_string<char,std::char_traits<char>,std::allocator<char> > > >::~_Vector_val<std::basic_string<char,std::char_traits<char>,std::allocator<char> >,std::allocator<std::basic_string<char,std::char_traits<char>,std::allocator<char> > > >
_TEXT	ENDS
PUBLIC	??0?$allocator@V?$basic_string@DU?$char_traits@D@std@@V?$allocator@D@2@@std@@@std@@QAE@XZ ; std::allocator<std::basic_string<char,std::char_traits<char>,std::allocator<char> > >::allocator<std::basic_string<char,std::char_traits<char>,std::allocator<char> > >
; Function compile flags: /Ogtp
;	COMDAT ??0?$allocator@V?$basic_string@DU?$char_traits@D@std@@V?$allocator@D@2@@std@@@std@@QAE@XZ
_TEXT	SEGMENT
??0?$allocator@V?$basic_string@DU?$char_traits@D@std@@V?$allocator@D@2@@std@@@std@@QAE@XZ PROC ; std::allocator<std::basic_string<char,std::char_traits<char>,std::allocator<char> > >::allocator<std::basic_string<char,std::char_traits<char>,std::allocator<char> > >, COMDAT
; _this$ = ecx
; File c:\program files (x86)\microsoft visual studio 10.0\vc\include\xmemory
; Line 161
	mov	eax, ecx
; Line 163
	ret	0
??0?$allocator@V?$basic_string@DU?$char_traits@D@std@@V?$allocator@D@2@@std@@@std@@QAE@XZ ENDP ; std::allocator<std::basic_string<char,std::char_traits<char>,std::allocator<char> > >::allocator<std::basic_string<char,std::char_traits<char>,std::allocator<char> > >
_TEXT	ENDS
PUBLIC	??0?$_Vector_const_iterator@V?$_Vector_val@V?$basic_string@DU?$char_traits@D@std@@V?$allocator@D@2@@std@@V?$allocator@V?$basic_string@DU?$char_traits@D@std@@V?$allocator@D@2@@std@@@2@@std@@@std@@QAE@XZ ; std::_Vector_const_iterator<std::_Vector_val<std::basic_string<char,std::char_traits<char>,std::allocator<char> >,std::allocator<std::basic_string<char,std::char_traits<char>,std::allocator<char> > > > >::_Vector_const_iterator<std::_Vector_val<std::basic_string<char,std::char_traits<char>,std::allocator<char> >,std::allocator<std::basic_string<char,std::char_traits<char>,std::allocator<char> > > > >
; Function compile flags: /Ogtp
;	COMDAT ??0?$_Vector_const_iterator@V?$_Vector_val@V?$basic_string@DU?$char_traits@D@std@@V?$allocator@D@2@@std@@V?$allocator@V?$basic_string@DU?$char_traits@D@std@@V?$allocator@D@2@@std@@@2@@std@@@std@@QAE@XZ
_TEXT	SEGMENT
??0?$_Vector_const_iterator@V?$_Vector_val@V?$basic_string@DU?$char_traits@D@std@@V?$allocator@D@2@@std@@V?$allocator@V?$basic_string@DU?$char_traits@D@std@@V?$allocator@D@2@@std@@@2@@std@@@std@@QAE@XZ PROC ; std::_Vector_const_iterator<std::_Vector_val<std::basic_string<char,std::char_traits<char>,std::allocator<char> >,std::allocator<std::basic_string<char,std::char_traits<char>,std::allocator<char> > > > >::_Vector_const_iterator<std::_Vector_val<std::basic_string<char,std::char_traits<char>,std::allocator<char> >,std::allocator<std::basic_string<char,std::char_traits<char>,std::allocator<char> > > > >, COMDAT
; _this$ = ecx
; File c:\program files (x86)\microsoft visual studio 10.0\vc\include\vector
; Line 40
	mov	eax, ecx
	mov	DWORD PTR [eax], 0
; Line 41
	ret	0
??0?$_Vector_const_iterator@V?$_Vector_val@V?$basic_string@DU?$char_traits@D@std@@V?$allocator@D@2@@std@@V?$allocator@V?$basic_string@DU?$char_traits@D@std@@V?$allocator@D@2@@std@@@2@@std@@@std@@QAE@XZ ENDP ; std::_Vector_const_iterator<std::_Vector_val<std::basic_string<char,std::char_traits<char>,std::allocator<char> >,std::allocator<std::basic_string<char,std::char_traits<char>,std::allocator<char> > > > >::_Vector_const_iterator<std::_Vector_val<std::basic_string<char,std::char_traits<char>,std::allocator<char> >,std::allocator<std::basic_string<char,std::char_traits<char>,std::allocator<char> > > > >
_TEXT	ENDS
PUBLIC	?get_allocator@?$basic_string@DU?$char_traits@D@std@@V?$allocator@D@2@@std@@QBE?AV?$allocator@D@2@XZ ; std::basic_string<char,std::char_traits<char>,std::allocator<char> >::get_allocator
; Function compile flags: /Ogtp
;	COMDAT ?get_allocator@?$basic_string@DU?$char_traits@D@std@@V?$allocator@D@2@@std@@QBE?AV?$allocator@D@2@XZ
_TEXT	SEGMENT
___$ReturnUdt$ = 8					; size = 4
?get_allocator@?$basic_string@DU?$char_traits@D@std@@V?$allocator@D@2@@std@@QBE?AV?$allocator@D@2@XZ PROC ; std::basic_string<char,std::char_traits<char>,std::allocator<char> >::get_allocator, COMDAT
; _this$ = ecx
; File c:\program files (x86)\microsoft visual studio 10.0\vc\include\xstring
; Line 1905
	push	ebp
	mov	ebp, esp
; Line 1906
	mov	eax, DWORD PTR ___$ReturnUdt$[ebp]
; Line 1907
	pop	ebp
	ret	4
?get_allocator@?$basic_string@DU?$char_traits@D@std@@V?$allocator@D@2@@std@@QBE?AV?$allocator@D@2@XZ ENDP ; std::basic_string<char,std::char_traits<char>,std::allocator<char> >::get_allocator
_TEXT	ENDS
PUBLIC	?_Myptr@?$basic_string@DU?$char_traits@D@std@@V?$allocator@D@2@@std@@QAEPADXZ ; std::basic_string<char,std::char_traits<char>,std::allocator<char> >::_Myptr
; Function compile flags: /Ogtp
;	COMDAT ?_Myptr@?$basic_string@DU?$char_traits@D@std@@V?$allocator@D@2@@std@@QAEPADXZ
_TEXT	SEGMENT
?_Myptr@?$basic_string@DU?$char_traits@D@std@@V?$allocator@D@2@@std@@QAEPADXZ PROC ; std::basic_string<char,std::char_traits<char>,std::allocator<char> >::_Myptr, COMDAT
; _this$ = ecx
; Line 2002
	mov	eax, ecx
; Line 2004
	cmp	DWORD PTR [eax+20], 16			; 00000010H
	jb	SHORT $LN4@Myptr@2
	mov	eax, DWORD PTR [eax]
$LN4@Myptr@2:
; Line 2005
	ret	0
?_Myptr@?$basic_string@DU?$char_traits@D@std@@V?$allocator@D@2@@std@@QAEPADXZ ENDP ; std::basic_string<char,std::char_traits<char>,std::allocator<char> >::_Myptr
_TEXT	ENDS
PUBLIC	??_C@_0BI@CFPLBAOH@invalid?5string?5position?$AA@ ; `string'
PUBLIC	?_Xran@?$basic_string@DU?$char_traits@D@std@@V?$allocator@D@2@@std@@QBEXXZ ; std::basic_string<char,std::char_traits<char>,std::allocator<char> >::_Xran
EXTRN	__imp_?_Xout_of_range@std@@YAXPBD@Z:PROC
;	COMDAT ??_C@_0BI@CFPLBAOH@invalid?5string?5position?$AA@
CONST	SEGMENT
??_C@_0BI@CFPLBAOH@invalid?5string?5position?$AA@ DB 'invalid string posi'
	DB	'tion', 00H					; `string'
; Function compile flags: /Ogtp
CONST	ENDS
;	COMDAT ?_Xran@?$basic_string@DU?$char_traits@D@std@@V?$allocator@D@2@@std@@QBEXXZ
_TEXT	SEGMENT
?_Xran@?$basic_string@DU?$char_traits@D@std@@V?$allocator@D@2@@std@@QBEXXZ PROC ; std::basic_string<char,std::char_traits<char>,std::allocator<char> >::_Xran, COMDAT
; _this$ = ecx
; Line 2020
	push	OFFSET ??_C@_0BI@CFPLBAOH@invalid?5string?5position?$AA@
	call	DWORD PTR __imp_?_Xout_of_range@std@@YAXPBD@Z
$LN4@Xran:
$LN3@Xran:
	int	3
?_Xran@?$basic_string@DU?$char_traits@D@std@@V?$allocator@D@2@@std@@QBEXXZ ENDP ; std::basic_string<char,std::char_traits<char>,std::allocator<char> >::_Xran
_TEXT	ENDS
PUBLIC	?deallocate@?$allocator@D@std@@QAEXPADI@Z	; std::allocator<char>::deallocate
; Function compile flags: /Ogtp
;	COMDAT ?deallocate@?$allocator@D@std@@QAEXPADI@Z
_TEXT	SEGMENT
__Ptr$ = 8						; size = 4
___formal$ = 12						; size = 4
?deallocate@?$allocator@D@std@@QAEXPADI@Z PROC		; std::allocator<char>::deallocate, COMDAT
; _this$ = ecx
; File c:\program files (x86)\microsoft visual studio 10.0\vc\include\xmemory
; Line 181
	push	ebp
	mov	ebp, esp
; Line 182
	mov	eax, DWORD PTR __Ptr$[ebp]
	push	eax
	call	??3@YAXPAX@Z				; operator delete
	add	esp, 4
; Line 183
	pop	ebp
	ret	8
?deallocate@?$allocator@D@std@@QAEXPADI@Z ENDP		; std::allocator<char>::deallocate
_TEXT	ENDS
PUBLIC	?_Isnil@?$_Tree_val@V?$_Tmap_traits@IPAVManagedItem@@U?$less@I@std@@V?$allocator@U?$pair@$$CBIPAVManagedItem@@@std@@@3@$0A@@std@@@std@@SAAADPAU_Node@?$_Tree_nod@V?$_Tmap_traits@IPAVManagedItem@@U?$less@I@std@@V?$allocator@U?$pair@$$CBIPAVManagedItem@@@std@@@3@$0A@@std@@@2@@Z ; std::_Tree_val<std::_Tmap_traits<unsigned int,ManagedItem *,std::less<unsigned int>,std::allocator<std::pair<unsigned int const ,ManagedItem *> >,0> >::_Isnil
; Function compile flags: /Ogtp
;	COMDAT ?_Isnil@?$_Tree_val@V?$_Tmap_traits@IPAVManagedItem@@U?$less@I@std@@V?$allocator@U?$pair@$$CBIPAVManagedItem@@@std@@@3@$0A@@std@@@std@@SAAADPAU_Node@?$_Tree_nod@V?$_Tmap_traits@IPAVManagedItem@@U?$less@I@std@@V?$allocator@U?$pair@$$CBIPAVManagedItem@@@std@@@3@$0A@@std@@@2@@Z
_TEXT	SEGMENT
__Pnode$ = 8						; size = 4
?_Isnil@?$_Tree_val@V?$_Tmap_traits@IPAVManagedItem@@U?$less@I@std@@V?$allocator@U?$pair@$$CBIPAVManagedItem@@@std@@@3@$0A@@std@@@std@@SAAADPAU_Node@?$_Tree_nod@V?$_Tmap_traits@IPAVManagedItem@@U?$less@I@std@@V?$allocator@U?$pair@$$CBIPAVManagedItem@@@std@@@3@$0A@@std@@@2@@Z PROC ; std::_Tree_val<std::_Tmap_traits<unsigned int,ManagedItem *,std::less<unsigned int>,std::allocator<std::pair<unsigned int const ,ManagedItem *> >,0> >::_Isnil, COMDAT
; File c:\program files (x86)\microsoft visual studio 10.0\vc\include\xtree
; Line 611
	push	ebp
	mov	ebp, esp
; Line 612
	mov	eax, DWORD PTR __Pnode$[ebp]
	add	eax, 21					; 00000015H
; Line 613
	pop	ebp
	ret	0
?_Isnil@?$_Tree_val@V?$_Tmap_traits@IPAVManagedItem@@U?$less@I@std@@V?$allocator@U?$pair@$$CBIPAVManagedItem@@@std@@@3@$0A@@std@@@std@@SAAADPAU_Node@?$_Tree_nod@V?$_Tmap_traits@IPAVManagedItem@@U?$less@I@std@@V?$allocator@U?$pair@$$CBIPAVManagedItem@@@std@@@3@$0A@@std@@@2@@Z ENDP ; std::_Tree_val<std::_Tmap_traits<unsigned int,ManagedItem *,std::less<unsigned int>,std::allocator<std::pair<unsigned int const ,ManagedItem *> >,0> >::_Isnil
_TEXT	ENDS
PUBLIC	?_Left@?$_Tree_val@V?$_Tmap_traits@IPAVManagedItem@@U?$less@I@std@@V?$allocator@U?$pair@$$CBIPAVManagedItem@@@std@@@3@$0A@@std@@@std@@SAAAPAU_Node@?$_Tree_nod@V?$_Tmap_traits@IPAVManagedItem@@U?$less@I@std@@V?$allocator@U?$pair@$$CBIPAVManagedItem@@@std@@@3@$0A@@std@@@2@PAU342@@Z ; std::_Tree_val<std::_Tmap_traits<unsigned int,ManagedItem *,std::less<unsigned int>,std::allocator<std::pair<unsigned int const ,ManagedItem *> >,0> >::_Left
; Function compile flags: /Ogtp
;	COMDAT ?_Left@?$_Tree_val@V?$_Tmap_traits@IPAVManagedItem@@U?$less@I@std@@V?$allocator@U?$pair@$$CBIPAVManagedItem@@@std@@@3@$0A@@std@@@std@@SAAAPAU_Node@?$_Tree_nod@V?$_Tmap_traits@IPAVManagedItem@@U?$less@I@std@@V?$allocator@U?$pair@$$CBIPAVManagedItem@@@std@@@3@$0A@@std@@@2@PAU342@@Z
_TEXT	SEGMENT
__Pnode$ = 8						; size = 4
?_Left@?$_Tree_val@V?$_Tmap_traits@IPAVManagedItem@@U?$less@I@std@@V?$allocator@U?$pair@$$CBIPAVManagedItem@@@std@@@3@$0A@@std@@@std@@SAAAPAU_Node@?$_Tree_nod@V?$_Tmap_traits@IPAVManagedItem@@U?$less@I@std@@V?$allocator@U?$pair@$$CBIPAVManagedItem@@@std@@@3@$0A@@std@@@2@PAU342@@Z PROC ; std::_Tree_val<std::_Tmap_traits<unsigned int,ManagedItem *,std::less<unsigned int>,std::allocator<std::pair<unsigned int const ,ManagedItem *> >,0> >::_Left, COMDAT
; Line 621
	push	ebp
	mov	ebp, esp
; Line 622
	mov	eax, DWORD PTR __Pnode$[ebp]
; Line 623
	pop	ebp
	ret	0
?_Left@?$_Tree_val@V?$_Tmap_traits@IPAVManagedItem@@U?$less@I@std@@V?$allocator@U?$pair@$$CBIPAVManagedItem@@@std@@@3@$0A@@std@@@std@@SAAAPAU_Node@?$_Tree_nod@V?$_Tmap_traits@IPAVManagedItem@@U?$less@I@std@@V?$allocator@U?$pair@$$CBIPAVManagedItem@@@std@@@3@$0A@@std@@@2@PAU342@@Z ENDP ; std::_Tree_val<std::_Tmap_traits<unsigned int,ManagedItem *,std::less<unsigned int>,std::allocator<std::pair<unsigned int const ,ManagedItem *> >,0> >::_Left
_TEXT	ENDS
PUBLIC	?_Parent@?$_Tree_val@V?$_Tmap_traits@IPAVManagedItem@@U?$less@I@std@@V?$allocator@U?$pair@$$CBIPAVManagedItem@@@std@@@3@$0A@@std@@@std@@SAAAPAU_Node@?$_Tree_nod@V?$_Tmap_traits@IPAVManagedItem@@U?$less@I@std@@V?$allocator@U?$pair@$$CBIPAVManagedItem@@@std@@@3@$0A@@std@@@2@PAU342@@Z ; std::_Tree_val<std::_Tmap_traits<unsigned int,ManagedItem *,std::less<unsigned int>,std::allocator<std::pair<unsigned int const ,ManagedItem *> >,0> >::_Parent
; Function compile flags: /Ogtp
;	COMDAT ?_Parent@?$_Tree_val@V?$_Tmap_traits@IPAVManagedItem@@U?$less@I@std@@V?$allocator@U?$pair@$$CBIPAVManagedItem@@@std@@@3@$0A@@std@@@std@@SAAAPAU_Node@?$_Tree_nod@V?$_Tmap_traits@IPAVManagedItem@@U?$less@I@std@@V?$allocator@U?$pair@$$CBIPAVManagedItem@@@std@@@3@$0A@@std@@@2@PAU342@@Z
_TEXT	SEGMENT
__Pnode$ = 8						; size = 4
?_Parent@?$_Tree_val@V?$_Tmap_traits@IPAVManagedItem@@U?$less@I@std@@V?$allocator@U?$pair@$$CBIPAVManagedItem@@@std@@@3@$0A@@std@@@std@@SAAAPAU_Node@?$_Tree_nod@V?$_Tmap_traits@IPAVManagedItem@@U?$less@I@std@@V?$allocator@U?$pair@$$CBIPAVManagedItem@@@std@@@3@$0A@@std@@@2@PAU342@@Z PROC ; std::_Tree_val<std::_Tmap_traits<unsigned int,ManagedItem *,std::less<unsigned int>,std::allocator<std::pair<unsigned int const ,ManagedItem *> >,0> >::_Parent, COMDAT
; Line 626
	push	ebp
	mov	ebp, esp
; Line 627
	mov	eax, DWORD PTR __Pnode$[ebp]
	add	eax, 4
; Line 628
	pop	ebp
	ret	0
?_Parent@?$_Tree_val@V?$_Tmap_traits@IPAVManagedItem@@U?$less@I@std@@V?$allocator@U?$pair@$$CBIPAVManagedItem@@@std@@@3@$0A@@std@@@std@@SAAAPAU_Node@?$_Tree_nod@V?$_Tmap_traits@IPAVManagedItem@@U?$less@I@std@@V?$allocator@U?$pair@$$CBIPAVManagedItem@@@std@@@3@$0A@@std@@@2@PAU342@@Z ENDP ; std::_Tree_val<std::_Tmap_traits<unsigned int,ManagedItem *,std::less<unsigned int>,std::allocator<std::pair<unsigned int const ,ManagedItem *> >,0> >::_Parent
_TEXT	ENDS
PUBLIC	?_Right@?$_Tree_val@V?$_Tmap_traits@IPAVManagedItem@@U?$less@I@std@@V?$allocator@U?$pair@$$CBIPAVManagedItem@@@std@@@3@$0A@@std@@@std@@SAAAPAU_Node@?$_Tree_nod@V?$_Tmap_traits@IPAVManagedItem@@U?$less@I@std@@V?$allocator@U?$pair@$$CBIPAVManagedItem@@@std@@@3@$0A@@std@@@2@PAU342@@Z ; std::_Tree_val<std::_Tmap_traits<unsigned int,ManagedItem *,std::less<unsigned int>,std::allocator<std::pair<unsigned int const ,ManagedItem *> >,0> >::_Right
; Function compile flags: /Ogtp
;	COMDAT ?_Right@?$_Tree_val@V?$_Tmap_traits@IPAVManagedItem@@U?$less@I@std@@V?$allocator@U?$pair@$$CBIPAVManagedItem@@@std@@@3@$0A@@std@@@std@@SAAAPAU_Node@?$_Tree_nod@V?$_Tmap_traits@IPAVManagedItem@@U?$less@I@std@@V?$allocator@U?$pair@$$CBIPAVManagedItem@@@std@@@3@$0A@@std@@@2@PAU342@@Z
_TEXT	SEGMENT
__Pnode$ = 8						; size = 4
?_Right@?$_Tree_val@V?$_Tmap_traits@IPAVManagedItem@@U?$less@I@std@@V?$allocator@U?$pair@$$CBIPAVManagedItem@@@std@@@3@$0A@@std@@@std@@SAAAPAU_Node@?$_Tree_nod@V?$_Tmap_traits@IPAVManagedItem@@U?$less@I@std@@V?$allocator@U?$pair@$$CBIPAVManagedItem@@@std@@@3@$0A@@std@@@2@PAU342@@Z PROC ; std::_Tree_val<std::_Tmap_traits<unsigned int,ManagedItem *,std::less<unsigned int>,std::allocator<std::pair<unsigned int const ,ManagedItem *> >,0> >::_Right, COMDAT
; Line 631
	push	ebp
	mov	ebp, esp
; Line 632
	mov	eax, DWORD PTR __Pnode$[ebp]
	add	eax, 8
; Line 633
	pop	ebp
	ret	0
?_Right@?$_Tree_val@V?$_Tmap_traits@IPAVManagedItem@@U?$less@I@std@@V?$allocator@U?$pair@$$CBIPAVManagedItem@@@std@@@3@$0A@@std@@@std@@SAAAPAU_Node@?$_Tree_nod@V?$_Tmap_traits@IPAVManagedItem@@U?$less@I@std@@V?$allocator@U?$pair@$$CBIPAVManagedItem@@@std@@@3@$0A@@std@@@2@PAU342@@Z ENDP ; std::_Tree_val<std::_Tmap_traits<unsigned int,ManagedItem *,std::less<unsigned int>,std::allocator<std::pair<unsigned int const ,ManagedItem *> >,0> >::_Right
_TEXT	ENDS
PUBLIC	?_Myval@?$_Tree_val@V?$_Tmap_traits@IPAVManagedItem@@U?$less@I@std@@V?$allocator@U?$pair@$$CBIPAVManagedItem@@@std@@@3@$0A@@std@@@std@@SAAAU?$pair@$$CBIPAVManagedItem@@@2@PAU_Node@?$_Tree_nod@V?$_Tmap_traits@IPAVManagedItem@@U?$less@I@std@@V?$allocator@U?$pair@$$CBIPAVManagedItem@@@std@@@3@$0A@@std@@@2@@Z ; std::_Tree_val<std::_Tmap_traits<unsigned int,ManagedItem *,std::less<unsigned int>,std::allocator<std::pair<unsigned int const ,ManagedItem *> >,0> >::_Myval
; Function compile flags: /Ogtp
;	COMDAT ?_Myval@?$_Tree_val@V?$_Tmap_traits@IPAVManagedItem@@U?$less@I@std@@V?$allocator@U?$pair@$$CBIPAVManagedItem@@@std@@@3@$0A@@std@@@std@@SAAAU?$pair@$$CBIPAVManagedItem@@@2@PAU_Node@?$_Tree_nod@V?$_Tmap_traits@IPAVManagedItem@@U?$less@I@std@@V?$allocator@U?$pair@$$CBIPAVManagedItem@@@std@@@3@$0A@@std@@@2@@Z
_TEXT	SEGMENT
__Pnode$ = 8						; size = 4
?_Myval@?$_Tree_val@V?$_Tmap_traits@IPAVManagedItem@@U?$less@I@std@@V?$allocator@U?$pair@$$CBIPAVManagedItem@@@std@@@3@$0A@@std@@@std@@SAAAU?$pair@$$CBIPAVManagedItem@@@2@PAU_Node@?$_Tree_nod@V?$_Tmap_traits@IPAVManagedItem@@U?$less@I@std@@V?$allocator@U?$pair@$$CBIPAVManagedItem@@@std@@@3@$0A@@std@@@2@@Z PROC ; std::_Tree_val<std::_Tmap_traits<unsigned int,ManagedItem *,std::less<unsigned int>,std::allocator<std::pair<unsigned int const ,ManagedItem *> >,0> >::_Myval, COMDAT
; Line 636
	push	ebp
	mov	ebp, esp
; Line 637
	mov	eax, DWORD PTR __Pnode$[ebp]
	add	eax, 12					; 0000000cH
; Line 638
	pop	ebp
	ret	0
?_Myval@?$_Tree_val@V?$_Tmap_traits@IPAVManagedItem@@U?$less@I@std@@V?$allocator@U?$pair@$$CBIPAVManagedItem@@@std@@@3@$0A@@std@@@std@@SAAAU?$pair@$$CBIPAVManagedItem@@@2@PAU_Node@?$_Tree_nod@V?$_Tmap_traits@IPAVManagedItem@@U?$less@I@std@@V?$allocator@U?$pair@$$CBIPAVManagedItem@@@std@@@3@$0A@@std@@@2@@Z ENDP ; std::_Tree_val<std::_Tmap_traits<unsigned int,ManagedItem *,std::less<unsigned int>,std::allocator<std::pair<unsigned int const ,ManagedItem *> >,0> >::_Myval
_TEXT	ENDS
PUBLIC	?_Max@?$_Tree_val@V?$_Tmap_traits@IPAVManagedItem@@U?$less@I@std@@V?$allocator@U?$pair@$$CBIPAVManagedItem@@@std@@@3@$0A@@std@@@std@@SAPAU_Node@?$_Tree_nod@V?$_Tmap_traits@IPAVManagedItem@@U?$less@I@std@@V?$allocator@U?$pair@$$CBIPAVManagedItem@@@std@@@3@$0A@@std@@@2@PAU342@@Z ; std::_Tree_val<std::_Tmap_traits<unsigned int,ManagedItem *,std::less<unsigned int>,std::allocator<std::pair<unsigned int const ,ManagedItem *> >,0> >::_Max
; Function compile flags: /Ogtp
;	COMDAT ?_Max@?$_Tree_val@V?$_Tmap_traits@IPAVManagedItem@@U?$less@I@std@@V?$allocator@U?$pair@$$CBIPAVManagedItem@@@std@@@3@$0A@@std@@@std@@SAPAU_Node@?$_Tree_nod@V?$_Tmap_traits@IPAVManagedItem@@U?$less@I@std@@V?$allocator@U?$pair@$$CBIPAVManagedItem@@@std@@@3@$0A@@std@@@2@PAU342@@Z
_TEXT	SEGMENT
__Pnode$ = 8						; size = 4
?_Max@?$_Tree_val@V?$_Tmap_traits@IPAVManagedItem@@U?$less@I@std@@V?$allocator@U?$pair@$$CBIPAVManagedItem@@@std@@@3@$0A@@std@@@std@@SAPAU_Node@?$_Tree_nod@V?$_Tmap_traits@IPAVManagedItem@@U?$less@I@std@@V?$allocator@U?$pair@$$CBIPAVManagedItem@@@std@@@3@$0A@@std@@@2@PAU342@@Z PROC ; std::_Tree_val<std::_Tmap_traits<unsigned int,ManagedItem *,std::less<unsigned int>,std::allocator<std::pair<unsigned int const ,ManagedItem *> >,0> >::_Max, COMDAT
; Line 641
	push	ebp
	mov	ebp, esp
; Line 642
	mov	eax, DWORD PTR __Pnode$[ebp]
	mov	ecx, DWORD PTR [eax+8]
	cmp	BYTE PTR [ecx+21], 0
	jne	SHORT $LN1@Max
	npad	1
$LL2@Max:
; Line 643
	mov	eax, ecx
	mov	ecx, DWORD PTR [eax+8]
	cmp	BYTE PTR [ecx+21], 0
	je	SHORT $LL2@Max
$LN1@Max:
; Line 645
	pop	ebp
	ret	0
?_Max@?$_Tree_val@V?$_Tmap_traits@IPAVManagedItem@@U?$less@I@std@@V?$allocator@U?$pair@$$CBIPAVManagedItem@@@std@@@3@$0A@@std@@@std@@SAPAU_Node@?$_Tree_nod@V?$_Tmap_traits@IPAVManagedItem@@U?$less@I@std@@V?$allocator@U?$pair@$$CBIPAVManagedItem@@@std@@@3@$0A@@std@@@2@PAU342@@Z ENDP ; std::_Tree_val<std::_Tmap_traits<unsigned int,ManagedItem *,std::less<unsigned int>,std::allocator<std::pair<unsigned int const ,ManagedItem *> >,0> >::_Max
_TEXT	ENDS
PUBLIC	?_Min@?$_Tree_val@V?$_Tmap_traits@IPAVManagedItem@@U?$less@I@std@@V?$allocator@U?$pair@$$CBIPAVManagedItem@@@std@@@3@$0A@@std@@@std@@SAPAU_Node@?$_Tree_nod@V?$_Tmap_traits@IPAVManagedItem@@U?$less@I@std@@V?$allocator@U?$pair@$$CBIPAVManagedItem@@@std@@@3@$0A@@std@@@2@PAU342@@Z ; std::_Tree_val<std::_Tmap_traits<unsigned int,ManagedItem *,std::less<unsigned int>,std::allocator<std::pair<unsigned int const ,ManagedItem *> >,0> >::_Min
; Function compile flags: /Ogtp
;	COMDAT ?_Min@?$_Tree_val@V?$_Tmap_traits@IPAVManagedItem@@U?$less@I@std@@V?$allocator@U?$pair@$$CBIPAVManagedItem@@@std@@@3@$0A@@std@@@std@@SAPAU_Node@?$_Tree_nod@V?$_Tmap_traits@IPAVManagedItem@@U?$less@I@std@@V?$allocator@U?$pair@$$CBIPAVManagedItem@@@std@@@3@$0A@@std@@@2@PAU342@@Z
_TEXT	SEGMENT
__Pnode$ = 8						; size = 4
?_Min@?$_Tree_val@V?$_Tmap_traits@IPAVManagedItem@@U?$less@I@std@@V?$allocator@U?$pair@$$CBIPAVManagedItem@@@std@@@3@$0A@@std@@@std@@SAPAU_Node@?$_Tree_nod@V?$_Tmap_traits@IPAVManagedItem@@U?$less@I@std@@V?$allocator@U?$pair@$$CBIPAVManagedItem@@@std@@@3@$0A@@std@@@2@PAU342@@Z PROC ; std::_Tree_val<std::_Tmap_traits<unsigned int,ManagedItem *,std::less<unsigned int>,std::allocator<std::pair<unsigned int const ,ManagedItem *> >,0> >::_Min, COMDAT
; Line 648
	push	ebp
	mov	ebp, esp
; Line 649
	mov	eax, DWORD PTR __Pnode$[ebp]
	mov	ecx, DWORD PTR [eax]
	cmp	BYTE PTR [ecx+21], 0
	jne	SHORT $LN1@Min
	npad	2
$LL2@Min:
; Line 650
	mov	eax, ecx
	mov	ecx, DWORD PTR [eax]
	cmp	BYTE PTR [ecx+21], 0
	je	SHORT $LL2@Min
$LN1@Min:
; Line 652
	pop	ebp
	ret	0
?_Min@?$_Tree_val@V?$_Tmap_traits@IPAVManagedItem@@U?$less@I@std@@V?$allocator@U?$pair@$$CBIPAVManagedItem@@@std@@@3@$0A@@std@@@std@@SAPAU_Node@?$_Tree_nod@V?$_Tmap_traits@IPAVManagedItem@@U?$less@I@std@@V?$allocator@U?$pair@$$CBIPAVManagedItem@@@std@@@3@$0A@@std@@@2@PAU342@@Z ENDP ; std::_Tree_val<std::_Tmap_traits<unsigned int,ManagedItem *,std::less<unsigned int>,std::allocator<std::pair<unsigned int const ,ManagedItem *> >,0> >::_Min
_TEXT	ENDS
PUBLIC	?capacity@?$vector@V?$basic_string@DU?$char_traits@D@std@@V?$allocator@D@2@@std@@V?$allocator@V?$basic_string@DU?$char_traits@D@std@@V?$allocator@D@2@@std@@@2@@std@@QBEIXZ ; std::vector<std::basic_string<char,std::char_traits<char>,std::allocator<char> >,std::allocator<std::basic_string<char,std::char_traits<char>,std::allocator<char> > > >::capacity
; Function compile flags: /Ogtp
;	COMDAT ?capacity@?$vector@V?$basic_string@DU?$char_traits@D@std@@V?$allocator@D@2@@std@@V?$allocator@V?$basic_string@DU?$char_traits@D@std@@V?$allocator@D@2@@std@@@2@@std@@QBEIXZ
_TEXT	SEGMENT
?capacity@?$vector@V?$basic_string@DU?$char_traits@D@std@@V?$allocator@D@2@@std@@V?$allocator@V?$basic_string@DU?$char_traits@D@std@@V?$allocator@D@2@@std@@@2@@std@@QBEIXZ PROC ; std::vector<std::basic_string<char,std::char_traits<char>,std::allocator<char> >,std::allocator<std::basic_string<char,std::char_traits<char>,std::allocator<char> > > >::capacity, COMDAT
; _this$ = ecx
; File c:\program files (x86)\microsoft visual studio 10.0\vc\include\vector
; Line 776
	push	esi
; Line 777
	mov	esi, DWORD PTR [ecx+8]
	sub	esi, DWORD PTR [ecx]
	mov	eax, -1840700269			; 92492493H
	imul	esi
	add	edx, esi
	sar	edx, 4
	mov	eax, edx
	shr	eax, 31					; 0000001fH
	add	eax, edx
	pop	esi
; Line 778
	ret	0
?capacity@?$vector@V?$basic_string@DU?$char_traits@D@std@@V?$allocator@D@2@@std@@V?$allocator@V?$basic_string@DU?$char_traits@D@std@@V?$allocator@D@2@@std@@@2@@std@@QBEIXZ ENDP ; std::vector<std::basic_string<char,std::char_traits<char>,std::allocator<char> >,std::allocator<std::basic_string<char,std::char_traits<char>,std::allocator<char> > > >::capacity
_TEXT	ENDS
PUBLIC	?size@?$vector@V?$basic_string@DU?$char_traits@D@std@@V?$allocator@D@2@@std@@V?$allocator@V?$basic_string@DU?$char_traits@D@std@@V?$allocator@D@2@@std@@@2@@std@@QBEIXZ ; std::vector<std::basic_string<char,std::char_traits<char>,std::allocator<char> >,std::allocator<std::basic_string<char,std::char_traits<char>,std::allocator<char> > > >::size
; Function compile flags: /Ogtp
;	COMDAT ?size@?$vector@V?$basic_string@DU?$char_traits@D@std@@V?$allocator@D@2@@std@@V?$allocator@V?$basic_string@DU?$char_traits@D@std@@V?$allocator@D@2@@std@@@2@@std@@QBEIXZ
_TEXT	SEGMENT
?size@?$vector@V?$basic_string@DU?$char_traits@D@std@@V?$allocator@D@2@@std@@V?$allocator@V?$basic_string@DU?$char_traits@D@std@@V?$allocator@D@2@@std@@@2@@std@@QBEIXZ PROC ; std::vector<std::basic_string<char,std::char_traits<char>,std::allocator<char> >,std::allocator<std::basic_string<char,std::char_traits<char>,std::allocator<char> > > >::size, COMDAT
; _this$ = ecx
; Line 878
	push	esi
; Line 879
	mov	esi, DWORD PTR [ecx+4]
	sub	esi, DWORD PTR [ecx]
	mov	eax, -1840700269			; 92492493H
	imul	esi
	add	edx, esi
	sar	edx, 4
	mov	eax, edx
	shr	eax, 31					; 0000001fH
	add	eax, edx
	pop	esi
; Line 880
	ret	0
?size@?$vector@V?$basic_string@DU?$char_traits@D@std@@V?$allocator@D@2@@std@@V?$allocator@V?$basic_string@DU?$char_traits@D@std@@V?$allocator@D@2@@std@@@2@@std@@QBEIXZ ENDP ; std::vector<std::basic_string<char,std::char_traits<char>,std::allocator<char> >,std::allocator<std::basic_string<char,std::char_traits<char>,std::allocator<char> > > >::size
_TEXT	ENDS
PUBLIC	??_C@_0BD@OLBABOEK@vector?$DMT?$DO?5too?5long?$AA@ ; `string'
PUBLIC	?_Xlen@?$vector@V?$basic_string@DU?$char_traits@D@std@@V?$allocator@D@2@@std@@V?$allocator@V?$basic_string@DU?$char_traits@D@std@@V?$allocator@D@2@@std@@@2@@std@@IBEXXZ ; std::vector<std::basic_string<char,std::char_traits<char>,std::allocator<char> >,std::allocator<std::basic_string<char,std::char_traits<char>,std::allocator<char> > > >::_Xlen
EXTRN	__imp_?_Xlength_error@std@@YAXPBD@Z:PROC
;	COMDAT ??_C@_0BD@OLBABOEK@vector?$DMT?$DO?5too?5long?$AA@
CONST	SEGMENT
??_C@_0BD@OLBABOEK@vector?$DMT?$DO?5too?5long?$AA@ DB 'vector<T> too long'
	DB	00H						; `string'
; Function compile flags: /Ogtp
CONST	ENDS
;	COMDAT ?_Xlen@?$vector@V?$basic_string@DU?$char_traits@D@std@@V?$allocator@D@2@@std@@V?$allocator@V?$basic_string@DU?$char_traits@D@std@@V?$allocator@D@2@@std@@@2@@std@@IBEXXZ
_TEXT	SEGMENT
?_Xlen@?$vector@V?$basic_string@DU?$char_traits@D@std@@V?$allocator@D@2@@std@@V?$allocator@V?$basic_string@DU?$char_traits@D@std@@V?$allocator@D@2@@std@@@2@@std@@IBEXXZ PROC ; std::vector<std::basic_string<char,std::char_traits<char>,std::allocator<char> >,std::allocator<std::basic_string<char,std::char_traits<char>,std::allocator<char> > > >::_Xlen, COMDAT
; _this$ = ecx
; Line 1427
	push	OFFSET ??_C@_0BD@OLBABOEK@vector?$DMT?$DO?5too?5long?$AA@
	call	DWORD PTR __imp_?_Xlength_error@std@@YAXPBD@Z
$LN4@Xlen:
$LN3@Xlen:
	int	3
?_Xlen@?$vector@V?$basic_string@DU?$char_traits@D@std@@V?$allocator@D@2@@std@@V?$allocator@V?$basic_string@DU?$char_traits@D@std@@V?$allocator@D@2@@std@@@2@@std@@IBEXXZ ENDP ; std::vector<std::basic_string<char,std::char_traits<char>,std::allocator<char> >,std::allocator<std::basic_string<char,std::char_traits<char>,std::allocator<char> > > >::_Xlen
_TEXT	ENDS
PUBLIC	??0?$allocator@V?$basic_string@DU?$char_traits@D@std@@V?$allocator@D@2@@std@@@std@@QAE@ABV01@@Z ; std::allocator<std::basic_string<char,std::char_traits<char>,std::allocator<char> > >::allocator<std::basic_string<char,std::char_traits<char>,std::allocator<char> > >
; Function compile flags: /Ogtp
;	COMDAT ??0?$allocator@V?$basic_string@DU?$char_traits@D@std@@V?$allocator@D@2@@std@@@std@@QAE@ABV01@@Z
_TEXT	SEGMENT
___formal$ = 8						; size = 4
??0?$allocator@V?$basic_string@DU?$char_traits@D@std@@V?$allocator@D@2@@std@@@std@@QAE@ABV01@@Z PROC ; std::allocator<std::basic_string<char,std::char_traits<char>,std::allocator<char> > >::allocator<std::basic_string<char,std::char_traits<char>,std::allocator<char> > >, COMDAT
; _this$ = ecx
; File c:\program files (x86)\microsoft visual studio 10.0\vc\include\xmemory
; Line 165
	mov	eax, ecx
; Line 167
	ret	4
??0?$allocator@V?$basic_string@DU?$char_traits@D@std@@V?$allocator@D@2@@std@@@std@@QAE@ABV01@@Z ENDP ; std::allocator<std::basic_string<char,std::char_traits<char>,std::allocator<char> > >::allocator<std::basic_string<char,std::char_traits<char>,std::allocator<char> > >
_TEXT	ENDS
PUBLIC	?deallocate@?$allocator@V?$basic_string@DU?$char_traits@D@std@@V?$allocator@D@2@@std@@@std@@QAEXPAV?$basic_string@DU?$char_traits@D@std@@V?$allocator@D@2@@2@I@Z ; std::allocator<std::basic_string<char,std::char_traits<char>,std::allocator<char> > >::deallocate
; Function compile flags: /Ogtp
;	COMDAT ?deallocate@?$allocator@V?$basic_string@DU?$char_traits@D@std@@V?$allocator@D@2@@std@@@std@@QAEXPAV?$basic_string@DU?$char_traits@D@std@@V?$allocator@D@2@@2@I@Z
_TEXT	SEGMENT
__Ptr$ = 8						; size = 4
___formal$ = 12						; size = 4
?deallocate@?$allocator@V?$basic_string@DU?$char_traits@D@std@@V?$allocator@D@2@@std@@@std@@QAEXPAV?$basic_string@DU?$char_traits@D@std@@V?$allocator@D@2@@2@I@Z PROC ; std::allocator<std::basic_string<char,std::char_traits<char>,std::allocator<char> > >::deallocate, COMDAT
; _this$ = ecx
; Line 181
	push	ebp
	mov	ebp, esp
; Line 182
	mov	eax, DWORD PTR __Ptr$[ebp]
	push	eax
	call	??3@YAXPAX@Z				; operator delete
	add	esp, 4
; Line 183
	pop	ebp
	ret	8
?deallocate@?$allocator@V?$basic_string@DU?$char_traits@D@std@@V?$allocator@D@2@@std@@@std@@QAEXPAV?$basic_string@DU?$char_traits@D@std@@V?$allocator@D@2@@2@I@Z ENDP ; std::allocator<std::basic_string<char,std::char_traits<char>,std::allocator<char> > >::deallocate
_TEXT	ENDS
PUBLIC	??D?$_Tree_const_iterator@V?$_Tree_val@V?$_Tmap_traits@IPAVManagedItem@@U?$less@I@std@@V?$allocator@U?$pair@$$CBIPAVManagedItem@@@std@@@3@$0A@@std@@@std@@@std@@QBEABU?$pair@$$CBIPAVManagedItem@@@1@XZ ; std::_Tree_const_iterator<std::_Tree_val<std::_Tmap_traits<unsigned int,ManagedItem *,std::less<unsigned int>,std::allocator<std::pair<unsigned int const ,ManagedItem *> >,0> > >::operator*
; Function compile flags: /Ogtp
;	COMDAT ??D?$_Tree_const_iterator@V?$_Tree_val@V?$_Tmap_traits@IPAVManagedItem@@U?$less@I@std@@V?$allocator@U?$pair@$$CBIPAVManagedItem@@@std@@@3@$0A@@std@@@std@@@std@@QBEABU?$pair@$$CBIPAVManagedItem@@@1@XZ
_TEXT	SEGMENT
??D?$_Tree_const_iterator@V?$_Tree_val@V?$_Tmap_traits@IPAVManagedItem@@U?$less@I@std@@V?$allocator@U?$pair@$$CBIPAVManagedItem@@@std@@@3@$0A@@std@@@std@@@std@@QBEABU?$pair@$$CBIPAVManagedItem@@@1@XZ PROC ; std::_Tree_const_iterator<std::_Tree_val<std::_Tmap_traits<unsigned int,ManagedItem *,std::less<unsigned int>,std::allocator<std::pair<unsigned int const ,ManagedItem *> >,0> > >::operator*, COMDAT
; _this$ = ecx
; File c:\program files (x86)\microsoft visual studio 10.0\vc\include\xtree
; Line 246
	mov	eax, DWORD PTR [ecx]
	add	eax, 12					; 0000000cH
; Line 247
	ret	0
??D?$_Tree_const_iterator@V?$_Tree_val@V?$_Tmap_traits@IPAVManagedItem@@U?$less@I@std@@V?$allocator@U?$pair@$$CBIPAVManagedItem@@@std@@@3@$0A@@std@@@std@@@std@@QBEABU?$pair@$$CBIPAVManagedItem@@@1@XZ ENDP ; std::_Tree_const_iterator<std::_Tree_val<std::_Tmap_traits<unsigned int,ManagedItem *,std::less<unsigned int>,std::allocator<std::pair<unsigned int const ,ManagedItem *> >,0> > >::operator*
_TEXT	ENDS
PUBLIC	??0?$_Tree_unchecked_const_iterator@V?$_Tree_val@V?$_Tmap_traits@IPAVManagedItem@@U?$less@I@std@@V?$allocator@U?$pair@$$CBIPAVManagedItem@@@std@@@3@$0A@@std@@@std@@U_Iterator_base0@2@@std@@QAE@XZ ; std::_Tree_unchecked_const_iterator<std::_Tree_val<std::_Tmap_traits<unsigned int,ManagedItem *,std::less<unsigned int>,std::allocator<std::pair<unsigned int const ,ManagedItem *> >,0> >,std::_Iterator_base0>::_Tree_unchecked_const_iterator<std::_Tree_val<std::_Tmap_traits<unsigned int,ManagedItem *,std::less<unsigned int>,std::allocator<std::pair<unsigned int const ,ManagedItem *> >,0> >,std::_Iterator_base0>
; Function compile flags: /Ogtp
;	COMDAT ??0?$_Tree_unchecked_const_iterator@V?$_Tree_val@V?$_Tmap_traits@IPAVManagedItem@@U?$less@I@std@@V?$allocator@U?$pair@$$CBIPAVManagedItem@@@std@@@3@$0A@@std@@@std@@U_Iterator_base0@2@@std@@QAE@XZ
_TEXT	SEGMENT
??0?$_Tree_unchecked_const_iterator@V?$_Tree_val@V?$_Tmap_traits@IPAVManagedItem@@U?$less@I@std@@V?$allocator@U?$pair@$$CBIPAVManagedItem@@@std@@@3@$0A@@std@@@std@@U_Iterator_base0@2@@std@@QAE@XZ PROC ; std::_Tree_unchecked_const_iterator<std::_Tree_val<std::_Tmap_traits<unsigned int,ManagedItem *,std::less<unsigned int>,std::allocator<std::pair<unsigned int const ,ManagedItem *> >,0> >,std::_Iterator_base0>::_Tree_unchecked_const_iterator<std::_Tree_val<std::_Tmap_traits<unsigned int,ManagedItem *,std::less<unsigned int>,std::allocator<std::pair<unsigned int const ,ManagedItem *> >,0> >,std::_Iterator_base0>, COMDAT
; _this$ = ecx
; Line 38
	mov	eax, ecx
	mov	DWORD PTR [eax], 0
; Line 39
	ret	0
??0?$_Tree_unchecked_const_iterator@V?$_Tree_val@V?$_Tmap_traits@IPAVManagedItem@@U?$less@I@std@@V?$allocator@U?$pair@$$CBIPAVManagedItem@@@std@@@3@$0A@@std@@@std@@U_Iterator_base0@2@@std@@QAE@XZ ENDP ; std::_Tree_unchecked_const_iterator<std::_Tree_val<std::_Tmap_traits<unsigned int,ManagedItem *,std::less<unsigned int>,std::allocator<std::pair<unsigned int const ,ManagedItem *> >,0> >,std::_Iterator_base0>::_Tree_unchecked_const_iterator<std::_Tree_val<std::_Tmap_traits<unsigned int,ManagedItem *,std::less<unsigned int>,std::allocator<std::pair<unsigned int const ,ManagedItem *> >,0> >,std::_Iterator_base0>
_TEXT	ENDS
PUBLIC	??0?$_Vector_const_iterator@V?$_Vector_val@V?$basic_string@DU?$char_traits@D@std@@V?$allocator@D@2@@std@@V?$allocator@V?$basic_string@DU?$char_traits@D@std@@V?$allocator@D@2@@std@@@2@@std@@@std@@QAE@PAV?$basic_string@DU?$char_traits@D@std@@V?$allocator@D@2@@1@PBU_Container_base0@1@@Z ; std::_Vector_const_iterator<std::_Vector_val<std::basic_string<char,std::char_traits<char>,std::allocator<char> >,std::allocator<std::basic_string<char,std::char_traits<char>,std::allocator<char> > > > >::_Vector_const_iterator<std::_Vector_val<std::basic_string<char,std::char_traits<char>,std::allocator<char> >,std::allocator<std::basic_string<char,std::char_traits<char>,std::allocator<char> > > > >
; Function compile flags: /Ogtp
;	COMDAT ??0?$_Vector_const_iterator@V?$_Vector_val@V?$basic_string@DU?$char_traits@D@std@@V?$allocator@D@2@@std@@V?$allocator@V?$basic_string@DU?$char_traits@D@std@@V?$allocator@D@2@@std@@@2@@std@@@std@@QAE@PAV?$basic_string@DU?$char_traits@D@std@@V?$allocator@D@2@@1@PBU_Container_base0@1@@Z
_TEXT	SEGMENT
__Parg$ = 8						; size = 4
__Pvector$ = 12						; size = 4
??0?$_Vector_const_iterator@V?$_Vector_val@V?$basic_string@DU?$char_traits@D@std@@V?$allocator@D@2@@std@@V?$allocator@V?$basic_string@DU?$char_traits@D@std@@V?$allocator@D@2@@std@@@2@@std@@@std@@QAE@PAV?$basic_string@DU?$char_traits@D@std@@V?$allocator@D@2@@1@PBU_Container_base0@1@@Z PROC ; std::_Vector_const_iterator<std::_Vector_val<std::basic_string<char,std::char_traits<char>,std::allocator<char> >,std::allocator<std::basic_string<char,std::char_traits<char>,std::allocator<char> > > > >::_Vector_const_iterator<std::_Vector_val<std::basic_string<char,std::char_traits<char>,std::allocator<char> >,std::allocator<std::basic_string<char,std::char_traits<char>,std::allocator<char> > > > >, COMDAT
; _this$ = ecx
; File c:\program files (x86)\microsoft visual studio 10.0\vc\include\vector
; Line 45
	push	ebp
	mov	ebp, esp
	mov	eax, ecx
	mov	ecx, DWORD PTR __Parg$[ebp]
	mov	DWORD PTR [eax], ecx
; Line 47
	pop	ebp
	ret	8
??0?$_Vector_const_iterator@V?$_Vector_val@V?$basic_string@DU?$char_traits@D@std@@V?$allocator@D@2@@std@@V?$allocator@V?$basic_string@DU?$char_traits@D@std@@V?$allocator@D@2@@std@@@2@@std@@@std@@QAE@PAV?$basic_string@DU?$char_traits@D@std@@V?$allocator@D@2@@1@PBU_Container_base0@1@@Z ENDP ; std::_Vector_const_iterator<std::_Vector_val<std::basic_string<char,std::char_traits<char>,std::allocator<char> >,std::allocator<std::basic_string<char,std::char_traits<char>,std::allocator<char> > > > >::_Vector_const_iterator<std::_Vector_val<std::basic_string<char,std::char_traits<char>,std::allocator<char> >,std::allocator<std::basic_string<char,std::char_traits<char>,std::allocator<char> > > > >
_TEXT	ENDS
PUBLIC	??D?$_Vector_const_iterator@V?$_Vector_val@V?$basic_string@DU?$char_traits@D@std@@V?$allocator@D@2@@std@@V?$allocator@V?$basic_string@DU?$char_traits@D@std@@V?$allocator@D@2@@std@@@2@@std@@@std@@QBEABV?$basic_string@DU?$char_traits@D@std@@V?$allocator@D@2@@1@XZ ; std::_Vector_const_iterator<std::_Vector_val<std::basic_string<char,std::char_traits<char>,std::allocator<char> >,std::allocator<std::basic_string<char,std::char_traits<char>,std::allocator<char> > > > >::operator*
; Function compile flags: /Ogtp
;	COMDAT ??D?$_Vector_const_iterator@V?$_Vector_val@V?$basic_string@DU?$char_traits@D@std@@V?$allocator@D@2@@std@@V?$allocator@V?$basic_string@DU?$char_traits@D@std@@V?$allocator@D@2@@std@@@2@@std@@@std@@QBEABV?$basic_string@DU?$char_traits@D@std@@V?$allocator@D@2@@1@XZ
_TEXT	SEGMENT
??D?$_Vector_const_iterator@V?$_Vector_val@V?$basic_string@DU?$char_traits@D@std@@V?$allocator@D@2@@std@@V?$allocator@V?$basic_string@DU?$char_traits@D@std@@V?$allocator@D@2@@std@@@2@@std@@@std@@QBEABV?$basic_string@DU?$char_traits@D@std@@V?$allocator@D@2@@1@XZ PROC ; std::_Vector_const_iterator<std::_Vector_val<std::basic_string<char,std::char_traits<char>,std::allocator<char> >,std::allocator<std::basic_string<char,std::char_traits<char>,std::allocator<char> > > > >::operator*, COMDAT
; _this$ = ecx
; Line 84
	mov	eax, DWORD PTR [ecx]
; Line 85
	ret	0
??D?$_Vector_const_iterator@V?$_Vector_val@V?$basic_string@DU?$char_traits@D@std@@V?$allocator@D@2@@std@@V?$allocator@V?$basic_string@DU?$char_traits@D@std@@V?$allocator@D@2@@std@@@2@@std@@@std@@QBEABV?$basic_string@DU?$char_traits@D@std@@V?$allocator@D@2@@1@XZ ENDP ; std::_Vector_const_iterator<std::_Vector_val<std::basic_string<char,std::char_traits<char>,std::allocator<char> >,std::allocator<std::basic_string<char,std::char_traits<char>,std::allocator<char> > > > >::operator*
_TEXT	ENDS
PUBLIC	??E?$_Vector_const_iterator@V?$_Vector_val@V?$basic_string@DU?$char_traits@D@std@@V?$allocator@D@2@@std@@V?$allocator@V?$basic_string@DU?$char_traits@D@std@@V?$allocator@D@2@@std@@@2@@std@@@std@@QAEAAV01@XZ ; std::_Vector_const_iterator<std::_Vector_val<std::basic_string<char,std::char_traits<char>,std::allocator<char> >,std::allocator<std::basic_string<char,std::char_traits<char>,std::allocator<char> > > > >::operator++
; Function compile flags: /Ogtp
;	COMDAT ??E?$_Vector_const_iterator@V?$_Vector_val@V?$basic_string@DU?$char_traits@D@std@@V?$allocator@D@2@@std@@V?$allocator@V?$basic_string@DU?$char_traits@D@std@@V?$allocator@D@2@@std@@@2@@std@@@std@@QAEAAV01@XZ
_TEXT	SEGMENT
??E?$_Vector_const_iterator@V?$_Vector_val@V?$basic_string@DU?$char_traits@D@std@@V?$allocator@D@2@@std@@V?$allocator@V?$basic_string@DU?$char_traits@D@std@@V?$allocator@D@2@@std@@@2@@std@@@std@@QAEAAV01@XZ PROC ; std::_Vector_const_iterator<std::_Vector_val<std::basic_string<char,std::char_traits<char>,std::allocator<char> >,std::allocator<std::basic_string<char,std::char_traits<char>,std::allocator<char> > > > >::operator++, COMDAT
; _this$ = ecx
; Line 93
	mov	eax, ecx
; Line 110
	add	DWORD PTR [eax], 28			; 0000001cH
; Line 112
	ret	0
??E?$_Vector_const_iterator@V?$_Vector_val@V?$basic_string@DU?$char_traits@D@std@@V?$allocator@D@2@@std@@V?$allocator@V?$basic_string@DU?$char_traits@D@std@@V?$allocator@D@2@@std@@@2@@std@@@std@@QAEAAV01@XZ ENDP ; std::_Vector_const_iterator<std::_Vector_val<std::basic_string<char,std::char_traits<char>,std::allocator<char> >,std::allocator<std::basic_string<char,std::char_traits<char>,std::allocator<char> > > > >::operator++
_TEXT	ENDS
PUBLIC	?_Compat@?$_Vector_const_iterator@V?$_Vector_val@V?$basic_string@DU?$char_traits@D@std@@V?$allocator@D@2@@std@@V?$allocator@V?$basic_string@DU?$char_traits@D@std@@V?$allocator@D@2@@std@@@2@@std@@@std@@QBEXABV12@@Z ; std::_Vector_const_iterator<std::_Vector_val<std::basic_string<char,std::char_traits<char>,std::allocator<char> >,std::allocator<std::basic_string<char,std::char_traits<char>,std::allocator<char> > > > >::_Compat
; Function compile flags: /Ogtp
;	COMDAT ?_Compat@?$_Vector_const_iterator@V?$_Vector_val@V?$basic_string@DU?$char_traits@D@std@@V?$allocator@D@2@@std@@V?$allocator@V?$basic_string@DU?$char_traits@D@std@@V?$allocator@D@2@@std@@@2@@std@@@std@@QBEXABV12@@Z
_TEXT	SEGMENT
___formal$ = 8						; size = 4
?_Compat@?$_Vector_const_iterator@V?$_Vector_val@V?$basic_string@DU?$char_traits@D@std@@V?$allocator@D@2@@std@@V?$allocator@V?$basic_string@DU?$char_traits@D@std@@V?$allocator@D@2@@std@@@2@@std@@@std@@QBEXABV12@@Z PROC ; std::_Vector_const_iterator<std::_Vector_val<std::basic_string<char,std::char_traits<char>,std::allocator<char> >,std::allocator<std::basic_string<char,std::char_traits<char>,std::allocator<char> > > > >::_Compat, COMDAT
; _this$ = ecx
; Line 253
	ret	4
?_Compat@?$_Vector_const_iterator@V?$_Vector_val@V?$basic_string@DU?$char_traits@D@std@@V?$allocator@D@2@@std@@V?$allocator@V?$basic_string@DU?$char_traits@D@std@@V?$allocator@D@2@@std@@@2@@std@@@std@@QBEXABV12@@Z ENDP ; std::_Vector_const_iterator<std::_Vector_val<std::basic_string<char,std::char_traits<char>,std::allocator<char> >,std::allocator<std::basic_string<char,std::char_traits<char>,std::allocator<char> > > > >::_Compat
_TEXT	ENDS
PUBLIC	?_Inside@?$basic_string@DU?$char_traits@D@std@@V?$allocator@D@2@@std@@QAE_NPBD@Z ; std::basic_string<char,std::char_traits<char>,std::allocator<char> >::_Inside
; Function compile flags: /Ogtp
;	COMDAT ?_Inside@?$basic_string@DU?$char_traits@D@std@@V?$allocator@D@2@@std@@QAE_NPBD@Z
_TEXT	SEGMENT
__Ptr$ = 8						; size = 4
?_Inside@?$basic_string@DU?$char_traits@D@std@@V?$allocator@D@2@@std@@QAE_NPBD@Z PROC ; std::basic_string<char,std::char_traits<char>,std::allocator<char> >::_Inside, COMDAT
; _this$ = ecx
; File c:\program files (x86)\microsoft visual studio 10.0\vc\include\xstring
; Line 1972
	push	ebp
	mov	ebp, esp
	push	esi
; Line 1973
	mov	esi, DWORD PTR __Ptr$[ebp]
	test	esi, esi
	je	SHORT $LN2@Inside@2
	mov	edx, DWORD PTR [ecx+20]
	cmp	edx, 16					; 00000010H
	jb	SHORT $LN8@Inside@2
	mov	eax, DWORD PTR [ecx]
	jmp	SHORT $LN9@Inside@2
$LN8@Inside@2:
	mov	eax, ecx
$LN9@Inside@2:
	cmp	esi, eax
	jb	SHORT $LN2@Inside@2
	cmp	edx, 16					; 00000010H
	jb	SHORT $LN12@Inside@2
	mov	eax, DWORD PTR [ecx]
	jmp	SHORT $LN13@Inside@2
$LN12@Inside@2:
	mov	eax, ecx
$LN13@Inside@2:
	mov	ecx, DWORD PTR [ecx+16]
	add	ecx, eax
	cmp	ecx, esi
	jbe	SHORT $LN2@Inside@2
; Line 1976
	mov	al, 1
	pop	esi
; Line 1977
	pop	ebp
	ret	4
$LN2@Inside@2:
; Line 1974
	xor	al, al
	pop	esi
; Line 1977
	pop	ebp
	ret	4
?_Inside@?$basic_string@DU?$char_traits@D@std@@V?$allocator@D@2@@std@@QAE_NPBD@Z ENDP ; std::basic_string<char,std::char_traits<char>,std::allocator<char> >::_Inside
_TEXT	ENDS
PUBLIC	??_C@_0BA@JFNIOLAK@string?5too?5long?$AA@	; `string'
PUBLIC	?_Xlen@?$basic_string@DU?$char_traits@D@std@@V?$allocator@D@2@@std@@QBEXXZ ; std::basic_string<char,std::char_traits<char>,std::allocator<char> >::_Xlen
;	COMDAT ??_C@_0BA@JFNIOLAK@string?5too?5long?$AA@
CONST	SEGMENT
??_C@_0BA@JFNIOLAK@string?5too?5long?$AA@ DB 'string too long', 00H ; `string'
; Function compile flags: /Ogtp
CONST	ENDS
;	COMDAT ?_Xlen@?$basic_string@DU?$char_traits@D@std@@V?$allocator@D@2@@std@@QBEXXZ
_TEXT	SEGMENT
?_Xlen@?$basic_string@DU?$char_traits@D@std@@V?$allocator@D@2@@std@@QBEXXZ PROC ; std::basic_string<char,std::char_traits<char>,std::allocator<char> >::_Xlen, COMDAT
; _this$ = ecx
; Line 2015
	push	OFFSET ??_C@_0BA@JFNIOLAK@string?5too?5long?$AA@
	call	DWORD PTR __imp_?_Xlength_error@std@@YAXPBD@Z
$LN4@Xlen@2:
$LN3@Xlen@2:
	int	3
?_Xlen@?$basic_string@DU?$char_traits@D@std@@V?$allocator@D@2@@std@@QBEXXZ ENDP ; std::basic_string<char,std::char_traits<char>,std::allocator<char> >::_Xlen
_TEXT	ENDS
PUBLIC	?max_size@?$allocator@V?$basic_string@DU?$char_traits@D@std@@V?$allocator@D@2@@std@@@std@@QBEIXZ ; std::allocator<std::basic_string<char,std::char_traits<char>,std::allocator<char> > >::max_size
; Function compile flags: /Ogtp
;	COMDAT ?max_size@?$allocator@V?$basic_string@DU?$char_traits@D@std@@V?$allocator@D@2@@std@@@std@@QBEIXZ
_TEXT	SEGMENT
?max_size@?$allocator@V?$basic_string@DU?$char_traits@D@std@@V?$allocator@D@2@@std@@@std@@QBEIXZ PROC ; std::allocator<std::basic_string<char,std::char_traits<char>,std::allocator<char> > >::max_size, COMDAT
; _this$ = ecx
; File c:\program files (x86)\microsoft visual studio 10.0\vc\include\xmemory
; Line 219
	mov	eax, 153391689				; 09249249H
; Line 220
	ret	0
?max_size@?$allocator@V?$basic_string@DU?$char_traits@D@std@@V?$allocator@D@2@@std@@@std@@QBEIXZ ENDP ; std::allocator<std::basic_string<char,std::char_traits<char>,std::allocator<char> > >::max_size
_TEXT	ENDS
PUBLIC	??0?$_Tree_unchecked_const_iterator@V?$_Tree_val@V?$_Tmap_traits@IPAVManagedItem@@U?$less@I@std@@V?$allocator@U?$pair@$$CBIPAVManagedItem@@@std@@@3@$0A@@std@@@std@@U_Iterator_base0@2@@std@@QAE@PAU_Node@?$_Tree_nod@V?$_Tmap_traits@IPAVManagedItem@@U?$less@I@std@@V?$allocator@U?$pair@$$CBIPAVManagedItem@@@std@@@3@$0A@@std@@@1@PBV?$_Tree_val@V?$_Tmap_traits@IPAVManagedItem@@U?$less@I@std@@V?$allocator@U?$pair@$$CBIPAVManagedItem@@@std@@@3@$0A@@std@@@1@@Z ; std::_Tree_unchecked_const_iterator<std::_Tree_val<std::_Tmap_traits<unsigned int,ManagedItem *,std::less<unsigned int>,std::allocator<std::pair<unsigned int const ,ManagedItem *> >,0> >,std::_Iterator_base0>::_Tree_unchecked_const_iterator<std::_Tree_val<std::_Tmap_traits<unsigned int,ManagedItem *,std::less<unsigned int>,std::allocator<std::pair<unsigned int const ,ManagedItem *> >,0> >,std::_Iterator_base0>
; Function compile flags: /Ogtp
;	COMDAT ??0?$_Tree_unchecked_const_iterator@V?$_Tree_val@V?$_Tmap_traits@IPAVManagedItem@@U?$less@I@std@@V?$allocator@U?$pair@$$CBIPAVManagedItem@@@std@@@3@$0A@@std@@@std@@U_Iterator_base0@2@@std@@QAE@PAU_Node@?$_Tree_nod@V?$_Tmap_traits@IPAVManagedItem@@U?$less@I@std@@V?$allocator@U?$pair@$$CBIPAVManagedItem@@@std@@@3@$0A@@std@@@1@PBV?$_Tree_val@V?$_Tmap_traits@IPAVManagedItem@@U?$less@I@std@@V?$allocator@U?$pair@$$CBIPAVManagedItem@@@std@@@3@$0A@@std@@@1@@Z
_TEXT	SEGMENT
__Pnode$ = 8						; size = 4
__Plist$ = 12						; size = 4
??0?$_Tree_unchecked_const_iterator@V?$_Tree_val@V?$_Tmap_traits@IPAVManagedItem@@U?$less@I@std@@V?$allocator@U?$pair@$$CBIPAVManagedItem@@@std@@@3@$0A@@std@@@std@@U_Iterator_base0@2@@std@@QAE@PAU_Node@?$_Tree_nod@V?$_Tmap_traits@IPAVManagedItem@@U?$less@I@std@@V?$allocator@U?$pair@$$CBIPAVManagedItem@@@std@@@3@$0A@@std@@@1@PBV?$_Tree_val@V?$_Tmap_traits@IPAVManagedItem@@U?$less@I@std@@V?$allocator@U?$pair@$$CBIPAVManagedItem@@@std@@@3@$0A@@std@@@1@@Z PROC ; std::_Tree_unchecked_const_iterator<std::_Tree_val<std::_Tmap_traits<unsigned int,ManagedItem *,std::less<unsigned int>,std::allocator<std::pair<unsigned int const ,ManagedItem *> >,0> >,std::_Iterator_base0>::_Tree_unchecked_const_iterator<std::_Tree_val<std::_Tmap_traits<unsigned int,ManagedItem *,std::less<unsigned int>,std::allocator<std::pair<unsigned int const ,ManagedItem *> >,0> >,std::_Iterator_base0>, COMDAT
; _this$ = ecx
; File c:\program files (x86)\microsoft visual studio 10.0\vc\include\xtree
; Line 43
	push	ebp
	mov	ebp, esp
	mov	eax, ecx
	mov	ecx, DWORD PTR __Pnode$[ebp]
	mov	DWORD PTR [eax], ecx
; Line 45
	pop	ebp
	ret	8
??0?$_Tree_unchecked_const_iterator@V?$_Tree_val@V?$_Tmap_traits@IPAVManagedItem@@U?$less@I@std@@V?$allocator@U?$pair@$$CBIPAVManagedItem@@@std@@@3@$0A@@std@@@std@@U_Iterator_base0@2@@std@@QAE@PAU_Node@?$_Tree_nod@V?$_Tmap_traits@IPAVManagedItem@@U?$less@I@std@@V?$allocator@U?$pair@$$CBIPAVManagedItem@@@std@@@3@$0A@@std@@@1@PBV?$_Tree_val@V?$_Tmap_traits@IPAVManagedItem@@U?$less@I@std@@V?$allocator@U?$pair@$$CBIPAVManagedItem@@@std@@@3@$0A@@std@@@1@@Z ENDP ; std::_Tree_unchecked_const_iterator<std::_Tree_val<std::_Tmap_traits<unsigned int,ManagedItem *,std::less<unsigned int>,std::allocator<std::pair<unsigned int const ,ManagedItem *> >,0> >,std::_Iterator_base0>::_Tree_unchecked_const_iterator<std::_Tree_val<std::_Tmap_traits<unsigned int,ManagedItem *,std::less<unsigned int>,std::allocator<std::pair<unsigned int const ,ManagedItem *> >,0> >,std::_Iterator_base0>
_TEXT	ENDS
PUBLIC	??E?$_Tree_unchecked_const_iterator@V?$_Tree_val@V?$_Tmap_traits@IPAVManagedItem@@U?$less@I@std@@V?$allocator@U?$pair@$$CBIPAVManagedItem@@@std@@@3@$0A@@std@@@std@@U_Iterator_base0@2@@std@@QAEAAV01@XZ ; std::_Tree_unchecked_const_iterator<std::_Tree_val<std::_Tmap_traits<unsigned int,ManagedItem *,std::less<unsigned int>,std::allocator<std::pair<unsigned int const ,ManagedItem *> >,0> >,std::_Iterator_base0>::operator++
; Function compile flags: /Ogtp
;	COMDAT ??E?$_Tree_unchecked_const_iterator@V?$_Tree_val@V?$_Tmap_traits@IPAVManagedItem@@U?$less@I@std@@V?$allocator@U?$pair@$$CBIPAVManagedItem@@@std@@@3@$0A@@std@@@std@@U_Iterator_base0@2@@std@@QAEAAV01@XZ
_TEXT	SEGMENT
??E?$_Tree_unchecked_const_iterator@V?$_Tree_val@V?$_Tmap_traits@IPAVManagedItem@@U?$less@I@std@@V?$allocator@U?$pair@$$CBIPAVManagedItem@@@std@@@3@$0A@@std@@@std@@U_Iterator_base0@2@@std@@QAEAAV01@XZ PROC ; std::_Tree_unchecked_const_iterator<std::_Tree_val<std::_Tmap_traits<unsigned int,ManagedItem *,std::less<unsigned int>,std::allocator<std::pair<unsigned int const ,ManagedItem *> >,0> >,std::_Iterator_base0>::operator++, COMDAT
; _this$ = ecx
; Line 58
	mov	eax, ecx
; Line 59
	mov	edx, DWORD PTR [eax]
	cmp	BYTE PTR [edx+21], 0
	jne	SHORT $LN3@operator
; Line 61
	mov	ecx, DWORD PTR [edx+8]
	cmp	BYTE PTR [ecx+21], 0
	jne	SHORT $LN34@operator
; Line 63
	mov	edx, DWORD PTR [ecx]
	cmp	BYTE PTR [edx+21], 0
	jne	SHORT $LN17@operator
	npad	5
$LL18@operator:
	mov	ecx, edx
	mov	edx, DWORD PTR [ecx]
	cmp	BYTE PTR [edx+21], 0
	je	SHORT $LL18@operator
$LN17@operator:
	mov	DWORD PTR [eax], ecx
; Line 73
	ret	0
$LN34@operator:
; Line 68
	mov	edx, DWORD PTR [edx+4]
	cmp	BYTE PTR [edx+21], 0
	jne	SHORT $LN1@operator
$LL2@operator:
	mov	ecx, DWORD PTR [eax]
	cmp	ecx, DWORD PTR [edx+8]
	jne	SHORT $LN1@operator
; Line 69
	mov	DWORD PTR [eax], edx
	mov	edx, DWORD PTR [edx+4]
	cmp	BYTE PTR [edx+21], 0
	je	SHORT $LL2@operator
$LN1@operator:
; Line 70
	mov	DWORD PTR [eax], edx
$LN3@operator:
; Line 73
	ret	0
??E?$_Tree_unchecked_const_iterator@V?$_Tree_val@V?$_Tmap_traits@IPAVManagedItem@@U?$less@I@std@@V?$allocator@U?$pair@$$CBIPAVManagedItem@@@std@@@3@$0A@@std@@@std@@U_Iterator_base0@2@@std@@QAEAAV01@XZ ENDP ; std::_Tree_unchecked_const_iterator<std::_Tree_val<std::_Tmap_traits<unsigned int,ManagedItem *,std::less<unsigned int>,std::allocator<std::pair<unsigned int const ,ManagedItem *> >,0> >,std::_Iterator_base0>::operator++
_TEXT	ENDS
PUBLIC	??F?$_Tree_unchecked_const_iterator@V?$_Tree_val@V?$_Tmap_traits@IPAVManagedItem@@U?$less@I@std@@V?$allocator@U?$pair@$$CBIPAVManagedItem@@@std@@@3@$0A@@std@@@std@@U_Iterator_base0@2@@std@@QAEAAV01@XZ ; std::_Tree_unchecked_const_iterator<std::_Tree_val<std::_Tmap_traits<unsigned int,ManagedItem *,std::less<unsigned int>,std::allocator<std::pair<unsigned int const ,ManagedItem *> >,0> >,std::_Iterator_base0>::operator--
; Function compile flags: /Ogtp
;	COMDAT ??F?$_Tree_unchecked_const_iterator@V?$_Tree_val@V?$_Tmap_traits@IPAVManagedItem@@U?$less@I@std@@V?$allocator@U?$pair@$$CBIPAVManagedItem@@@std@@@3@$0A@@std@@@std@@U_Iterator_base0@2@@std@@QAEAAV01@XZ
_TEXT	SEGMENT
??F?$_Tree_unchecked_const_iterator@V?$_Tree_val@V?$_Tmap_traits@IPAVManagedItem@@U?$less@I@std@@V?$allocator@U?$pair@$$CBIPAVManagedItem@@@std@@@3@$0A@@std@@@std@@U_Iterator_base0@2@@std@@QAEAAV01@XZ PROC ; std::_Tree_unchecked_const_iterator<std::_Tree_val<std::_Tmap_traits<unsigned int,ManagedItem *,std::less<unsigned int>,std::allocator<std::pair<unsigned int const ,ManagedItem *> >,0> >,std::_Iterator_base0>::operator--, COMDAT
; _this$ = ecx
; Line 83
	mov	eax, ecx
; Line 84
	mov	ecx, DWORD PTR [eax]
	cmp	BYTE PTR [ecx+21], 0
	je	SHORT $LN8@operator@2
; Line 85
	mov	ecx, DWORD PTR [ecx+8]
	mov	DWORD PTR [eax], ecx
; Line 101
	ret	0
$LN8@operator@2:
; Line 86
	mov	edx, DWORD PTR [ecx]
	cmp	BYTE PTR [edx+21], 0
	jne	SHORT $LN40@operator@2
; Line 88
	mov	ecx, DWORD PTR [edx+8]
	cmp	BYTE PTR [ecx+21], 0
	jne	SHORT $LN21@operator@2
$LL22@operator@2:
	mov	edx, ecx
	mov	ecx, DWORD PTR [edx+8]
	cmp	BYTE PTR [ecx+21], 0
	je	SHORT $LL22@operator@2
; Line 98
	mov	DWORD PTR [eax], edx
; Line 101
	ret	0
$LN40@operator@2:
; Line 93
	mov	edx, DWORD PTR [ecx+4]
	cmp	BYTE PTR [edx+21], 0
	jne	SHORT $LN3@operator@2
$LL4@operator@2:
	mov	ecx, DWORD PTR [eax]
	cmp	ecx, DWORD PTR [edx]
	jne	SHORT $LN3@operator@2
; Line 94
	mov	DWORD PTR [eax], edx
	mov	edx, DWORD PTR [edx+4]
	cmp	BYTE PTR [edx+21], 0
	je	SHORT $LL4@operator@2
$LN3@operator@2:
; Line 95
	mov	ecx, DWORD PTR [eax]
	cmp	BYTE PTR [ecx+21], 0
	jne	SHORT $LN1@operator@2
; Line 88
$LN21@operator@2:
; Line 98
	mov	DWORD PTR [eax], edx
$LN1@operator@2:
; Line 101
	ret	0
??F?$_Tree_unchecked_const_iterator@V?$_Tree_val@V?$_Tmap_traits@IPAVManagedItem@@U?$less@I@std@@V?$allocator@U?$pair@$$CBIPAVManagedItem@@@std@@@3@$0A@@std@@@std@@U_Iterator_base0@2@@std@@QAEAAV01@XZ ENDP ; std::_Tree_unchecked_const_iterator<std::_Tree_val<std::_Tmap_traits<unsigned int,ManagedItem *,std::less<unsigned int>,std::allocator<std::pair<unsigned int const ,ManagedItem *> >,0> >,std::_Iterator_base0>::operator--
_TEXT	ENDS
PUBLIC	?max_size@?$allocator@D@std@@QBEIXZ		; std::allocator<char>::max_size
; Function compile flags: /Ogtp
;	COMDAT ?max_size@?$allocator@D@std@@QBEIXZ
_TEXT	SEGMENT
?max_size@?$allocator@D@std@@QBEIXZ PROC		; std::allocator<char>::max_size, COMDAT
; _this$ = ecx
; File c:\program files (x86)\microsoft visual studio 10.0\vc\include\xmemory
; Line 219
	or	eax, -1
; Line 220
	ret	0
?max_size@?$allocator@D@std@@QBEIXZ ENDP		; std::allocator<char>::max_size
_TEXT	ENDS
PUBLIC	??$forward@V?$allocator@D@std@@@std@@YA$$QAV?$allocator@D@0@AAV10@@Z ; std::forward<std::allocator<char> >
; Function compile flags: /Ogtp
;	COMDAT ??$forward@V?$allocator@D@std@@@std@@YA$$QAV?$allocator@D@0@AAV10@@Z
_TEXT	SEGMENT
__Arg$ = 8						; size = 4
??$forward@V?$allocator@D@std@@@std@@YA$$QAV?$allocator@D@0@AAV10@@Z PROC ; std::forward<std::allocator<char> >, COMDAT
; File c:\program files (x86)\microsoft visual studio 10.0\vc\include\utility
; Line 78
	push	ebp
	mov	ebp, esp
; Line 79
	mov	eax, DWORD PTR __Arg$[ebp]
; Line 80
	pop	ebp
	ret	0
??$forward@V?$allocator@D@std@@@std@@YA$$QAV?$allocator@D@0@AAV10@@Z ENDP ; std::forward<std::allocator<char> >
_TEXT	ENDS
PUBLIC	??$forward@V?$basic_string@DU?$char_traits@D@std@@V?$allocator@D@2@@std@@@std@@YA$$QAV?$basic_string@DU?$char_traits@D@std@@V?$allocator@D@2@@0@AAV10@@Z ; std::forward<std::basic_string<char,std::char_traits<char>,std::allocator<char> > >
; Function compile flags: /Ogtp
;	COMDAT ??$forward@V?$basic_string@DU?$char_traits@D@std@@V?$allocator@D@2@@std@@@std@@YA$$QAV?$basic_string@DU?$char_traits@D@std@@V?$allocator@D@2@@0@AAV10@@Z
_TEXT	SEGMENT
__Arg$ = 8						; size = 4
??$forward@V?$basic_string@DU?$char_traits@D@std@@V?$allocator@D@2@@std@@@std@@YA$$QAV?$basic_string@DU?$char_traits@D@std@@V?$allocator@D@2@@0@AAV10@@Z PROC ; std::forward<std::basic_string<char,std::char_traits<char>,std::allocator<char> > >, COMDAT
; Line 78
	push	ebp
	mov	ebp, esp
; Line 79
	mov	eax, DWORD PTR __Arg$[ebp]
; Line 80
	pop	ebp
	ret	0
??$forward@V?$basic_string@DU?$char_traits@D@std@@V?$allocator@D@2@@std@@@std@@YA$$QAV?$basic_string@DU?$char_traits@D@std@@V?$allocator@D@2@@0@AAV10@@Z ENDP ; std::forward<std::basic_string<char,std::char_traits<char>,std::allocator<char> > >
_TEXT	ENDS
PUBLIC	??$addressof@$$CBV?$basic_string@DU?$char_traits@D@std@@V?$allocator@D@2@@std@@@std@@YAPBV?$basic_string@DU?$char_traits@D@std@@V?$allocator@D@2@@0@ABV10@@Z ; std::addressof<std::basic_string<char,std::char_traits<char>,std::allocator<char> > const >
; Function compile flags: /Ogtp
;	COMDAT ??$addressof@$$CBV?$basic_string@DU?$char_traits@D@std@@V?$allocator@D@2@@std@@@std@@YAPBV?$basic_string@DU?$char_traits@D@std@@V?$allocator@D@2@@0@ABV10@@Z
_TEXT	SEGMENT
__Val$ = 8						; size = 4
??$addressof@$$CBV?$basic_string@DU?$char_traits@D@std@@V?$allocator@D@2@@std@@@std@@YAPBV?$basic_string@DU?$char_traits@D@std@@V?$allocator@D@2@@0@ABV10@@Z PROC ; std::addressof<std::basic_string<char,std::char_traits<char>,std::allocator<char> > const >, COMDAT
; File c:\program files (x86)\microsoft visual studio 10.0\vc\include\xmemory
; Line 110
	push	ebp
	mov	ebp, esp
; Line 111
	mov	eax, DWORD PTR __Val$[ebp]
; Line 112
	pop	ebp
	ret	0
??$addressof@$$CBV?$basic_string@DU?$char_traits@D@std@@V?$allocator@D@2@@std@@@std@@YAPBV?$basic_string@DU?$char_traits@D@std@@V?$allocator@D@2@@0@ABV10@@Z ENDP ; std::addressof<std::basic_string<char,std::char_traits<char>,std::allocator<char> > const >
_TEXT	ENDS
PUBLIC	__TI2?AVbad_alloc@std@@
PUBLIC	??$_Allocate@V?$basic_string@DU?$char_traits@D@std@@V?$allocator@D@2@@std@@@std@@YAPAV?$basic_string@DU?$char_traits@D@std@@V?$allocator@D@2@@0@IPAV10@@Z ; std::_Allocate<std::basic_string<char,std::char_traits<char>,std::allocator<char> > >
PUBLIC	__CTA2?AVbad_alloc@std@@
PUBLIC	__CT??_R0?AVbad_alloc@std@@@8??0bad_alloc@std@@QAE@ABV01@@Z12
PUBLIC	??0bad_alloc@std@@QAE@ABV01@@Z			; std::bad_alloc::bad_alloc
PUBLIC	__CT??_R0?AVexception@std@@@8??0exception@std@@QAE@ABV01@@Z12
EXTRN	??2@YAPAXI@Z:PROC				; operator new
EXTRN	__CxxThrowException@8:PROC
EXTRN	??0exception@std@@QAE@ABV01@@Z:PROC		; std::exception::exception
;	COMDAT __CT??_R0?AVexception@std@@@8??0exception@std@@QAE@ABV01@@Z12
; File c:\program files (x86)\microsoft visual studio 10.0\vc\include\exception
xdata$x	SEGMENT
__CT??_R0?AVexception@std@@@8??0exception@std@@QAE@ABV01@@Z12 DD 00H
	DD	FLAT:??_R0?AVexception@std@@@8
	DD	00H
	DD	0ffffffffH
	ORG $+4
	DD	0cH
	DD	FLAT:??0exception@std@@QAE@ABV01@@Z
xdata$x	ENDS
;	COMDAT __CT??_R0?AVbad_alloc@std@@@8??0bad_alloc@std@@QAE@ABV01@@Z12
xdata$x	SEGMENT
__CT??_R0?AVbad_alloc@std@@@8??0bad_alloc@std@@QAE@ABV01@@Z12 DD 00H
	DD	FLAT:??_R0?AVbad_alloc@std@@@8
	DD	00H
	DD	0ffffffffH
	ORG $+4
	DD	0cH
	DD	FLAT:??0bad_alloc@std@@QAE@ABV01@@Z
xdata$x	ENDS
;	COMDAT __CTA2?AVbad_alloc@std@@
xdata$x	SEGMENT
__CTA2?AVbad_alloc@std@@ DD 02H
	DD	FLAT:__CT??_R0?AVbad_alloc@std@@@8??0bad_alloc@std@@QAE@ABV01@@Z12
	DD	FLAT:__CT??_R0?AVexception@std@@@8??0exception@std@@QAE@ABV01@@Z12
xdata$x	ENDS
;	COMDAT __TI2?AVbad_alloc@std@@
xdata$x	SEGMENT
__TI2?AVbad_alloc@std@@ DD 00H
	DD	FLAT:??1bad_alloc@std@@UAE@XZ
	DD	00H
	DD	FLAT:__CTA2?AVbad_alloc@std@@
; Function compile flags: /Ogtp
xdata$x	ENDS
;	COMDAT ??$_Allocate@V?$basic_string@DU?$char_traits@D@std@@V?$allocator@D@2@@std@@@std@@YAPAV?$basic_string@DU?$char_traits@D@std@@V?$allocator@D@2@@0@IPAV10@@Z
_TEXT	SEGMENT
$T129501 = -12						; size = 12
$T129506 = 8						; size = 4
__Count$ = 8						; size = 4
___formal$ = 12						; size = 4
??$_Allocate@V?$basic_string@DU?$char_traits@D@std@@V?$allocator@D@2@@std@@@std@@YAPAV?$basic_string@DU?$char_traits@D@std@@V?$allocator@D@2@@0@IPAV10@@Z PROC ; std::_Allocate<std::basic_string<char,std::char_traits<char>,std::allocator<char> > >, COMDAT
; File c:\program files (x86)\microsoft visual studio 10.0\vc\include\xmemory
; Line 30
	push	ebp
	mov	ebp, esp
; Line 33
	mov	ecx, DWORD PTR __Count$[ebp]
	sub	esp, 12					; 0000000cH
	xor	eax, eax
	test	ecx, ecx
; Line 35
	je	SHORT $LN5@Allocate
; Line 36
	cmp	ecx, 153391689				; 09249249H
	ja	SHORT $LN1@Allocate
	lea	eax, DWORD PTR [ecx*8]
	sub	eax, ecx
	add	eax, eax
	add	eax, eax
	push	eax
	call	??2@YAPAXI@Z				; operator new
	add	esp, 4
	test	eax, eax
; Line 39
	jne	SHORT $LN5@Allocate
$LN1@Allocate:
; Line 37
	lea	ecx, DWORD PTR $T129506[ebp]
	push	ecx
	lea	ecx, DWORD PTR $T129501[ebp]
	mov	DWORD PTR $T129506[ebp], 0
	call	DWORD PTR __imp_??0exception@std@@QAE@ABQBD@Z
	push	OFFSET __TI2?AVbad_alloc@std@@
	lea	edx, DWORD PTR $T129501[ebp]
	push	edx
	mov	DWORD PTR $T129501[ebp], OFFSET ??_7bad_alloc@std@@6B@
	call	__CxxThrowException@8
$LN10@Allocate:
$LN5@Allocate:
; Line 40
	mov	esp, ebp
	pop	ebp
	ret	0
$LN9@Allocate:
??$_Allocate@V?$basic_string@DU?$char_traits@D@std@@V?$allocator@D@2@@std@@@std@@YAPAV?$basic_string@DU?$char_traits@D@std@@V?$allocator@D@2@@0@IPAV10@@Z ENDP ; std::_Allocate<std::basic_string<char,std::char_traits<char>,std::allocator<char> > >
_TEXT	ENDS
PUBLIC	??$_Allocate@D@std@@YAPADIPAD@Z			; std::_Allocate<char>
; Function compile flags: /Ogtp
;	COMDAT ??$_Allocate@D@std@@YAPADIPAD@Z
_TEXT	SEGMENT
$T129511 = -12						; size = 12
$T129515 = 8						; size = 4
__Count$ = 8						; size = 4
___formal$ = 12						; size = 4
??$_Allocate@D@std@@YAPADIPAD@Z PROC			; std::_Allocate<char>, COMDAT
; Line 30
	push	ebp
	mov	ebp, esp
; Line 33
	mov	ecx, DWORD PTR __Count$[ebp]
	sub	esp, 12					; 0000000cH
	xor	eax, eax
	test	ecx, ecx
; Line 35
	je	SHORT $LN5@Allocate@2
; Line 36
	cmp	ecx, -1
	ja	SHORT $LN1@Allocate@2
	push	ecx
	call	??2@YAPAXI@Z				; operator new
	add	esp, 4
	test	eax, eax
; Line 39
	jne	SHORT $LN5@Allocate@2
$LN1@Allocate@2:
; Line 37
	lea	eax, DWORD PTR $T129515[ebp]
	push	eax
	lea	ecx, DWORD PTR $T129511[ebp]
	mov	DWORD PTR $T129515[ebp], 0
	call	DWORD PTR __imp_??0exception@std@@QAE@ABQBD@Z
	push	OFFSET __TI2?AVbad_alloc@std@@
	lea	ecx, DWORD PTR $T129511[ebp]
	push	ecx
	mov	DWORD PTR $T129511[ebp], OFFSET ??_7bad_alloc@std@@6B@
	call	__CxxThrowException@8
$LN10@Allocate@2:
$LN5@Allocate@2:
; Line 40
	mov	esp, ebp
	pop	ebp
	ret	0
$LN9@Allocate@2:
??$_Allocate@D@std@@YAPADIPAD@Z ENDP			; std::_Allocate<char>
_TEXT	ENDS
EXTRN	__imp_??0exception@std@@QAE@ABV01@@Z:PROC
; Function compile flags: /Ogtp
;	COMDAT ??0bad_alloc@std@@QAE@ABV01@@Z
_TEXT	SEGMENT
___that$ = 8						; size = 4
??0bad_alloc@std@@QAE@ABV01@@Z PROC			; std::bad_alloc::bad_alloc, COMDAT
; _this$ = ecx
	push	ebp
	mov	ebp, esp
	mov	eax, DWORD PTR ___that$[ebp]
	push	esi
	push	eax
	mov	esi, ecx
	call	DWORD PTR __imp_??0exception@std@@QAE@ABV01@@Z
	mov	DWORD PTR [esi], OFFSET ??_7bad_alloc@std@@6B@
	mov	eax, esi
	pop	esi
	pop	ebp
	ret	4
??0bad_alloc@std@@QAE@ABV01@@Z ENDP			; std::bad_alloc::bad_alloc
_TEXT	ENDS
PUBLIC	??$forward@AAV?$basic_string@DU?$char_traits@D@std@@V?$allocator@D@2@@std@@@std@@YAAAV?$basic_string@DU?$char_traits@D@std@@V?$allocator@D@2@@0@AAV10@@Z ; std::forward<std::basic_string<char,std::char_traits<char>,std::allocator<char> > &>
; Function compile flags: /Ogtp
;	COMDAT ??$forward@AAV?$basic_string@DU?$char_traits@D@std@@V?$allocator@D@2@@std@@@std@@YAAAV?$basic_string@DU?$char_traits@D@std@@V?$allocator@D@2@@0@AAV10@@Z
_TEXT	SEGMENT
__Arg$ = 8						; size = 4
??$forward@AAV?$basic_string@DU?$char_traits@D@std@@V?$allocator@D@2@@std@@@std@@YAAAV?$basic_string@DU?$char_traits@D@std@@V?$allocator@D@2@@0@AAV10@@Z PROC ; std::forward<std::basic_string<char,std::char_traits<char>,std::allocator<char> > &>, COMDAT
; File c:\program files (x86)\microsoft visual studio 10.0\vc\include\utility
; Line 78
	push	ebp
	mov	ebp, esp
; Line 79
	mov	eax, DWORD PTR __Arg$[ebp]
; Line 80
	pop	ebp
	ret	0
??$forward@AAV?$basic_string@DU?$char_traits@D@std@@V?$allocator@D@2@@std@@@std@@YAAAV?$basic_string@DU?$char_traits@D@std@@V?$allocator@D@2@@0@AAV10@@Z ENDP ; std::forward<std::basic_string<char,std::char_traits<char>,std::allocator<char> > &>
_TEXT	ENDS
PUBLIC	??$forward@ABV?$basic_string@DU?$char_traits@D@std@@V?$allocator@D@2@@std@@@std@@YAABV?$basic_string@DU?$char_traits@D@std@@V?$allocator@D@2@@0@ABV10@@Z ; std::forward<std::basic_string<char,std::char_traits<char>,std::allocator<char> > const &>
; Function compile flags: /Ogtp
;	COMDAT ??$forward@ABV?$basic_string@DU?$char_traits@D@std@@V?$allocator@D@2@@std@@@std@@YAABV?$basic_string@DU?$char_traits@D@std@@V?$allocator@D@2@@0@ABV10@@Z
_TEXT	SEGMENT
__Arg$ = 8						; size = 4
??$forward@ABV?$basic_string@DU?$char_traits@D@std@@V?$allocator@D@2@@std@@@std@@YAABV?$basic_string@DU?$char_traits@D@std@@V?$allocator@D@2@@0@ABV10@@Z PROC ; std::forward<std::basic_string<char,std::char_traits<char>,std::allocator<char> > const &>, COMDAT
; Line 78
	push	ebp
	mov	ebp, esp
; Line 79
	mov	eax, DWORD PTR __Arg$[ebp]
; Line 80
	pop	ebp
	ret	0
??$forward@ABV?$basic_string@DU?$char_traits@D@std@@V?$allocator@D@2@@std@@@std@@YAABV?$basic_string@DU?$char_traits@D@std@@V?$allocator@D@2@@0@ABV10@@Z ENDP ; std::forward<std::basic_string<char,std::char_traits<char>,std::allocator<char> > const &>
_TEXT	ENDS
PUBLIC	??$?8DD@std@@YA_NABV?$allocator@D@0@0@Z		; std::operator==<char,char>
; Function compile flags: /Ogtp
;	COMDAT ??$?8DD@std@@YA_NABV?$allocator@D@0@0@Z
_TEXT	SEGMENT
___formal$ = 8						; size = 4
___formal$ = 12						; size = 4
??$?8DD@std@@YA_NABV?$allocator@D@0@0@Z PROC		; std::operator==<char,char>, COMDAT
; File c:\program files (x86)\microsoft visual studio 10.0\vc\include\xmemory
; Line 263
	mov	al, 1
; Line 264
	ret	0
??$?8DD@std@@YA_NABV?$allocator@D@0@0@Z ENDP		; std::operator==<char,char>
_TEXT	ENDS
PUBLIC	??$_Ptr_cat@V?$basic_string@DU?$char_traits@D@std@@V?$allocator@D@2@@std@@V12@@std@@YA?AU_Nonscalar_ptr_iterator_tag@0@PAV?$basic_string@DU?$char_traits@D@std@@V?$allocator@D@2@@0@0@Z ; std::_Ptr_cat<std::basic_string<char,std::char_traits<char>,std::allocator<char> >,std::basic_string<char,std::char_traits<char>,std::allocator<char> > >
; Function compile flags: /Ogtp
;	COMDAT ??$_Ptr_cat@V?$basic_string@DU?$char_traits@D@std@@V?$allocator@D@2@@std@@V12@@std@@YA?AU_Nonscalar_ptr_iterator_tag@0@PAV?$basic_string@DU?$char_traits@D@std@@V?$allocator@D@2@@0@0@Z
_TEXT	SEGMENT
__Cat$ = -1						; size = 1
___formal$ = 8						; size = 4
___formal$ = 12						; size = 4
??$_Ptr_cat@V?$basic_string@DU?$char_traits@D@std@@V?$allocator@D@2@@std@@V12@@std@@YA?AU_Nonscalar_ptr_iterator_tag@0@PAV?$basic_string@DU?$char_traits@D@std@@V?$allocator@D@2@@0@0@Z PROC ; std::_Ptr_cat<std::basic_string<char,std::char_traits<char>,std::allocator<char> >,std::basic_string<char,std::char_traits<char>,std::allocator<char> > >, COMDAT
; File c:\program files (x86)\microsoft visual studio 10.0\vc\include\xutility
; Line 528
	push	ebp
	mov	ebp, esp
	push	ecx
; Line 530
	mov	al, BYTE PTR __Cat$[ebp]
; Line 531
	mov	esp, ebp
	pop	ebp
	ret	0
??$_Ptr_cat@V?$basic_string@DU?$char_traits@D@std@@V?$allocator@D@2@@std@@V12@@std@@YA?AU_Nonscalar_ptr_iterator_tag@0@PAV?$basic_string@DU?$char_traits@D@std@@V?$allocator@D@2@@0@0@Z ENDP ; std::_Ptr_cat<std::basic_string<char,std::char_traits<char>,std::allocator<char> >,std::basic_string<char,std::char_traits<char>,std::allocator<char> > >
_TEXT	ENDS
PUBLIC	??$_Val_type@PAV?$basic_string@DU?$char_traits@D@std@@V?$allocator@D@2@@std@@@std@@YAPAV?$basic_string@DU?$char_traits@D@std@@V?$allocator@D@2@@0@PAV10@@Z ; std::_Val_type<std::basic_string<char,std::char_traits<char>,std::allocator<char> > *>
; Function compile flags: /Ogtp
;	COMDAT ??$_Val_type@PAV?$basic_string@DU?$char_traits@D@std@@V?$allocator@D@2@@std@@@std@@YAPAV?$basic_string@DU?$char_traits@D@std@@V?$allocator@D@2@@0@PAV10@@Z
_TEXT	SEGMENT
___formal$ = 8						; size = 4
??$_Val_type@PAV?$basic_string@DU?$char_traits@D@std@@V?$allocator@D@2@@std@@@std@@YAPAV?$basic_string@DU?$char_traits@D@std@@V?$allocator@D@2@@0@PAV10@@Z PROC ; std::_Val_type<std::basic_string<char,std::char_traits<char>,std::allocator<char> > *>, COMDAT
; Line 802
	xor	eax, eax
; Line 803
	ret	0
??$_Val_type@PAV?$basic_string@DU?$char_traits@D@std@@V?$allocator@D@2@@std@@@std@@YAPAV?$basic_string@DU?$char_traits@D@std@@V?$allocator@D@2@@0@PAV10@@Z ENDP ; std::_Val_type<std::basic_string<char,std::char_traits<char>,std::allocator<char> > *>
_TEXT	ENDS
PUBLIC	?c_str@?$basic_string@DU?$char_traits@D@std@@V?$allocator@D@2@@std@@QBEPBDXZ ; std::basic_string<char,std::char_traits<char>,std::allocator<char> >::c_str
; Function compile flags: /Ogtp
;	COMDAT ?c_str@?$basic_string@DU?$char_traits@D@std@@V?$allocator@D@2@@std@@QBEPBDXZ
_TEXT	SEGMENT
?c_str@?$basic_string@DU?$char_traits@D@std@@V?$allocator@D@2@@std@@QBEPBDXZ PROC ; std::basic_string<char,std::char_traits<char>,std::allocator<char> >::c_str, COMDAT
; _this$ = ecx
; File c:\program files (x86)\microsoft visual studio 10.0\vc\include\xstring
; Line 1495
	mov	eax, ecx
; Line 1496
	cmp	DWORD PTR [eax+20], 16			; 00000010H
	jb	SHORT $LN6@c_str
	mov	eax, DWORD PTR [eax]
$LN6@c_str:
; Line 1497
	ret	0
?c_str@?$basic_string@DU?$char_traits@D@std@@V?$allocator@D@2@@std@@QBEPBDXZ ENDP ; std::basic_string<char,std::char_traits<char>,std::allocator<char> >::c_str
_TEXT	ENDS
PUBLIC	??0?$_Vector_iterator@V?$_Vector_val@V?$basic_string@DU?$char_traits@D@std@@V?$allocator@D@2@@std@@V?$allocator@V?$basic_string@DU?$char_traits@D@std@@V?$allocator@D@2@@std@@@2@@std@@@std@@QAE@XZ ; std::_Vector_iterator<std::_Vector_val<std::basic_string<char,std::char_traits<char>,std::allocator<char> >,std::allocator<std::basic_string<char,std::char_traits<char>,std::allocator<char> > > > >::_Vector_iterator<std::_Vector_val<std::basic_string<char,std::char_traits<char>,std::allocator<char> >,std::allocator<std::basic_string<char,std::char_traits<char>,std::allocator<char> > > > >
; Function compile flags: /Ogtp
;	COMDAT ??0?$_Vector_iterator@V?$_Vector_val@V?$basic_string@DU?$char_traits@D@std@@V?$allocator@D@2@@std@@V?$allocator@V?$basic_string@DU?$char_traits@D@std@@V?$allocator@D@2@@std@@@2@@std@@@std@@QAE@XZ
_TEXT	SEGMENT
??0?$_Vector_iterator@V?$_Vector_val@V?$basic_string@DU?$char_traits@D@std@@V?$allocator@D@2@@std@@V?$allocator@V?$basic_string@DU?$char_traits@D@std@@V?$allocator@D@2@@std@@@2@@std@@@std@@QAE@XZ PROC ; std::_Vector_iterator<std::_Vector_val<std::basic_string<char,std::char_traits<char>,std::allocator<char> >,std::allocator<std::basic_string<char,std::char_traits<char>,std::allocator<char> > > > >::_Vector_iterator<std::_Vector_val<std::basic_string<char,std::char_traits<char>,std::allocator<char> >,std::allocator<std::basic_string<char,std::char_traits<char>,std::allocator<char> > > > >, COMDAT
; _this$ = ecx
; File c:\program files (x86)\microsoft visual studio 10.0\vc\include\vector
; Line 298
	mov	eax, ecx
	mov	DWORD PTR [eax], 0
; Line 300
	ret	0
??0?$_Vector_iterator@V?$_Vector_val@V?$basic_string@DU?$char_traits@D@std@@V?$allocator@D@2@@std@@V?$allocator@V?$basic_string@DU?$char_traits@D@std@@V?$allocator@D@2@@std@@@2@@std@@@std@@QAE@XZ ENDP ; std::_Vector_iterator<std::_Vector_val<std::basic_string<char,std::char_traits<char>,std::allocator<char> >,std::allocator<std::basic_string<char,std::char_traits<char>,std::allocator<char> > > > >::_Vector_iterator<std::_Vector_val<std::basic_string<char,std::char_traits<char>,std::allocator<char> >,std::allocator<std::basic_string<char,std::char_traits<char>,std::allocator<char> > > > >
_TEXT	ENDS
PUBLIC	??0?$_String_val@DV?$allocator@D@std@@@std@@QAE@V?$allocator@D@1@@Z ; std::_String_val<char,std::allocator<char> >::_String_val<char,std::allocator<char> >
; Function compile flags: /Ogtp
;	COMDAT ??0?$_String_val@DV?$allocator@D@std@@@std@@QAE@V?$allocator@D@1@@Z
_TEXT	SEGMENT
__Al$ = 8						; size = 1
??0?$_String_val@DV?$allocator@D@std@@@std@@QAE@V?$allocator@D@1@@Z PROC ; std::_String_val<char,std::allocator<char> >::_String_val<char,std::allocator<char> >, COMDAT
; _this$ = ecx
; File c:\program files (x86)\microsoft visual studio 10.0\vc\include\xstring
; Line 454
	mov	eax, ecx
; Line 455
	ret	4
??0?$_String_val@DV?$allocator@D@std@@@std@@QAE@V?$allocator@D@1@@Z ENDP ; std::_String_val<char,std::allocator<char> >::_String_val<char,std::allocator<char> >
_TEXT	ENDS
PUBLIC	?_Lmost@?$_Tree@V?$_Tmap_traits@IPAVManagedItem@@U?$less@I@std@@V?$allocator@U?$pair@$$CBIPAVManagedItem@@@std@@@3@$0A@@std@@@std@@IBEAAPAU_Node@?$_Tree_nod@V?$_Tmap_traits@IPAVManagedItem@@U?$less@I@std@@V?$allocator@U?$pair@$$CBIPAVManagedItem@@@std@@@3@$0A@@std@@@2@XZ ; std::_Tree<std::_Tmap_traits<unsigned int,ManagedItem *,std::less<unsigned int>,std::allocator<std::pair<unsigned int const ,ManagedItem *> >,0> >::_Lmost
; Function compile flags: /Ogtp
;	COMDAT ?_Lmost@?$_Tree@V?$_Tmap_traits@IPAVManagedItem@@U?$less@I@std@@V?$allocator@U?$pair@$$CBIPAVManagedItem@@@std@@@3@$0A@@std@@@std@@IBEAAPAU_Node@?$_Tree_nod@V?$_Tmap_traits@IPAVManagedItem@@U?$less@I@std@@V?$allocator@U?$pair@$$CBIPAVManagedItem@@@std@@@3@$0A@@std@@@2@XZ
_TEXT	SEGMENT
?_Lmost@?$_Tree@V?$_Tmap_traits@IPAVManagedItem@@U?$less@I@std@@V?$allocator@U?$pair@$$CBIPAVManagedItem@@@std@@@3@$0A@@std@@@std@@IBEAAPAU_Node@?$_Tree_nod@V?$_Tmap_traits@IPAVManagedItem@@U?$less@I@std@@V?$allocator@U?$pair@$$CBIPAVManagedItem@@@std@@@3@$0A@@std@@@2@XZ PROC ; std::_Tree<std::_Tmap_traits<unsigned int,ManagedItem *,std::less<unsigned int>,std::allocator<std::pair<unsigned int const ,ManagedItem *> >,0> >::_Lmost, COMDAT
; _this$ = ecx
; File c:\program files (x86)\microsoft visual studio 10.0\vc\include\xtree
; Line 1759
	mov	eax, DWORD PTR [ecx+4]
; Line 1760
	ret	0
?_Lmost@?$_Tree@V?$_Tmap_traits@IPAVManagedItem@@U?$less@I@std@@V?$allocator@U?$pair@$$CBIPAVManagedItem@@@std@@@3@$0A@@std@@@std@@IBEAAPAU_Node@?$_Tree_nod@V?$_Tmap_traits@IPAVManagedItem@@U?$less@I@std@@V?$allocator@U?$pair@$$CBIPAVManagedItem@@@std@@@3@$0A@@std@@@2@XZ ENDP ; std::_Tree<std::_Tmap_traits<unsigned int,ManagedItem *,std::less<unsigned int>,std::allocator<std::pair<unsigned int const ,ManagedItem *> >,0> >::_Lmost
_TEXT	ENDS
PUBLIC	??0?$_Vector_val@V?$basic_string@DU?$char_traits@D@std@@V?$allocator@D@2@@std@@V?$allocator@V?$basic_string@DU?$char_traits@D@std@@V?$allocator@D@2@@std@@@2@@std@@QAE@V?$allocator@V?$basic_string@DU?$char_traits@D@std@@V?$allocator@D@2@@std@@@1@@Z ; std::_Vector_val<std::basic_string<char,std::char_traits<char>,std::allocator<char> >,std::allocator<std::basic_string<char,std::char_traits<char>,std::allocator<char> > > >::_Vector_val<std::basic_string<char,std::char_traits<char>,std::allocator<char> >,std::allocator<std::basic_string<char,std::char_traits<char>,std::allocator<char> > > >
; Function compile flags: /Ogtp
;	COMDAT ??0?$_Vector_val@V?$basic_string@DU?$char_traits@D@std@@V?$allocator@D@2@@std@@V?$allocator@V?$basic_string@DU?$char_traits@D@std@@V?$allocator@D@2@@std@@@2@@std@@QAE@V?$allocator@V?$basic_string@DU?$char_traits@D@std@@V?$allocator@D@2@@std@@@1@@Z
_TEXT	SEGMENT
__Al$ = 8						; size = 1
??0?$_Vector_val@V?$basic_string@DU?$char_traits@D@std@@V?$allocator@D@2@@std@@V?$allocator@V?$basic_string@DU?$char_traits@D@std@@V?$allocator@D@2@@std@@@2@@std@@QAE@V?$allocator@V?$basic_string@DU?$char_traits@D@std@@V?$allocator@D@2@@std@@@1@@Z PROC ; std::_Vector_val<std::basic_string<char,std::char_traits<char>,std::allocator<char> >,std::allocator<std::basic_string<char,std::char_traits<char>,std::allocator<char> > > >::_Vector_val<std::basic_string<char,std::char_traits<char>,std::allocator<char> >,std::allocator<std::basic_string<char,std::char_traits<char>,std::allocator<char> > > >, COMDAT
; _this$ = ecx
; File c:\program files (x86)\microsoft visual studio 10.0\vc\include\vector
; Line 426
	mov	eax, ecx
; Line 427
	xor	ecx, ecx
	mov	DWORD PTR [eax], ecx
; Line 428
	mov	DWORD PTR [eax+4], ecx
; Line 429
	mov	DWORD PTR [eax+8], ecx
; Line 430
	ret	4
??0?$_Vector_val@V?$basic_string@DU?$char_traits@D@std@@V?$allocator@D@2@@std@@V?$allocator@V?$basic_string@DU?$char_traits@D@std@@V?$allocator@D@2@@std@@@2@@std@@QAE@V?$allocator@V?$basic_string@DU?$char_traits@D@std@@V?$allocator@D@2@@std@@@1@@Z ENDP ; std::_Vector_val<std::basic_string<char,std::char_traits<char>,std::allocator<char> >,std::allocator<std::basic_string<char,std::char_traits<char>,std::allocator<char> > > >::_Vector_val<std::basic_string<char,std::char_traits<char>,std::allocator<char> >,std::allocator<std::basic_string<char,std::char_traits<char>,std::allocator<char> > > >
_TEXT	ENDS
PUBLIC	??D?$_Tree_iterator@V?$_Tree_val@V?$_Tmap_traits@IPAVManagedItem@@U?$less@I@std@@V?$allocator@U?$pair@$$CBIPAVManagedItem@@@std@@@3@$0A@@std@@@std@@@std@@QBEAAU?$pair@$$CBIPAVManagedItem@@@1@XZ ; std::_Tree_iterator<std::_Tree_val<std::_Tmap_traits<unsigned int,ManagedItem *,std::less<unsigned int>,std::allocator<std::pair<unsigned int const ,ManagedItem *> >,0> > >::operator*
; Function compile flags: /Ogtp
;	COMDAT ??D?$_Tree_iterator@V?$_Tree_val@V?$_Tmap_traits@IPAVManagedItem@@U?$less@I@std@@V?$allocator@U?$pair@$$CBIPAVManagedItem@@@std@@@3@$0A@@std@@@std@@@std@@QBEAAU?$pair@$$CBIPAVManagedItem@@@1@XZ
_TEXT	SEGMENT
??D?$_Tree_iterator@V?$_Tree_val@V?$_Tmap_traits@IPAVManagedItem@@U?$less@I@std@@V?$allocator@U?$pair@$$CBIPAVManagedItem@@@std@@@3@$0A@@std@@@std@@@std@@QBEAAU?$pair@$$CBIPAVManagedItem@@@1@XZ PROC ; std::_Tree_iterator<std::_Tree_val<std::_Tmap_traits<unsigned int,ManagedItem *,std::less<unsigned int>,std::allocator<std::pair<unsigned int const ,ManagedItem *> >,0> > >::operator*, COMDAT
; _this$ = ecx
; File c:\program files (x86)\microsoft visual studio 10.0\vc\include\xtree
; Line 396
	mov	eax, DWORD PTR [ecx]
	add	eax, 12					; 0000000cH
; Line 397
	ret	0
??D?$_Tree_iterator@V?$_Tree_val@V?$_Tmap_traits@IPAVManagedItem@@U?$less@I@std@@V?$allocator@U?$pair@$$CBIPAVManagedItem@@@std@@@3@$0A@@std@@@std@@@std@@QBEAAU?$pair@$$CBIPAVManagedItem@@@1@XZ ENDP ; std::_Tree_iterator<std::_Tree_val<std::_Tmap_traits<unsigned int,ManagedItem *,std::less<unsigned int>,std::allocator<std::pair<unsigned int const ,ManagedItem *> >,0> > >::operator*
_TEXT	ENDS
PUBLIC	??0?$_Tree_const_iterator@V?$_Tree_val@V?$_Tmap_traits@IPAVManagedItem@@U?$less@I@std@@V?$allocator@U?$pair@$$CBIPAVManagedItem@@@std@@@3@$0A@@std@@@std@@@std@@QAE@XZ ; std::_Tree_const_iterator<std::_Tree_val<std::_Tmap_traits<unsigned int,ManagedItem *,std::less<unsigned int>,std::allocator<std::pair<unsigned int const ,ManagedItem *> >,0> > >::_Tree_const_iterator<std::_Tree_val<std::_Tmap_traits<unsigned int,ManagedItem *,std::less<unsigned int>,std::allocator<std::pair<unsigned int const ,ManagedItem *> >,0> > >
; Function compile flags: /Ogtp
;	COMDAT ??0?$_Tree_const_iterator@V?$_Tree_val@V?$_Tmap_traits@IPAVManagedItem@@U?$less@I@std@@V?$allocator@U?$pair@$$CBIPAVManagedItem@@@std@@@3@$0A@@std@@@std@@@std@@QAE@XZ
_TEXT	SEGMENT
??0?$_Tree_const_iterator@V?$_Tree_val@V?$_Tmap_traits@IPAVManagedItem@@U?$less@I@std@@V?$allocator@U?$pair@$$CBIPAVManagedItem@@@std@@@3@$0A@@std@@@std@@@std@@QAE@XZ PROC ; std::_Tree_const_iterator<std::_Tree_val<std::_Tmap_traits<unsigned int,ManagedItem *,std::less<unsigned int>,std::allocator<std::pair<unsigned int const ,ManagedItem *> >,0> > >::_Tree_const_iterator<std::_Tree_val<std::_Tmap_traits<unsigned int,ManagedItem *,std::less<unsigned int>,std::allocator<std::pair<unsigned int const ,ManagedItem *> >,0> > >, COMDAT
; _this$ = ecx
; Line 208
	mov	eax, ecx
	mov	DWORD PTR [eax], 0
; Line 209
	ret	0
??0?$_Tree_const_iterator@V?$_Tree_val@V?$_Tmap_traits@IPAVManagedItem@@U?$less@I@std@@V?$allocator@U?$pair@$$CBIPAVManagedItem@@@std@@@3@$0A@@std@@@std@@@std@@QAE@XZ ENDP ; std::_Tree_const_iterator<std::_Tree_val<std::_Tmap_traits<unsigned int,ManagedItem *,std::less<unsigned int>,std::allocator<std::pair<unsigned int const ,ManagedItem *> >,0> > >::_Tree_const_iterator<std::_Tree_val<std::_Tmap_traits<unsigned int,ManagedItem *,std::less<unsigned int>,std::allocator<std::pair<unsigned int const ,ManagedItem *> >,0> > >
_TEXT	ENDS
PUBLIC	??0?$_Vector_iterator@V?$_Vector_val@V?$basic_string@DU?$char_traits@D@std@@V?$allocator@D@2@@std@@V?$allocator@V?$basic_string@DU?$char_traits@D@std@@V?$allocator@D@2@@std@@@2@@std@@@std@@QAE@PAV?$basic_string@DU?$char_traits@D@std@@V?$allocator@D@2@@1@PBU_Container_base0@1@@Z ; std::_Vector_iterator<std::_Vector_val<std::basic_string<char,std::char_traits<char>,std::allocator<char> >,std::allocator<std::basic_string<char,std::char_traits<char>,std::allocator<char> > > > >::_Vector_iterator<std::_Vector_val<std::basic_string<char,std::char_traits<char>,std::allocator<char> >,std::allocator<std::basic_string<char,std::char_traits<char>,std::allocator<char> > > > >
; Function compile flags: /Ogtp
;	COMDAT ??0?$_Vector_iterator@V?$_Vector_val@V?$basic_string@DU?$char_traits@D@std@@V?$allocator@D@2@@std@@V?$allocator@V?$basic_string@DU?$char_traits@D@std@@V?$allocator@D@2@@std@@@2@@std@@@std@@QAE@PAV?$basic_string@DU?$char_traits@D@std@@V?$allocator@D@2@@1@PBU_Container_base0@1@@Z
_TEXT	SEGMENT
__Parg$ = 8						; size = 4
__Pvector$ = 12						; size = 4
??0?$_Vector_iterator@V?$_Vector_val@V?$basic_string@DU?$char_traits@D@std@@V?$allocator@D@2@@std@@V?$allocator@V?$basic_string@DU?$char_traits@D@std@@V?$allocator@D@2@@std@@@2@@std@@@std@@QAE@PAV?$basic_string@DU?$char_traits@D@std@@V?$allocator@D@2@@1@PBU_Container_base0@1@@Z PROC ; std::_Vector_iterator<std::_Vector_val<std::basic_string<char,std::char_traits<char>,std::allocator<char> >,std::allocator<std::basic_string<char,std::char_traits<char>,std::allocator<char> > > > >::_Vector_iterator<std::_Vector_val<std::basic_string<char,std::char_traits<char>,std::allocator<char> >,std::allocator<std::basic_string<char,std::char_traits<char>,std::allocator<char> > > > >, COMDAT
; _this$ = ecx
; File c:\program files (x86)\microsoft visual studio 10.0\vc\include\vector
; Line 304
	push	ebp
	mov	ebp, esp
	mov	eax, ecx
	mov	ecx, DWORD PTR __Parg$[ebp]
	mov	DWORD PTR [eax], ecx
; Line 305
	pop	ebp
	ret	8
??0?$_Vector_iterator@V?$_Vector_val@V?$basic_string@DU?$char_traits@D@std@@V?$allocator@D@2@@std@@V?$allocator@V?$basic_string@DU?$char_traits@D@std@@V?$allocator@D@2@@std@@@2@@std@@@std@@QAE@PAV?$basic_string@DU?$char_traits@D@std@@V?$allocator@D@2@@1@PBU_Container_base0@1@@Z ENDP ; std::_Vector_iterator<std::_Vector_val<std::basic_string<char,std::char_traits<char>,std::allocator<char> >,std::allocator<std::basic_string<char,std::char_traits<char>,std::allocator<char> > > > >::_Vector_iterator<std::_Vector_val<std::basic_string<char,std::char_traits<char>,std::allocator<char> >,std::allocator<std::basic_string<char,std::char_traits<char>,std::allocator<char> > > > >
_TEXT	ENDS
PUBLIC	??D?$_Vector_iterator@V?$_Vector_val@V?$basic_string@DU?$char_traits@D@std@@V?$allocator@D@2@@std@@V?$allocator@V?$basic_string@DU?$char_traits@D@std@@V?$allocator@D@2@@std@@@2@@std@@@std@@QBEAAV?$basic_string@DU?$char_traits@D@std@@V?$allocator@D@2@@1@XZ ; std::_Vector_iterator<std::_Vector_val<std::basic_string<char,std::char_traits<char>,std::allocator<char> >,std::allocator<std::basic_string<char,std::char_traits<char>,std::allocator<char> > > > >::operator*
; Function compile flags: /Ogtp
;	COMDAT ??D?$_Vector_iterator@V?$_Vector_val@V?$basic_string@DU?$char_traits@D@std@@V?$allocator@D@2@@std@@V?$allocator@V?$basic_string@DU?$char_traits@D@std@@V?$allocator@D@2@@std@@@2@@std@@@std@@QBEAAV?$basic_string@DU?$char_traits@D@std@@V?$allocator@D@2@@1@XZ
_TEXT	SEGMENT
??D?$_Vector_iterator@V?$_Vector_val@V?$basic_string@DU?$char_traits@D@std@@V?$allocator@D@2@@std@@V?$allocator@V?$basic_string@DU?$char_traits@D@std@@V?$allocator@D@2@@std@@@2@@std@@@std@@QBEAAV?$basic_string@DU?$char_traits@D@std@@V?$allocator@D@2@@1@XZ PROC ; std::_Vector_iterator<std::_Vector_val<std::basic_string<char,std::char_traits<char>,std::allocator<char> >,std::allocator<std::basic_string<char,std::char_traits<char>,std::allocator<char> > > > >::operator*, COMDAT
; _this$ = ecx
; Line 322
	mov	eax, DWORD PTR [ecx]
; Line 323
	ret	0
??D?$_Vector_iterator@V?$_Vector_val@V?$basic_string@DU?$char_traits@D@std@@V?$allocator@D@2@@std@@V?$allocator@V?$basic_string@DU?$char_traits@D@std@@V?$allocator@D@2@@std@@@2@@std@@@std@@QBEAAV?$basic_string@DU?$char_traits@D@std@@V?$allocator@D@2@@1@XZ ENDP ; std::_Vector_iterator<std::_Vector_val<std::basic_string<char,std::char_traits<char>,std::allocator<char> >,std::allocator<std::basic_string<char,std::char_traits<char>,std::allocator<char> > > > >::operator*
_TEXT	ENDS
PUBLIC	??E?$_Vector_iterator@V?$_Vector_val@V?$basic_string@DU?$char_traits@D@std@@V?$allocator@D@2@@std@@V?$allocator@V?$basic_string@DU?$char_traits@D@std@@V?$allocator@D@2@@std@@@2@@std@@@std@@QAEAAV01@XZ ; std::_Vector_iterator<std::_Vector_val<std::basic_string<char,std::char_traits<char>,std::allocator<char> >,std::allocator<std::basic_string<char,std::char_traits<char>,std::allocator<char> > > > >::operator++
; Function compile flags: /Ogtp
;	COMDAT ??E?$_Vector_iterator@V?$_Vector_val@V?$basic_string@DU?$char_traits@D@std@@V?$allocator@D@2@@std@@V?$allocator@V?$basic_string@DU?$char_traits@D@std@@V?$allocator@D@2@@std@@@2@@std@@@std@@QAEAAV01@XZ
_TEXT	SEGMENT
??E?$_Vector_iterator@V?$_Vector_val@V?$basic_string@DU?$char_traits@D@std@@V?$allocator@D@2@@std@@V?$allocator@V?$basic_string@DU?$char_traits@D@std@@V?$allocator@D@2@@std@@@2@@std@@@std@@QAEAAV01@XZ PROC ; std::_Vector_iterator<std::_Vector_val<std::basic_string<char,std::char_traits<char>,std::allocator<char> >,std::allocator<std::basic_string<char,std::char_traits<char>,std::allocator<char> > > > >::operator++, COMDAT
; _this$ = ecx
; Line 331
	mov	eax, ecx
; Line 332
	add	DWORD PTR [eax], 28			; 0000001cH
; Line 334
	ret	0
??E?$_Vector_iterator@V?$_Vector_val@V?$basic_string@DU?$char_traits@D@std@@V?$allocator@D@2@@std@@V?$allocator@V?$basic_string@DU?$char_traits@D@std@@V?$allocator@D@2@@std@@@2@@std@@@std@@QAEAAV01@XZ ENDP ; std::_Vector_iterator<std::_Vector_val<std::basic_string<char,std::char_traits<char>,std::allocator<char> >,std::allocator<std::basic_string<char,std::char_traits<char>,std::allocator<char> > > > >::operator++
_TEXT	ENDS
PUBLIC	??8?$_Vector_const_iterator@V?$_Vector_val@V?$basic_string@DU?$char_traits@D@std@@V?$allocator@D@2@@std@@V?$allocator@V?$basic_string@DU?$char_traits@D@std@@V?$allocator@D@2@@std@@@2@@std@@@std@@QBE_NABV01@@Z ; std::_Vector_const_iterator<std::_Vector_val<std::basic_string<char,std::char_traits<char>,std::allocator<char> >,std::allocator<std::basic_string<char,std::char_traits<char>,std::allocator<char> > > > >::operator==
; Function compile flags: /Ogtp
;	COMDAT ??8?$_Vector_const_iterator@V?$_Vector_val@V?$basic_string@DU?$char_traits@D@std@@V?$allocator@D@2@@std@@V?$allocator@V?$basic_string@DU?$char_traits@D@std@@V?$allocator@D@2@@std@@@2@@std@@@std@@QBE_NABV01@@Z
_TEXT	SEGMENT
__Right$ = 8						; size = 4
??8?$_Vector_const_iterator@V?$_Vector_val@V?$basic_string@DU?$char_traits@D@std@@V?$allocator@D@2@@std@@V?$allocator@V?$basic_string@DU?$char_traits@D@std@@V?$allocator@D@2@@std@@@2@@std@@@std@@QBE_NABV01@@Z PROC ; std::_Vector_const_iterator<std::_Vector_val<std::basic_string<char,std::char_traits<char>,std::allocator<char> >,std::allocator<std::basic_string<char,std::char_traits<char>,std::allocator<char> > > > >::operator==, COMDAT
; _this$ = ecx
; Line 201
	push	ebp
	mov	ebp, esp
; Line 203
	mov	eax, DWORD PTR [ecx]
	mov	edx, DWORD PTR __Right$[ebp]
	xor	ecx, ecx
	cmp	eax, DWORD PTR [edx]
	sete	al
; Line 204
	pop	ebp
	ret	4
??8?$_Vector_const_iterator@V?$_Vector_val@V?$basic_string@DU?$char_traits@D@std@@V?$allocator@D@2@@std@@V?$allocator@V?$basic_string@DU?$char_traits@D@std@@V?$allocator@D@2@@std@@@2@@std@@@std@@QBE_NABV01@@Z ENDP ; std::_Vector_const_iterator<std::_Vector_val<std::basic_string<char,std::char_traits<char>,std::allocator<char> >,std::allocator<std::basic_string<char,std::char_traits<char>,std::allocator<char> > > > >::operator==
_TEXT	ENDS
PUBLIC	?_Eos@?$basic_string@DU?$char_traits@D@std@@V?$allocator@D@2@@std@@QAEXI@Z ; std::basic_string<char,std::char_traits<char>,std::allocator<char> >::_Eos
; Function compile flags: /Ogtp
;	COMDAT ?_Eos@?$basic_string@DU?$char_traits@D@std@@V?$allocator@D@2@@std@@QAEXI@Z
_TEXT	SEGMENT
__Newsize$ = 8						; size = 4
?_Eos@?$basic_string@DU?$char_traits@D@std@@V?$allocator@D@2@@std@@QAEXI@Z PROC ; std::basic_string<char,std::char_traits<char>,std::allocator<char> >::_Eos, COMDAT
; _this$ = ecx
; File c:\program files (x86)\microsoft visual studio 10.0\vc\include\xstring
; Line 1952
	push	ebp
	mov	ebp, esp
; Line 1953
	cmp	DWORD PTR [ecx+20], 16			; 00000010H
	mov	eax, DWORD PTR __Newsize$[ebp]
	mov	DWORD PTR [ecx+16], eax
	jb	SHORT $LN5@Eos
	mov	ecx, DWORD PTR [ecx]
$LN5@Eos:
	mov	BYTE PTR [ecx+eax], 0
; Line 1954
	pop	ebp
	ret	4
?_Eos@?$basic_string@DU?$char_traits@D@std@@V?$allocator@D@2@@std@@QAEXI@Z ENDP ; std::basic_string<char,std::char_traits<char>,std::allocator<char> >::_Eos
_TEXT	ENDS
PUBLIC	?max_size@?$vector@V?$basic_string@DU?$char_traits@D@std@@V?$allocator@D@2@@std@@V?$allocator@V?$basic_string@DU?$char_traits@D@std@@V?$allocator@D@2@@std@@@2@@std@@QBEIXZ ; std::vector<std::basic_string<char,std::char_traits<char>,std::allocator<char> >,std::allocator<std::basic_string<char,std::char_traits<char>,std::allocator<char> > > >::max_size
; Function compile flags: /Ogtp
;	COMDAT ?max_size@?$vector@V?$basic_string@DU?$char_traits@D@std@@V?$allocator@D@2@@std@@V?$allocator@V?$basic_string@DU?$char_traits@D@std@@V?$allocator@D@2@@std@@@2@@std@@QBEIXZ
_TEXT	SEGMENT
?max_size@?$vector@V?$basic_string@DU?$char_traits@D@std@@V?$allocator@D@2@@std@@V?$allocator@V?$basic_string@DU?$char_traits@D@std@@V?$allocator@D@2@@std@@@2@@std@@QBEIXZ PROC ; std::vector<std::basic_string<char,std::char_traits<char>,std::allocator<char> >,std::allocator<std::basic_string<char,std::char_traits<char>,std::allocator<char> > > >::max_size, COMDAT
; _this$ = ecx
; File c:\program files (x86)\microsoft visual studio 10.0\vc\include\vector
; Line 884
	mov	eax, 153391689				; 09249249H
; Line 885
	ret	0
?max_size@?$vector@V?$basic_string@DU?$char_traits@D@std@@V?$allocator@D@2@@std@@V?$allocator@V?$basic_string@DU?$char_traits@D@std@@V?$allocator@D@2@@std@@@2@@std@@QBEIXZ ENDP ; std::vector<std::basic_string<char,std::char_traits<char>,std::allocator<char> >,std::allocator<std::basic_string<char,std::char_traits<char>,std::allocator<char> > > >::max_size
_TEXT	ENDS
PUBLIC	?_Grow_to@?$vector@V?$basic_string@DU?$char_traits@D@std@@V?$allocator@D@2@@std@@V?$allocator@V?$basic_string@DU?$char_traits@D@std@@V?$allocator@D@2@@std@@@2@@std@@IBEII@Z ; std::vector<std::basic_string<char,std::char_traits<char>,std::allocator<char> >,std::allocator<std::basic_string<char,std::char_traits<char>,std::allocator<char> > > >::_Grow_to
; Function compile flags: /Ogtp
;	COMDAT ?_Grow_to@?$vector@V?$basic_string@DU?$char_traits@D@std@@V?$allocator@D@2@@std@@V?$allocator@V?$basic_string@DU?$char_traits@D@std@@V?$allocator@D@2@@std@@@2@@std@@IBEII@Z
_TEXT	SEGMENT
__Count$ = 8						; size = 4
?_Grow_to@?$vector@V?$basic_string@DU?$char_traits@D@std@@V?$allocator@D@2@@std@@V?$allocator@V?$basic_string@DU?$char_traits@D@std@@V?$allocator@D@2@@std@@@2@@std@@IBEII@Z PROC ; std::vector<std::basic_string<char,std::char_traits<char>,std::allocator<char> >,std::allocator<std::basic_string<char,std::char_traits<char>,std::allocator<char> > > >::_Grow_to, COMDAT
; _this$ = ecx
; Line 1274
	push	ebp
	mov	ebp, esp
	push	esi
; Line 1275
	mov	esi, DWORD PTR [ecx+8]
	sub	esi, DWORD PTR [ecx]
	mov	eax, -1840700269			; 92492493H
	imul	esi
	add	edx, esi
	sar	edx, 4
	mov	eax, edx
	shr	eax, 31					; 0000001fH
	add	eax, edx
; Line 1278
	mov	ecx, eax
	shr	ecx, 1
	mov	edx, 153391689				; 09249249H
	sub	edx, ecx
	pop	esi
	cmp	edx, eax
	jae	SHORT $LN4@Grow_to
	xor	eax, eax
	jmp	SHORT $LN5@Grow_to
$LN4@Grow_to:
	add	eax, ecx
$LN5@Grow_to:
; Line 1279
	mov	ecx, DWORD PTR __Count$[ebp]
	cmp	eax, ecx
	jae	SHORT $LN1@Grow_to
; Line 1281
	mov	eax, ecx
$LN1@Grow_to:
; Line 1282
	pop	ebp
	ret	4
?_Grow_to@?$vector@V?$basic_string@DU?$char_traits@D@std@@V?$allocator@D@2@@std@@V?$allocator@V?$basic_string@DU?$char_traits@D@std@@V?$allocator@D@2@@std@@@2@@std@@IBEII@Z ENDP ; std::vector<std::basic_string<char,std::char_traits<char>,std::allocator<char> >,std::allocator<std::basic_string<char,std::char_traits<char>,std::allocator<char> > > >::_Grow_to
_TEXT	ENDS
PUBLIC	??0?$_Tree_const_iterator@V?$_Tree_val@V?$_Tmap_traits@IPAVManagedItem@@U?$less@I@std@@V?$allocator@U?$pair@$$CBIPAVManagedItem@@@std@@@3@$0A@@std@@@std@@@std@@QAE@PAU_Node@?$_Tree_nod@V?$_Tmap_traits@IPAVManagedItem@@U?$less@I@std@@V?$allocator@U?$pair@$$CBIPAVManagedItem@@@std@@@3@$0A@@std@@@1@PBV?$_Tree_val@V?$_Tmap_traits@IPAVManagedItem@@U?$less@I@std@@V?$allocator@U?$pair@$$CBIPAVManagedItem@@@std@@@3@$0A@@std@@@1@@Z ; std::_Tree_const_iterator<std::_Tree_val<std::_Tmap_traits<unsigned int,ManagedItem *,std::less<unsigned int>,std::allocator<std::pair<unsigned int const ,ManagedItem *> >,0> > >::_Tree_const_iterator<std::_Tree_val<std::_Tmap_traits<unsigned int,ManagedItem *,std::less<unsigned int>,std::allocator<std::pair<unsigned int const ,ManagedItem *> >,0> > >
; Function compile flags: /Ogtp
;	COMDAT ??0?$_Tree_const_iterator@V?$_Tree_val@V?$_Tmap_traits@IPAVManagedItem@@U?$less@I@std@@V?$allocator@U?$pair@$$CBIPAVManagedItem@@@std@@@3@$0A@@std@@@std@@@std@@QAE@PAU_Node@?$_Tree_nod@V?$_Tmap_traits@IPAVManagedItem@@U?$less@I@std@@V?$allocator@U?$pair@$$CBIPAVManagedItem@@@std@@@3@$0A@@std@@@1@PBV?$_Tree_val@V?$_Tmap_traits@IPAVManagedItem@@U?$less@I@std@@V?$allocator@U?$pair@$$CBIPAVManagedItem@@@std@@@3@$0A@@std@@@1@@Z
_TEXT	SEGMENT
__Pnode$ = 8						; size = 4
__Plist$ = 12						; size = 4
??0?$_Tree_const_iterator@V?$_Tree_val@V?$_Tmap_traits@IPAVManagedItem@@U?$less@I@std@@V?$allocator@U?$pair@$$CBIPAVManagedItem@@@std@@@3@$0A@@std@@@std@@@std@@QAE@PAU_Node@?$_Tree_nod@V?$_Tmap_traits@IPAVManagedItem@@U?$less@I@std@@V?$allocator@U?$pair@$$CBIPAVManagedItem@@@std@@@3@$0A@@std@@@1@PBV?$_Tree_val@V?$_Tmap_traits@IPAVManagedItem@@U?$less@I@std@@V?$allocator@U?$pair@$$CBIPAVManagedItem@@@std@@@3@$0A@@std@@@1@@Z PROC ; std::_Tree_const_iterator<std::_Tree_val<std::_Tmap_traits<unsigned int,ManagedItem *,std::less<unsigned int>,std::allocator<std::pair<unsigned int const ,ManagedItem *> >,0> > >::_Tree_const_iterator<std::_Tree_val<std::_Tmap_traits<unsigned int,ManagedItem *,std::less<unsigned int>,std::allocator<std::pair<unsigned int const ,ManagedItem *> >,0> > >, COMDAT
; _this$ = ecx
; File c:\program files (x86)\microsoft visual studio 10.0\vc\include\xtree
; Line 213
	push	ebp
	mov	ebp, esp
	mov	eax, ecx
	mov	ecx, DWORD PTR __Pnode$[ebp]
	mov	DWORD PTR [eax], ecx
; Line 214
	pop	ebp
	ret	8
??0?$_Tree_const_iterator@V?$_Tree_val@V?$_Tmap_traits@IPAVManagedItem@@U?$less@I@std@@V?$allocator@U?$pair@$$CBIPAVManagedItem@@@std@@@3@$0A@@std@@@std@@@std@@QAE@PAU_Node@?$_Tree_nod@V?$_Tmap_traits@IPAVManagedItem@@U?$less@I@std@@V?$allocator@U?$pair@$$CBIPAVManagedItem@@@std@@@3@$0A@@std@@@1@PBV?$_Tree_val@V?$_Tmap_traits@IPAVManagedItem@@U?$less@I@std@@V?$allocator@U?$pair@$$CBIPAVManagedItem@@@std@@@3@$0A@@std@@@1@@Z ENDP ; std::_Tree_const_iterator<std::_Tree_val<std::_Tmap_traits<unsigned int,ManagedItem *,std::less<unsigned int>,std::allocator<std::pair<unsigned int const ,ManagedItem *> >,0> > >::_Tree_const_iterator<std::_Tree_val<std::_Tmap_traits<unsigned int,ManagedItem *,std::less<unsigned int>,std::allocator<std::pair<unsigned int const ,ManagedItem *> >,0> > >
_TEXT	ENDS
PUBLIC	??E?$_Tree_const_iterator@V?$_Tree_val@V?$_Tmap_traits@IPAVManagedItem@@U?$less@I@std@@V?$allocator@U?$pair@$$CBIPAVManagedItem@@@std@@@3@$0A@@std@@@std@@@std@@QAEAAV01@XZ ; std::_Tree_const_iterator<std::_Tree_val<std::_Tmap_traits<unsigned int,ManagedItem *,std::less<unsigned int>,std::allocator<std::pair<unsigned int const ,ManagedItem *> >,0> > >::operator++
; Function compile flags: /Ogtp
;	COMDAT ??E?$_Tree_const_iterator@V?$_Tree_val@V?$_Tmap_traits@IPAVManagedItem@@U?$less@I@std@@V?$allocator@U?$pair@$$CBIPAVManagedItem@@@std@@@3@$0A@@std@@@std@@@std@@QAEAAV01@XZ
_TEXT	SEGMENT
??E?$_Tree_const_iterator@V?$_Tree_val@V?$_Tmap_traits@IPAVManagedItem@@U?$less@I@std@@V?$allocator@U?$pair@$$CBIPAVManagedItem@@@std@@@3@$0A@@std@@@std@@@std@@QAEAAV01@XZ PROC ; std::_Tree_const_iterator<std::_Tree_val<std::_Tmap_traits<unsigned int,ManagedItem *,std::less<unsigned int>,std::allocator<std::pair<unsigned int const ,ManagedItem *> >,0> > >::operator++, COMDAT
; _this$ = ecx
; Line 250
	push	esi
	mov	esi, ecx
; Line 265
	call	??E?$_Tree_unchecked_const_iterator@V?$_Tree_val@V?$_Tmap_traits@IPAVManagedItem@@U?$less@I@std@@V?$allocator@U?$pair@$$CBIPAVManagedItem@@@std@@@3@$0A@@std@@@std@@U_Iterator_base0@2@@std@@QAEAAV01@XZ ; std::_Tree_unchecked_const_iterator<std::_Tree_val<std::_Tmap_traits<unsigned int,ManagedItem *,std::less<unsigned int>,std::allocator<std::pair<unsigned int const ,ManagedItem *> >,0> >,std::_Iterator_base0>::operator++
; Line 266
	mov	eax, esi
	pop	esi
; Line 267
	ret	0
??E?$_Tree_const_iterator@V?$_Tree_val@V?$_Tmap_traits@IPAVManagedItem@@U?$less@I@std@@V?$allocator@U?$pair@$$CBIPAVManagedItem@@@std@@@3@$0A@@std@@@std@@@std@@QAEAAV01@XZ ENDP ; std::_Tree_const_iterator<std::_Tree_val<std::_Tmap_traits<unsigned int,ManagedItem *,std::less<unsigned int>,std::allocator<std::pair<unsigned int const ,ManagedItem *> >,0> > >::operator++
_TEXT	ENDS
PUBLIC	??F?$_Tree_const_iterator@V?$_Tree_val@V?$_Tmap_traits@IPAVManagedItem@@U?$less@I@std@@V?$allocator@U?$pair@$$CBIPAVManagedItem@@@std@@@3@$0A@@std@@@std@@@std@@QAEAAV01@XZ ; std::_Tree_const_iterator<std::_Tree_val<std::_Tmap_traits<unsigned int,ManagedItem *,std::less<unsigned int>,std::allocator<std::pair<unsigned int const ,ManagedItem *> >,0> > >::operator--
; Function compile flags: /Ogtp
;	COMDAT ??F?$_Tree_const_iterator@V?$_Tree_val@V?$_Tmap_traits@IPAVManagedItem@@U?$less@I@std@@V?$allocator@U?$pair@$$CBIPAVManagedItem@@@std@@@3@$0A@@std@@@std@@@std@@QAEAAV01@XZ
_TEXT	SEGMENT
??F?$_Tree_const_iterator@V?$_Tree_val@V?$_Tmap_traits@IPAVManagedItem@@U?$less@I@std@@V?$allocator@U?$pair@$$CBIPAVManagedItem@@@std@@@3@$0A@@std@@@std@@@std@@QAEAAV01@XZ PROC ; std::_Tree_const_iterator<std::_Tree_val<std::_Tmap_traits<unsigned int,ManagedItem *,std::less<unsigned int>,std::allocator<std::pair<unsigned int const ,ManagedItem *> >,0> > >::operator--, COMDAT
; _this$ = ecx
; Line 277
	push	esi
	mov	esi, ecx
; Line 302
	call	??F?$_Tree_unchecked_const_iterator@V?$_Tree_val@V?$_Tmap_traits@IPAVManagedItem@@U?$less@I@std@@V?$allocator@U?$pair@$$CBIPAVManagedItem@@@std@@@3@$0A@@std@@@std@@U_Iterator_base0@2@@std@@QAEAAV01@XZ ; std::_Tree_unchecked_const_iterator<std::_Tree_val<std::_Tmap_traits<unsigned int,ManagedItem *,std::less<unsigned int>,std::allocator<std::pair<unsigned int const ,ManagedItem *> >,0> >,std::_Iterator_base0>::operator--
; Line 305
	mov	eax, esi
	pop	esi
; Line 306
	ret	0
??F?$_Tree_const_iterator@V?$_Tree_val@V?$_Tmap_traits@IPAVManagedItem@@U?$less@I@std@@V?$allocator@U?$pair@$$CBIPAVManagedItem@@@std@@@3@$0A@@std@@@std@@@std@@QAEAAV01@XZ ENDP ; std::_Tree_const_iterator<std::_Tree_val<std::_Tmap_traits<unsigned int,ManagedItem *,std::less<unsigned int>,std::allocator<std::pair<unsigned int const ,ManagedItem *> >,0> > >::operator--
_TEXT	ENDS
PUBLIC	?max_size@?$basic_string@DU?$char_traits@D@std@@V?$allocator@D@2@@std@@QBEIXZ ; std::basic_string<char,std::char_traits<char>,std::allocator<char> >::max_size
; Function compile flags: /Ogtp
;	COMDAT ?max_size@?$basic_string@DU?$char_traits@D@std@@V?$allocator@D@2@@std@@QBEIXZ
_TEXT	SEGMENT
?max_size@?$basic_string@DU?$char_traits@D@std@@V?$allocator@D@2@@std@@QBEIXZ PROC ; std::basic_string<char,std::char_traits<char>,std::allocator<char> >::max_size, COMDAT
; _this$ = ecx
; File c:\program files (x86)\microsoft visual studio 10.0\vc\include\xstring
; Line 1517
	mov	eax, -2					; fffffffeH
; Line 1518
	ret	0
?max_size@?$basic_string@DU?$char_traits@D@std@@V?$allocator@D@2@@std@@QBEIXZ ENDP ; std::basic_string<char,std::char_traits<char>,std::allocator<char> >::max_size
_TEXT	ENDS
PUBLIC	?allocate@?$allocator@V?$basic_string@DU?$char_traits@D@std@@V?$allocator@D@2@@std@@@std@@QAEPAV?$basic_string@DU?$char_traits@D@std@@V?$allocator@D@2@@2@I@Z ; std::allocator<std::basic_string<char,std::char_traits<char>,std::allocator<char> > >::allocate
; Function compile flags: /Ogtp
;	COMDAT ?allocate@?$allocator@V?$basic_string@DU?$char_traits@D@std@@V?$allocator@D@2@@std@@@std@@QAEPAV?$basic_string@DU?$char_traits@D@std@@V?$allocator@D@2@@2@I@Z
_TEXT	SEGMENT
$T129705 = -12						; size = 12
$T129697 = 8						; size = 4
__Count$ = 8						; size = 4
?allocate@?$allocator@V?$basic_string@DU?$char_traits@D@std@@V?$allocator@D@2@@std@@@std@@QAEPAV?$basic_string@DU?$char_traits@D@std@@V?$allocator@D@2@@2@I@Z PROC ; std::allocator<std::basic_string<char,std::char_traits<char>,std::allocator<char> > >::allocate, COMDAT
; _this$ = ecx
; File c:\program files (x86)\microsoft visual studio 10.0\vc\include\xmemory
; Line 186
	push	ebp
	mov	ebp, esp
; Line 187
	mov	ecx, DWORD PTR __Count$[ebp]
	sub	esp, 12					; 0000000cH
	xor	eax, eax
	test	ecx, ecx
	je	SHORT $LN1@allocate
	cmp	ecx, 153391689				; 09249249H
	ja	SHORT $LN3@allocate
	lea	eax, DWORD PTR [ecx*8]
	sub	eax, ecx
	add	eax, eax
	add	eax, eax
	push	eax
	call	??2@YAPAXI@Z				; operator new
	add	esp, 4
	test	eax, eax
	jne	SHORT $LN1@allocate
$LN3@allocate:
	lea	ecx, DWORD PTR $T129697[ebp]
	push	ecx
	lea	ecx, DWORD PTR $T129705[ebp]
	mov	DWORD PTR $T129697[ebp], 0
	call	DWORD PTR __imp_??0exception@std@@QAE@ABQBD@Z
	push	OFFSET __TI2?AVbad_alloc@std@@
	lea	edx, DWORD PTR $T129705[ebp]
	push	edx
	mov	DWORD PTR $T129705[ebp], OFFSET ??_7bad_alloc@std@@6B@
	call	__CxxThrowException@8
$LN13@allocate:
$LN1@allocate:
; Line 188
	mov	esp, ebp
	pop	ebp
	ret	4
$LN12@allocate:
?allocate@?$allocator@V?$basic_string@DU?$char_traits@D@std@@V?$allocator@D@2@@std@@@std@@QAEPAV?$basic_string@DU?$char_traits@D@std@@V?$allocator@D@2@@2@I@Z ENDP ; std::allocator<std::basic_string<char,std::char_traits<char>,std::allocator<char> > >::allocate
_TEXT	ENDS
PUBLIC	?allocate@?$allocator@D@std@@QAEPADI@Z		; std::allocator<char>::allocate
; Function compile flags: /Ogtp
;	COMDAT ?allocate@?$allocator@D@std@@QAEPADI@Z
_TEXT	SEGMENT
$T129728 = -12						; size = 12
$T129720 = 8						; size = 4
__Count$ = 8						; size = 4
?allocate@?$allocator@D@std@@QAEPADI@Z PROC		; std::allocator<char>::allocate, COMDAT
; _this$ = ecx
; Line 186
	push	ebp
	mov	ebp, esp
; Line 187
	mov	ecx, DWORD PTR __Count$[ebp]
	sub	esp, 12					; 0000000cH
	xor	eax, eax
	test	ecx, ecx
	je	SHORT $LN1@allocate@2
	cmp	ecx, -1
	ja	SHORT $LN3@allocate@2
	push	ecx
	call	??2@YAPAXI@Z				; operator new
	add	esp, 4
	test	eax, eax
	jne	SHORT $LN1@allocate@2
$LN3@allocate@2:
	lea	eax, DWORD PTR $T129720[ebp]
	push	eax
	lea	ecx, DWORD PTR $T129728[ebp]
	mov	DWORD PTR $T129720[ebp], 0
	call	DWORD PTR __imp_??0exception@std@@QAE@ABQBD@Z
	push	OFFSET __TI2?AVbad_alloc@std@@
	lea	ecx, DWORD PTR $T129728[ebp]
	push	ecx
	mov	DWORD PTR $T129728[ebp], OFFSET ??_7bad_alloc@std@@6B@
	call	__CxxThrowException@8
$LN13@allocate@2:
$LN1@allocate@2:
; Line 188
	mov	esp, ebp
	pop	ebp
	ret	4
$LN12@allocate@2:
?allocate@?$allocator@D@std@@QAEPADI@Z ENDP		; std::allocator<char>::allocate
_TEXT	ENDS
PUBLIC	??$?9DD@std@@YA_NABV?$allocator@D@0@0@Z		; std::operator!=<char,char>
; Function compile flags: /Ogtp
;	COMDAT ??$?9DD@std@@YA_NABV?$allocator@D@0@0@Z
_TEXT	SEGMENT
__Left$ = 8						; size = 4
__Right$ = 12						; size = 4
??$?9DD@std@@YA_NABV?$allocator@D@0@0@Z PROC		; std::operator!=<char,char>, COMDAT
; Line 271
	xor	al, al
; Line 272
	ret	0
??$?9DD@std@@YA_NABV?$allocator@D@0@0@Z ENDP		; std::operator!=<char,char>
_TEXT	ENDS
PUBLIC	_TexName$GSCopy$
PUBLIC	??_C@_07POMIDLJN@tileset?$AA@			; `string'
PUBLIC	__$ArrayPad$
PUBLIC	?TextureInPalette@@YA_NPBD@Z			; TextureInPalette
EXTRN	__imp__strstr:PROC
EXTRN	___security_cookie:DWORD
EXTRN	@__security_check_cookie@4:PROC
;	COMDAT ??_C@_07POMIDLJN@tileset?$AA@
; File c:\program files (x86)\microsoft visual studio 10.0\vc\include\xstring
CONST	SEGMENT
??_C@_07POMIDLJN@tileset?$AA@ DB 'tileset', 00H		; `string'
; Function compile flags: /Ogtp
CONST	ENDS
;	COMDAT ?TextureInPalette@@YA_NPBD@Z
_TEXT	SEGMENT
_TexName$GSCopy$ = -40					; size = 4
_FName$ = -40						; size = 4
_result$ = -33						; size = 1
_filenameFilters$ = -32					; size = 25
__$ArrayPad$ = -4					; size = 4
_TexName$ = 8						; size = 4
?TextureInPalette@@YA_NPBD@Z PROC			; TextureInPalette, COMDAT
; File c:\programovani\wow editor\test\src\editor\texturingui.cpp
; Line 145
	push	ebp
	mov	ebp, esp
	sub	esp, 40					; 00000028H
	mov	eax, DWORD PTR ___security_cookie
	xor	eax, ebp
	mov	DWORD PTR __$ArrayPad$[ebp], eax
	push	esi
	mov	esi, DWORD PTR _TexName$[ebp]
; Line 150
	push	OFFSET ??_C@_07POMIDLJN@tileset?$AA@
	push	esi
	mov	DWORD PTR _TexName$GSCopy$[ebp], esi
	call	DWORD PTR __imp__strstr
	add	esp, 8
	test	eax, eax
	setne	al
	mov	BYTE PTR _result$[ebp], al
; Line 152
	test	al, al
	jne	SHORT $LN24@TextureInP
	pop	esi
; Line 205
	mov	ecx, DWORD PTR __$ArrayPad$[ebp]
	xor	ecx, ebp
	call	@__security_check_cookie@4
	mov	esp, ebp
	pop	ebp
	ret	0
$LN24@TextureInP:
; Line 156
	mov	cl, BYTE PTR [esi]
	xor	eax, eax
	push	ebx
; Line 163
	mov	ebx, DWORD PTR _FName$[ebp]
	test	cl, cl
	je	SHORT $LN22@TextureInP
	npad	3
$LL23@TextureInP:
; Line 158
	cmp	cl, 92					; 0000005cH
	jne	SHORT $LN21@TextureInP
; Line 159
	lea	ebx, DWORD PTR [esi+eax+1]
$LN21@TextureInP:
; Line 156
	mov	cl, BYTE PTR [esi+eax+1]
; Line 160
	inc	eax
	test	cl, cl
	jne	SHORT $LL23@TextureInP
$LN22@TextureInP:
	push	edi
; Line 163
	mov	BYTE PTR _filenameFilters$[ebp+24], 1
; Line 164
	xor	edi, edi
	mov	esi, OFFSET ?filters@@3PAY0PP@DA	; filters
	npad	2
$LL20@TextureInP:
; Line 166
	push	esi
	push	ebx
	call	DWORD PTR __imp__strstr
	add	esp, 8
	test	eax, eax
	je	SHORT $LN17@TextureInP
; Line 168
	mov	BYTE PTR _filenameFilters$[ebp+edi], 1
; Line 169
	mov	BYTE PTR _filenameFilters$[ebp+24], 0
; Line 171
	jmp	SHORT $LN19@TextureInP
$LN17@TextureInP:
; Line 172
	mov	BYTE PTR _filenameFilters$[ebp+edi], 0
$LN19@TextureInP:
; Line 164
	add	esi, 255				; 000000ffH
	inc	edi
	cmp	esi, OFFSET ?filters@@3PAY0PP@DA+6120
	jl	SHORT $LL20@TextureInP
; Line 175
	xor	al, al
; Line 176
	xor	dl, dl
; Line 177
	xor	ecx, ecx
$LL15@TextureInP:
; Line 178
	cmp	BYTE PTR ?fileFilter@@3PA_NA[ecx], 0
	je	SHORT $LN14@TextureInP
; Line 180
	test	al, al
	jne	SHORT $LN27@TextureInP
	cmp	BYTE PTR _filenameFilters$[ebp+ecx], al
	je	SHORT $LN28@TextureInP
$LN27@TextureInP:
	mov	al, 1
$LN28@TextureInP:
; Line 181
	mov	dl, 1
$LN14@TextureInP:
; Line 178
	cmp	BYTE PTR ?fileFilter@@3PA_NA[ecx+1], 0
	je	SHORT $LN52@TextureInP
; Line 180
	test	al, al
	jne	SHORT $LN50@TextureInP
	cmp	BYTE PTR _filenameFilters$[ebp+ecx+1], al
	je	SHORT $LN51@TextureInP
$LN50@TextureInP:
	mov	al, 1
$LN51@TextureInP:
; Line 181
	mov	dl, 1
$LN52@TextureInP:
; Line 178
	cmp	BYTE PTR ?fileFilter@@3PA_NA[ecx+2], 0
	je	SHORT $LN55@TextureInP
; Line 180
	test	al, al
	jne	SHORT $LN53@TextureInP
	cmp	BYTE PTR _filenameFilters$[ebp+ecx+2], al
	je	SHORT $LN54@TextureInP
$LN53@TextureInP:
	mov	al, 1
$LN54@TextureInP:
; Line 181
	mov	dl, 1
$LN55@TextureInP:
; Line 178
	cmp	BYTE PTR ?fileFilter@@3PA_NA[ecx+3], 0
	je	SHORT $LN58@TextureInP
; Line 180
	test	al, al
	jne	SHORT $LN56@TextureInP
	cmp	BYTE PTR _filenameFilters$[ebp+ecx+3], al
	je	SHORT $LN57@TextureInP
$LN56@TextureInP:
	mov	al, 1
$LN57@TextureInP:
; Line 181
	mov	dl, 1
$LN58@TextureInP:
; Line 178
	cmp	BYTE PTR ?fileFilter@@3PA_NA[ecx+4], 0
	je	SHORT $LN61@TextureInP
; Line 180
	test	al, al
	jne	SHORT $LN59@TextureInP
	cmp	BYTE PTR _filenameFilters$[ebp+ecx+4], al
	je	SHORT $LN60@TextureInP
$LN59@TextureInP:
	mov	al, 1
$LN60@TextureInP:
; Line 181
	mov	dl, 1
$LN61@TextureInP:
	add	ecx, 5
; Line 177
	cmp	ecx, 25					; 00000019H
	jl	SHORT $LL15@TextureInP
; Line 184
	test	dl, dl
	je	SHORT $LN65@TextureInP
; Line 185
	test	al, al
	je	$LN63@TextureInP
	mov	BYTE PTR _result$[ebp], 1
$LN65@TextureInP:
; Line 190
	xor	cl, cl
; Line 191
	xor	eax, eax
	npad	13
$LL9@TextureInP:
; Line 192
	mov	dl, BYTE PTR ?tilesetFilter@@3PA_NA[eax]
	or	dl, BYTE PTR ?tilesetFilter@@3PA_NA[eax+1]
	add	eax, 6
	or	dl, BYTE PTR ?tilesetFilter@@3PA_NA[eax-4]
	or	dl, BYTE PTR ?tilesetFilter@@3PA_NA[eax-3]
	or	dl, BYTE PTR ?tilesetFilter@@3PA_NA[eax-1]
	or	dl, BYTE PTR ?tilesetFilter@@3PA_NA[eax-2]
	or	cl, dl
	cmp	eax, 48					; 00000030H
	jl	SHORT $LL9@TextureInP
; Line 194
	test	cl, cl
	je	SHORT $LN67@TextureInP
; Line 196
	xor	bl, bl
; Line 197
	xor	edi, edi
	xor	esi, esi
	npad	8
$LL5@TextureInP:
; Line 198
	cmp	BYTE PTR ?tilesetFilter@@3PA_NA[edi], 0
	je	SHORT $LN4@TextureInP
; Line 199
	mov	eax, DWORD PTR ?tilesetDirectories@@3V?$vector@V?$basic_string@DU?$char_traits@D@std@@V?$allocator@D@2@@std@@V?$allocator@V?$basic_string@DU?$char_traits@D@std@@V?$allocator@D@2@@std@@@2@@std@@A
	add	eax, esi
	cmp	DWORD PTR [eax+20], 16			; 00000010H
	jb	SHORT $LN37@TextureInP
	mov	eax, DWORD PTR [eax]
$LN37@TextureInP:
	mov	ecx, DWORD PTR _TexName$GSCopy$[ebp]
	push	eax
	push	ecx
	call	DWORD PTR __imp__strstr
	add	esp, 8
	test	eax, eax
	je	SHORT $LN4@TextureInP
; Line 200
	mov	bl, 1
$LN4@TextureInP:
; Line 197
	add	esi, 28					; 0000001cH
	inc	edi
	cmp	esi, 1344				; 00000540H
	jl	SHORT $LL5@TextureInP
; Line 201
	and	BYTE PTR _result$[ebp], bl
$LN67@TextureInP:
; Line 204
	mov	al, BYTE PTR _result$[ebp]
	pop	edi
	pop	ebx
	pop	esi
; Line 205
	mov	ecx, DWORD PTR __$ArrayPad$[ebp]
	xor	ecx, ebp
	call	@__security_check_cookie@4
	mov	esp, ebp
	pop	ebp
	ret	0
$LN63@TextureInP:
	mov	ecx, DWORD PTR __$ArrayPad$[ebp]
	pop	edi
	pop	ebx
	xor	ecx, ebp
	xor	al, al
	pop	esi
	call	@__security_check_cookie@4
	mov	esp, ebp
	pop	ebp
	ret	0
?TextureInPalette@@YA_NPBD@Z ENDP			; TextureInPalette
_TEXT	ENDS
PUBLIC	??0?$vector@V?$basic_string@DU?$char_traits@D@std@@V?$allocator@D@2@@std@@V?$allocator@V?$basic_string@DU?$char_traits@D@std@@V?$allocator@D@2@@std@@@2@@std@@QAE@XZ ; std::vector<std::basic_string<char,std::char_traits<char>,std::allocator<char> >,std::allocator<std::basic_string<char,std::char_traits<char>,std::allocator<char> > > >::vector<std::basic_string<char,std::char_traits<char>,std::allocator<char> >,std::allocator<std::basic_string<char,std::char_traits<char>,std::allocator<char> > > >
; Function compile flags: /Ogtp
;	COMDAT ??0?$vector@V?$basic_string@DU?$char_traits@D@std@@V?$allocator@D@2@@std@@V?$allocator@V?$basic_string@DU?$char_traits@D@std@@V?$allocator@D@2@@std@@@2@@std@@QAE@XZ
_TEXT	SEGMENT
??0?$vector@V?$basic_string@DU?$char_traits@D@std@@V?$allocator@D@2@@std@@V?$allocator@V?$basic_string@DU?$char_traits@D@std@@V?$allocator@D@2@@std@@@2@@std@@QAE@XZ PROC ; std::vector<std::basic_string<char,std::char_traits<char>,std::allocator<char> >,std::allocator<std::basic_string<char,std::char_traits<char>,std::allocator<char> > > >::vector<std::basic_string<char,std::char_traits<char>,std::allocator<char> >,std::allocator<std::basic_string<char,std::char_traits<char>,std::allocator<char> > > >, COMDAT
; _this$ = ecx
; File c:\program files (x86)\microsoft visual studio 10.0\vc\include\vector
; Line 507
	mov	eax, ecx
	xor	ecx, ecx
	mov	DWORD PTR [eax], ecx
	mov	DWORD PTR [eax+4], ecx
	mov	DWORD PTR [eax+8], ecx
; Line 508
	ret	0
??0?$vector@V?$basic_string@DU?$char_traits@D@std@@V?$allocator@D@2@@std@@V?$allocator@V?$basic_string@DU?$char_traits@D@std@@V?$allocator@D@2@@std@@@2@@std@@QAE@XZ ENDP ; std::vector<std::basic_string<char,std::char_traits<char>,std::allocator<char> >,std::allocator<std::basic_string<char,std::char_traits<char>,std::allocator<char> > > >::vector<std::basic_string<char,std::char_traits<char>,std::allocator<char> >,std::allocator<std::basic_string<char,std::char_traits<char>,std::allocator<char> > > >
_TEXT	ENDS
PUBLIC	?begin@?$vector@V?$basic_string@DU?$char_traits@D@std@@V?$allocator@D@2@@std@@V?$allocator@V?$basic_string@DU?$char_traits@D@std@@V?$allocator@D@2@@std@@@2@@std@@QAE?AV?$_Vector_iterator@V?$_Vector_val@V?$basic_string@DU?$char_traits@D@std@@V?$allocator@D@2@@std@@V?$allocator@V?$basic_string@DU?$char_traits@D@std@@V?$allocator@D@2@@std@@@2@@std@@@2@XZ ; std::vector<std::basic_string<char,std::char_traits<char>,std::allocator<char> >,std::allocator<std::basic_string<char,std::char_traits<char>,std::allocator<char> > > >::begin
; Function compile flags: /Ogtp
;	COMDAT ?begin@?$vector@V?$basic_string@DU?$char_traits@D@std@@V?$allocator@D@2@@std@@V?$allocator@V?$basic_string@DU?$char_traits@D@std@@V?$allocator@D@2@@std@@@2@@std@@QAE?AV?$_Vector_iterator@V?$_Vector_val@V?$basic_string@DU?$char_traits@D@std@@V?$allocator@D@2@@std@@V?$allocator@V?$basic_string@DU?$char_traits@D@std@@V?$allocator@D@2@@std@@@2@@std@@@2@XZ
_TEXT	SEGMENT
___$ReturnUdt$ = 8					; size = 4
?begin@?$vector@V?$basic_string@DU?$char_traits@D@std@@V?$allocator@D@2@@std@@V?$allocator@V?$basic_string@DU?$char_traits@D@std@@V?$allocator@D@2@@std@@@2@@std@@QAE?AV?$_Vector_iterator@V?$_Vector_val@V?$basic_string@DU?$char_traits@D@std@@V?$allocator@D@2@@std@@V?$allocator@V?$basic_string@DU?$char_traits@D@std@@V?$allocator@D@2@@std@@@2@@std@@@2@XZ PROC ; std::vector<std::basic_string<char,std::char_traits<char>,std::allocator<char> >,std::allocator<std::basic_string<char,std::char_traits<char>,std::allocator<char> > > >::begin, COMDAT
; _this$ = ecx
; Line 781
	push	ebp
	mov	ebp, esp
; Line 782
	mov	ecx, DWORD PTR [ecx]
	mov	eax, DWORD PTR ___$ReturnUdt$[ebp]
	mov	DWORD PTR [eax], ecx
; Line 783
	pop	ebp
	ret	4
?begin@?$vector@V?$basic_string@DU?$char_traits@D@std@@V?$allocator@D@2@@std@@V?$allocator@V?$basic_string@DU?$char_traits@D@std@@V?$allocator@D@2@@std@@@2@@std@@QAE?AV?$_Vector_iterator@V?$_Vector_val@V?$basic_string@DU?$char_traits@D@std@@V?$allocator@D@2@@std@@V?$allocator@V?$basic_string@DU?$char_traits@D@std@@V?$allocator@D@2@@std@@@2@@std@@@2@XZ ENDP ; std::vector<std::basic_string<char,std::char_traits<char>,std::allocator<char> >,std::allocator<std::basic_string<char,std::char_traits<char>,std::allocator<char> > > >::begin
_TEXT	ENDS
PUBLIC	?end@?$vector@V?$basic_string@DU?$char_traits@D@std@@V?$allocator@D@2@@std@@V?$allocator@V?$basic_string@DU?$char_traits@D@std@@V?$allocator@D@2@@std@@@2@@std@@QAE?AV?$_Vector_iterator@V?$_Vector_val@V?$basic_string@DU?$char_traits@D@std@@V?$allocator@D@2@@std@@V?$allocator@V?$basic_string@DU?$char_traits@D@std@@V?$allocator@D@2@@std@@@2@@std@@@2@XZ ; std::vector<std::basic_string<char,std::char_traits<char>,std::allocator<char> >,std::allocator<std::basic_string<char,std::char_traits<char>,std::allocator<char> > > >::end
; Function compile flags: /Ogtp
;	COMDAT ?end@?$vector@V?$basic_string@DU?$char_traits@D@std@@V?$allocator@D@2@@std@@V?$allocator@V?$basic_string@DU?$char_traits@D@std@@V?$allocator@D@2@@std@@@2@@std@@QAE?AV?$_Vector_iterator@V?$_Vector_val@V?$basic_string@DU?$char_traits@D@std@@V?$allocator@D@2@@std@@V?$allocator@V?$basic_string@DU?$char_traits@D@std@@V?$allocator@D@2@@std@@@2@@std@@@2@XZ
_TEXT	SEGMENT
___$ReturnUdt$ = 8					; size = 4
?end@?$vector@V?$basic_string@DU?$char_traits@D@std@@V?$allocator@D@2@@std@@V?$allocator@V?$basic_string@DU?$char_traits@D@std@@V?$allocator@D@2@@std@@@2@@std@@QAE?AV?$_Vector_iterator@V?$_Vector_val@V?$basic_string@DU?$char_traits@D@std@@V?$allocator@D@2@@std@@V?$allocator@V?$basic_string@DU?$char_traits@D@std@@V?$allocator@D@2@@std@@@2@@std@@@2@XZ PROC ; std::vector<std::basic_string<char,std::char_traits<char>,std::allocator<char> >,std::allocator<std::basic_string<char,std::char_traits<char>,std::allocator<char> > > >::end, COMDAT
; _this$ = ecx
; Line 791
	push	ebp
	mov	ebp, esp
; Line 792
	mov	ecx, DWORD PTR [ecx+4]
	mov	eax, DWORD PTR ___$ReturnUdt$[ebp]
	mov	DWORD PTR [eax], ecx
; Line 793
	pop	ebp
	ret	4
?end@?$vector@V?$basic_string@DU?$char_traits@D@std@@V?$allocator@D@2@@std@@V?$allocator@V?$basic_string@DU?$char_traits@D@std@@V?$allocator@D@2@@std@@@2@@std@@QAE?AV?$_Vector_iterator@V?$_Vector_val@V?$basic_string@DU?$char_traits@D@std@@V?$allocator@D@2@@std@@V?$allocator@V?$basic_string@DU?$char_traits@D@std@@V?$allocator@D@2@@std@@@2@@std@@@2@XZ ENDP ; std::vector<std::basic_string<char,std::char_traits<char>,std::allocator<char> >,std::allocator<std::basic_string<char,std::char_traits<char>,std::allocator<char> > > >::end
_TEXT	ENDS
PUBLIC	??0?$_Tree_iterator@V?$_Tree_val@V?$_Tmap_traits@IPAVManagedItem@@U?$less@I@std@@V?$allocator@U?$pair@$$CBIPAVManagedItem@@@std@@@3@$0A@@std@@@std@@@std@@QAE@XZ ; std::_Tree_iterator<std::_Tree_val<std::_Tmap_traits<unsigned int,ManagedItem *,std::less<unsigned int>,std::allocator<std::pair<unsigned int const ,ManagedItem *> >,0> > >::_Tree_iterator<std::_Tree_val<std::_Tmap_traits<unsigned int,ManagedItem *,std::less<unsigned int>,std::allocator<std::pair<unsigned int const ,ManagedItem *> >,0> > >
; Function compile flags: /Ogtp
;	COMDAT ??0?$_Tree_iterator@V?$_Tree_val@V?$_Tmap_traits@IPAVManagedItem@@U?$less@I@std@@V?$allocator@U?$pair@$$CBIPAVManagedItem@@@std@@@3@$0A@@std@@@std@@@std@@QAE@XZ
_TEXT	SEGMENT
??0?$_Tree_iterator@V?$_Tree_val@V?$_Tmap_traits@IPAVManagedItem@@U?$less@I@std@@V?$allocator@U?$pair@$$CBIPAVManagedItem@@@std@@@3@$0A@@std@@@std@@@std@@QAE@XZ PROC ; std::_Tree_iterator<std::_Tree_val<std::_Tmap_traits<unsigned int,ManagedItem *,std::less<unsigned int>,std::allocator<std::pair<unsigned int const ,ManagedItem *> >,0> > >::_Tree_iterator<std::_Tree_val<std::_Tmap_traits<unsigned int,ManagedItem *,std::less<unsigned int>,std::allocator<std::pair<unsigned int const ,ManagedItem *> >,0> > >, COMDAT
; _this$ = ecx
; File c:\program files (x86)\microsoft visual studio 10.0\vc\include\xtree
; Line 372
	mov	eax, ecx
	mov	DWORD PTR [eax], 0
; Line 374
	ret	0
??0?$_Tree_iterator@V?$_Tree_val@V?$_Tmap_traits@IPAVManagedItem@@U?$less@I@std@@V?$allocator@U?$pair@$$CBIPAVManagedItem@@@std@@@3@$0A@@std@@@std@@@std@@QAE@XZ ENDP ; std::_Tree_iterator<std::_Tree_val<std::_Tmap_traits<unsigned int,ManagedItem *,std::less<unsigned int>,std::allocator<std::pair<unsigned int const ,ManagedItem *> >,0> > >::_Tree_iterator<std::_Tree_val<std::_Tmap_traits<unsigned int,ManagedItem *,std::less<unsigned int>,std::allocator<std::pair<unsigned int const ,ManagedItem *> >,0> > >
_TEXT	ENDS
PUBLIC	??C?$_Tree_iterator@V?$_Tree_val@V?$_Tmap_traits@IPAVManagedItem@@U?$less@I@std@@V?$allocator@U?$pair@$$CBIPAVManagedItem@@@std@@@3@$0A@@std@@@std@@@std@@QBEPAU?$pair@$$CBIPAVManagedItem@@@1@XZ ; std::_Tree_iterator<std::_Tree_val<std::_Tmap_traits<unsigned int,ManagedItem *,std::less<unsigned int>,std::allocator<std::pair<unsigned int const ,ManagedItem *> >,0> > >::operator->
; Function compile flags: /Ogtp
;	COMDAT ??C?$_Tree_iterator@V?$_Tree_val@V?$_Tmap_traits@IPAVManagedItem@@U?$less@I@std@@V?$allocator@U?$pair@$$CBIPAVManagedItem@@@std@@@3@$0A@@std@@@std@@@std@@QBEPAU?$pair@$$CBIPAVManagedItem@@@1@XZ
_TEXT	SEGMENT
??C?$_Tree_iterator@V?$_Tree_val@V?$_Tmap_traits@IPAVManagedItem@@U?$less@I@std@@V?$allocator@U?$pair@$$CBIPAVManagedItem@@@std@@@3@$0A@@std@@@std@@@std@@QBEPAU?$pair@$$CBIPAVManagedItem@@@1@XZ PROC ; std::_Tree_iterator<std::_Tree_val<std::_Tmap_traits<unsigned int,ManagedItem *,std::less<unsigned int>,std::allocator<std::pair<unsigned int const ,ManagedItem *> >,0> > >::operator->, COMDAT
; _this$ = ecx
; Line 401
	mov	eax, DWORD PTR [ecx]
	add	eax, 12					; 0000000cH
; Line 402
	ret	0
??C?$_Tree_iterator@V?$_Tree_val@V?$_Tmap_traits@IPAVManagedItem@@U?$less@I@std@@V?$allocator@U?$pair@$$CBIPAVManagedItem@@@std@@@3@$0A@@std@@@std@@@std@@QBEPAU?$pair@$$CBIPAVManagedItem@@@1@XZ ENDP ; std::_Tree_iterator<std::_Tree_val<std::_Tmap_traits<unsigned int,ManagedItem *,std::less<unsigned int>,std::allocator<std::pair<unsigned int const ,ManagedItem *> >,0> > >::operator->
_TEXT	ENDS
PUBLIC	??C?$_Vector_iterator@V?$_Vector_val@V?$basic_string@DU?$char_traits@D@std@@V?$allocator@D@2@@std@@V?$allocator@V?$basic_string@DU?$char_traits@D@std@@V?$allocator@D@2@@std@@@2@@std@@@std@@QBEPAV?$basic_string@DU?$char_traits@D@std@@V?$allocator@D@2@@1@XZ ; std::_Vector_iterator<std::_Vector_val<std::basic_string<char,std::char_traits<char>,std::allocator<char> >,std::allocator<std::basic_string<char,std::char_traits<char>,std::allocator<char> > > > >::operator->
; Function compile flags: /Ogtp
;	COMDAT ??C?$_Vector_iterator@V?$_Vector_val@V?$basic_string@DU?$char_traits@D@std@@V?$allocator@D@2@@std@@V?$allocator@V?$basic_string@DU?$char_traits@D@std@@V?$allocator@D@2@@std@@@2@@std@@@std@@QBEPAV?$basic_string@DU?$char_traits@D@std@@V?$allocator@D@2@@1@XZ
_TEXT	SEGMENT
??C?$_Vector_iterator@V?$_Vector_val@V?$basic_string@DU?$char_traits@D@std@@V?$allocator@D@2@@std@@V?$allocator@V?$basic_string@DU?$char_traits@D@std@@V?$allocator@D@2@@std@@@2@@std@@@std@@QBEPAV?$basic_string@DU?$char_traits@D@std@@V?$allocator@D@2@@1@XZ PROC ; std::_Vector_iterator<std::_Vector_val<std::basic_string<char,std::char_traits<char>,std::allocator<char> >,std::allocator<std::basic_string<char,std::char_traits<char>,std::allocator<char> > > > >::operator->, COMDAT
; _this$ = ecx
; File c:\program files (x86)\microsoft visual studio 10.0\vc\include\vector
; Line 327
	mov	eax, DWORD PTR [ecx]
; Line 328
	ret	0
??C?$_Vector_iterator@V?$_Vector_val@V?$basic_string@DU?$char_traits@D@std@@V?$allocator@D@2@@std@@V?$allocator@V?$basic_string@DU?$char_traits@D@std@@V?$allocator@D@2@@std@@@2@@std@@@std@@QBEPAV?$basic_string@DU?$char_traits@D@std@@V?$allocator@D@2@@1@XZ ENDP ; std::_Vector_iterator<std::_Vector_val<std::basic_string<char,std::char_traits<char>,std::allocator<char> >,std::allocator<std::basic_string<char,std::char_traits<char>,std::allocator<char> > > > >::operator->
_TEXT	ENDS
PUBLIC	??E?$_Vector_iterator@V?$_Vector_val@V?$basic_string@DU?$char_traits@D@std@@V?$allocator@D@2@@std@@V?$allocator@V?$basic_string@DU?$char_traits@D@std@@V?$allocator@D@2@@std@@@2@@std@@@std@@QAE?AV01@H@Z ; std::_Vector_iterator<std::_Vector_val<std::basic_string<char,std::char_traits<char>,std::allocator<char> >,std::allocator<std::basic_string<char,std::char_traits<char>,std::allocator<char> > > > >::operator++
; Function compile flags: /Ogtp
;	COMDAT ??E?$_Vector_iterator@V?$_Vector_val@V?$basic_string@DU?$char_traits@D@std@@V?$allocator@D@2@@std@@V?$allocator@V?$basic_string@DU?$char_traits@D@std@@V?$allocator@D@2@@std@@@2@@std@@@std@@QAE?AV01@H@Z
_TEXT	SEGMENT
___$ReturnUdt$ = 8					; size = 4
___formal$ = 12						; size = 4
??E?$_Vector_iterator@V?$_Vector_val@V?$basic_string@DU?$char_traits@D@std@@V?$allocator@D@2@@std@@V?$allocator@V?$basic_string@DU?$char_traits@D@std@@V?$allocator@D@2@@std@@@2@@std@@@std@@QAE?AV01@H@Z PROC ; std::_Vector_iterator<std::_Vector_val<std::basic_string<char,std::char_traits<char>,std::allocator<char> >,std::allocator<std::basic_string<char,std::char_traits<char>,std::allocator<char> > > > >::operator++, COMDAT
; _this$ = ecx
; Line 337
	push	ebp
	mov	ebp, esp
; Line 338
	mov	edx, DWORD PTR [ecx]
	mov	eax, DWORD PTR ___$ReturnUdt$[ebp]
	mov	DWORD PTR [eax], edx
; Line 339
	add	edx, 28					; 0000001cH
	mov	DWORD PTR [ecx], edx
; Line 341
	pop	ebp
	ret	8
??E?$_Vector_iterator@V?$_Vector_val@V?$basic_string@DU?$char_traits@D@std@@V?$allocator@D@2@@std@@V?$allocator@V?$basic_string@DU?$char_traits@D@std@@V?$allocator@D@2@@std@@@2@@std@@@std@@QAE?AV01@H@Z ENDP ; std::_Vector_iterator<std::_Vector_val<std::basic_string<char,std::char_traits<char>,std::allocator<char> >,std::allocator<std::basic_string<char,std::char_traits<char>,std::allocator<char> > > > >::operator++
_TEXT	ENDS
PUBLIC	??9?$_Vector_const_iterator@V?$_Vector_val@V?$basic_string@DU?$char_traits@D@std@@V?$allocator@D@2@@std@@V?$allocator@V?$basic_string@DU?$char_traits@D@std@@V?$allocator@D@2@@std@@@2@@std@@@std@@QBE_NABV01@@Z ; std::_Vector_const_iterator<std::_Vector_val<std::basic_string<char,std::char_traits<char>,std::allocator<char> >,std::allocator<std::basic_string<char,std::char_traits<char>,std::allocator<char> > > > >::operator!=
; Function compile flags: /Ogtp
;	COMDAT ??9?$_Vector_const_iterator@V?$_Vector_val@V?$basic_string@DU?$char_traits@D@std@@V?$allocator@D@2@@std@@V?$allocator@V?$basic_string@DU?$char_traits@D@std@@V?$allocator@D@2@@std@@@2@@std@@@std@@QBE_NABV01@@Z
_TEXT	SEGMENT
__Right$ = 8						; size = 4
??9?$_Vector_const_iterator@V?$_Vector_val@V?$basic_string@DU?$char_traits@D@std@@V?$allocator@D@2@@std@@V?$allocator@V?$basic_string@DU?$char_traits@D@std@@V?$allocator@D@2@@std@@@2@@std@@@std@@QBE_NABV01@@Z PROC ; std::_Vector_const_iterator<std::_Vector_val<std::basic_string<char,std::char_traits<char>,std::allocator<char> >,std::allocator<std::basic_string<char,std::char_traits<char>,std::allocator<char> > > > >::operator!=, COMDAT
; _this$ = ecx
; Line 207
	push	ebp
	mov	ebp, esp
; Line 208
	mov	eax, DWORD PTR [ecx]
	mov	edx, DWORD PTR __Right$[ebp]
	xor	ecx, ecx
	cmp	eax, DWORD PTR [edx]
	setne	al
; Line 209
	pop	ebp
	ret	4
??9?$_Vector_const_iterator@V?$_Vector_val@V?$basic_string@DU?$char_traits@D@std@@V?$allocator@D@2@@std@@V?$allocator@V?$basic_string@DU?$char_traits@D@std@@V?$allocator@D@2@@std@@@2@@std@@@std@@QBE_NABV01@@Z ENDP ; std::_Vector_const_iterator<std::_Vector_val<std::basic_string<char,std::char_traits<char>,std::allocator<char> >,std::allocator<std::basic_string<char,std::char_traits<char>,std::allocator<char> > > > >::operator!=
_TEXT	ENDS
PUBLIC	?_Tidy@?$basic_string@DU?$char_traits@D@std@@V?$allocator@D@2@@std@@QAEX_NI@Z ; std::basic_string<char,std::char_traits<char>,std::allocator<char> >::_Tidy
; Function compile flags: /Ogtp
;	COMDAT ?_Tidy@?$basic_string@DU?$char_traits@D@std@@V?$allocator@D@2@@std@@QAEX_NI@Z
_TEXT	SEGMENT
__Built$ = 8						; size = 1
__Newsize$ = 12						; size = 4
?_Tidy@?$basic_string@DU?$char_traits@D@std@@V?$allocator@D@2@@std@@QAEX_NI@Z PROC ; std::basic_string<char,std::char_traits<char>,std::allocator<char> >::_Tidy, COMDAT
; _this$ = ecx
; File c:\program files (x86)\microsoft visual studio 10.0\vc\include\xstring
; Line 1987
	push	ebp
	mov	ebp, esp
; Line 1988
	cmp	BYTE PTR __Built$[ebp], 0
	push	esi
	push	edi
	mov	edi, DWORD PTR __Newsize$[ebp]
	mov	esi, ecx
	je	SHORT $LN9@Tidy
; Line 1990
	cmp	DWORD PTR [esi+20], 16			; 00000010H
	jb	SHORT $LN9@Tidy
; Line 1992
	push	ebx
	mov	ebx, DWORD PTR [esi]
; Line 1993
	test	edi, edi
	je	SHORT $LN7@Tidy
; Line 1994
	push	edi
	push	ebx
	push	esi
	call	_memcpy
	add	esp, 12					; 0000000cH
$LN7@Tidy:
; Line 1995
	push	ebx
	call	??3@YAXPAX@Z				; operator delete
	add	esp, 4
	pop	ebx
$LN9@Tidy:
; Line 1998
	mov	DWORD PTR [esi+16], edi
	mov	DWORD PTR [esi+20], 15			; 0000000fH
	mov	BYTE PTR [edi+esi], 0
	pop	edi
	pop	esi
; Line 1999
	pop	ebp
	ret	8
?_Tidy@?$basic_string@DU?$char_traits@D@std@@V?$allocator@D@2@@std@@QAEX_NI@Z ENDP ; std::basic_string<char,std::char_traits<char>,std::allocator<char> >::_Tidy
_TEXT	ENDS
PUBLIC	??0?$_Tree_iterator@V?$_Tree_val@V?$_Tmap_traits@IPAVManagedItem@@U?$less@I@std@@V?$allocator@U?$pair@$$CBIPAVManagedItem@@@std@@@3@$0A@@std@@@std@@@std@@QAE@PAU_Node@?$_Tree_nod@V?$_Tmap_traits@IPAVManagedItem@@U?$less@I@std@@V?$allocator@U?$pair@$$CBIPAVManagedItem@@@std@@@3@$0A@@std@@@1@PBV?$_Tree_val@V?$_Tmap_traits@IPAVManagedItem@@U?$less@I@std@@V?$allocator@U?$pair@$$CBIPAVManagedItem@@@std@@@3@$0A@@std@@@1@@Z ; std::_Tree_iterator<std::_Tree_val<std::_Tmap_traits<unsigned int,ManagedItem *,std::less<unsigned int>,std::allocator<std::pair<unsigned int const ,ManagedItem *> >,0> > >::_Tree_iterator<std::_Tree_val<std::_Tmap_traits<unsigned int,ManagedItem *,std::less<unsigned int>,std::allocator<std::pair<unsigned int const ,ManagedItem *> >,0> > >
; Function compile flags: /Ogtp
;	COMDAT ??0?$_Tree_iterator@V?$_Tree_val@V?$_Tmap_traits@IPAVManagedItem@@U?$less@I@std@@V?$allocator@U?$pair@$$CBIPAVManagedItem@@@std@@@3@$0A@@std@@@std@@@std@@QAE@PAU_Node@?$_Tree_nod@V?$_Tmap_traits@IPAVManagedItem@@U?$less@I@std@@V?$allocator@U?$pair@$$CBIPAVManagedItem@@@std@@@3@$0A@@std@@@1@PBV?$_Tree_val@V?$_Tmap_traits@IPAVManagedItem@@U?$less@I@std@@V?$allocator@U?$pair@$$CBIPAVManagedItem@@@std@@@3@$0A@@std@@@1@@Z
_TEXT	SEGMENT
__Pnode$ = 8						; size = 4
__Plist$ = 12						; size = 4
??0?$_Tree_iterator@V?$_Tree_val@V?$_Tmap_traits@IPAVManagedItem@@U?$less@I@std@@V?$allocator@U?$pair@$$CBIPAVManagedItem@@@std@@@3@$0A@@std@@@std@@@std@@QAE@PAU_Node@?$_Tree_nod@V?$_Tmap_traits@IPAVManagedItem@@U?$less@I@std@@V?$allocator@U?$pair@$$CBIPAVManagedItem@@@std@@@3@$0A@@std@@@1@PBV?$_Tree_val@V?$_Tmap_traits@IPAVManagedItem@@U?$less@I@std@@V?$allocator@U?$pair@$$CBIPAVManagedItem@@@std@@@3@$0A@@std@@@1@@Z PROC ; std::_Tree_iterator<std::_Tree_val<std::_Tmap_traits<unsigned int,ManagedItem *,std::less<unsigned int>,std::allocator<std::pair<unsigned int const ,ManagedItem *> >,0> > >::_Tree_iterator<std::_Tree_val<std::_Tmap_traits<unsigned int,ManagedItem *,std::less<unsigned int>,std::allocator<std::pair<unsigned int const ,ManagedItem *> >,0> > >, COMDAT
; _this$ = ecx
; File c:\program files (x86)\microsoft visual studio 10.0\vc\include\xtree
; Line 378
	push	ebp
	mov	ebp, esp
	mov	eax, ecx
	mov	ecx, DWORD PTR __Pnode$[ebp]
	mov	DWORD PTR [eax], ecx
; Line 379
	pop	ebp
	ret	8
??0?$_Tree_iterator@V?$_Tree_val@V?$_Tmap_traits@IPAVManagedItem@@U?$less@I@std@@V?$allocator@U?$pair@$$CBIPAVManagedItem@@@std@@@3@$0A@@std@@@std@@@std@@QAE@PAU_Node@?$_Tree_nod@V?$_Tmap_traits@IPAVManagedItem@@U?$less@I@std@@V?$allocator@U?$pair@$$CBIPAVManagedItem@@@std@@@3@$0A@@std@@@1@PBV?$_Tree_val@V?$_Tmap_traits@IPAVManagedItem@@U?$less@I@std@@V?$allocator@U?$pair@$$CBIPAVManagedItem@@@std@@@3@$0A@@std@@@1@@Z ENDP ; std::_Tree_iterator<std::_Tree_val<std::_Tmap_traits<unsigned int,ManagedItem *,std::less<unsigned int>,std::allocator<std::pair<unsigned int const ,ManagedItem *> >,0> > >::_Tree_iterator<std::_Tree_val<std::_Tmap_traits<unsigned int,ManagedItem *,std::less<unsigned int>,std::allocator<std::pair<unsigned int const ,ManagedItem *> >,0> > >
_TEXT	ENDS
PUBLIC	??E?$_Tree_iterator@V?$_Tree_val@V?$_Tmap_traits@IPAVManagedItem@@U?$less@I@std@@V?$allocator@U?$pair@$$CBIPAVManagedItem@@@std@@@3@$0A@@std@@@std@@@std@@QAEAAV01@XZ ; std::_Tree_iterator<std::_Tree_val<std::_Tmap_traits<unsigned int,ManagedItem *,std::less<unsigned int>,std::allocator<std::pair<unsigned int const ,ManagedItem *> >,0> > >::operator++
; Function compile flags: /Ogtp
;	COMDAT ??E?$_Tree_iterator@V?$_Tree_val@V?$_Tmap_traits@IPAVManagedItem@@U?$less@I@std@@V?$allocator@U?$pair@$$CBIPAVManagedItem@@@std@@@3@$0A@@std@@@std@@@std@@QAEAAV01@XZ
_TEXT	SEGMENT
??E?$_Tree_iterator@V?$_Tree_val@V?$_Tmap_traits@IPAVManagedItem@@U?$less@I@std@@V?$allocator@U?$pair@$$CBIPAVManagedItem@@@std@@@3@$0A@@std@@@std@@@std@@QAEAAV01@XZ PROC ; std::_Tree_iterator<std::_Tree_val<std::_Tmap_traits<unsigned int,ManagedItem *,std::less<unsigned int>,std::allocator<std::pair<unsigned int const ,ManagedItem *> >,0> > >::operator++, COMDAT
; _this$ = ecx
; Line 405
	push	esi
	mov	esi, ecx
; Line 406
	call	??E?$_Tree_unchecked_const_iterator@V?$_Tree_val@V?$_Tmap_traits@IPAVManagedItem@@U?$less@I@std@@V?$allocator@U?$pair@$$CBIPAVManagedItem@@@std@@@3@$0A@@std@@@std@@U_Iterator_base0@2@@std@@QAEAAV01@XZ ; std::_Tree_unchecked_const_iterator<std::_Tree_val<std::_Tmap_traits<unsigned int,ManagedItem *,std::less<unsigned int>,std::allocator<std::pair<unsigned int const ,ManagedItem *> >,0> >,std::_Iterator_base0>::operator++
; Line 407
	mov	eax, esi
	pop	esi
; Line 408
	ret	0
??E?$_Tree_iterator@V?$_Tree_val@V?$_Tmap_traits@IPAVManagedItem@@U?$less@I@std@@V?$allocator@U?$pair@$$CBIPAVManagedItem@@@std@@@3@$0A@@std@@@std@@@std@@QAEAAV01@XZ ENDP ; std::_Tree_iterator<std::_Tree_val<std::_Tmap_traits<unsigned int,ManagedItem *,std::less<unsigned int>,std::allocator<std::pair<unsigned int const ,ManagedItem *> >,0> > >::operator++
_TEXT	ENDS
PUBLIC	??F?$_Tree_iterator@V?$_Tree_val@V?$_Tmap_traits@IPAVManagedItem@@U?$less@I@std@@V?$allocator@U?$pair@$$CBIPAVManagedItem@@@std@@@3@$0A@@std@@@std@@@std@@QAEAAV01@XZ ; std::_Tree_iterator<std::_Tree_val<std::_Tmap_traits<unsigned int,ManagedItem *,std::less<unsigned int>,std::allocator<std::pair<unsigned int const ,ManagedItem *> >,0> > >::operator--
; Function compile flags: /Ogtp
;	COMDAT ??F?$_Tree_iterator@V?$_Tree_val@V?$_Tmap_traits@IPAVManagedItem@@U?$less@I@std@@V?$allocator@U?$pair@$$CBIPAVManagedItem@@@std@@@3@$0A@@std@@@std@@@std@@QAEAAV01@XZ
_TEXT	SEGMENT
??F?$_Tree_iterator@V?$_Tree_val@V?$_Tmap_traits@IPAVManagedItem@@U?$less@I@std@@V?$allocator@U?$pair@$$CBIPAVManagedItem@@@std@@@3@$0A@@std@@@std@@@std@@QAEAAV01@XZ PROC ; std::_Tree_iterator<std::_Tree_val<std::_Tmap_traits<unsigned int,ManagedItem *,std::less<unsigned int>,std::allocator<std::pair<unsigned int const ,ManagedItem *> >,0> > >::operator--, COMDAT
; _this$ = ecx
; Line 418
	push	esi
	mov	esi, ecx
; Line 419
	call	??F?$_Tree_unchecked_const_iterator@V?$_Tree_val@V?$_Tmap_traits@IPAVManagedItem@@U?$less@I@std@@V?$allocator@U?$pair@$$CBIPAVManagedItem@@@std@@@3@$0A@@std@@@std@@U_Iterator_base0@2@@std@@QAEAAV01@XZ ; std::_Tree_unchecked_const_iterator<std::_Tree_val<std::_Tmap_traits<unsigned int,ManagedItem *,std::less<unsigned int>,std::allocator<std::pair<unsigned int const ,ManagedItem *> >,0> >,std::_Iterator_base0>::operator--
; Line 420
	mov	eax, esi
	pop	esi
; Line 421
	ret	0
??F?$_Tree_iterator@V?$_Tree_val@V?$_Tmap_traits@IPAVManagedItem@@U?$less@I@std@@V?$allocator@U?$pair@$$CBIPAVManagedItem@@@std@@@3@$0A@@std@@@std@@@std@@QAEAAV01@XZ ENDP ; std::_Tree_iterator<std::_Tree_val<std::_Tmap_traits<unsigned int,ManagedItem *,std::less<unsigned int>,std::allocator<std::pair<unsigned int const ,ManagedItem *> >,0> > >::operator--
_TEXT	ENDS
PUBLIC	?erase@?$basic_string@DU?$char_traits@D@std@@V?$allocator@D@2@@std@@QAEAAV12@II@Z ; std::basic_string<char,std::char_traits<char>,std::allocator<char> >::erase
; Function compile flags: /Ogtp
;	COMDAT ?erase@?$basic_string@DU?$char_traits@D@std@@V?$allocator@D@2@@std@@QAEAAV12@II@Z
_TEXT	SEGMENT
__Off$ = 8						; size = 4
__Count$ = 12						; size = 4
?erase@?$basic_string@DU?$char_traits@D@std@@V?$allocator@D@2@@std@@QAEAAV12@II@Z PROC ; std::basic_string<char,std::char_traits<char>,std::allocator<char> >::erase, COMDAT
; _this$ = ecx
; File c:\program files (x86)\microsoft visual studio 10.0\vc\include\xstring
; Line 1108
	push	ebp
	mov	ebp, esp
	push	esi
	mov	esi, ecx
; Line 1109
	mov	eax, DWORD PTR [esi+16]
	mov	ecx, DWORD PTR __Off$[ebp]
	push	edi
	cmp	eax, ecx
	jae	SHORT $LN3@erase
; Line 1110
	push	OFFSET ??_C@_0BI@CFPLBAOH@invalid?5string?5position?$AA@
	call	DWORD PTR __imp_?_Xout_of_range@std@@YAXPBD@Z
$LN28@erase:
$LN3@erase:
; Line 1111
	mov	edi, DWORD PTR __Count$[ebp]
	sub	eax, ecx
	cmp	eax, edi
	jae	SHORT $LN2@erase
; Line 1112
	mov	edi, eax
$LN2@erase:
; Line 1113
	test	edi, edi
	je	SHORT $LN25@erase
; Line 1116
	mov	edx, DWORD PTR [esi+20]
	push	ebx
	cmp	edx, 16					; 00000010H
	jb	SHORT $LN11@erase
	mov	ebx, DWORD PTR [esi]
	jmp	SHORT $LN12@erase
$LN11@erase:
	mov	ebx, esi
$LN12@erase:
	cmp	edx, 16					; 00000010H
	jb	SHORT $LN15@erase
	mov	edx, DWORD PTR [esi]
	jmp	SHORT $LN16@erase
$LN15@erase:
	mov	edx, esi
$LN16@erase:
	sub	eax, edi
	add	ebx, ecx
	push	eax
	add	ebx, edi
	add	edx, ecx
	push	ebx
	push	edx
	call	DWORD PTR __imp__memmove
; Line 1117
	mov	eax, DWORD PTR [esi+16]
	add	esp, 12					; 0000000cH
	sub	eax, edi
; Line 1118
	cmp	DWORD PTR [esi+20], 16			; 00000010H
	mov	DWORD PTR [esi+16], eax
	pop	ebx
	jb	SHORT $LN23@erase
	mov	ecx, DWORD PTR [esi]
	mov	BYTE PTR [ecx+eax], 0
	pop	edi
; Line 1120
	mov	eax, esi
	pop	esi
; Line 1121
	pop	ebp
	ret	8
; Line 1118
$LN23@erase:
	mov	ecx, esi
	mov	BYTE PTR [ecx+eax], 0
$LN25@erase:
; Line 1120
	pop	edi
	mov	eax, esi
	pop	esi
; Line 1121
	pop	ebp
	ret	8
$LN27@erase:
?erase@?$basic_string@DU?$char_traits@D@std@@V?$allocator@D@2@@std@@QAEAAV12@II@Z ENDP ; std::basic_string<char,std::char_traits<char>,std::allocator<char> >::erase
_TEXT	ENDS
PUBLIC	?_Copy@?$basic_string@DU?$char_traits@D@std@@V?$allocator@D@2@@std@@QAEXII@Z ; std::basic_string<char,std::char_traits<char>,std::allocator<char> >::_Copy
EXTRN	___CxxFrameHandler3:PROC
;	COMDAT xdata$x
; File c:\program files (x86)\microsoft visual studio 10.0\vc\include\iosfwd
xdata$x	SEGMENT
__catchsym$?_Copy@?$basic_string@DU?$char_traits@D@std@@V?$allocator@D@2@@std@@QAEXII@Z$5 DD 040H
	DD	00H
	DD	00H
	DD	FLAT:__catch$?_Copy@?$basic_string@DU?$char_traits@D@std@@V?$allocator@D@2@@std@@QAEXII@Z$0
__catchsym$?_Copy@?$basic_string@DU?$char_traits@D@std@@V?$allocator@D@2@@std@@QAEXII@Z$4 DD 040H
	DD	00H
	DD	00H
	DD	FLAT:__catch$?_Copy@?$basic_string@DU?$char_traits@D@std@@V?$allocator@D@2@@std@@QAEXII@Z$1
__unwindtable$?_Copy@?$basic_string@DU?$char_traits@D@std@@V?$allocator@D@2@@std@@QAEXII@Z DD 0ffffffffH
	DD	00H
	DD	0ffffffffH
	DD	00H
	DD	01H
	DD	00H
	DD	01H
	DD	00H
__ehfuncinfo$?_Copy@?$basic_string@DU?$char_traits@D@std@@V?$allocator@D@2@@std@@QAEXII@Z DD 019930522H
	DD	04H
	DD	FLAT:__unwindtable$?_Copy@?$basic_string@DU?$char_traits@D@std@@V?$allocator@D@2@@std@@QAEXII@Z
	DD	02H
	DD	FLAT:__tryblocktable$?_Copy@?$basic_string@DU?$char_traits@D@std@@V?$allocator@D@2@@std@@QAEXII@Z
	DD	2 DUP(00H)
	DD	00H
	DD	01H
__tryblocktable$?_Copy@?$basic_string@DU?$char_traits@D@std@@V?$allocator@D@2@@std@@QAEXII@Z DD 02H
	DD	02H
	DD	03H
	DD	01H
	DD	FLAT:__catchsym$?_Copy@?$basic_string@DU?$char_traits@D@std@@V?$allocator@D@2@@std@@QAEXII@Z$4
	DD	00H
	DD	00H
	DD	03H
	DD	01H
	DD	FLAT:__catchsym$?_Copy@?$basic_string@DU?$char_traits@D@std@@V?$allocator@D@2@@std@@QAEXII@Z$5
; Function compile flags: /Ogtp
xdata$x	ENDS
;	COMDAT ?_Copy@?$basic_string@DU?$char_traits@D@std@@V?$allocator@D@2@@std@@QAEXII@Z
_TEXT	SEGMENT
$T130116 = -40						; size = 12
__Newres$ = -28						; size = 4
$T130100 = -24						; size = 4
_this$ = -20						; size = 4
__$EHRec$ = -16						; size = 16
__Ptr$ = 8						; size = 4
__Newsize$ = 8						; size = 4
__Oldlen$ = 12						; size = 4
?_Copy@?$basic_string@DU?$char_traits@D@std@@V?$allocator@D@2@@std@@QAEXII@Z PROC ; std::basic_string<char,std::char_traits<char>,std::allocator<char> >::_Copy, COMDAT
; _this$ = ecx
; File c:\program files (x86)\microsoft visual studio 10.0\vc\include\xstring
; Line 1918
	push	ebp
	mov	ebp, esp
	push	-1
	push	__ehhandler$?_Copy@?$basic_string@DU?$char_traits@D@std@@V?$allocator@D@2@@std@@QAEXII@Z
	mov	eax, DWORD PTR fs:0
	push	eax
	sub	esp, 28					; 0000001cH
	push	ebx
	push	esi
	push	edi
	mov	eax, DWORD PTR ___security_cookie
	xor	eax, ebp
	push	eax
	lea	eax, DWORD PTR __$EHRec$[ebp+4]
	mov	DWORD PTR fs:0, eax
	mov	DWORD PTR __$EHRec$[ebp], esp
	mov	edi, ecx
	mov	DWORD PTR _this$[ebp], edi
; Line 1919
	mov	eax, DWORD PTR __Newsize$[ebp]
	mov	esi, eax
	or	esi, 15					; 0000000fH
; Line 1920
	cmp	esi, -2					; fffffffeH
	jbe	SHORT $LN9@Copy
; Line 1921
	mov	esi, eax
	jmp	SHORT $LN39@Copy
$LN9@Copy:
; Line 1922
	mov	ebx, DWORD PTR [edi+20]
	mov	eax, -1431655765			; aaaaaaabH
	mul	esi
	mov	ecx, ebx
	shr	ecx, 1
	shr	edx, 1
	cmp	ecx, edx
	jbe	SHORT $LN39@Copy
; Line 1924
	mov	eax, -2					; fffffffeH
	sub	eax, ecx
; Line 1926
	lea	esi, DWORD PTR [ecx+ebx]
	cmp	ebx, eax
	jbe	SHORT $LN39@Copy
; Line 1928
	mov	esi, -2					; fffffffeH
$LN39@Copy:
; Line 1931
	xor	eax, eax
; Line 1932
	lea	ecx, DWORD PTR [esi+1]
	mov	DWORD PTR __$EHRec$[ebp+12], eax
	cmp	ecx, eax
	jbe	SHORT $LN47@Copy
	cmp	ecx, -1
	ja	SHORT $LN46@Copy
	push	ecx
	call	??2@YAPAXI@Z				; operator new
	add	esp, 4
	test	eax, eax
	je	SHORT $LN46@Copy
$LN47@Copy:
	mov	DWORD PTR __Ptr$[ebp], eax
	jmp	SHORT $LN19@Copy
$LN46@Copy:
	lea	ecx, DWORD PTR $T130100[ebp]
	push	ecx
	lea	ecx, DWORD PTR $T130116[ebp]
	mov	DWORD PTR $T130100[ebp], 0
	call	DWORD PTR __imp_??0exception@std@@QAE@ABQBD@Z
	push	OFFSET __TI2?AVbad_alloc@std@@
	lea	edx, DWORD PTR $T130116[ebp]
	push	edx
	mov	DWORD PTR $T130116[ebp], OFFSET ??_7bad_alloc@std@@6B@
	call	__CxxThrowException@8
$LN112@Copy:
__catch$?_Copy@?$basic_string@DU?$char_traits@D@std@@V?$allocator@D@2@@std@@QAEXII@Z$0:
; Line 1934
	mov	eax, DWORD PTR __Newsize$[ebp]
; Line 1936
	mov	ecx, DWORD PTR _this$[ebp]
	mov	DWORD PTR __Newres$[ebp], eax
	inc	eax
	mov	DWORD PTR __$EHRec$[ebp], esp
	push	eax
	add	ecx, 24					; 00000018H
	mov	BYTE PTR __$EHRec$[ebp+12], 2
	call	?allocate@?$allocator@D@std@@QAEPADI@Z	; std::allocator<char>::allocate
	mov	DWORD PTR __Ptr$[ebp], eax
; Line 1941
	mov	eax, $LN107@Copy
	ret	0
$LN107@Copy:
	mov	edi, DWORD PTR _this$[ebp]
	mov	esi, DWORD PTR __Newres$[ebp]
$LN19@Copy:
; Line 1943
	mov	ebx, DWORD PTR __Oldlen$[ebp]
	test	ebx, ebx
	je	SHORT $LN78@Copy
; Line 1944
	cmp	DWORD PTR [edi+20], 16			; 00000010H
	jb	SHORT $LN76@Copy
	mov	eax, DWORD PTR [edi]
	jmp	SHORT $LN77@Copy
$LN76@Copy:
	mov	eax, edi
$LN77@Copy:
	push	ebx
	push	eax
	mov	eax, DWORD PTR __Ptr$[ebp]
	push	eax
	call	_memcpy
	add	esp, 12					; 0000000cH
$LN78@Copy:
; Line 1945
	cmp	DWORD PTR [edi+20], 16			; 00000010H
	jb	SHORT $LN88@Copy
	mov	ecx, DWORD PTR [edi]
	push	ecx
	call	??3@YAXPAX@Z				; operator delete
	add	esp, 4
$LN88@Copy:
; Line 1946
	mov	eax, DWORD PTR __Ptr$[ebp]
	mov	BYTE PTR [edi], 0
	mov	DWORD PTR [edi], eax
; Line 1947
	mov	DWORD PTR [edi+20], esi
; Line 1948
	mov	DWORD PTR [edi+16], ebx
	cmp	esi, 16					; 00000010H
	jb	SHORT $LN102@Copy
	mov	edi, eax
$LN102@Copy:
	mov	BYTE PTR [edi+ebx], 0
; Line 1949
	mov	ecx, DWORD PTR __$EHRec$[ebp+4]
	mov	DWORD PTR fs:0, ecx
	pop	ecx
	pop	edi
	pop	esi
	pop	ebx
	mov	esp, ebp
	pop	ebp
	ret	8
__catch$?_Copy@?$basic_string@DU?$char_traits@D@std@@V?$allocator@D@2@@std@@QAEXII@Z$1:
; Line 1938
	mov	esi, DWORD PTR _this$[ebp]
	cmp	DWORD PTR [esi+20], 16			; 00000010H
	jb	SHORT $LN64@Copy
	mov	edx, DWORD PTR [esi]
	push	edx
	call	??3@YAXPAX@Z				; operator delete
	add	esp, 4
$LN64@Copy:
; Line 1939
	push	0
	mov	DWORD PTR [esi+20], 15			; 0000000fH
	mov	DWORD PTR [esi+16], 0
	push	0
	mov	BYTE PTR [esi], 0
	call	__CxxThrowException@8
$LN113@Copy:
$LN111@Copy:
	int	3
_TEXT	ENDS
;	COMDAT text$x
text$x	SEGMENT
__ehhandler$?_Copy@?$basic_string@DU?$char_traits@D@std@@V?$allocator@D@2@@std@@QAEXII@Z:
	mov	edx, DWORD PTR [esp+8]
	lea	eax, DWORD PTR [edx+12]
	mov	ecx, DWORD PTR [edx-44]
	xor	ecx, eax
	call	@__security_check_cookie@4
	mov	eax, OFFSET __ehfuncinfo$?_Copy@?$basic_string@DU?$char_traits@D@std@@V?$allocator@D@2@@std@@QAEXII@Z
	jmp	___CxxFrameHandler3
text$x	ENDS
?_Copy@?$basic_string@DU?$char_traits@D@std@@V?$allocator@D@2@@std@@QAEXII@Z ENDP ; std::basic_string<char,std::char_traits<char>,std::allocator<char> >::_Copy
PUBLIC	?checkTileset@@YAHPBD@Z				; checkTileset
; Function compile flags: /Ogtp
_TEXT	SEGMENT
_Texture$ = 8						; size = 4
?checkTileset@@YAHPBD@Z PROC				; checkTileset
; File c:\programovani\wow editor\test\src\editor\texturingui.cpp
; Line 121
	push	ebp
	mov	ebp, esp
	push	ebx
	push	esi
; Line 124
	mov	esi, DWORD PTR ?tilesetDirectories@@3V?$vector@V?$basic_string@DU?$char_traits@D@std@@V?$allocator@D@2@@std@@V?$allocator@V?$basic_string@DU?$char_traits@D@std@@V?$allocator@D@2@@std@@@2@@std@@A
	push	edi
	xor	edi, edi
	cmp	esi, DWORD PTR ?tilesetDirectories@@3V?$vector@V?$basic_string@DU?$char_traits@D@std@@V?$allocator@D@2@@std@@V?$allocator@V?$basic_string@DU?$char_traits@D@std@@V?$allocator@D@2@@std@@@2@@std@@A+4
	je	SHORT $LN2@checkTiles
	mov	ebx, DWORD PTR _Texture$[ebp]
	npad	7
$LL23@checkTiles:
; Line 126
	cmp	DWORD PTR [esi+20], 16			; 00000010H
	jb	SHORT $LN49@checkTiles
	mov	eax, DWORD PTR [esi]
	jmp	SHORT $LN50@checkTiles
$LN49@checkTiles:
	mov	eax, esi
$LN50@checkTiles:
	push	eax
	push	ebx
	call	DWORD PTR __imp__strstr
	add	esp, 8
	test	eax, eax
	jne	SHORT $LN52@checkTiles
; Line 128
	add	esi, 28					; 0000001cH
	inc	edi
	cmp	esi, DWORD PTR ?tilesetDirectories@@3V?$vector@V?$basic_string@DU?$char_traits@D@std@@V?$allocator@D@2@@std@@V?$allocator@V?$basic_string@DU?$char_traits@D@std@@V?$allocator@D@2@@std@@@2@@std@@A+4
	jne	SHORT $LL23@checkTiles
$LN2@checkTiles:
	pop	edi
	pop	esi
; Line 130
	or	eax, -1
	pop	ebx
; Line 131
	pop	ebp
	ret	0
$LN52@checkTiles:
; Line 127
	mov	eax, edi
	pop	edi
	pop	esi
	pop	ebx
; Line 131
	pop	ebp
	ret	0
?checkTileset@@YAHPBD@Z ENDP				; checkTileset
_TEXT	ENDS
PUBLIC	??0?$basic_string@DU?$char_traits@D@std@@V?$allocator@D@2@@std@@QAE@XZ ; std::basic_string<char,std::char_traits<char>,std::allocator<char> >::basic_string<char,std::char_traits<char>,std::allocator<char> >
; Function compile flags: /Ogtp
;	COMDAT ??0?$basic_string@DU?$char_traits@D@std@@V?$allocator@D@2@@std@@QAE@XZ
_TEXT	SEGMENT
??0?$basic_string@DU?$char_traits@D@std@@V?$allocator@D@2@@std@@QAE@XZ PROC ; std::basic_string<char,std::char_traits<char>,std::allocator<char> >::basic_string<char,std::char_traits<char>,std::allocator<char> >, COMDAT
; _this$ = ecx
; File c:\program files (x86)\microsoft visual studio 10.0\vc\include\xstring
; Line 550
	mov	eax, ecx
; Line 551
	mov	DWORD PTR [eax+20], 15			; 0000000fH
	mov	DWORD PTR [eax+16], 0
	mov	BYTE PTR [eax], 0
; Line 552
	ret	0
??0?$basic_string@DU?$char_traits@D@std@@V?$allocator@D@2@@std@@QAE@XZ ENDP ; std::basic_string<char,std::char_traits<char>,std::allocator<char> >::basic_string<char,std::char_traits<char>,std::allocator<char> >
_TEXT	ENDS
PUBLIC	??1?$basic_string@DU?$char_traits@D@std@@V?$allocator@D@2@@std@@QAE@XZ ; std::basic_string<char,std::char_traits<char>,std::allocator<char> >::~basic_string<char,std::char_traits<char>,std::allocator<char> >
; Function compile flags: /Ogtp
;	COMDAT ??1?$basic_string@DU?$char_traits@D@std@@V?$allocator@D@2@@std@@QAE@XZ
_TEXT	SEGMENT
??1?$basic_string@DU?$char_traits@D@std@@V?$allocator@D@2@@std@@QAE@XZ PROC ; std::basic_string<char,std::char_traits<char>,std::allocator<char> >::~basic_string<char,std::char_traits<char>,std::allocator<char> >, COMDAT
; _this$ = ecx
; Line 752
	push	esi
	mov	esi, ecx
; Line 753
	cmp	DWORD PTR [esi+20], 16			; 00000010H
	jb	SHORT $LN11@basic_stri
	mov	eax, DWORD PTR [esi]
	push	eax
	call	??3@YAXPAX@Z				; operator delete
	add	esp, 4
$LN11@basic_stri:
	mov	DWORD PTR [esi+20], 15			; 0000000fH
	mov	DWORD PTR [esi+16], 0
	mov	BYTE PTR [esi], 0
	pop	esi
; Line 754
	ret	0
??1?$basic_string@DU?$char_traits@D@std@@V?$allocator@D@2@@std@@QAE@XZ ENDP ; std::basic_string<char,std::char_traits<char>,std::allocator<char> >::~basic_string<char,std::char_traits<char>,std::allocator<char> >
_TEXT	ENDS
PUBLIC	?begin@?$_Tree@V?$_Tmap_traits@IPAVManagedItem@@U?$less@I@std@@V?$allocator@U?$pair@$$CBIPAVManagedItem@@@std@@@3@$0A@@std@@@std@@QAE?AV?$_Tree_iterator@V?$_Tree_val@V?$_Tmap_traits@IPAVManagedItem@@U?$less@I@std@@V?$allocator@U?$pair@$$CBIPAVManagedItem@@@std@@@3@$0A@@std@@@std@@@2@XZ ; std::_Tree<std::_Tmap_traits<unsigned int,ManagedItem *,std::less<unsigned int>,std::allocator<std::pair<unsigned int const ,ManagedItem *> >,0> >::begin
; Function compile flags: /Ogtp
;	COMDAT ?begin@?$_Tree@V?$_Tmap_traits@IPAVManagedItem@@U?$less@I@std@@V?$allocator@U?$pair@$$CBIPAVManagedItem@@@std@@@3@$0A@@std@@@std@@QAE?AV?$_Tree_iterator@V?$_Tree_val@V?$_Tmap_traits@IPAVManagedItem@@U?$less@I@std@@V?$allocator@U?$pair@$$CBIPAVManagedItem@@@std@@@3@$0A@@std@@@std@@@2@XZ
_TEXT	SEGMENT
___$ReturnUdt$ = 8					; size = 4
?begin@?$_Tree@V?$_Tmap_traits@IPAVManagedItem@@U?$less@I@std@@V?$allocator@U?$pair@$$CBIPAVManagedItem@@@std@@@3@$0A@@std@@@std@@QAE?AV?$_Tree_iterator@V?$_Tree_val@V?$_Tmap_traits@IPAVManagedItem@@U?$less@I@std@@V?$allocator@U?$pair@$$CBIPAVManagedItem@@@std@@@3@$0A@@std@@@std@@@2@XZ PROC ; std::_Tree<std::_Tmap_traits<unsigned int,ManagedItem *,std::less<unsigned int>,std::allocator<std::pair<unsigned int const ,ManagedItem *> >,0> >::begin, COMDAT
; _this$ = ecx
; File c:\program files (x86)\microsoft visual studio 10.0\vc\include\xtree
; Line 806
	push	ebp
	mov	ebp, esp
; Line 807
	mov	eax, DWORD PTR [ecx+4]
	mov	ecx, DWORD PTR [eax]
	mov	eax, DWORD PTR ___$ReturnUdt$[ebp]
	mov	DWORD PTR [eax], ecx
; Line 808
	pop	ebp
	ret	4
?begin@?$_Tree@V?$_Tmap_traits@IPAVManagedItem@@U?$less@I@std@@V?$allocator@U?$pair@$$CBIPAVManagedItem@@@std@@@3@$0A@@std@@@std@@QAE?AV?$_Tree_iterator@V?$_Tree_val@V?$_Tmap_traits@IPAVManagedItem@@U?$less@I@std@@V?$allocator@U?$pair@$$CBIPAVManagedItem@@@std@@@3@$0A@@std@@@std@@@2@XZ ENDP ; std::_Tree<std::_Tmap_traits<unsigned int,ManagedItem *,std::less<unsigned int>,std::allocator<std::pair<unsigned int const ,ManagedItem *> >,0> >::begin
_TEXT	ENDS
PUBLIC	?end@?$_Tree@V?$_Tmap_traits@IPAVManagedItem@@U?$less@I@std@@V?$allocator@U?$pair@$$CBIPAVManagedItem@@@std@@@3@$0A@@std@@@std@@QAE?AV?$_Tree_iterator@V?$_Tree_val@V?$_Tmap_traits@IPAVManagedItem@@U?$less@I@std@@V?$allocator@U?$pair@$$CBIPAVManagedItem@@@std@@@3@$0A@@std@@@std@@@2@XZ ; std::_Tree<std::_Tmap_traits<unsigned int,ManagedItem *,std::less<unsigned int>,std::allocator<std::pair<unsigned int const ,ManagedItem *> >,0> >::end
; Function compile flags: /Ogtp
;	COMDAT ?end@?$_Tree@V?$_Tmap_traits@IPAVManagedItem@@U?$less@I@std@@V?$allocator@U?$pair@$$CBIPAVManagedItem@@@std@@@3@$0A@@std@@@std@@QAE?AV?$_Tree_iterator@V?$_Tree_val@V?$_Tmap_traits@IPAVManagedItem@@U?$less@I@std@@V?$allocator@U?$pair@$$CBIPAVManagedItem@@@std@@@3@$0A@@std@@@std@@@2@XZ
_TEXT	SEGMENT
___$ReturnUdt$ = 8					; size = 4
?end@?$_Tree@V?$_Tmap_traits@IPAVManagedItem@@U?$less@I@std@@V?$allocator@U?$pair@$$CBIPAVManagedItem@@@std@@@3@$0A@@std@@@std@@QAE?AV?$_Tree_iterator@V?$_Tree_val@V?$_Tmap_traits@IPAVManagedItem@@U?$less@I@std@@V?$allocator@U?$pair@$$CBIPAVManagedItem@@@std@@@3@$0A@@std@@@std@@@2@XZ PROC ; std::_Tree<std::_Tmap_traits<unsigned int,ManagedItem *,std::less<unsigned int>,std::allocator<std::pair<unsigned int const ,ManagedItem *> >,0> >::end, COMDAT
; _this$ = ecx
; Line 816
	push	ebp
	mov	ebp, esp
; Line 817
	mov	ecx, DWORD PTR [ecx+4]
	mov	eax, DWORD PTR ___$ReturnUdt$[ebp]
	mov	DWORD PTR [eax], ecx
; Line 818
	pop	ebp
	ret	4
?end@?$_Tree@V?$_Tmap_traits@IPAVManagedItem@@U?$less@I@std@@V?$allocator@U?$pair@$$CBIPAVManagedItem@@@std@@@3@$0A@@std@@@std@@QAE?AV?$_Tree_iterator@V?$_Tree_val@V?$_Tmap_traits@IPAVManagedItem@@U?$less@I@std@@V?$allocator@U?$pair@$$CBIPAVManagedItem@@@std@@@3@$0A@@std@@@std@@@2@XZ ENDP ; std::_Tree<std::_Tmap_traits<unsigned int,ManagedItem *,std::less<unsigned int>,std::allocator<std::pair<unsigned int const ,ManagedItem *> >,0> >::end
_TEXT	ENDS
PUBLIC	??E?$_Tree_iterator@V?$_Tree_val@V?$_Tmap_traits@IPAVManagedItem@@U?$less@I@std@@V?$allocator@U?$pair@$$CBIPAVManagedItem@@@std@@@3@$0A@@std@@@std@@@std@@QAE?AV01@H@Z ; std::_Tree_iterator<std::_Tree_val<std::_Tmap_traits<unsigned int,ManagedItem *,std::less<unsigned int>,std::allocator<std::pair<unsigned int const ,ManagedItem *> >,0> > >::operator++
; Function compile flags: /Ogtp
;	COMDAT ??E?$_Tree_iterator@V?$_Tree_val@V?$_Tmap_traits@IPAVManagedItem@@U?$less@I@std@@V?$allocator@U?$pair@$$CBIPAVManagedItem@@@std@@@3@$0A@@std@@@std@@@std@@QAE?AV01@H@Z
_TEXT	SEGMENT
___$ReturnUdt$ = 8					; size = 4
___formal$ = 12						; size = 4
??E?$_Tree_iterator@V?$_Tree_val@V?$_Tmap_traits@IPAVManagedItem@@U?$less@I@std@@V?$allocator@U?$pair@$$CBIPAVManagedItem@@@std@@@3@$0A@@std@@@std@@@std@@QAE?AV01@H@Z PROC ; std::_Tree_iterator<std::_Tree_val<std::_Tmap_traits<unsigned int,ManagedItem *,std::less<unsigned int>,std::allocator<std::pair<unsigned int const ,ManagedItem *> >,0> > >::operator++, COMDAT
; _this$ = ecx
; Line 411
	push	ebp
	mov	ebp, esp
; Line 412
	mov	eax, DWORD PTR [ecx]
	push	esi
	mov	esi, DWORD PTR ___$ReturnUdt$[ebp]
	mov	DWORD PTR [esi], eax
; Line 413
	call	??E?$_Tree_unchecked_const_iterator@V?$_Tree_val@V?$_Tmap_traits@IPAVManagedItem@@U?$less@I@std@@V?$allocator@U?$pair@$$CBIPAVManagedItem@@@std@@@3@$0A@@std@@@std@@U_Iterator_base0@2@@std@@QAEAAV01@XZ ; std::_Tree_unchecked_const_iterator<std::_Tree_val<std::_Tmap_traits<unsigned int,ManagedItem *,std::less<unsigned int>,std::allocator<std::pair<unsigned int const ,ManagedItem *> >,0> >,std::_Iterator_base0>::operator++
; Line 414
	mov	eax, esi
	pop	esi
; Line 415
	pop	ebp
	ret	8
??E?$_Tree_iterator@V?$_Tree_val@V?$_Tmap_traits@IPAVManagedItem@@U?$less@I@std@@V?$allocator@U?$pair@$$CBIPAVManagedItem@@@std@@@3@$0A@@std@@@std@@@std@@QAE?AV01@H@Z ENDP ; std::_Tree_iterator<std::_Tree_val<std::_Tmap_traits<unsigned int,ManagedItem *,std::less<unsigned int>,std::allocator<std::pair<unsigned int const ,ManagedItem *> >,0> > >::operator++
_TEXT	ENDS
PUBLIC	??F?$_Tree_iterator@V?$_Tree_val@V?$_Tmap_traits@IPAVManagedItem@@U?$less@I@std@@V?$allocator@U?$pair@$$CBIPAVManagedItem@@@std@@@3@$0A@@std@@@std@@@std@@QAE?AV01@H@Z ; std::_Tree_iterator<std::_Tree_val<std::_Tmap_traits<unsigned int,ManagedItem *,std::less<unsigned int>,std::allocator<std::pair<unsigned int const ,ManagedItem *> >,0> > >::operator--
; Function compile flags: /Ogtp
;	COMDAT ??F?$_Tree_iterator@V?$_Tree_val@V?$_Tmap_traits@IPAVManagedItem@@U?$less@I@std@@V?$allocator@U?$pair@$$CBIPAVManagedItem@@@std@@@3@$0A@@std@@@std@@@std@@QAE?AV01@H@Z
_TEXT	SEGMENT
___$ReturnUdt$ = 8					; size = 4
___formal$ = 12						; size = 4
??F?$_Tree_iterator@V?$_Tree_val@V?$_Tmap_traits@IPAVManagedItem@@U?$less@I@std@@V?$allocator@U?$pair@$$CBIPAVManagedItem@@@std@@@3@$0A@@std@@@std@@@std@@QAE?AV01@H@Z PROC ; std::_Tree_iterator<std::_Tree_val<std::_Tmap_traits<unsigned int,ManagedItem *,std::less<unsigned int>,std::allocator<std::pair<unsigned int const ,ManagedItem *> >,0> > >::operator--, COMDAT
; _this$ = ecx
; Line 424
	push	ebp
	mov	ebp, esp
; Line 425
	mov	eax, DWORD PTR [ecx]
	push	esi
	mov	esi, DWORD PTR ___$ReturnUdt$[ebp]
	mov	DWORD PTR [esi], eax
; Line 426
	call	??F?$_Tree_unchecked_const_iterator@V?$_Tree_val@V?$_Tmap_traits@IPAVManagedItem@@U?$less@I@std@@V?$allocator@U?$pair@$$CBIPAVManagedItem@@@std@@@3@$0A@@std@@@std@@U_Iterator_base0@2@@std@@QAEAAV01@XZ ; std::_Tree_unchecked_const_iterator<std::_Tree_val<std::_Tmap_traits<unsigned int,ManagedItem *,std::less<unsigned int>,std::allocator<std::pair<unsigned int const ,ManagedItem *> >,0> >,std::_Iterator_base0>::operator--
; Line 427
	mov	eax, esi
	pop	esi
; Line 428
	pop	ebp
	ret	8
??F?$_Tree_iterator@V?$_Tree_val@V?$_Tmap_traits@IPAVManagedItem@@U?$less@I@std@@V?$allocator@U?$pair@$$CBIPAVManagedItem@@@std@@@3@$0A@@std@@@std@@@std@@QAE?AV01@H@Z ENDP ; std::_Tree_iterator<std::_Tree_val<std::_Tmap_traits<unsigned int,ManagedItem *,std::less<unsigned int>,std::allocator<std::pair<unsigned int const ,ManagedItem *> >,0> > >::operator--
_TEXT	ENDS
PUBLIC	?_Grow@?$basic_string@DU?$char_traits@D@std@@V?$allocator@D@2@@std@@QAE_NI_N@Z ; std::basic_string<char,std::char_traits<char>,std::allocator<char> >::_Grow
; Function compile flags: /Ogtp
;	COMDAT ?_Grow@?$basic_string@DU?$char_traits@D@std@@V?$allocator@D@2@@std@@QAE_NI_N@Z
_TEXT	SEGMENT
__Newsize$ = 8						; size = 4
__Trim$ = 12						; size = 1
?_Grow@?$basic_string@DU?$char_traits@D@std@@V?$allocator@D@2@@std@@QAE_NI_N@Z PROC ; std::basic_string<char,std::char_traits<char>,std::allocator<char> >::_Grow, COMDAT
; _this$ = ecx
; File c:\program files (x86)\microsoft visual studio 10.0\vc\include\xstring
; Line 1958
	push	ebp
	mov	ebp, esp
	push	ebx
; Line 1959
	mov	ebx, DWORD PTR __Newsize$[ebp]
	push	esi
	mov	esi, ecx
	cmp	ebx, -2					; fffffffeH
	jbe	SHORT $LN6@Grow
; Line 1960
	push	OFFSET ??_C@_0BA@JFNIOLAK@string?5too?5long?$AA@
	call	DWORD PTR __imp_?_Xlength_error@std@@YAXPBD@Z
$LN49@Grow:
$LN6@Grow:
; Line 1961
	mov	eax, DWORD PTR [esi+20]
	cmp	eax, ebx
	jae	SHORT $LN5@Grow
; Line 1962
	mov	eax, DWORD PTR [esi+16]
	push	eax
	push	ebx
	call	?_Copy@?$basic_string@DU?$char_traits@D@std@@V?$allocator@D@2@@std@@QAEXII@Z ; std::basic_string<char,std::char_traits<char>,std::allocator<char> >::_Copy
; Line 1968
	xor	ecx, ecx
	cmp	ecx, ebx
	sbb	eax, eax
	pop	esi
	neg	eax
	pop	ebx
; Line 1969
	pop	ebp
	ret	8
$LN5@Grow:
; Line 1963
	cmp	BYTE PTR __Trim$[ebp], 0
	je	SHORT $LN3@Grow
	cmp	ebx, 16					; 00000010H
	jae	SHORT $LN3@Grow
; Line 1965
	push	edi
	mov	edi, DWORD PTR [esi+16]
	cmp	ebx, edi
	jae	SHORT $LN9@Grow
	mov	edi, ebx
$LN9@Grow:
	cmp	eax, 16					; 00000010H
	jb	SHORT $LN30@Grow
	mov	ebx, DWORD PTR [esi]
	test	edi, edi
	je	SHORT $LN28@Grow
	push	edi
	push	ebx
	push	esi
	call	_memcpy
	add	esp, 12					; 0000000cH
$LN28@Grow:
	push	ebx
	call	??3@YAXPAX@Z				; operator delete
	mov	ebx, DWORD PTR __Newsize$[ebp]
	add	esp, 4
$LN30@Grow:
	mov	DWORD PTR [esi+16], edi
	mov	DWORD PTR [esi+20], 15			; 0000000fH
; Line 1968
	xor	ecx, ecx
	mov	BYTE PTR [edi+esi], 0
	cmp	ecx, ebx
	pop	edi
	sbb	eax, eax
	pop	esi
	neg	eax
	pop	ebx
; Line 1969
	pop	ebp
	ret	8
$LN3@Grow:
; Line 1966
	test	ebx, ebx
	jne	SHORT $LN46@Grow
; Line 1967
	mov	DWORD PTR [esi+16], ebx
	cmp	eax, 16					; 00000010H
	jb	SHORT $LN44@Grow
	mov	esi, DWORD PTR [esi]
$LN44@Grow:
	mov	BYTE PTR [esi], 0
$LN46@Grow:
; Line 1968
	xor	ecx, ecx
	cmp	ecx, ebx
	sbb	eax, eax
	pop	esi
	neg	eax
	pop	ebx
; Line 1969
	pop	ebp
	ret	8
$LN48@Grow:
?_Grow@?$basic_string@DU?$char_traits@D@std@@V?$allocator@D@2@@std@@QAE_NI_N@Z ENDP ; std::basic_string<char,std::char_traits<char>,std::allocator<char> >::_Grow
_TEXT	ENDS
PUBLIC	??_G?$basic_string@DU?$char_traits@D@std@@V?$allocator@D@2@@std@@QAEPAXI@Z ; std::basic_string<char,std::char_traits<char>,std::allocator<char> >::`scalar deleting destructor'
; Function compile flags: /Ogtp
;	COMDAT ??_G?$basic_string@DU?$char_traits@D@std@@V?$allocator@D@2@@std@@QAEPAXI@Z
_TEXT	SEGMENT
___flags$ = 8						; size = 4
??_G?$basic_string@DU?$char_traits@D@std@@V?$allocator@D@2@@std@@QAEPAXI@Z PROC ; std::basic_string<char,std::char_traits<char>,std::allocator<char> >::`scalar deleting destructor', COMDAT
; _this$ = ecx
	push	ebp
	mov	ebp, esp
	push	esi
	mov	esi, ecx
	cmp	DWORD PTR [esi+20], 16			; 00000010H
	jb	SHORT $LN14@scalar@2
	mov	eax, DWORD PTR [esi]
	push	eax
	call	??3@YAXPAX@Z				; operator delete
	add	esp, 4
$LN14@scalar@2:
	test	BYTE PTR ___flags$[ebp], 1
	mov	DWORD PTR [esi+20], 15			; 0000000fH
	mov	DWORD PTR [esi+16], 0
	mov	BYTE PTR [esi], 0
	je	SHORT $LN26@scalar@2
	push	esi
	call	??3@YAXPAX@Z				; operator delete
	add	esp, 4
$LN26@scalar@2:
	mov	eax, esi
	pop	esi
	pop	ebp
	ret	4
??_G?$basic_string@DU?$char_traits@D@std@@V?$allocator@D@2@@std@@QAEPAXI@Z ENDP ; std::basic_string<char,std::char_traits<char>,std::allocator<char> >::`scalar deleting destructor'
_TEXT	ENDS
PUBLIC	?assign@?$basic_string@DU?$char_traits@D@std@@V?$allocator@D@2@@std@@QAEAAV12@ABV12@II@Z ; std::basic_string<char,std::char_traits<char>,std::allocator<char> >::assign
; Function compile flags: /Ogtp
;	COMDAT ?assign@?$basic_string@DU?$char_traits@D@std@@V?$allocator@D@2@@std@@QAEAAV12@ABV12@II@Z
_TEXT	SEGMENT
__Right$ = 8						; size = 4
__Roff$ = 12						; size = 4
__Count$ = 16						; size = 4
?assign@?$basic_string@DU?$char_traits@D@std@@V?$allocator@D@2@@std@@QAEAAV12@ABV12@II@Z PROC ; std::basic_string<char,std::char_traits<char>,std::allocator<char> >::assign, COMDAT
; _this$ = ecx
; Line 892
	push	ebp
	mov	ebp, esp
	push	ebx
; Line 893
	mov	ebx, DWORD PTR __Roff$[ebp]
	push	esi
	mov	esi, ecx
	mov	ecx, DWORD PTR __Right$[ebp]
	push	edi
	mov	edi, DWORD PTR [ecx+16]
	cmp	edi, ebx
	jae	SHORT $LN5@assign
; Line 894
	push	OFFSET ??_C@_0BI@CFPLBAOH@invalid?5string?5position?$AA@
	call	DWORD PTR __imp_?_Xout_of_range@std@@YAXPBD@Z
$LN83@assign:
$LN5@assign:
; Line 896
	mov	eax, DWORD PTR __Count$[ebp]
	sub	edi, ebx
	cmp	eax, edi
	jae	SHORT $LN4@assign
; Line 897
	mov	edi, eax
$LN4@assign:
; Line 899
	cmp	esi, ecx
	jne	SHORT $LN3@assign
; Line 900
	push	-1
	add	edi, ebx
	push	edi
	mov	ecx, esi
	call	?erase@?$basic_string@DU?$char_traits@D@std@@V?$allocator@D@2@@std@@QAEAAV12@II@Z ; std::basic_string<char,std::char_traits<char>,std::allocator<char> >::erase
	push	ebx
	push	0
	mov	ecx, esi
	call	?erase@?$basic_string@DU?$char_traits@D@std@@V?$allocator@D@2@@std@@QAEAAV12@II@Z ; std::basic_string<char,std::char_traits<char>,std::allocator<char> >::erase
	pop	edi
; Line 906
	mov	eax, esi
	pop	esi
	pop	ebx
; Line 907
	pop	ebp
	ret	12					; 0000000cH
$LN3@assign:
; Line 901
	cmp	edi, -2					; fffffffeH
	jbe	SHORT $LN20@assign
	push	OFFSET ??_C@_0BA@JFNIOLAK@string?5too?5long?$AA@
	call	DWORD PTR __imp_?_Xlength_error@std@@YAXPBD@Z
$LN84@assign:
$LN20@assign:
	mov	eax, DWORD PTR [esi+20]
	cmp	eax, edi
	jae	SHORT $LN19@assign
	mov	eax, DWORD PTR [esi+16]
	push	eax
	push	edi
	mov	ecx, esi
	call	?_Copy@?$basic_string@DU?$char_traits@D@std@@V?$allocator@D@2@@std@@QAEXII@Z ; std::basic_string<char,std::char_traits<char>,std::allocator<char> >::_Copy
	mov	ecx, DWORD PTR __Right$[ebp]
	test	edi, edi
	je	SHORT $LN78@assign
$LN82@assign:
; Line 903
	mov	eax, 16					; 00000010H
	cmp	DWORD PTR [ecx+20], eax
	jb	SHORT $LN64@assign
	mov	ecx, DWORD PTR [ecx]
$LN64@assign:
	cmp	DWORD PTR [esi+20], eax
	jb	SHORT $LN68@assign
	mov	eax, DWORD PTR [esi]
	jmp	SHORT $LN69@assign
; Line 901
$LN19@assign:
	test	edi, edi
	jne	SHORT $LN82@assign
	mov	DWORD PTR [esi+16], edi
	cmp	eax, 16					; 00000010H
	jb	SHORT $LN58@assign
	mov	eax, DWORD PTR [esi]
	pop	edi
	mov	BYTE PTR [eax], 0
; Line 906
	mov	eax, esi
	pop	esi
	pop	ebx
; Line 907
	pop	ebp
	ret	12					; 0000000cH
; Line 901
$LN58@assign:
	pop	edi
	mov	eax, esi
	pop	esi
	mov	BYTE PTR [eax], 0
	pop	ebx
; Line 907
	pop	ebp
	ret	12					; 0000000cH
; Line 903
$LN68@assign:
	mov	eax, esi
$LN69@assign:
	push	edi
	add	ecx, ebx
	push	ecx
	push	eax
	call	_memcpy
	add	esp, 12					; 0000000cH
; Line 904
	cmp	DWORD PTR [esi+20], 16			; 00000010H
	mov	DWORD PTR [esi+16], edi
	jb	SHORT $LN76@assign
	mov	eax, DWORD PTR [esi]
	mov	BYTE PTR [eax+edi], 0
	pop	edi
; Line 906
	mov	eax, esi
	pop	esi
	pop	ebx
; Line 907
	pop	ebp
	ret	12					; 0000000cH
; Line 904
$LN76@assign:
	mov	eax, esi
	mov	BYTE PTR [eax+edi], 0
$LN78@assign:
; Line 906
	pop	edi
	mov	eax, esi
	pop	esi
	pop	ebx
; Line 907
	pop	ebp
	ret	12					; 0000000cH
$LN80@assign:
?assign@?$basic_string@DU?$char_traits@D@std@@V?$allocator@D@2@@std@@QAEAAV12@ABV12@II@Z ENDP ; std::basic_string<char,std::char_traits<char>,std::allocator<char> >::assign
_TEXT	ENDS
PUBLIC	?assign@?$basic_string@DU?$char_traits@D@std@@V?$allocator@D@2@@std@@QAEAAV12@PBDI@Z ; std::basic_string<char,std::char_traits<char>,std::allocator<char> >::assign
; Function compile flags: /Ogtp
;	COMDAT ?assign@?$basic_string@DU?$char_traits@D@std@@V?$allocator@D@2@@std@@QAEAAV12@PBDI@Z
_TEXT	SEGMENT
__Ptr$ = 8						; size = 4
__Count$ = 12						; size = 4
?assign@?$basic_string@DU?$char_traits@D@std@@V?$allocator@D@2@@std@@QAEAAV12@PBDI@Z PROC ; std::basic_string<char,std::char_traits<char>,std::allocator<char> >::assign, COMDAT
; _this$ = ecx
; Line 910
	push	ebp
	mov	ebp, esp
	push	ebx
; Line 916
	mov	ebx, DWORD PTR __Ptr$[ebp]
	push	esi
	mov	esi, ecx
	test	ebx, ebx
	je	SHORT $LN85@assign@2
	mov	ecx, DWORD PTR [esi+20]
	cmp	ecx, 16					; 00000010H
	jb	SHORT $LN12@assign@2
	mov	eax, DWORD PTR [esi]
	jmp	SHORT $LN13@assign@2
$LN12@assign@2:
	mov	eax, esi
$LN13@assign@2:
	cmp	ebx, eax
	jb	SHORT $LN85@assign@2
	cmp	ecx, 16					; 00000010H
	jb	SHORT $LN16@assign@2
	mov	eax, DWORD PTR [esi]
	jmp	SHORT $LN17@assign@2
$LN16@assign@2:
	mov	eax, esi
$LN17@assign@2:
	mov	edx, DWORD PTR [esi+16]
	add	edx, eax
	cmp	edx, ebx
	jbe	SHORT $LN85@assign@2
; Line 917
	cmp	ecx, 16					; 00000010H
	jb	SHORT $LN20@assign@2
	mov	eax, DWORD PTR [esi]
	mov	ecx, DWORD PTR __Count$[ebp]
	push	ecx
	sub	ebx, eax
	push	ebx
	push	esi
	mov	ecx, esi
	call	?assign@?$basic_string@DU?$char_traits@D@std@@V?$allocator@D@2@@std@@QAEAAV12@ABV12@II@Z ; std::basic_string<char,std::char_traits<char>,std::allocator<char> >::assign
	pop	esi
	pop	ebx
; Line 925
	pop	ebp
	ret	8
; Line 917
$LN20@assign@2:
	mov	ecx, DWORD PTR __Count$[ebp]
	mov	eax, esi
	push	ecx
	sub	ebx, eax
	push	ebx
	push	esi
	mov	ecx, esi
	call	?assign@?$basic_string@DU?$char_traits@D@std@@V?$allocator@D@2@@std@@QAEAAV12@ABV12@II@Z ; std::basic_string<char,std::char_traits<char>,std::allocator<char> >::assign
	pop	esi
	pop	ebx
; Line 925
	pop	ebp
	ret	8
$LN85@assign@2:
	push	edi
; Line 919
	mov	edi, DWORD PTR __Count$[ebp]
	cmp	edi, -2					; fffffffeH
	jbe	SHORT $LN27@assign@2
	push	OFFSET ??_C@_0BA@JFNIOLAK@string?5too?5long?$AA@
	call	DWORD PTR __imp_?_Xlength_error@std@@YAXPBD@Z
$LN89@assign@2:
$LN27@assign@2:
	mov	eax, DWORD PTR [esi+20]
	cmp	eax, edi
	jae	SHORT $LN26@assign@2
	mov	edx, DWORD PTR [esi+16]
	push	edx
	push	edi
	mov	ecx, esi
	call	?_Copy@?$basic_string@DU?$char_traits@D@std@@V?$allocator@D@2@@std@@QAEXII@Z ; std::basic_string<char,std::char_traits<char>,std::allocator<char> >::_Copy
	test	edi, edi
	je	SHORT $LN82@assign@2
$LN88@assign@2:
; Line 921
	cmp	DWORD PTR [esi+20], 16			; 00000010H
	jb	SHORT $LN72@assign@2
	mov	eax, DWORD PTR [esi]
	jmp	SHORT $LN73@assign@2
; Line 919
$LN26@assign@2:
	test	edi, edi
	jne	SHORT $LN88@assign@2
	mov	DWORD PTR [esi+16], edi
	cmp	eax, 16					; 00000010H
	jb	SHORT $LN65@assign@2
	mov	eax, DWORD PTR [esi]
	pop	edi
	mov	BYTE PTR [eax], 0
; Line 924
	mov	eax, esi
	pop	esi
	pop	ebx
; Line 925
	pop	ebp
	ret	8
; Line 919
$LN65@assign@2:
	pop	edi
	mov	eax, esi
	pop	esi
	mov	BYTE PTR [eax], 0
	pop	ebx
; Line 925
	pop	ebp
	ret	8
; Line 921
$LN72@assign@2:
	mov	eax, esi
$LN73@assign@2:
	push	edi
	push	ebx
	push	eax
	call	_memcpy
	add	esp, 12					; 0000000cH
; Line 922
	cmp	DWORD PTR [esi+20], 16			; 00000010H
	mov	DWORD PTR [esi+16], edi
	jb	SHORT $LN80@assign@2
	mov	eax, DWORD PTR [esi]
	mov	BYTE PTR [eax+edi], 0
	pop	edi
; Line 924
	mov	eax, esi
	pop	esi
	pop	ebx
; Line 925
	pop	ebp
	ret	8
; Line 922
$LN80@assign@2:
	mov	eax, esi
	mov	BYTE PTR [eax+edi], 0
$LN82@assign@2:
; Line 924
	pop	edi
	mov	eax, esi
	pop	esi
	pop	ebx
; Line 925
	pop	ebp
	ret	8
$LN86@assign@2:
?assign@?$basic_string@DU?$char_traits@D@std@@V?$allocator@D@2@@std@@QAEAAV12@PBDI@Z ENDP ; std::basic_string<char,std::char_traits<char>,std::allocator<char> >::assign
_TEXT	ENDS
PUBLIC	?assign@?$basic_string@DU?$char_traits@D@std@@V?$allocator@D@2@@std@@QAEAAV12@ABV12@@Z ; std::basic_string<char,std::char_traits<char>,std::allocator<char> >::assign
; Function compile flags: /Ogtp
;	COMDAT ?assign@?$basic_string@DU?$char_traits@D@std@@V?$allocator@D@2@@std@@QAEAAV12@ABV12@@Z
_TEXT	SEGMENT
__Right$ = 8						; size = 4
?assign@?$basic_string@DU?$char_traits@D@std@@V?$allocator@D@2@@std@@QAEAAV12@ABV12@@Z PROC ; std::basic_string<char,std::char_traits<char>,std::allocator<char> >::assign, COMDAT
; _this$ = ecx
; Line 886
	push	ebp
	mov	ebp, esp
; Line 887
	mov	eax, DWORD PTR __Right$[ebp]
	push	-1
	push	0
	push	eax
	call	?assign@?$basic_string@DU?$char_traits@D@std@@V?$allocator@D@2@@std@@QAEAAV12@ABV12@II@Z ; std::basic_string<char,std::char_traits<char>,std::allocator<char> >::assign
; Line 888
	pop	ebp
	ret	4
?assign@?$basic_string@DU?$char_traits@D@std@@V?$allocator@D@2@@std@@QAEAAV12@ABV12@@Z ENDP ; std::basic_string<char,std::char_traits<char>,std::allocator<char> >::assign
_TEXT	ENDS
PUBLIC	??$_Destroy@V?$basic_string@DU?$char_traits@D@std@@V?$allocator@D@2@@std@@@std@@YAXPAV?$basic_string@DU?$char_traits@D@std@@V?$allocator@D@2@@0@@Z ; std::_Destroy<std::basic_string<char,std::char_traits<char>,std::allocator<char> > >
; Function compile flags: /Ogtp
;	COMDAT ??$_Destroy@V?$basic_string@DU?$char_traits@D@std@@V?$allocator@D@2@@std@@@std@@YAXPAV?$basic_string@DU?$char_traits@D@std@@V?$allocator@D@2@@0@@Z
_TEXT	SEGMENT
__Ptr$ = 8						; size = 4
??$_Destroy@V?$basic_string@DU?$char_traits@D@std@@V?$allocator@D@2@@std@@@std@@YAXPAV?$basic_string@DU?$char_traits@D@std@@V?$allocator@D@2@@0@@Z PROC ; std::_Destroy<std::basic_string<char,std::char_traits<char>,std::allocator<char> > >, COMDAT
; File c:\program files (x86)\microsoft visual studio 10.0\vc\include\xmemory
; Line 62
	push	ebp
	mov	ebp, esp
	push	esi
; Line 63
	mov	esi, DWORD PTR __Ptr$[ebp]
	cmp	DWORD PTR [esi+20], 16			; 00000010H
	jb	SHORT $LN16@Destroy
	mov	eax, DWORD PTR [esi]
	push	eax
	call	??3@YAXPAX@Z				; operator delete
	add	esp, 4
$LN16@Destroy:
	mov	DWORD PTR [esi+20], 15			; 0000000fH
	mov	DWORD PTR [esi+16], 0
	mov	BYTE PTR [esi], 0
	pop	esi
; Line 64
	pop	ebp
	ret	0
??$_Destroy@V?$basic_string@DU?$char_traits@D@std@@V?$allocator@D@2@@std@@@std@@YAXPAV?$basic_string@DU?$char_traits@D@std@@V?$allocator@D@2@@0@@Z ENDP ; std::_Destroy<std::basic_string<char,std::char_traits<char>,std::allocator<char> > >
_TEXT	ENDS
PUBLIC	??0?$basic_string@DU?$char_traits@D@std@@V?$allocator@D@2@@std@@QAE@ABV01@@Z ; std::basic_string<char,std::char_traits<char>,std::allocator<char> >::basic_string<char,std::char_traits<char>,std::allocator<char> >
; Function compile flags: /Ogtp
;	COMDAT ??0?$basic_string@DU?$char_traits@D@std@@V?$allocator@D@2@@std@@QAE@ABV01@@Z
_TEXT	SEGMENT
__Right$ = 8						; size = 4
??0?$basic_string@DU?$char_traits@D@std@@V?$allocator@D@2@@std@@QAE@ABV01@@Z PROC ; std::basic_string<char,std::char_traits<char>,std::allocator<char> >::basic_string<char,std::char_traits<char>,std::allocator<char> >, COMDAT
; _this$ = ecx
; File c:\program files (x86)\microsoft visual studio 10.0\vc\include\xstring
; Line 543
	push	ebp
	mov	ebp, esp
; Line 545
	mov	eax, DWORD PTR __Right$[ebp]
	push	esi
	push	-1
	mov	esi, ecx
	push	0
	mov	DWORD PTR [esi+20], 15			; 0000000fH
	mov	DWORD PTR [esi+16], 0
	push	eax
	mov	BYTE PTR [esi], 0
	call	?assign@?$basic_string@DU?$char_traits@D@std@@V?$allocator@D@2@@std@@QAEAAV12@ABV12@II@Z ; std::basic_string<char,std::char_traits<char>,std::allocator<char> >::assign
; Line 546
	mov	eax, esi
	pop	esi
	pop	ebp
	ret	4
??0?$basic_string@DU?$char_traits@D@std@@V?$allocator@D@2@@std@@QAE@ABV01@@Z ENDP ; std::basic_string<char,std::char_traits<char>,std::allocator<char> >::basic_string<char,std::char_traits<char>,std::allocator<char> >
_TEXT	ENDS
PUBLIC	?assign@?$basic_string@DU?$char_traits@D@std@@V?$allocator@D@2@@std@@QAEAAV12@PBD@Z ; std::basic_string<char,std::char_traits<char>,std::allocator<char> >::assign
; Function compile flags: /Ogtp
;	COMDAT ?assign@?$basic_string@DU?$char_traits@D@std@@V?$allocator@D@2@@std@@QAEAAV12@PBD@Z
_TEXT	SEGMENT
__Ptr$ = 8						; size = 4
?assign@?$basic_string@DU?$char_traits@D@std@@V?$allocator@D@2@@std@@QAEAAV12@PBD@Z PROC ; std::basic_string<char,std::char_traits<char>,std::allocator<char> >::assign, COMDAT
; _this$ = ecx
; Line 928
	push	ebp
	mov	ebp, esp
	push	esi
; Line 930
	mov	esi, DWORD PTR __Ptr$[ebp]
	mov	eax, esi
	push	edi
	lea	edi, DWORD PTR [eax+1]
	npad	3
$LL5@assign@3:
	mov	dl, BYTE PTR [eax]
	inc	eax
	test	dl, dl
	jne	SHORT $LL5@assign@3
	sub	eax, edi
	push	eax
	push	esi
	call	?assign@?$basic_string@DU?$char_traits@D@std@@V?$allocator@D@2@@std@@QAEAAV12@PBDI@Z ; std::basic_string<char,std::char_traits<char>,std::allocator<char> >::assign
	pop	edi
	pop	esi
; Line 931
	pop	ebp
	ret	4
?assign@?$basic_string@DU?$char_traits@D@std@@V?$allocator@D@2@@std@@QAEAAV12@PBD@Z ENDP ; std::basic_string<char,std::char_traits<char>,std::allocator<char> >::assign
_TEXT	ENDS
PUBLIC	??4?$basic_string@DU?$char_traits@D@std@@V?$allocator@D@2@@std@@QAEAAV01@ABV01@@Z ; std::basic_string<char,std::char_traits<char>,std::allocator<char> >::operator=
; Function compile flags: /Ogtp
;	COMDAT ??4?$basic_string@DU?$char_traits@D@std@@V?$allocator@D@2@@std@@QAEAAV01@ABV01@@Z
_TEXT	SEGMENT
__Right$ = 8						; size = 4
??4?$basic_string@DU?$char_traits@D@std@@V?$allocator@D@2@@std@@QAEAAV01@ABV01@@Z PROC ; std::basic_string<char,std::char_traits<char>,std::allocator<char> >::operator=, COMDAT
; _this$ = ecx
; Line 762
	push	ebp
	mov	ebp, esp
; Line 763
	mov	eax, DWORD PTR __Right$[ebp]
	push	-1
	push	0
	push	eax
	call	?assign@?$basic_string@DU?$char_traits@D@std@@V?$allocator@D@2@@std@@QAEAAV12@ABV12@II@Z ; std::basic_string<char,std::char_traits<char>,std::allocator<char> >::assign
; Line 764
	pop	ebp
	ret	4
??4?$basic_string@DU?$char_traits@D@std@@V?$allocator@D@2@@std@@QAEAAV01@ABV01@@Z ENDP ; std::basic_string<char,std::char_traits<char>,std::allocator<char> >::operator=
_TEXT	ENDS
PUBLIC	??$construct@AAV?$basic_string@DU?$char_traits@D@std@@V?$allocator@D@2@@std@@@?$allocator@V?$basic_string@DU?$char_traits@D@std@@V?$allocator@D@2@@std@@@std@@QAEXPAV?$basic_string@DU?$char_traits@D@std@@V?$allocator@D@2@@1@AAV21@@Z ; std::allocator<std::basic_string<char,std::char_traits<char>,std::allocator<char> > >::construct<std::basic_string<char,std::char_traits<char>,std::allocator<char> > &>
;	COMDAT xdata$x
; File c:\program files (x86)\microsoft visual studio 10.0\vc\include\iosfwd
xdata$x	SEGMENT
__unwindtable$??$construct@AAV?$basic_string@DU?$char_traits@D@std@@V?$allocator@D@2@@std@@@?$allocator@V?$basic_string@DU?$char_traits@D@std@@V?$allocator@D@2@@std@@@std@@QAEXPAV?$basic_string@DU?$char_traits@D@std@@V?$allocator@D@2@@1@AAV21@@Z DD 0ffffffffH
	DD	FLAT:__unwindfunclet$??$construct@AAV?$basic_string@DU?$char_traits@D@std@@V?$allocator@D@2@@std@@@?$allocator@V?$basic_string@DU?$char_traits@D@std@@V?$allocator@D@2@@std@@@std@@QAEXPAV?$basic_string@DU?$char_traits@D@std@@V?$allocator@D@2@@1@AAV21@@Z$0
__ehfuncinfo$??$construct@AAV?$basic_string@DU?$char_traits@D@std@@V?$allocator@D@2@@std@@@?$allocator@V?$basic_string@DU?$char_traits@D@std@@V?$allocator@D@2@@std@@@std@@QAEXPAV?$basic_string@DU?$char_traits@D@std@@V?$allocator@D@2@@1@AAV21@@Z DD 019930522H
	DD	01H
	DD	FLAT:__unwindtable$??$construct@AAV?$basic_string@DU?$char_traits@D@std@@V?$allocator@D@2@@std@@@?$allocator@V?$basic_string@DU?$char_traits@D@std@@V?$allocator@D@2@@std@@@std@@QAEXPAV?$basic_string@DU?$char_traits@D@std@@V?$allocator@D@2@@1@AAV21@@Z
	DD	2 DUP(00H)
	DD	2 DUP(00H)
	DD	00H
	DD	01H
; Function compile flags: /Ogtp
xdata$x	ENDS
;	COMDAT ??$construct@AAV?$basic_string@DU?$char_traits@D@std@@V?$allocator@D@2@@std@@@?$allocator@V?$basic_string@DU?$char_traits@D@std@@V?$allocator@D@2@@std@@@std@@QAEXPAV?$basic_string@DU?$char_traits@D@std@@V?$allocator@D@2@@1@AAV21@@Z
_TEXT	SEGMENT
$T131412 = -16						; size = 4
__$EHRec$ = -12						; size = 12
__Ptr$ = 8						; size = 4
__Val$ = 12						; size = 4
??$construct@AAV?$basic_string@DU?$char_traits@D@std@@V?$allocator@D@2@@std@@@?$allocator@V?$basic_string@DU?$char_traits@D@std@@V?$allocator@D@2@@std@@@std@@QAEXPAV?$basic_string@DU?$char_traits@D@std@@V?$allocator@D@2@@1@AAV21@@Z PROC ; std::allocator<std::basic_string<char,std::char_traits<char>,std::allocator<char> > >::construct<std::basic_string<char,std::char_traits<char>,std::allocator<char> > &>, COMDAT
; _this$ = ecx
; File c:\program files (x86)\microsoft visual studio 10.0\vc\include\xmemory
; Line 206
	push	ebp
	mov	ebp, esp
	push	-1
	push	__ehhandler$??$construct@AAV?$basic_string@DU?$char_traits@D@std@@V?$allocator@D@2@@std@@@?$allocator@V?$basic_string@DU?$char_traits@D@std@@V?$allocator@D@2@@std@@@std@@QAEXPAV?$basic_string@DU?$char_traits@D@std@@V?$allocator@D@2@@1@AAV21@@Z
	mov	eax, DWORD PTR fs:0
	push	eax
	push	ecx
	mov	eax, DWORD PTR ___security_cookie
	xor	eax, ebp
	push	eax
	lea	eax, DWORD PTR __$EHRec$[ebp]
	mov	DWORD PTR fs:0, eax
; Line 208
	mov	ecx, DWORD PTR __Ptr$[ebp]
	mov	DWORD PTR $T131412[ebp], ecx
	xor	eax, eax
	mov	DWORD PTR __$EHRec$[ebp+8], eax
	cmp	ecx, eax
	je	SHORT $LN3@construct
	push	-1
	mov	DWORD PTR [ecx+16], eax
	mov	DWORD PTR [ecx+20], 15			; 0000000fH
	push	eax
	mov	BYTE PTR [ecx], al
	mov	eax, DWORD PTR __Val$[ebp]
	push	eax
	call	?assign@?$basic_string@DU?$char_traits@D@std@@V?$allocator@D@2@@std@@QAEAAV12@ABV12@II@Z ; std::basic_string<char,std::char_traits<char>,std::allocator<char> >::assign
$LN3@construct:
; Line 209
	mov	ecx, DWORD PTR __$EHRec$[ebp]
	mov	DWORD PTR fs:0, ecx
	pop	ecx
	mov	esp, ebp
	pop	ebp
	ret	8
_TEXT	ENDS
;	COMDAT text$x
text$x	SEGMENT
__unwindfunclet$??$construct@AAV?$basic_string@DU?$char_traits@D@std@@V?$allocator@D@2@@std@@@?$allocator@V?$basic_string@DU?$char_traits@D@std@@V?$allocator@D@2@@std@@@std@@QAEXPAV?$basic_string@DU?$char_traits@D@std@@V?$allocator@D@2@@1@AAV21@@Z$0:
	mov	eax, DWORD PTR __Ptr$[ebp]
	push	eax
	mov	ecx, DWORD PTR $T131412[ebp]
	push	ecx
	call	??3@YAXPAX0@Z				; operator delete
	add	esp, 8
	ret	0
__ehhandler$??$construct@AAV?$basic_string@DU?$char_traits@D@std@@V?$allocator@D@2@@std@@@?$allocator@V?$basic_string@DU?$char_traits@D@std@@V?$allocator@D@2@@std@@@std@@QAEXPAV?$basic_string@DU?$char_traits@D@std@@V?$allocator@D@2@@1@AAV21@@Z:
	mov	edx, DWORD PTR [esp+8]
	lea	eax, DWORD PTR [edx+12]
	mov	ecx, DWORD PTR [edx-8]
	xor	ecx, eax
	call	@__security_check_cookie@4
	mov	eax, OFFSET __ehfuncinfo$??$construct@AAV?$basic_string@DU?$char_traits@D@std@@V?$allocator@D@2@@std@@@?$allocator@V?$basic_string@DU?$char_traits@D@std@@V?$allocator@D@2@@std@@@std@@QAEXPAV?$basic_string@DU?$char_traits@D@std@@V?$allocator@D@2@@1@AAV21@@Z
	jmp	___CxxFrameHandler3
text$x	ENDS
??$construct@AAV?$basic_string@DU?$char_traits@D@std@@V?$allocator@D@2@@std@@@?$allocator@V?$basic_string@DU?$char_traits@D@std@@V?$allocator@D@2@@std@@@std@@QAEXPAV?$basic_string@DU?$char_traits@D@std@@V?$allocator@D@2@@1@AAV21@@Z ENDP ; std::allocator<std::basic_string<char,std::char_traits<char>,std::allocator<char> > >::construct<std::basic_string<char,std::char_traits<char>,std::allocator<char> > &>
PUBLIC	??$_Construct@V?$basic_string@DU?$char_traits@D@std@@V?$allocator@D@2@@std@@ABV12@@std@@YAXPAV?$basic_string@DU?$char_traits@D@std@@V?$allocator@D@2@@0@ABV10@@Z ; std::_Construct<std::basic_string<char,std::char_traits<char>,std::allocator<char> >,std::basic_string<char,std::char_traits<char>,std::allocator<char> > const &>
;	COMDAT xdata$x
; File c:\program files (x86)\microsoft visual studio 10.0\vc\include\iosfwd
xdata$x	SEGMENT
__unwindtable$??$_Construct@V?$basic_string@DU?$char_traits@D@std@@V?$allocator@D@2@@std@@ABV12@@std@@YAXPAV?$basic_string@DU?$char_traits@D@std@@V?$allocator@D@2@@0@ABV10@@Z DD 0ffffffffH
	DD	FLAT:__unwindfunclet$??$_Construct@V?$basic_string@DU?$char_traits@D@std@@V?$allocator@D@2@@std@@ABV12@@std@@YAXPAV?$basic_string@DU?$char_traits@D@std@@V?$allocator@D@2@@0@ABV10@@Z$0
__ehfuncinfo$??$_Construct@V?$basic_string@DU?$char_traits@D@std@@V?$allocator@D@2@@std@@ABV12@@std@@YAXPAV?$basic_string@DU?$char_traits@D@std@@V?$allocator@D@2@@0@ABV10@@Z DD 019930522H
	DD	01H
	DD	FLAT:__unwindtable$??$_Construct@V?$basic_string@DU?$char_traits@D@std@@V?$allocator@D@2@@std@@ABV12@@std@@YAXPAV?$basic_string@DU?$char_traits@D@std@@V?$allocator@D@2@@0@ABV10@@Z
	DD	2 DUP(00H)
	DD	2 DUP(00H)
	DD	00H
	DD	01H
; Function compile flags: /Ogtp
xdata$x	ENDS
;	COMDAT ??$_Construct@V?$basic_string@DU?$char_traits@D@std@@V?$allocator@D@2@@std@@ABV12@@std@@YAXPAV?$basic_string@DU?$char_traits@D@std@@V?$allocator@D@2@@0@ABV10@@Z
_TEXT	SEGMENT
$T131524 = -16						; size = 4
__$EHRec$ = -12						; size = 12
__Vptr$ = 8						; size = 4
__Ptr$ = 8						; size = 4
__Val$ = 12						; size = 4
??$_Construct@V?$basic_string@DU?$char_traits@D@std@@V?$allocator@D@2@@std@@ABV12@@std@@YAXPAV?$basic_string@DU?$char_traits@D@std@@V?$allocator@D@2@@0@ABV10@@Z PROC ; std::_Construct<std::basic_string<char,std::char_traits<char>,std::allocator<char> >,std::basic_string<char,std::char_traits<char>,std::allocator<char> > const &>, COMDAT
; File c:\program files (x86)\microsoft visual studio 10.0\vc\include\xmemory
; Line 46
	push	ebp
	mov	ebp, esp
	push	-1
	push	__ehhandler$??$_Construct@V?$basic_string@DU?$char_traits@D@std@@V?$allocator@D@2@@std@@ABV12@@std@@YAXPAV?$basic_string@DU?$char_traits@D@std@@V?$allocator@D@2@@0@ABV10@@Z
	mov	eax, DWORD PTR fs:0
	push	eax
	push	ecx
	mov	eax, DWORD PTR ___security_cookie
	xor	eax, ebp
	push	eax
	lea	eax, DWORD PTR __$EHRec$[ebp]
	mov	DWORD PTR fs:0, eax
; Line 47
	mov	ecx, DWORD PTR __Ptr$[ebp]
	mov	DWORD PTR __Vptr$[ebp], ecx
; Line 48
	mov	DWORD PTR $T131524[ebp], ecx
	xor	eax, eax
	mov	DWORD PTR __$EHRec$[ebp+8], eax
	cmp	ecx, eax
	je	SHORT $LN3@Construct
	push	-1
	mov	DWORD PTR [ecx+16], eax
	mov	DWORD PTR [ecx+20], 15			; 0000000fH
	push	eax
	mov	BYTE PTR [ecx], al
	mov	eax, DWORD PTR __Val$[ebp]
	push	eax
	call	?assign@?$basic_string@DU?$char_traits@D@std@@V?$allocator@D@2@@std@@QAEAAV12@ABV12@II@Z ; std::basic_string<char,std::char_traits<char>,std::allocator<char> >::assign
$LN3@Construct:
; Line 49
	mov	ecx, DWORD PTR __$EHRec$[ebp]
	mov	DWORD PTR fs:0, ecx
	pop	ecx
	mov	esp, ebp
	pop	ebp
	ret	0
_TEXT	ENDS
;	COMDAT text$x
text$x	SEGMENT
__unwindfunclet$??$_Construct@V?$basic_string@DU?$char_traits@D@std@@V?$allocator@D@2@@std@@ABV12@@std@@YAXPAV?$basic_string@DU?$char_traits@D@std@@V?$allocator@D@2@@0@ABV10@@Z$0:
	mov	eax, DWORD PTR __Vptr$[ebp]
	push	eax
	mov	ecx, DWORD PTR $T131524[ebp]
	push	ecx
	call	??3@YAXPAX0@Z				; operator delete
	add	esp, 8
	ret	0
__ehhandler$??$_Construct@V?$basic_string@DU?$char_traits@D@std@@V?$allocator@D@2@@std@@ABV12@@std@@YAXPAV?$basic_string@DU?$char_traits@D@std@@V?$allocator@D@2@@0@ABV10@@Z:
	mov	edx, DWORD PTR [esp+8]
	lea	eax, DWORD PTR [edx+12]
	mov	ecx, DWORD PTR [edx-8]
	xor	ecx, eax
	call	@__security_check_cookie@4
	mov	eax, OFFSET __ehfuncinfo$??$_Construct@V?$basic_string@DU?$char_traits@D@std@@V?$allocator@D@2@@std@@ABV12@@std@@YAXPAV?$basic_string@DU?$char_traits@D@std@@V?$allocator@D@2@@0@ABV10@@Z
	jmp	___CxxFrameHandler3
text$x	ENDS
??$_Construct@V?$basic_string@DU?$char_traits@D@std@@V?$allocator@D@2@@std@@ABV12@@std@@YAXPAV?$basic_string@DU?$char_traits@D@std@@V?$allocator@D@2@@0@ABV10@@Z ENDP ; std::_Construct<std::basic_string<char,std::char_traits<char>,std::allocator<char> >,std::basic_string<char,std::char_traits<char>,std::allocator<char> > const &>
PUBLIC	?destroy@?$allocator@V?$basic_string@DU?$char_traits@D@std@@V?$allocator@D@2@@std@@@std@@QAEXPAV?$basic_string@DU?$char_traits@D@std@@V?$allocator@D@2@@2@@Z ; std::allocator<std::basic_string<char,std::char_traits<char>,std::allocator<char> > >::destroy
; Function compile flags: /Ogtp
;	COMDAT ?destroy@?$allocator@V?$basic_string@DU?$char_traits@D@std@@V?$allocator@D@2@@std@@@std@@QAEXPAV?$basic_string@DU?$char_traits@D@std@@V?$allocator@D@2@@2@@Z
_TEXT	SEGMENT
__Ptr$ = 8						; size = 4
?destroy@?$allocator@V?$basic_string@DU?$char_traits@D@std@@V?$allocator@D@2@@std@@@std@@QAEXPAV?$basic_string@DU?$char_traits@D@std@@V?$allocator@D@2@@2@@Z PROC ; std::allocator<std::basic_string<char,std::char_traits<char>,std::allocator<char> > >::destroy, COMDAT
; _this$ = ecx
; Line 212
	push	ebp
	mov	ebp, esp
	push	esi
; Line 213
	mov	esi, DWORD PTR __Ptr$[ebp]
	cmp	DWORD PTR [esi+20], 16			; 00000010H
	jb	SHORT $LN18@destroy
	mov	eax, DWORD PTR [esi]
	push	eax
	call	??3@YAXPAX@Z				; operator delete
	add	esp, 4
$LN18@destroy:
	mov	DWORD PTR [esi+20], 15			; 0000000fH
	mov	DWORD PTR [esi+16], 0
	mov	BYTE PTR [esi], 0
	pop	esi
; Line 214
	pop	ebp
	ret	4
?destroy@?$allocator@V?$basic_string@DU?$char_traits@D@std@@V?$allocator@D@2@@std@@@std@@QAEXPAV?$basic_string@DU?$char_traits@D@std@@V?$allocator@D@2@@2@@Z ENDP ; std::allocator<std::basic_string<char,std::char_traits<char>,std::allocator<char> > >::destroy
_TEXT	ENDS
PUBLIC	??0?$basic_string@DU?$char_traits@D@std@@V?$allocator@D@2@@std@@QAE@PBD@Z ; std::basic_string<char,std::char_traits<char>,std::allocator<char> >::basic_string<char,std::char_traits<char>,std::allocator<char> >
; Function compile flags: /Ogtp
;	COMDAT ??0?$basic_string@DU?$char_traits@D@std@@V?$allocator@D@2@@std@@QAE@PBD@Z
_TEXT	SEGMENT
__Ptr$ = 8						; size = 4
??0?$basic_string@DU?$char_traits@D@std@@V?$allocator@D@2@@std@@QAE@PBD@Z PROC ; std::basic_string<char,std::char_traits<char>,std::allocator<char> >::basic_string<char,std::char_traits<char>,std::allocator<char> >, COMDAT
; _this$ = ecx
; File c:\program files (x86)\microsoft visual studio 10.0\vc\include\xstring
; Line 592
	push	ebp
	mov	ebp, esp
; Line 594
	mov	edx, DWORD PTR __Ptr$[ebp]
	push	esi
	mov	esi, ecx
	mov	eax, edx
	push	edi
	mov	DWORD PTR [esi+20], 15			; 0000000fH
	mov	DWORD PTR [esi+16], 0
	mov	BYTE PTR [esi], 0
	lea	edi, DWORD PTR [eax+1]
$LL31@basic_stri@2:
	mov	cl, BYTE PTR [eax]
	inc	eax
	test	cl, cl
	jne	SHORT $LL31@basic_stri@2
	sub	eax, edi
	push	eax
	push	edx
	mov	ecx, esi
	call	?assign@?$basic_string@DU?$char_traits@D@std@@V?$allocator@D@2@@std@@QAEAAV12@PBDI@Z ; std::basic_string<char,std::char_traits<char>,std::allocator<char> >::assign
	pop	edi
; Line 595
	mov	eax, esi
	pop	esi
	pop	ebp
	ret	4
??0?$basic_string@DU?$char_traits@D@std@@V?$allocator@D@2@@std@@QAE@PBD@Z ENDP ; std::basic_string<char,std::char_traits<char>,std::allocator<char> >::basic_string<char,std::char_traits<char>,std::allocator<char> >
_TEXT	ENDS
PUBLIC	??4?$basic_string@DU?$char_traits@D@std@@V?$allocator@D@2@@std@@QAEAAV01@PBD@Z ; std::basic_string<char,std::char_traits<char>,std::allocator<char> >::operator=
; Function compile flags: /Ogtp
;	COMDAT ??4?$basic_string@DU?$char_traits@D@std@@V?$allocator@D@2@@std@@QAEAAV01@PBD@Z
_TEXT	SEGMENT
__Ptr$ = 8						; size = 4
??4?$basic_string@DU?$char_traits@D@std@@V?$allocator@D@2@@std@@QAEAAV01@PBD@Z PROC ; std::basic_string<char,std::char_traits<char>,std::allocator<char> >::operator=, COMDAT
; _this$ = ecx
; Line 767
	push	ebp
	mov	ebp, esp
	push	esi
; Line 768
	mov	esi, DWORD PTR __Ptr$[ebp]
	mov	eax, esi
	push	edi
	lea	edi, DWORD PTR [eax+1]
	npad	3
$LL7@operator@3:
	mov	dl, BYTE PTR [eax]
	inc	eax
	test	dl, dl
	jne	SHORT $LL7@operator@3
	sub	eax, edi
	push	eax
	push	esi
	call	?assign@?$basic_string@DU?$char_traits@D@std@@V?$allocator@D@2@@std@@QAEAAV12@PBDI@Z ; std::basic_string<char,std::char_traits<char>,std::allocator<char> >::assign
	pop	edi
	pop	esi
; Line 769
	pop	ebp
	ret	4
??4?$basic_string@DU?$char_traits@D@std@@V?$allocator@D@2@@std@@QAEAAV01@PBD@Z ENDP ; std::basic_string<char,std::char_traits<char>,std::allocator<char> >::operator=
_TEXT	ENDS
PUBLIC	?assign@?$basic_string@DU?$char_traits@D@std@@V?$allocator@D@2@@std@@QAEAAV12@$$QAV12@@Z ; std::basic_string<char,std::char_traits<char>,std::allocator<char> >::assign
; Function compile flags: /Ogtp
;	COMDAT ?assign@?$basic_string@DU?$char_traits@D@std@@V?$allocator@D@2@@std@@QAEAAV12@$$QAV12@@Z
_TEXT	SEGMENT
__Right$ = 8						; size = 4
?assign@?$basic_string@DU?$char_traits@D@std@@V?$allocator@D@2@@std@@QAEAAV12@$$QAV12@@Z PROC ; std::basic_string<char,std::char_traits<char>,std::allocator<char> >::assign, COMDAT
; _this$ = ecx
; Line 713
	push	ebp
	mov	ebp, esp
	push	esi
	push	edi
; Line 714
	mov	edi, DWORD PTR __Right$[ebp]
	mov	esi, ecx
	cmp	esi, edi
	je	SHORT $LN63@assign@4
; Line 721
	cmp	DWORD PTR [esi+20], 16			; 00000010H
	jb	SHORT $LN33@assign@4
	mov	eax, DWORD PTR [esi]
	push	eax
	call	??3@YAXPAX@Z				; operator delete
	add	esp, 4
$LN33@assign@4:
	mov	DWORD PTR [esi+20], 15			; 0000000fH
	mov	DWORD PTR [esi+16], 0
	mov	BYTE PTR [esi], 0
; Line 722
	cmp	DWORD PTR [edi+20], 16			; 00000010H
	jae	SHORT $LN2@assign@4
; Line 724
	mov	ecx, DWORD PTR [edi+16]
	inc	ecx
	push	ecx
	push	edi
	push	esi
	call	DWORD PTR __imp__memmove
	add	esp, 12					; 0000000cH
; Line 725
	jmp	SHORT $LN1@assign@4
$LN2@assign@4:
; Line 727
	mov	edx, DWORD PTR [edi]
	mov	DWORD PTR [esi], edx
; Line 728
	mov	DWORD PTR [edi], 0
$LN1@assign@4:
; Line 730
	mov	eax, DWORD PTR [edi+16]
	mov	DWORD PTR [esi+16], eax
; Line 731
	mov	ecx, DWORD PTR [edi+20]
	mov	DWORD PTR [esi+20], ecx
; Line 733
	mov	DWORD PTR [edi+20], 15			; 0000000fH
	mov	DWORD PTR [edi+16], 0
	mov	BYTE PTR [edi], 0
$LN63@assign@4:
; Line 735
	pop	edi
	mov	eax, esi
	pop	esi
; Line 736
	pop	ebp
	ret	4
?assign@?$basic_string@DU?$char_traits@D@std@@V?$allocator@D@2@@std@@QAEAAV12@$$QAV12@@Z ENDP ; std::basic_string<char,std::char_traits<char>,std::allocator<char> >::assign
_TEXT	ENDS
PUBLIC	??$_Cons_val@V?$allocator@V?$basic_string@DU?$char_traits@D@std@@V?$allocator@D@2@@std@@@std@@V?$basic_string@DU?$char_traits@D@std@@V?$allocator@D@2@@2@AAV32@@std@@YAXAAV?$allocator@V?$basic_string@DU?$char_traits@D@std@@V?$allocator@D@2@@std@@@0@PAV?$basic_string@DU?$char_traits@D@std@@V?$allocator@D@2@@0@AAV20@@Z ; std::_Cons_val<std::allocator<std::basic_string<char,std::char_traits<char>,std::allocator<char> > >,std::basic_string<char,std::char_traits<char>,std::allocator<char> >,std::basic_string<char,std::char_traits<char>,std::allocator<char> > &>
;	COMDAT xdata$x
; File c:\program files (x86)\microsoft visual studio 10.0\vc\include\iosfwd
xdata$x	SEGMENT
__unwindtable$??$_Cons_val@V?$allocator@V?$basic_string@DU?$char_traits@D@std@@V?$allocator@D@2@@std@@@std@@V?$basic_string@DU?$char_traits@D@std@@V?$allocator@D@2@@2@AAV32@@std@@YAXAAV?$allocator@V?$basic_string@DU?$char_traits@D@std@@V?$allocator@D@2@@std@@@0@PAV?$basic_string@DU?$char_traits@D@std@@V?$allocator@D@2@@0@AAV20@@Z DD 0ffffffffH
	DD	FLAT:__unwindfunclet$??$_Cons_val@V?$allocator@V?$basic_string@DU?$char_traits@D@std@@V?$allocator@D@2@@std@@@std@@V?$basic_string@DU?$char_traits@D@std@@V?$allocator@D@2@@2@AAV32@@std@@YAXAAV?$allocator@V?$basic_string@DU?$char_traits@D@std@@V?$allocator@D@2@@std@@@0@PAV?$basic_string@DU?$char_traits@D@std@@V?$allocator@D@2@@0@AAV20@@Z$0
__ehfuncinfo$??$_Cons_val@V?$allocator@V?$basic_string@DU?$char_traits@D@std@@V?$allocator@D@2@@std@@@std@@V?$basic_string@DU?$char_traits@D@std@@V?$allocator@D@2@@2@AAV32@@std@@YAXAAV?$allocator@V?$basic_string@DU?$char_traits@D@std@@V?$allocator@D@2@@std@@@0@PAV?$basic_string@DU?$char_traits@D@std@@V?$allocator@D@2@@0@AAV20@@Z DD 019930522H
	DD	01H
	DD	FLAT:__unwindtable$??$_Cons_val@V?$allocator@V?$basic_string@DU?$char_traits@D@std@@V?$allocator@D@2@@std@@@std@@V?$basic_string@DU?$char_traits@D@std@@V?$allocator@D@2@@2@AAV32@@std@@YAXAAV?$allocator@V?$basic_string@DU?$char_traits@D@std@@V?$allocator@D@2@@std@@@0@PAV?$basic_string@DU?$char_traits@D@std@@V?$allocator@D@2@@0@AAV20@@Z
	DD	2 DUP(00H)
	DD	2 DUP(00H)
	DD	00H
	DD	01H
; Function compile flags: /Ogtp
xdata$x	ENDS
;	COMDAT ??$_Cons_val@V?$allocator@V?$basic_string@DU?$char_traits@D@std@@V?$allocator@D@2@@std@@@std@@V?$basic_string@DU?$char_traits@D@std@@V?$allocator@D@2@@2@AAV32@@std@@YAXAAV?$allocator@V?$basic_string@DU?$char_traits@D@std@@V?$allocator@D@2@@std@@@0@PAV?$basic_string@DU?$char_traits@D@std@@V?$allocator@D@2@@0@AAV20@@Z
_TEXT	SEGMENT
$T132115 = -16						; size = 4
__$EHRec$ = -12						; size = 12
__Alval$ = 8						; size = 4
__Pdest$ = 12						; size = 4
__Src$ = 16						; size = 4
??$_Cons_val@V?$allocator@V?$basic_string@DU?$char_traits@D@std@@V?$allocator@D@2@@std@@@std@@V?$basic_string@DU?$char_traits@D@std@@V?$allocator@D@2@@2@AAV32@@std@@YAXAAV?$allocator@V?$basic_string@DU?$char_traits@D@std@@V?$allocator@D@2@@std@@@0@PAV?$basic_string@DU?$char_traits@D@std@@V?$allocator@D@2@@0@AAV20@@Z PROC ; std::_Cons_val<std::allocator<std::basic_string<char,std::char_traits<char>,std::allocator<char> > >,std::basic_string<char,std::char_traits<char>,std::allocator<char> >,std::basic_string<char,std::char_traits<char>,std::allocator<char> > &>, COMDAT
; File c:\program files (x86)\microsoft visual studio 10.0\vc\include\xmemory
; Line 279
	push	ebp
	mov	ebp, esp
	push	-1
	push	__ehhandler$??$_Cons_val@V?$allocator@V?$basic_string@DU?$char_traits@D@std@@V?$allocator@D@2@@std@@@std@@V?$basic_string@DU?$char_traits@D@std@@V?$allocator@D@2@@2@AAV32@@std@@YAXAAV?$allocator@V?$basic_string@DU?$char_traits@D@std@@V?$allocator@D@2@@std@@@0@PAV?$basic_string@DU?$char_traits@D@std@@V?$allocator@D@2@@0@AAV20@@Z
	mov	eax, DWORD PTR fs:0
	push	eax
	push	ecx
	mov	eax, DWORD PTR ___security_cookie
	xor	eax, ebp
	push	eax
	lea	eax, DWORD PTR __$EHRec$[ebp]
	mov	DWORD PTR fs:0, eax
; Line 280
	mov	ecx, DWORD PTR __Pdest$[ebp]
	mov	DWORD PTR $T132115[ebp], ecx
	xor	eax, eax
	mov	DWORD PTR __$EHRec$[ebp+8], eax
	cmp	ecx, eax
	je	SHORT $LN7@Cons_val
	push	-1
	mov	DWORD PTR [ecx+16], eax
	mov	DWORD PTR [ecx+20], 15			; 0000000fH
	push	eax
	mov	BYTE PTR [ecx], al
	mov	eax, DWORD PTR __Src$[ebp]
	push	eax
	call	?assign@?$basic_string@DU?$char_traits@D@std@@V?$allocator@D@2@@std@@QAEAAV12@ABV12@II@Z ; std::basic_string<char,std::char_traits<char>,std::allocator<char> >::assign
$LN7@Cons_val:
; Line 281
	mov	ecx, DWORD PTR __$EHRec$[ebp]
	mov	DWORD PTR fs:0, ecx
	pop	ecx
	mov	esp, ebp
	pop	ebp
	ret	0
_TEXT	ENDS
;	COMDAT text$x
text$x	SEGMENT
__unwindfunclet$??$_Cons_val@V?$allocator@V?$basic_string@DU?$char_traits@D@std@@V?$allocator@D@2@@std@@@std@@V?$basic_string@DU?$char_traits@D@std@@V?$allocator@D@2@@2@AAV32@@std@@YAXAAV?$allocator@V?$basic_string@DU?$char_traits@D@std@@V?$allocator@D@2@@std@@@0@PAV?$basic_string@DU?$char_traits@D@std@@V?$allocator@D@2@@0@AAV20@@Z$0:
	mov	eax, DWORD PTR __Pdest$[ebp]
	push	eax
	mov	ecx, DWORD PTR $T132115[ebp]
	push	ecx
	call	??3@YAXPAX0@Z				; operator delete
	add	esp, 8
	ret	0
__ehhandler$??$_Cons_val@V?$allocator@V?$basic_string@DU?$char_traits@D@std@@V?$allocator@D@2@@std@@@std@@V?$basic_string@DU?$char_traits@D@std@@V?$allocator@D@2@@2@AAV32@@std@@YAXAAV?$allocator@V?$basic_string@DU?$char_traits@D@std@@V?$allocator@D@2@@std@@@0@PAV?$basic_string@DU?$char_traits@D@std@@V?$allocator@D@2@@0@AAV20@@Z:
	mov	edx, DWORD PTR [esp+8]
	lea	eax, DWORD PTR [edx+12]
	mov	ecx, DWORD PTR [edx-8]
	xor	ecx, eax
	call	@__security_check_cookie@4
	mov	eax, OFFSET __ehfuncinfo$??$_Cons_val@V?$allocator@V?$basic_string@DU?$char_traits@D@std@@V?$allocator@D@2@@std@@@std@@V?$basic_string@DU?$char_traits@D@std@@V?$allocator@D@2@@2@AAV32@@std@@YAXAAV?$allocator@V?$basic_string@DU?$char_traits@D@std@@V?$allocator@D@2@@std@@@0@PAV?$basic_string@DU?$char_traits@D@std@@V?$allocator@D@2@@0@AAV20@@Z
	jmp	___CxxFrameHandler3
text$x	ENDS
??$_Cons_val@V?$allocator@V?$basic_string@DU?$char_traits@D@std@@V?$allocator@D@2@@std@@@std@@V?$basic_string@DU?$char_traits@D@std@@V?$allocator@D@2@@2@AAV32@@std@@YAXAAV?$allocator@V?$basic_string@DU?$char_traits@D@std@@V?$allocator@D@2@@std@@@0@PAV?$basic_string@DU?$char_traits@D@std@@V?$allocator@D@2@@0@AAV20@@Z ENDP ; std::_Cons_val<std::allocator<std::basic_string<char,std::char_traits<char>,std::allocator<char> > >,std::basic_string<char,std::char_traits<char>,std::allocator<char> >,std::basic_string<char,std::char_traits<char>,std::allocator<char> > &>
PUBLIC	?construct@?$allocator@V?$basic_string@DU?$char_traits@D@std@@V?$allocator@D@2@@std@@@std@@QAEXPAV?$basic_string@DU?$char_traits@D@std@@V?$allocator@D@2@@2@ABV32@@Z ; std::allocator<std::basic_string<char,std::char_traits<char>,std::allocator<char> > >::construct
;	COMDAT xdata$x
; File c:\program files (x86)\microsoft visual studio 10.0\vc\include\iosfwd
xdata$x	SEGMENT
__unwindtable$?construct@?$allocator@V?$basic_string@DU?$char_traits@D@std@@V?$allocator@D@2@@std@@@std@@QAEXPAV?$basic_string@DU?$char_traits@D@std@@V?$allocator@D@2@@2@ABV32@@Z DD 0ffffffffH
	DD	FLAT:__unwindfunclet$?construct@?$allocator@V?$basic_string@DU?$char_traits@D@std@@V?$allocator@D@2@@std@@@std@@QAEXPAV?$basic_string@DU?$char_traits@D@std@@V?$allocator@D@2@@2@ABV32@@Z$0
__ehfuncinfo$?construct@?$allocator@V?$basic_string@DU?$char_traits@D@std@@V?$allocator@D@2@@std@@@std@@QAEXPAV?$basic_string@DU?$char_traits@D@std@@V?$allocator@D@2@@2@ABV32@@Z DD 019930522H
	DD	01H
	DD	FLAT:__unwindtable$?construct@?$allocator@V?$basic_string@DU?$char_traits@D@std@@V?$allocator@D@2@@std@@@std@@QAEXPAV?$basic_string@DU?$char_traits@D@std@@V?$allocator@D@2@@2@ABV32@@Z
	DD	2 DUP(00H)
	DD	2 DUP(00H)
	DD	00H
	DD	01H
; Function compile flags: /Ogtp
xdata$x	ENDS
;	COMDAT ?construct@?$allocator@V?$basic_string@DU?$char_traits@D@std@@V?$allocator@D@2@@std@@@std@@QAEXPAV?$basic_string@DU?$char_traits@D@std@@V?$allocator@D@2@@2@ABV32@@Z
_TEXT	SEGMENT
$T132258 = -16						; size = 4
__$EHRec$ = -12						; size = 12
__Vptr$132295 = 8					; size = 4
__Ptr$ = 8						; size = 4
__Val$ = 12						; size = 4
?construct@?$allocator@V?$basic_string@DU?$char_traits@D@std@@V?$allocator@D@2@@std@@@std@@QAEXPAV?$basic_string@DU?$char_traits@D@std@@V?$allocator@D@2@@2@ABV32@@Z PROC ; std::allocator<std::basic_string<char,std::char_traits<char>,std::allocator<char> > >::construct, COMDAT
; _this$ = ecx
; File c:\program files (x86)\microsoft visual studio 10.0\vc\include\xmemory
; Line 196
	push	ebp
	mov	ebp, esp
	push	-1
	push	__ehhandler$?construct@?$allocator@V?$basic_string@DU?$char_traits@D@std@@V?$allocator@D@2@@std@@@std@@QAEXPAV?$basic_string@DU?$char_traits@D@std@@V?$allocator@D@2@@2@ABV32@@Z
	mov	eax, DWORD PTR fs:0
	push	eax
	push	ecx
	mov	eax, DWORD PTR ___security_cookie
	xor	eax, ebp
	push	eax
	lea	eax, DWORD PTR __$EHRec$[ebp]
	mov	DWORD PTR fs:0, eax
; Line 197
	mov	ecx, DWORD PTR __Ptr$[ebp]
	mov	DWORD PTR __Vptr$132295[ebp], ecx
	mov	DWORD PTR $T132258[ebp], ecx
	xor	eax, eax
	mov	DWORD PTR __$EHRec$[ebp+8], eax
	cmp	ecx, eax
	je	SHORT $LN5@construct@2
	push	-1
	mov	DWORD PTR [ecx+16], eax
	mov	DWORD PTR [ecx+20], 15			; 0000000fH
	push	eax
	mov	BYTE PTR [ecx], al
	mov	eax, DWORD PTR __Val$[ebp]
	push	eax
	call	?assign@?$basic_string@DU?$char_traits@D@std@@V?$allocator@D@2@@std@@QAEAAV12@ABV12@II@Z ; std::basic_string<char,std::char_traits<char>,std::allocator<char> >::assign
$LN5@construct@2:
; Line 198
	mov	ecx, DWORD PTR __$EHRec$[ebp]
	mov	DWORD PTR fs:0, ecx
	pop	ecx
	mov	esp, ebp
	pop	ebp
	ret	8
_TEXT	ENDS
;	COMDAT text$x
text$x	SEGMENT
__unwindfunclet$?construct@?$allocator@V?$basic_string@DU?$char_traits@D@std@@V?$allocator@D@2@@std@@@std@@QAEXPAV?$basic_string@DU?$char_traits@D@std@@V?$allocator@D@2@@2@ABV32@@Z$0:
	mov	eax, DWORD PTR __Vptr$132295[ebp]
	push	eax
	mov	ecx, DWORD PTR $T132258[ebp]
	push	ecx
	call	??3@YAXPAX0@Z				; operator delete
	add	esp, 8
	ret	0
__ehhandler$?construct@?$allocator@V?$basic_string@DU?$char_traits@D@std@@V?$allocator@D@2@@std@@@std@@QAEXPAV?$basic_string@DU?$char_traits@D@std@@V?$allocator@D@2@@2@ABV32@@Z:
	mov	edx, DWORD PTR [esp+8]
	lea	eax, DWORD PTR [edx+12]
	mov	ecx, DWORD PTR [edx-8]
	xor	ecx, eax
	call	@__security_check_cookie@4
	mov	eax, OFFSET __ehfuncinfo$?construct@?$allocator@V?$basic_string@DU?$char_traits@D@std@@V?$allocator@D@2@@std@@@std@@QAEXPAV?$basic_string@DU?$char_traits@D@std@@V?$allocator@D@2@@2@ABV32@@Z
	jmp	___CxxFrameHandler3
text$x	ENDS
?construct@?$allocator@V?$basic_string@DU?$char_traits@D@std@@V?$allocator@D@2@@std@@@std@@QAEXPAV?$basic_string@DU?$char_traits@D@std@@V?$allocator@D@2@@2@ABV32@@Z ENDP ; std::allocator<std::basic_string<char,std::char_traits<char>,std::allocator<char> > >::construct
PUBLIC	??$_Dest_val@V?$allocator@V?$basic_string@DU?$char_traits@D@std@@V?$allocator@D@2@@std@@@std@@V?$basic_string@DU?$char_traits@D@std@@V?$allocator@D@2@@2@@std@@YAXAAV?$allocator@V?$basic_string@DU?$char_traits@D@std@@V?$allocator@D@2@@std@@@0@PAV?$basic_string@DU?$char_traits@D@std@@V?$allocator@D@2@@0@@Z ; std::_Dest_val<std::allocator<std::basic_string<char,std::char_traits<char>,std::allocator<char> > >,std::basic_string<char,std::char_traits<char>,std::allocator<char> > >
; Function compile flags: /Ogtp
;	COMDAT ??$_Dest_val@V?$allocator@V?$basic_string@DU?$char_traits@D@std@@V?$allocator@D@2@@std@@@std@@V?$basic_string@DU?$char_traits@D@std@@V?$allocator@D@2@@2@@std@@YAXAAV?$allocator@V?$basic_string@DU?$char_traits@D@std@@V?$allocator@D@2@@std@@@0@PAV?$basic_string@DU?$char_traits@D@std@@V?$allocator@D@2@@0@@Z
_TEXT	SEGMENT
__Alval$ = 8						; size = 4
__Pdest$ = 12						; size = 4
??$_Dest_val@V?$allocator@V?$basic_string@DU?$char_traits@D@std@@V?$allocator@D@2@@std@@@std@@V?$basic_string@DU?$char_traits@D@std@@V?$allocator@D@2@@2@@std@@YAXAAV?$allocator@V?$basic_string@DU?$char_traits@D@std@@V?$allocator@D@2@@std@@@0@PAV?$basic_string@DU?$char_traits@D@std@@V?$allocator@D@2@@0@@Z PROC ; std::_Dest_val<std::allocator<std::basic_string<char,std::char_traits<char>,std::allocator<char> > >,std::basic_string<char,std::char_traits<char>,std::allocator<char> > >, COMDAT
; Line 286
	push	ebp
	mov	ebp, esp
	push	esi
; Line 287
	mov	esi, DWORD PTR __Pdest$[ebp]
	cmp	DWORD PTR [esi+20], 16			; 00000010H
	jb	SHORT $LN20@Dest_val
	mov	eax, DWORD PTR [esi]
	push	eax
	call	??3@YAXPAX@Z				; operator delete
	add	esp, 4
$LN20@Dest_val:
	mov	DWORD PTR [esi+20], 15			; 0000000fH
	mov	DWORD PTR [esi+16], 0
	mov	BYTE PTR [esi], 0
	pop	esi
; Line 288
	pop	ebp
	ret	0
??$_Dest_val@V?$allocator@V?$basic_string@DU?$char_traits@D@std@@V?$allocator@D@2@@std@@@std@@V?$basic_string@DU?$char_traits@D@std@@V?$allocator@D@2@@2@@std@@YAXAAV?$allocator@V?$basic_string@DU?$char_traits@D@std@@V?$allocator@D@2@@std@@@0@PAV?$basic_string@DU?$char_traits@D@std@@V?$allocator@D@2@@0@@Z ENDP ; std::_Dest_val<std::allocator<std::basic_string<char,std::char_traits<char>,std::allocator<char> > >,std::basic_string<char,std::char_traits<char>,std::allocator<char> > >
_TEXT	ENDS
PUBLIC	?FindCurTexture@@YA?AV?$_Tree_iterator@V?$_Tree_val@V?$_Tmap_traits@IPAVManagedItem@@U?$less@I@std@@V?$allocator@U?$pair@$$CBIPAVManagedItem@@@std@@@3@$0A@@std@@@std@@@std@@XZ ; FindCurTexture
EXTRN	?add@TextureManager@@UAEIV?$basic_string@DU?$char_traits@D@std@@V?$allocator@D@2@@std@@@Z:PROC ; TextureManager::add
EXTRN	?video@@3VVideo@@A:BYTE				; video
; Function compile flags: /Ogtp
_TEXT	SEGMENT
$T132473 = -4						; size = 4
___$ReturnUdt$ = 8					; size = 4
?FindCurTexture@@YA?AV?$_Tree_iterator@V?$_Tree_val@V?$_Tmap_traits@IPAVManagedItem@@U?$less@I@std@@V?$allocator@U?$pair@$$CBIPAVManagedItem@@@std@@@3@$0A@@std@@@std@@@std@@XZ PROC ; FindCurTexture
; File c:\programovani\wow editor\test\src\editor\texturingui.cpp
; Line 134
	push	ebp
	mov	ebp, esp
	push	ecx
	push	ebx
	push	esi
	push	edi
; Line 136
	sub	esp, 28					; 0000001cH
	mov	ecx, esp
	mov	eax, OFFSET ?CurTextureName@@3PADA	; CurTextureName
	mov	DWORD PTR [ecx+20], 15			; 0000000fH
	mov	DWORD PTR [ecx+16], 0
	mov	DWORD PTR $T132473[ebp], esp
	mov	BYTE PTR [ecx], 0
	lea	esi, DWORD PTR [eax+1]
$LL125@FindCurTex:
	mov	dl, BYTE PTR [eax]
	inc	eax
	test	dl, dl
	jne	SHORT $LL125@FindCurTex
	sub	eax, esi
	push	eax
	push	OFFSET ?CurTextureName@@3PADA		; CurTextureName
	call	?assign@?$basic_string@DU?$char_traits@D@std@@V?$allocator@D@2@@std@@QAEAAV12@PBDI@Z ; std::basic_string<char,std::char_traits<char>,std::allocator<char> >::assign
	mov	ecx, OFFSET ?video@@3VVideo@@A+16
	call	?add@TextureManager@@UAEIV?$basic_string@DU?$char_traits@D@std@@V?$allocator@D@2@@std@@@Z ; TextureManager::add
; Line 139
	mov	edi, DWORD PTR ?video@@3VVideo@@A+40
	mov	ecx, DWORD PTR [edi]
	mov	eax, DWORD PTR ___$ReturnUdt$[ebp]
	mov	DWORD PTR [eax], ecx
	cmp	ecx, edi
	je	$LN2@FindCurTex
	npad	5
$LL130@FindCurTex:
; Line 140
	mov	esi, DWORD PTR [eax]
	mov	ecx, DWORD PTR [esi+16]
	add	ecx, 8
	cmp	DWORD PTR [ecx+20], 16			; 00000010H
	jb	SHORT $LN116@FindCurTex
	mov	ecx, DWORD PTR [ecx]
$LN116@FindCurTex:
	mov	edx, ecx
	mov	ecx, OFFSET ?CurTextureName@@3PADA	; CurTextureName
$LL126@FindCurTex:
	mov	bl, BYTE PTR [ecx]
	cmp	bl, BYTE PTR [edx]
	jne	SHORT $LN127@FindCurTex
	test	bl, bl
	je	SHORT $LN128@FindCurTex
	mov	bl, BYTE PTR [ecx+1]
	cmp	bl, BYTE PTR [edx+1]
	jne	SHORT $LN127@FindCurTex
	add	ecx, 2
	add	edx, 2
	test	bl, bl
	jne	SHORT $LL126@FindCurTex
$LN128@FindCurTex:
	xor	ecx, ecx
	jmp	SHORT $LN129@FindCurTex
$LN127@FindCurTex:
	sbb	ecx, ecx
	sbb	ecx, -1
$LN129@FindCurTex:
	test	ecx, ecx
	je	SHORT $LN2@FindCurTex
; Line 139
	cmp	BYTE PTR [esi+21], 0
	jne	SHORT $LN124@FindCurTex
	mov	edx, DWORD PTR [esi+8]
	cmp	BYTE PTR [edx+21], 0
	jne	SHORT $LN120@FindCurTex
	mov	ecx, DWORD PTR [edx]
	cmp	BYTE PTR [ecx+21], 0
	jne	SHORT $LN74@FindCurTex
$LL75@FindCurTex:
	mov	edx, ecx
	mov	ecx, DWORD PTR [edx]
	cmp	BYTE PTR [ecx+21], 0
	je	SHORT $LL75@FindCurTex
$LN74@FindCurTex:
	mov	DWORD PTR [eax], edx
	jmp	SHORT $LN124@FindCurTex
$LN120@FindCurTex:
	mov	ecx, DWORD PTR [esi+4]
	cmp	BYTE PTR [ecx+21], 0
	jne	SHORT $LN58@FindCurTex
	npad	2
$LL59@FindCurTex:
	mov	edx, DWORD PTR [eax]
	cmp	edx, DWORD PTR [ecx+8]
	jne	SHORT $LN58@FindCurTex
	mov	DWORD PTR [eax], ecx
	mov	ecx, DWORD PTR [ecx+4]
	cmp	BYTE PTR [ecx+21], 0
	je	SHORT $LL59@FindCurTex
$LN58@FindCurTex:
	mov	DWORD PTR [eax], ecx
$LN124@FindCurTex:
	cmp	DWORD PTR [eax], edi
	jne	$LL130@FindCurTex
$LN2@FindCurTex:
; Line 142
	pop	edi
	pop	esi
	pop	ebx
	mov	esp, ebp
	pop	ebp
	ret	0
?FindCurTexture@@YA?AV?$_Tree_iterator@V?$_Tree_val@V?$_Tmap_traits@IPAVManagedItem@@U?$less@I@std@@V?$allocator@U?$pair@$$CBIPAVManagedItem@@@std@@@3@$0A@@std@@@std@@@std@@XZ ENDP ; FindCurTexture
_TEXT	ENDS
PUBLIC	?updateTextures@@YAXXZ				; updateTextures
EXTRN	?setTexture@textureUI@@QAEXI@Z:PROC		; textureUI::setTexture
; Function compile flags: /Ogtp
_TEXT	SEGMENT
_t$ = -4						; size = 4
?updateTextures@@YAXXZ PROC				; updateTextures
; Line 208
	push	ebp
	mov	ebp, esp
	push	ecx
	push	ebx
	push	esi
; Line 209
	lea	eax, DWORD PTR _t$[ebp]
	push	edi
	push	eax
	call	?FindCurTexture@@YA?AV?$_Tree_iterator@V?$_Tree_val@V?$_Tmap_traits@IPAVManagedItem@@U?$less@I@std@@V?$allocator@U?$pair@$$CBIPAVManagedItem@@@std@@@3@$0A@@std@@@std@@@std@@XZ ; FindCurTexture
; Line 210
	mov	esi, DWORD PTR _t$[ebp]
	add	esp, 4
	xor	ebx, ebx
	xor	edi, edi
	npad	6
$LL8@updateText:
; Line 213
	cmp	esi, DWORD PTR ?video@@3VVideo@@A+40
	je	SHORT $LN5@updateText
	npad	8
$CheckForEnd$116789:
; Line 219
	mov	eax, DWORD PTR [esi+16]
	add	eax, 8
	cmp	DWORD PTR [eax+20], 16			; 00000010H
	jb	SHORT $LN37@updateText
	mov	eax, DWORD PTR [eax]
$LN37@updateText:
; Line 220
	push	eax
	call	?TextureInPalette@@YA_NPBD@Z		; TextureInPalette
	add	esp, 4
	test	al, al
	jne	SHORT $LN4@updateText
; Line 222
	cmp	BYTE PTR [esi+21], bl
	jne	SHORT $LN47@updateText
	mov	eax, DWORD PTR [esi+8]
	cmp	BYTE PTR [eax+21], bl
	jne	SHORT $LN138@updateText
	mov	esi, eax
	mov	eax, DWORD PTR [esi]
	cmp	BYTE PTR [eax+21], bl
	jne	SHORT $LN47@updateText
$LL62@updateText:
	mov	esi, eax
	mov	eax, DWORD PTR [esi]
	cmp	BYTE PTR [eax+21], bl
	je	SHORT $LL62@updateText
	jmp	SHORT $LN47@updateText
$LN138@updateText:
	mov	eax, DWORD PTR [esi+4]
	cmp	BYTE PTR [eax+21], bl
	jne	SHORT $LN45@updateText
$LL46@updateText:
	cmp	esi, DWORD PTR [eax+8]
	jne	SHORT $LN45@updateText
	mov	esi, eax
	mov	eax, DWORD PTR [eax+4]
	cmp	BYTE PTR [eax+21], bl
	je	SHORT $LL46@updateText
$LN45@updateText:
	mov	esi, eax
$LN47@updateText:
; Line 213
	cmp	esi, DWORD PTR ?video@@3VVideo@@A+40
