; Listing generated by Microsoft (R) Optimizing Compiler Version 16.00.40219.01 

	TITLE	C:\programovani\WoW Editor\Test\src\Editor\Video.cpp
	.686P
	.XMM
	include listing.inc
	.model	flat

INCLUDELIB MSVCRT
INCLUDELIB OLDNAMES

PUBLIC	?GLSettings@@3PAEA				; GLSettings
PUBLIC	?value@?$integral_constant@_N$0A@@tr1@std@@2_NB	; std::tr1::integral_constant<bool,0>::value
PUBLIC	?value@?$integral_constant@_N$00@tr1@std@@2_NB	; std::tr1::integral_constant<bool,1>::value
PUBLIC	?value@?$integral_constant@I$0A@@tr1@std@@2IB	; std::tr1::integral_constant<unsigned int,0>::value
PUBLIC	?_Rank@?$_Arithmetic_traits@_N@std@@2HB		; std::_Arithmetic_traits<bool>::_Rank
PUBLIC	?_Rank@?$_Arithmetic_traits@D@std@@2HB		; std::_Arithmetic_traits<char>::_Rank
PUBLIC	?_Rank@?$_Arithmetic_traits@C@std@@2HB		; std::_Arithmetic_traits<signed char>::_Rank
PUBLIC	?_Rank@?$_Arithmetic_traits@E@std@@2HB		; std::_Arithmetic_traits<unsigned char>::_Rank
PUBLIC	?_Rank@?$_Arithmetic_traits@F@std@@2HB		; std::_Arithmetic_traits<short>::_Rank
PUBLIC	?_Rank@?$_Arithmetic_traits@G@std@@2HB		; std::_Arithmetic_traits<unsigned short>::_Rank
PUBLIC	?_Rank@?$_Arithmetic_traits@H@std@@2HB		; std::_Arithmetic_traits<int>::_Rank
PUBLIC	?_Rank@?$_Arithmetic_traits@I@std@@2HB		; std::_Arithmetic_traits<unsigned int>::_Rank
PUBLIC	?_Rank@?$_Arithmetic_traits@J@std@@2HB		; std::_Arithmetic_traits<long>::_Rank
PUBLIC	?_Rank@?$_Arithmetic_traits@K@std@@2HB		; std::_Arithmetic_traits<unsigned long>::_Rank
PUBLIC	?_Rank@?$_Arithmetic_traits@_J@std@@2HB		; std::_Arithmetic_traits<__int64>::_Rank
PUBLIC	?_Rank@?$_Arithmetic_traits@_K@std@@2HB		; std::_Arithmetic_traits<unsigned __int64>::_Rank
PUBLIC	?_Rank@?$_Arithmetic_traits@M@std@@2HB		; std::_Arithmetic_traits<float>::_Rank
PUBLIC	?_Rank@?$_Arithmetic_traits@N@std@@2HB		; std::_Arithmetic_traits<double>::_Rank
PUBLIC	?_Rank@?$_Arithmetic_traits@O@std@@2HB		; std::_Arithmetic_traits<long double>::_Rank
PUBLIC	?collate@?$_Locbase@H@std@@2HB			; std::_Locbase<int>::collate
PUBLIC	?ctype@?$_Locbase@H@std@@2HB			; std::_Locbase<int>::ctype
PUBLIC	?monetary@?$_Locbase@H@std@@2HB			; std::_Locbase<int>::monetary
PUBLIC	?numeric@?$_Locbase@H@std@@2HB			; std::_Locbase<int>::numeric
PUBLIC	?time@?$_Locbase@H@std@@2HB			; std::_Locbase<int>::time
PUBLIC	?messages@?$_Locbase@H@std@@2HB			; std::_Locbase<int>::messages
PUBLIC	?all@?$_Locbase@H@std@@2HB			; std::_Locbase<int>::all
PUBLIC	?none@?$_Locbase@H@std@@2HB			; std::_Locbase<int>::none
PUBLIC	?skipws@?$_Iosb@H@std@@2W4_Fmtflags@12@B	; std::_Iosb<int>::skipws
PUBLIC	?unitbuf@?$_Iosb@H@std@@2W4_Fmtflags@12@B	; std::_Iosb<int>::unitbuf
PUBLIC	?uppercase@?$_Iosb@H@std@@2W4_Fmtflags@12@B	; std::_Iosb<int>::uppercase
PUBLIC	?showbase@?$_Iosb@H@std@@2W4_Fmtflags@12@B	; std::_Iosb<int>::showbase
PUBLIC	?showpoint@?$_Iosb@H@std@@2W4_Fmtflags@12@B	; std::_Iosb<int>::showpoint
PUBLIC	?showpos@?$_Iosb@H@std@@2W4_Fmtflags@12@B	; std::_Iosb<int>::showpos
PUBLIC	?left@?$_Iosb@H@std@@2W4_Fmtflags@12@B		; std::_Iosb<int>::left
PUBLIC	?right@?$_Iosb@H@std@@2W4_Fmtflags@12@B		; std::_Iosb<int>::right
PUBLIC	?internal@?$_Iosb@H@std@@2W4_Fmtflags@12@B	; std::_Iosb<int>::internal
PUBLIC	?dec@?$_Iosb@H@std@@2W4_Fmtflags@12@B		; std::_Iosb<int>::dec
PUBLIC	?oct@?$_Iosb@H@std@@2W4_Fmtflags@12@B		; std::_Iosb<int>::oct
PUBLIC	?hex@?$_Iosb@H@std@@2W4_Fmtflags@12@B		; std::_Iosb<int>::hex
PUBLIC	?scientific@?$_Iosb@H@std@@2W4_Fmtflags@12@B	; std::_Iosb<int>::scientific
PUBLIC	?fixed@?$_Iosb@H@std@@2W4_Fmtflags@12@B		; std::_Iosb<int>::fixed
PUBLIC	?hexfloat@?$_Iosb@H@std@@2W4_Fmtflags@12@B	; std::_Iosb<int>::hexfloat
PUBLIC	?boolalpha@?$_Iosb@H@std@@2W4_Fmtflags@12@B	; std::_Iosb<int>::boolalpha
PUBLIC	?_Stdio@?$_Iosb@H@std@@2W4_Fmtflags@12@B	; std::_Iosb<int>::_Stdio
PUBLIC	?adjustfield@?$_Iosb@H@std@@2W4_Fmtflags@12@B	; std::_Iosb<int>::adjustfield
PUBLIC	?basefield@?$_Iosb@H@std@@2W4_Fmtflags@12@B	; std::_Iosb<int>::basefield
PUBLIC	?floatfield@?$_Iosb@H@std@@2W4_Fmtflags@12@B	; std::_Iosb<int>::floatfield
PUBLIC	?goodbit@?$_Iosb@H@std@@2W4_Iostate@12@B	; std::_Iosb<int>::goodbit
PUBLIC	?eofbit@?$_Iosb@H@std@@2W4_Iostate@12@B		; std::_Iosb<int>::eofbit
PUBLIC	?failbit@?$_Iosb@H@std@@2W4_Iostate@12@B	; std::_Iosb<int>::failbit
PUBLIC	?badbit@?$_Iosb@H@std@@2W4_Iostate@12@B		; std::_Iosb<int>::badbit
PUBLIC	?_Hardfail@?$_Iosb@H@std@@2W4_Iostate@12@B	; std::_Iosb<int>::_Hardfail
PUBLIC	?in@?$_Iosb@H@std@@2W4_Openmode@12@B		; std::_Iosb<int>::in
PUBLIC	?out@?$_Iosb@H@std@@2W4_Openmode@12@B		; std::_Iosb<int>::out
PUBLIC	?ate@?$_Iosb@H@std@@2W4_Openmode@12@B		; std::_Iosb<int>::ate
PUBLIC	?app@?$_Iosb@H@std@@2W4_Openmode@12@B		; std::_Iosb<int>::app
PUBLIC	?trunc@?$_Iosb@H@std@@2W4_Openmode@12@B		; std::_Iosb<int>::trunc
PUBLIC	?_Nocreate@?$_Iosb@H@std@@2W4_Openmode@12@B	; std::_Iosb<int>::_Nocreate
PUBLIC	?_Noreplace@?$_Iosb@H@std@@2W4_Openmode@12@B	; std::_Iosb<int>::_Noreplace
PUBLIC	?binary@?$_Iosb@H@std@@2W4_Openmode@12@B	; std::_Iosb<int>::binary
PUBLIC	?beg@?$_Iosb@H@std@@2W4_Seekdir@12@B		; std::_Iosb<int>::beg
PUBLIC	?cur@?$_Iosb@H@std@@2W4_Seekdir@12@B		; std::_Iosb<int>::cur
PUBLIC	?end@?$_Iosb@H@std@@2W4_Seekdir@12@B		; std::_Iosb<int>::end
PUBLIC	?glMultiTexCoord2fARB@@3P6GXIMM@ZA		; glMultiTexCoord2fARB
PUBLIC	?glActiveTextureARB@@3P6GXI@ZA			; glActiveTextureARB
PUBLIC	?glClientActiveTextureARB@@3P6GXI@ZA		; glClientActiveTextureARB
PUBLIC	?glCompressedTexImage2DARB@@3P6GXIHIHHHHPBX@ZA	; glCompressedTexImage2DARB
PUBLIC	?glGenBuffersARB@@3P6GXHPAI@ZA			; glGenBuffersARB
PUBLIC	?glBindBufferARB@@3P6GXII@ZA			; glBindBufferARB
PUBLIC	?glBufferDataARB@@3P6GXIHPBXI@ZA		; glBufferDataARB
PUBLIC	?glDeleteBuffersARB@@3P6GXHPBI@ZA		; glDeleteBuffersARB
PUBLIC	?glMapBufferARB@@3P6GPAXII@ZA			; glMapBufferARB
PUBLIC	?glUnmapBufferARB@@3P6GEI@ZA			; glUnmapBufferARB
PUBLIC	?glDrawRangeElements@@3P6GXIIIHIPBX@ZA		; glDrawRangeElements
_BSS	SEGMENT
?GLSettings@@3PAEA DB 0dH DUP (?)			; GLSettings
	ALIGN	4

?glMultiTexCoord2fARB@@3P6GXIMM@ZA DD 01H DUP (?)	; glMultiTexCoord2fARB
?glActiveTextureARB@@3P6GXI@ZA DD 01H DUP (?)		; glActiveTextureARB
?glClientActiveTextureARB@@3P6GXI@ZA DD 01H DUP (?)	; glClientActiveTextureARB
?glCompressedTexImage2DARB@@3P6GXIHIHHHHPBX@ZA DD 01H DUP (?) ; glCompressedTexImage2DARB
?glGenBuffersARB@@3P6GXHPAI@ZA DD 01H DUP (?)		; glGenBuffersARB
?glBindBufferARB@@3P6GXII@ZA DD 01H DUP (?)		; glBindBufferARB
?glBufferDataARB@@3P6GXIHPBXI@ZA DD 01H DUP (?)		; glBufferDataARB
?glDeleteBuffersARB@@3P6GXHPBI@ZA DD 01H DUP (?)	; glDeleteBuffersARB
?glMapBufferARB@@3P6GPAXII@ZA DD 01H DUP (?)		; glMapBufferARB
?glUnmapBufferARB@@3P6GEI@ZA DD 01H DUP (?)		; glUnmapBufferARB
?glDrawRangeElements@@3P6GXIIIHIPBX@ZA DD 01H DUP (?)	; glDrawRangeElements
_BSS	ENDS
CONST	SEGMENT
$SG71134 DB	'SDL Error: %s', 0aH, 00H
	ORG $+1
$SG71146 DB	'glActiveTextureARB', 00H
	ORG $+1
$SG71148 DB	'glClientActiveTextureARB', 00H
	ORG $+3
$SG71150 DB	'glMultiTexCoord2fARB', 00H
	ORG $+3
$SG71152 DB	'glCompressedTexImage2DARB', 00H
	ORG $+2
$SG71154 DB	'glGenBuffersARB', 00H
$SG71156 DB	'glBindBufferARB', 00H
$SG71158 DB	'glBufferDataARB', 00H
$SG71160 DB	'glDeleteBuffersARB', 00H
	ORG $+1
$SG71162 DB	'glMapBufferARB', 00H
	ORG $+1
$SG71164 DB	'glUnmapBufferARB', 00H
	ORG $+3
$SG71166 DB	'glDrawRangeElements', 00H
$SG71531 DB	'[World of Warcraft Studio - Editor] - Loading Texture fr'
	DB	'om MPQ %s', 0aH, 00H
	ORG $+1
$SG71539 DB	'[World of Warcraft Studio - Editor] - Reloading Textures'
	DB	0aH, 00H
	ORG $+2
$SG71533 DB	'[World of Warcraft Studio - Editor] - Loading Texture fr'
	DB	'om File %s', 0aH, 00H
$SG71818 DB	'rb', 00H
	ORG $+1
$SG71712 DB	'[World of Warcraft Studio - Editor] - Reloading Texture '
	DB	'from MPQ %s', 0aH, 00H
	ORG $+3
$SG71714 DB	'[World of Warcraft Studio - Editor] - Reloading Texture '
	DB	'from File %s', 0aH, 00H
	ORG $+2
$SG71715 DB	'[World of Warcraft Studio - Editor] - Finish Reloading T'
	DB	'extures', 0aH, 0aH, 00H
CONST	ENDS
;	COMDAT ?end@?$_Iosb@H@std@@2W4_Seekdir@12@B
CONST	SEGMENT
?end@?$_Iosb@H@std@@2W4_Seekdir@12@B DD 02H		; std::_Iosb<int>::end
CONST	ENDS
;	COMDAT ?cur@?$_Iosb@H@std@@2W4_Seekdir@12@B
CONST	SEGMENT
?cur@?$_Iosb@H@std@@2W4_Seekdir@12@B DD 01H		; std::_Iosb<int>::cur
CONST	ENDS
;	COMDAT ?beg@?$_Iosb@H@std@@2W4_Seekdir@12@B
CONST	SEGMENT
?beg@?$_Iosb@H@std@@2W4_Seekdir@12@B DD 00H		; std::_Iosb<int>::beg
CONST	ENDS
;	COMDAT ?binary@?$_Iosb@H@std@@2W4_Openmode@12@B
CONST	SEGMENT
?binary@?$_Iosb@H@std@@2W4_Openmode@12@B DD 020H	; std::_Iosb<int>::binary
CONST	ENDS
;	COMDAT ?_Noreplace@?$_Iosb@H@std@@2W4_Openmode@12@B
CONST	SEGMENT
?_Noreplace@?$_Iosb@H@std@@2W4_Openmode@12@B DD 080H	; std::_Iosb<int>::_Noreplace
CONST	ENDS
;	COMDAT ?_Nocreate@?$_Iosb@H@std@@2W4_Openmode@12@B
CONST	SEGMENT
?_Nocreate@?$_Iosb@H@std@@2W4_Openmode@12@B DD 040H	; std::_Iosb<int>::_Nocreate
CONST	ENDS
;	COMDAT ?trunc@?$_Iosb@H@std@@2W4_Openmode@12@B
CONST	SEGMENT
?trunc@?$_Iosb@H@std@@2W4_Openmode@12@B DD 010H		; std::_Iosb<int>::trunc
CONST	ENDS
;	COMDAT ?app@?$_Iosb@H@std@@2W4_Openmode@12@B
CONST	SEGMENT
?app@?$_Iosb@H@std@@2W4_Openmode@12@B DD 08H		; std::_Iosb<int>::app
CONST	ENDS
;	COMDAT ?ate@?$_Iosb@H@std@@2W4_Openmode@12@B
CONST	SEGMENT
?ate@?$_Iosb@H@std@@2W4_Openmode@12@B DD 04H		; std::_Iosb<int>::ate
CONST	ENDS
;	COMDAT ?out@?$_Iosb@H@std@@2W4_Openmode@12@B
CONST	SEGMENT
?out@?$_Iosb@H@std@@2W4_Openmode@12@B DD 02H		; std::_Iosb<int>::out
CONST	ENDS
;	COMDAT ?in@?$_Iosb@H@std@@2W4_Openmode@12@B
CONST	SEGMENT
?in@?$_Iosb@H@std@@2W4_Openmode@12@B DD 01H		; std::_Iosb<int>::in
CONST	ENDS
;	COMDAT ?_Hardfail@?$_Iosb@H@std@@2W4_Iostate@12@B
CONST	SEGMENT
?_Hardfail@?$_Iosb@H@std@@2W4_Iostate@12@B DD 010H	; std::_Iosb<int>::_Hardfail
CONST	ENDS
;	COMDAT ?badbit@?$_Iosb@H@std@@2W4_Iostate@12@B
CONST	SEGMENT
?badbit@?$_Iosb@H@std@@2W4_Iostate@12@B DD 04H		; std::_Iosb<int>::badbit
CONST	ENDS
;	COMDAT ?failbit@?$_Iosb@H@std@@2W4_Iostate@12@B
CONST	SEGMENT
?failbit@?$_Iosb@H@std@@2W4_Iostate@12@B DD 02H		; std::_Iosb<int>::failbit
CONST	ENDS
;	COMDAT ?eofbit@?$_Iosb@H@std@@2W4_Iostate@12@B
CONST	SEGMENT
?eofbit@?$_Iosb@H@std@@2W4_Iostate@12@B DD 01H		; std::_Iosb<int>::eofbit
CONST	ENDS
;	COMDAT ?goodbit@?$_Iosb@H@std@@2W4_Iostate@12@B
CONST	SEGMENT
?goodbit@?$_Iosb@H@std@@2W4_Iostate@12@B DD 00H		; std::_Iosb<int>::goodbit
CONST	ENDS
;	COMDAT ?floatfield@?$_Iosb@H@std@@2W4_Fmtflags@12@B
CONST	SEGMENT
?floatfield@?$_Iosb@H@std@@2W4_Fmtflags@12@B DD 03000H	; std::_Iosb<int>::floatfield
CONST	ENDS
;	COMDAT ?basefield@?$_Iosb@H@std@@2W4_Fmtflags@12@B
CONST	SEGMENT
?basefield@?$_Iosb@H@std@@2W4_Fmtflags@12@B DD 0e00H	; std::_Iosb<int>::basefield
CONST	ENDS
;	COMDAT ?adjustfield@?$_Iosb@H@std@@2W4_Fmtflags@12@B
CONST	SEGMENT
?adjustfield@?$_Iosb@H@std@@2W4_Fmtflags@12@B DD 01c0H	; std::_Iosb<int>::adjustfield
CONST	ENDS
;	COMDAT ?_Stdio@?$_Iosb@H@std@@2W4_Fmtflags@12@B
CONST	SEGMENT
?_Stdio@?$_Iosb@H@std@@2W4_Fmtflags@12@B DD 08000H	; std::_Iosb<int>::_Stdio
CONST	ENDS
;	COMDAT ?boolalpha@?$_Iosb@H@std@@2W4_Fmtflags@12@B
CONST	SEGMENT
?boolalpha@?$_Iosb@H@std@@2W4_Fmtflags@12@B DD 04000H	; std::_Iosb<int>::boolalpha
CONST	ENDS
;	COMDAT ?hexfloat@?$_Iosb@H@std@@2W4_Fmtflags@12@B
CONST	SEGMENT
?hexfloat@?$_Iosb@H@std@@2W4_Fmtflags@12@B DD 03000H	; std::_Iosb<int>::hexfloat
CONST	ENDS
;	COMDAT ?fixed@?$_Iosb@H@std@@2W4_Fmtflags@12@B
CONST	SEGMENT
?fixed@?$_Iosb@H@std@@2W4_Fmtflags@12@B DD 02000H	; std::_Iosb<int>::fixed
CONST	ENDS
;	COMDAT ?scientific@?$_Iosb@H@std@@2W4_Fmtflags@12@B
CONST	SEGMENT
?scientific@?$_Iosb@H@std@@2W4_Fmtflags@12@B DD 01000H	; std::_Iosb<int>::scientific
CONST	ENDS
;	COMDAT ?hex@?$_Iosb@H@std@@2W4_Fmtflags@12@B
CONST	SEGMENT
?hex@?$_Iosb@H@std@@2W4_Fmtflags@12@B DD 0800H		; std::_Iosb<int>::hex
CONST	ENDS
;	COMDAT ?oct@?$_Iosb@H@std@@2W4_Fmtflags@12@B
CONST	SEGMENT
?oct@?$_Iosb@H@std@@2W4_Fmtflags@12@B DD 0400H		; std::_Iosb<int>::oct
CONST	ENDS
;	COMDAT ?dec@?$_Iosb@H@std@@2W4_Fmtflags@12@B
CONST	SEGMENT
?dec@?$_Iosb@H@std@@2W4_Fmtflags@12@B DD 0200H		; std::_Iosb<int>::dec
CONST	ENDS
;	COMDAT ?internal@?$_Iosb@H@std@@2W4_Fmtflags@12@B
CONST	SEGMENT
?internal@?$_Iosb@H@std@@2W4_Fmtflags@12@B DD 0100H	; std::_Iosb<int>::internal
CONST	ENDS
;	COMDAT ?right@?$_Iosb@H@std@@2W4_Fmtflags@12@B
CONST	SEGMENT
?right@?$_Iosb@H@std@@2W4_Fmtflags@12@B DD 080H		; std::_Iosb<int>::right
CONST	ENDS
;	COMDAT ?left@?$_Iosb@H@std@@2W4_Fmtflags@12@B
CONST	SEGMENT
?left@?$_Iosb@H@std@@2W4_Fmtflags@12@B DD 040H		; std::_Iosb<int>::left
CONST	ENDS
;	COMDAT ?showpos@?$_Iosb@H@std@@2W4_Fmtflags@12@B
CONST	SEGMENT
?showpos@?$_Iosb@H@std@@2W4_Fmtflags@12@B DD 020H	; std::_Iosb<int>::showpos
CONST	ENDS
;	COMDAT ?showpoint@?$_Iosb@H@std@@2W4_Fmtflags@12@B
CONST	SEGMENT
?showpoint@?$_Iosb@H@std@@2W4_Fmtflags@12@B DD 010H	; std::_Iosb<int>::showpoint
CONST	ENDS
;	COMDAT ?showbase@?$_Iosb@H@std@@2W4_Fmtflags@12@B
CONST	SEGMENT
?showbase@?$_Iosb@H@std@@2W4_Fmtflags@12@B DD 08H	; std::_Iosb<int>::showbase
CONST	ENDS
;	COMDAT ?uppercase@?$_Iosb@H@std@@2W4_Fmtflags@12@B
CONST	SEGMENT
?uppercase@?$_Iosb@H@std@@2W4_Fmtflags@12@B DD 04H	; std::_Iosb<int>::uppercase
CONST	ENDS
;	COMDAT ?unitbuf@?$_Iosb@H@std@@2W4_Fmtflags@12@B
CONST	SEGMENT
?unitbuf@?$_Iosb@H@std@@2W4_Fmtflags@12@B DD 02H	; std::_Iosb<int>::unitbuf
CONST	ENDS
;	COMDAT ?skipws@?$_Iosb@H@std@@2W4_Fmtflags@12@B
CONST	SEGMENT
?skipws@?$_Iosb@H@std@@2W4_Fmtflags@12@B DD 01H		; std::_Iosb<int>::skipws
CONST	ENDS
;	COMDAT ?none@?$_Locbase@H@std@@2HB
CONST	SEGMENT
?none@?$_Locbase@H@std@@2HB DD 00H			; std::_Locbase<int>::none
CONST	ENDS
;	COMDAT ?all@?$_Locbase@H@std@@2HB
CONST	SEGMENT
?all@?$_Locbase@H@std@@2HB DD 03fH			; std::_Locbase<int>::all
CONST	ENDS
;	COMDAT ?messages@?$_Locbase@H@std@@2HB
CONST	SEGMENT
?messages@?$_Locbase@H@std@@2HB DD 020H			; std::_Locbase<int>::messages
CONST	ENDS
;	COMDAT ?time@?$_Locbase@H@std@@2HB
CONST	SEGMENT
?time@?$_Locbase@H@std@@2HB DD 010H			; std::_Locbase<int>::time
CONST	ENDS
;	COMDAT ?numeric@?$_Locbase@H@std@@2HB
CONST	SEGMENT
?numeric@?$_Locbase@H@std@@2HB DD 08H			; std::_Locbase<int>::numeric
CONST	ENDS
;	COMDAT ?monetary@?$_Locbase@H@std@@2HB
CONST	SEGMENT
?monetary@?$_Locbase@H@std@@2HB DD 04H			; std::_Locbase<int>::monetary
CONST	ENDS
;	COMDAT ?ctype@?$_Locbase@H@std@@2HB
CONST	SEGMENT
?ctype@?$_Locbase@H@std@@2HB DD 02H			; std::_Locbase<int>::ctype
CONST	ENDS
;	COMDAT ?collate@?$_Locbase@H@std@@2HB
CONST	SEGMENT
?collate@?$_Locbase@H@std@@2HB DD 01H			; std::_Locbase<int>::collate
CONST	ENDS
;	COMDAT ?_Rank@?$_Arithmetic_traits@O@std@@2HB
CONST	SEGMENT
?_Rank@?$_Arithmetic_traits@O@std@@2HB DD 09H		; std::_Arithmetic_traits<long double>::_Rank
CONST	ENDS
;	COMDAT ?_Rank@?$_Arithmetic_traits@N@std@@2HB
CONST	SEGMENT
?_Rank@?$_Arithmetic_traits@N@std@@2HB DD 08H		; std::_Arithmetic_traits<double>::_Rank
CONST	ENDS
;	COMDAT ?_Rank@?$_Arithmetic_traits@M@std@@2HB
CONST	SEGMENT
?_Rank@?$_Arithmetic_traits@M@std@@2HB DD 07H		; std::_Arithmetic_traits<float>::_Rank
CONST	ENDS
;	COMDAT ?_Rank@?$_Arithmetic_traits@_K@std@@2HB
CONST	SEGMENT
?_Rank@?$_Arithmetic_traits@_K@std@@2HB DD 06H		; std::_Arithmetic_traits<unsigned __int64>::_Rank
CONST	ENDS
;	COMDAT ?_Rank@?$_Arithmetic_traits@_J@std@@2HB
CONST	SEGMENT
?_Rank@?$_Arithmetic_traits@_J@std@@2HB DD 06H		; std::_Arithmetic_traits<__int64>::_Rank
CONST	ENDS
;	COMDAT ?_Rank@?$_Arithmetic_traits@K@std@@2HB
CONST	SEGMENT
?_Rank@?$_Arithmetic_traits@K@std@@2HB DD 05H		; std::_Arithmetic_traits<unsigned long>::_Rank
CONST	ENDS
;	COMDAT ?_Rank@?$_Arithmetic_traits@J@std@@2HB
CONST	SEGMENT
?_Rank@?$_Arithmetic_traits@J@std@@2HB DD 05H		; std::_Arithmetic_traits<long>::_Rank
CONST	ENDS
;	COMDAT ?_Rank@?$_Arithmetic_traits@I@std@@2HB
CONST	SEGMENT
?_Rank@?$_Arithmetic_traits@I@std@@2HB DD 04H		; std::_Arithmetic_traits<unsigned int>::_Rank
CONST	ENDS
;	COMDAT ?_Rank@?$_Arithmetic_traits@H@std@@2HB
CONST	SEGMENT
?_Rank@?$_Arithmetic_traits@H@std@@2HB DD 04H		; std::_Arithmetic_traits<int>::_Rank
CONST	ENDS
;	COMDAT ?_Rank@?$_Arithmetic_traits@G@std@@2HB
CONST	SEGMENT
?_Rank@?$_Arithmetic_traits@G@std@@2HB DD 03H		; std::_Arithmetic_traits<unsigned short>::_Rank
CONST	ENDS
;	COMDAT ?_Rank@?$_Arithmetic_traits@F@std@@2HB
CONST	SEGMENT
?_Rank@?$_Arithmetic_traits@F@std@@2HB DD 03H		; std::_Arithmetic_traits<short>::_Rank
CONST	ENDS
;	COMDAT ?_Rank@?$_Arithmetic_traits@E@std@@2HB
CONST	SEGMENT
?_Rank@?$_Arithmetic_traits@E@std@@2HB DD 02H		; std::_Arithmetic_traits<unsigned char>::_Rank
CONST	ENDS
;	COMDAT ?_Rank@?$_Arithmetic_traits@C@std@@2HB
CONST	SEGMENT
?_Rank@?$_Arithmetic_traits@C@std@@2HB DD 02H		; std::_Arithmetic_traits<signed char>::_Rank
CONST	ENDS
;	COMDAT ?_Rank@?$_Arithmetic_traits@D@std@@2HB
CONST	SEGMENT
?_Rank@?$_Arithmetic_traits@D@std@@2HB DD 02H		; std::_Arithmetic_traits<char>::_Rank
CONST	ENDS
;	COMDAT ?_Rank@?$_Arithmetic_traits@_N@std@@2HB
CONST	SEGMENT
?_Rank@?$_Arithmetic_traits@_N@std@@2HB DD 01H		; std::_Arithmetic_traits<bool>::_Rank
CONST	ENDS
;	COMDAT ?value@?$integral_constant@I$0A@@tr1@std@@2IB
CONST	SEGMENT
?value@?$integral_constant@I$0A@@tr1@std@@2IB DD 00H	; std::tr1::integral_constant<unsigned int,0>::value
CONST	ENDS
;	COMDAT ?value@?$integral_constant@_N$00@tr1@std@@2_NB
CONST	SEGMENT
?value@?$integral_constant@_N$00@tr1@std@@2_NB DB 01H	; std::tr1::integral_constant<bool,1>::value
CONST	ENDS
;	COMDAT ?value@?$integral_constant@_N$0A@@tr1@std@@2_NB
CONST	SEGMENT
?value@?$integral_constant@_N$0A@@tr1@std@@2_NB DB 00H	; std::tr1::integral_constant<bool,0>::value
CONST	ENDS
PUBLIC	??_7bad_alloc@std@@6B@				; std::bad_alloc::`vftable'
PUBLIC	??0bad_alloc@std@@QAE@PBD@Z			; std::bad_alloc::bad_alloc
PUBLIC	??_R4bad_alloc@std@@6B@				; std::bad_alloc::`RTTI Complete Object Locator'
PUBLIC	??_R0?AVbad_alloc@std@@@8			; std::bad_alloc `RTTI Type Descriptor'
PUBLIC	??_R3bad_alloc@std@@8				; std::bad_alloc::`RTTI Class Hierarchy Descriptor'
PUBLIC	??_R2bad_alloc@std@@8				; std::bad_alloc::`RTTI Base Class Array'
PUBLIC	??_R1A@?0A@EA@bad_alloc@std@@8			; std::bad_alloc::`RTTI Base Class Descriptor at (0,-1,0,64)'
PUBLIC	??_R1A@?0A@EA@exception@std@@8			; std::exception::`RTTI Base Class Descriptor at (0,-1,0,64)'
PUBLIC	??_R0?AVexception@std@@@8			; std::exception `RTTI Type Descriptor'
PUBLIC	??_R3exception@std@@8				; std::exception::`RTTI Class Hierarchy Descriptor'
PUBLIC	??_R2exception@std@@8				; std::exception::`RTTI Base Class Array'
EXTRN	__imp_??0exception@std@@QAE@ABQBD@Z:PROC
EXTRN	??_7type_info@@6B@:QWORD			; type_info::`vftable'
EXTRN	??_Ebad_alloc@std@@UAEPAXI@Z:PROC		; std::bad_alloc::`vector deleting destructor'
EXTRN	?what@exception@std@@UBEPBDXZ:PROC		; std::exception::what
;	COMDAT ??_R2exception@std@@8
; File c:\program files (x86)\microsoft visual studio 10.0\vc\include\exception
rdata$r	SEGMENT
??_R2exception@std@@8 DD FLAT:??_R1A@?0A@EA@exception@std@@8 ; std::exception::`RTTI Base Class Array'
rdata$r	ENDS
;	COMDAT ??_R3exception@std@@8
rdata$r	SEGMENT
??_R3exception@std@@8 DD 00H				; std::exception::`RTTI Class Hierarchy Descriptor'
	DD	00H
	DD	01H
	DD	FLAT:??_R2exception@std@@8
rdata$r	ENDS
;	COMDAT ??_R0?AVexception@std@@@8
_DATA	SEGMENT
??_R0?AVexception@std@@@8 DD FLAT:??_7type_info@@6B@	; std::exception `RTTI Type Descriptor'
	DD	00H
	DB	'.?AVexception@std@@', 00H
_DATA	ENDS
;	COMDAT ??_R1A@?0A@EA@exception@std@@8
rdata$r	SEGMENT
??_R1A@?0A@EA@exception@std@@8 DD FLAT:??_R0?AVexception@std@@@8 ; std::exception::`RTTI Base Class Descriptor at (0,-1,0,64)'
	DD	00H
	DD	00H
	DD	0ffffffffH
	DD	00H
	DD	040H
	DD	FLAT:??_R3exception@std@@8
rdata$r	ENDS
;	COMDAT ??_R1A@?0A@EA@bad_alloc@std@@8
rdata$r	SEGMENT
??_R1A@?0A@EA@bad_alloc@std@@8 DD FLAT:??_R0?AVbad_alloc@std@@@8 ; std::bad_alloc::`RTTI Base Class Descriptor at (0,-1,0,64)'
	DD	01H
	DD	00H
	DD	0ffffffffH
	DD	00H
	DD	040H
	DD	FLAT:??_R3bad_alloc@std@@8
rdata$r	ENDS
;	COMDAT ??_R2bad_alloc@std@@8
rdata$r	SEGMENT
??_R2bad_alloc@std@@8 DD FLAT:??_R1A@?0A@EA@bad_alloc@std@@8 ; std::bad_alloc::`RTTI Base Class Array'
	DD	FLAT:??_R1A@?0A@EA@exception@std@@8
rdata$r	ENDS
;	COMDAT ??_R3bad_alloc@std@@8
rdata$r	SEGMENT
??_R3bad_alloc@std@@8 DD 00H				; std::bad_alloc::`RTTI Class Hierarchy Descriptor'
	DD	00H
	DD	02H
	DD	FLAT:??_R2bad_alloc@std@@8
rdata$r	ENDS
;	COMDAT ??_R0?AVbad_alloc@std@@@8
_DATA	SEGMENT
??_R0?AVbad_alloc@std@@@8 DD FLAT:??_7type_info@@6B@	; std::bad_alloc `RTTI Type Descriptor'
	DD	00H
	DB	'.?AVbad_alloc@std@@', 00H
_DATA	ENDS
;	COMDAT ??_R4bad_alloc@std@@6B@
rdata$r	SEGMENT
??_R4bad_alloc@std@@6B@ DD 00H				; std::bad_alloc::`RTTI Complete Object Locator'
	DD	00H
	DD	00H
	DD	FLAT:??_R0?AVbad_alloc@std@@@8
	DD	FLAT:??_R3bad_alloc@std@@8
rdata$r	ENDS
;	COMDAT ??_7bad_alloc@std@@6B@
CONST	SEGMENT
??_7bad_alloc@std@@6B@ DD FLAT:??_R4bad_alloc@std@@6B@	; std::bad_alloc::`vftable'
	DD	FLAT:??_Ebad_alloc@std@@UAEPAXI@Z
	DD	FLAT:?what@exception@std@@UBEPBDXZ
; Function compile flags: /Ogtp
CONST	ENDS
;	COMDAT ??0bad_alloc@std@@QAE@PBD@Z
_TEXT	SEGMENT
__Message$ = 8						; size = 4
??0bad_alloc@std@@QAE@PBD@Z PROC			; std::bad_alloc::bad_alloc, COMDAT
; _this$ = ecx
; Line 345
	push	ebp
	mov	ebp, esp
	push	esi
	lea	eax, DWORD PTR __Message$[ebp]
	push	eax
	mov	esi, ecx
	call	DWORD PTR __imp_??0exception@std@@QAE@ABQBD@Z
	mov	DWORD PTR [esi], OFFSET ??_7bad_alloc@std@@6B@
; Line 346
	mov	eax, esi
	pop	esi
	pop	ebp
	ret	4
??0bad_alloc@std@@QAE@PBD@Z ENDP			; std::bad_alloc::bad_alloc
_TEXT	ENDS
PUBLIC	??1bad_alloc@std@@UAE@XZ			; std::bad_alloc::~bad_alloc
EXTRN	__imp_??1exception@std@@UAE@XZ:PROC
; Function compile flags: /Ogtp
;	COMDAT ??1bad_alloc@std@@UAE@XZ
_TEXT	SEGMENT
??1bad_alloc@std@@UAE@XZ PROC				; std::bad_alloc::~bad_alloc, COMDAT
; _this$ = ecx
; Line 354
	mov	DWORD PTR [ecx], OFFSET ??_7bad_alloc@std@@6B@
; Line 355
	jmp	DWORD PTR __imp_??1exception@std@@UAE@XZ
??1bad_alloc@std@@UAE@XZ ENDP				; std::bad_alloc::~bad_alloc
_TEXT	ENDS
EXTRN	??3@YAXPAX@Z:PROC				; operator delete
; Function compile flags: /Ogtp
;	COMDAT ??_Gbad_alloc@std@@UAEPAXI@Z
_TEXT	SEGMENT
___flags$ = 8						; size = 4
??_Gbad_alloc@std@@UAEPAXI@Z PROC			; std::bad_alloc::`scalar deleting destructor', COMDAT
; _this$ = ecx
	push	ebp
	mov	ebp, esp
	push	esi
	mov	esi, ecx
	mov	DWORD PTR [esi], OFFSET ??_7bad_alloc@std@@6B@
	call	DWORD PTR __imp_??1exception@std@@UAE@XZ
	test	BYTE PTR ___flags$[ebp], 1
	je	SHORT $LN6@scalar
	push	esi
	call	??3@YAXPAX@Z				; operator delete
	add	esp, 4
$LN6@scalar:
	mov	eax, esi
	pop	esi
	pop	ebp
	ret	4
??_Gbad_alloc@std@@UAEPAXI@Z ENDP			; std::bad_alloc::`scalar deleting destructor'
_TEXT	ENDS
PUBLIC	??2@YAPAXIPAX@Z					; operator new
; Function compile flags: /Ogtp
;	COMDAT ??2@YAPAXIPAX@Z
_TEXT	SEGMENT
___formal$ = 8						; size = 4
__Where$ = 12						; size = 4
??2@YAPAXIPAX@Z PROC					; operator new, COMDAT
; File c:\program files (x86)\microsoft visual studio 10.0\vc\include\new
; Line 56
	push	ebp
	mov	ebp, esp
; Line 57
	mov	eax, DWORD PTR __Where$[ebp]
; Line 58
	pop	ebp
	ret	0
??2@YAPAXIPAX@Z ENDP					; operator new
_TEXT	ENDS
PUBLIC	??3@YAXPAX0@Z					; operator delete
; Function compile flags: /Ogtp
;	COMDAT ??3@YAXPAX0@Z
_TEXT	SEGMENT
___formal$ = 8						; size = 4
___formal$ = 12						; size = 4
??3@YAXPAX0@Z PROC					; operator delete, COMDAT
; Line 62
	ret	0
??3@YAXPAX0@Z ENDP					; operator delete
_TEXT	ENDS
PUBLIC	?compare@?$char_traits@D@std@@SAHPBD0I@Z	; std::char_traits<char>::compare
; Function compile flags: /Ogtp
;	COMDAT ?compare@?$char_traits@D@std@@SAHPBD0I@Z
_TEXT	SEGMENT
__First1$ = 8						; size = 4
__First2$ = 12						; size = 4
__Count$ = 16						; size = 4
?compare@?$char_traits@D@std@@SAHPBD0I@Z PROC		; std::char_traits<char>::compare, COMDAT
; File c:\program files (x86)\microsoft visual studio 10.0\vc\include\iosfwd
; Line 485
	push	ebp
	mov	ebp, esp
; Line 486
	mov	ecx, DWORD PTR __First2$[ebp]
	mov	edx, DWORD PTR __First1$[ebp]
	push	esi
	mov	esi, DWORD PTR __Count$[ebp]
	push	edi
	cmp	esi, 4
	jb	SHORT $LN11@compare
$LL4@compare:
	mov	eax, DWORD PTR [edx]
	cmp	eax, DWORD PTR [ecx]
	jne	SHORT $LN5@compare
	sub	esi, 4
	add	ecx, 4
	add	edx, 4
	cmp	esi, 4
	jae	SHORT $LL4@compare
$LN11@compare:
	test	esi, esi
	je	SHORT $LN6@compare
$LN5@compare:
	movzx	eax, BYTE PTR [edx]
	movzx	edi, BYTE PTR [ecx]
	sub	eax, edi
	jne	SHORT $LN7@compare
	cmp	esi, 1
	jbe	SHORT $LN6@compare
	movzx	eax, BYTE PTR [edx+1]
	movzx	edi, BYTE PTR [ecx+1]
	sub	eax, edi
	jne	SHORT $LN7@compare
	cmp	esi, 2
	jbe	SHORT $LN6@compare
	movzx	eax, BYTE PTR [edx+2]
	movzx	edi, BYTE PTR [ecx+2]
	sub	eax, edi
	jne	SHORT $LN7@compare
	cmp	esi, 3
	jbe	SHORT $LN6@compare
	movzx	eax, BYTE PTR [edx+3]
	movzx	ecx, BYTE PTR [ecx+3]
	sub	eax, ecx
$LN7@compare:
	sar	eax, 31					; 0000001fH
	pop	edi
	or	eax, 1
	pop	esi
; Line 487
	pop	ebp
	ret	0
$LN6@compare:
	pop	edi
; Line 486
	xor	eax, eax
	pop	esi
; Line 487
	pop	ebp
	ret	0
?compare@?$char_traits@D@std@@SAHPBD0I@Z ENDP		; std::char_traits<char>::compare
_TEXT	ENDS
PUBLIC	?copy@?$char_traits@D@std@@SAPADPADPBDI@Z	; std::char_traits<char>::copy
EXTRN	_memcpy:PROC
; Function compile flags: /Ogtp
;	COMDAT ?copy@?$char_traits@D@std@@SAPADPADPBDI@Z
_TEXT	SEGMENT
__First1$ = 8						; size = 4
__First2$ = 12						; size = 4
__Count$ = 16						; size = 4
?copy@?$char_traits@D@std@@SAPADPADPBDI@Z PROC		; std::char_traits<char>::copy, COMDAT
; Line 496
	push	ebp
	mov	ebp, esp
; Line 498
	pop	ebp
; Line 497
	jmp	_memcpy
?copy@?$char_traits@D@std@@SAPADPADPBDI@Z ENDP		; std::char_traits<char>::copy
_TEXT	ENDS
PUBLIC	?move@?$char_traits@D@std@@SAPADPADPBDI@Z	; std::char_traits<char>::move
EXTRN	__imp__memmove:PROC
; Function compile flags: /Ogtp
;	COMDAT ?move@?$char_traits@D@std@@SAPADPADPBDI@Z
_TEXT	SEGMENT
__First1$ = 8						; size = 4
__First2$ = 12						; size = 4
__Count$ = 16						; size = 4
?move@?$char_traits@D@std@@SAPADPADPBDI@Z PROC		; std::char_traits<char>::move, COMDAT
; Line 516
	push	ebp
	mov	ebp, esp
; Line 518
	pop	ebp
; Line 517
	jmp	DWORD PTR __imp__memmove
?move@?$char_traits@D@std@@SAPADPADPBDI@Z ENDP		; std::char_traits<char>::move
_TEXT	ENDS
PUBLIC	?assign@?$char_traits@D@std@@SAXAADABD@Z	; std::char_traits<char>::assign
; Function compile flags: /Ogtp
;	COMDAT ?assign@?$char_traits@D@std@@SAXAADABD@Z
_TEXT	SEGMENT
__Left$ = 8						; size = 4
__Right$ = 12						; size = 4
?assign@?$char_traits@D@std@@SAXAADABD@Z PROC		; std::char_traits<char>::assign, COMDAT
; Line 526
	push	ebp
	mov	ebp, esp
; Line 527
	mov	eax, DWORD PTR __Right$[ebp]
	mov	cl, BYTE PTR [eax]
	mov	edx, DWORD PTR __Left$[ebp]
	mov	BYTE PTR [edx], cl
; Line 528
	pop	ebp
	ret	0
?assign@?$char_traits@D@std@@SAXAADABD@Z ENDP		; std::char_traits<char>::assign
_TEXT	ENDS
PUBLIC	?_Adopt@_Iterator_base0@std@@QAEXPBX@Z		; std::_Iterator_base0::_Adopt
; Function compile flags: /Ogtp
;	COMDAT ?_Adopt@_Iterator_base0@std@@QAEXPBX@Z
_TEXT	SEGMENT
___formal$ = 8						; size = 4
?_Adopt@_Iterator_base0@std@@QAEXPBX@Z PROC		; std::_Iterator_base0::_Adopt, COMDAT
; _this$ = ecx
; File c:\program files (x86)\microsoft visual studio 10.0\vc\include\xutility
; Line 49
	ret	4
?_Adopt@_Iterator_base0@std@@QAEXPBX@Z ENDP		; std::_Iterator_base0::_Adopt
_TEXT	ENDS
PUBLIC	?addref@ManagedItem@@QAEXXZ			; ManagedItem::addref
; Function compile flags: /Ogtp
;	COMDAT ?addref@ManagedItem@@QAEXXZ
_TEXT	SEGMENT
?addref@ManagedItem@@QAEXXZ PROC			; ManagedItem::addref, COMDAT
; _this$ = ecx
; File c:\programovani\wow editor\test\src\editor\manager.h
; Line 19
	inc	DWORD PTR [ecx+4]
; Line 20
	ret	0
?addref@ManagedItem@@QAEXXZ ENDP			; ManagedItem::addref
_TEXT	ENDS
PUBLIC	?isEof@MPQFile@@QAE_NXZ				; MPQFile::isEof
; Function compile flags: /Ogtp
;	COMDAT ?isEof@MPQFile@@QAE_NXZ
_TEXT	SEGMENT
?isEof@MPQFile@@QAE_NXZ PROC				; MPQFile::isEof, COMDAT
; _this$ = ecx
; File c:\programovani\wow editor\test\src\editor\mpq.h
; Line 50
	mov	al, BYTE PTR [ecx+1024]
	ret	0
?isEof@MPQFile@@QAE_NXZ ENDP				; MPQFile::isEof
_TEXT	ENDS
PUBLIC	?isExternal@MPQFile@@QAE_NXZ			; MPQFile::isExternal
; Function compile flags: /Ogtp
;	COMDAT ?isExternal@MPQFile@@QAE_NXZ
_TEXT	SEGMENT
?isExternal@MPQFile@@QAE_NXZ PROC			; MPQFile::isExternal, COMDAT
; _this$ = ecx
; Line 54
	mov	al, BYTE PTR [ecx+1048]
	ret	0
?isExternal@MPQFile@@QAE_NXZ ENDP			; MPQFile::isExternal
_TEXT	ENDS
PUBLIC	??RToLower@@QBEDD@Z				; ToLower::operator()
EXTRN	__imp__tolower:PROC
; Function compile flags: /Ogtp
;	COMDAT ??RToLower@@QBEDD@Z
_TEXT	SEGMENT
_c$ = 8							; size = 1
??RToLower@@QBEDD@Z PROC				; ToLower::operator(), COMDAT
; _this$ = ecx
; File c:\programovani\wow editor\test\src\editor\video.cpp
; Line 10
	push	ebp
	mov	ebp, esp
	movsx	eax, BYTE PTR _c$[ebp]
	push	eax
	call	DWORD PTR __imp__tolower
	add	esp, 4
	pop	ebp
	ret	4
??RToLower@@QBEDD@Z ENDP				; ToLower::operator()
_TEXT	ENDS
PUBLIC	?SaveGLSettings@@YAXXZ				; SaveGLSettings
EXTRN	__imp__glIsEnabled@4:PROC
; Function compile flags: /Ogtp
_TEXT	SEGMENT
?SaveGLSettings@@YAXXZ PROC				; SaveGLSettings
; Line 48
	push	esi
; Line 49
	mov	esi, DWORD PTR __imp__glIsEnabled@4
	push	3008					; 00000bc0H
	call	esi
; Line 50
	push	3042					; 00000be2H
	mov	BYTE PTR ?GLSettings@@3PAEA, al
	call	esi
; Line 51
	push	2903					; 00000b57H
	mov	BYTE PTR ?GLSettings@@3PAEA+1, al
	call	esi
; Line 52
	push	2884					; 00000b44H
	mov	BYTE PTR ?GLSettings@@3PAEA+2, al
	call	esi
; Line 53
	push	2929					; 00000b71H
	mov	BYTE PTR ?GLSettings@@3PAEA+3, al
	call	esi
; Line 54
	push	2912					; 00000b60H
	mov	BYTE PTR ?GLSettings@@3PAEA+4, al
	call	esi
; Line 55
	push	34820					; 00008804H
	mov	BYTE PTR ?GLSettings@@3PAEA+5, al
	call	esi
; Line 56
	push	2896					; 00000b50H
	mov	BYTE PTR ?GLSettings@@3PAEA+6, al
	call	esi
; Line 57
	push	2848					; 00000b20H
	mov	BYTE PTR ?GLSettings@@3PAEA+7, al
	call	esi
; Line 58
	push	33985					; 000084c1H
	mov	BYTE PTR ?GLSettings@@3PAEA+8, al
	call	DWORD PTR ?glActiveTextureARB@@3P6GXI@ZA ; glActiveTextureARB
; Line 59
	push	3553					; 00000de1H
	call	esi
; Line 60
	push	33984					; 000084c0H
	mov	BYTE PTR ?GLSettings@@3PAEA+10, al
	call	DWORD PTR ?glActiveTextureARB@@3P6GXI@ZA ; glActiveTextureARB
; Line 61
	push	3553					; 00000de1H
	call	esi
; Line 62
	push	3168					; 00000c60H
	mov	BYTE PTR ?GLSettings@@3PAEA+9, al
	call	esi
; Line 63
	push	3169					; 00000c61H
	mov	BYTE PTR ?GLSettings@@3PAEA+11, al
	call	esi
	mov	BYTE PTR ?GLSettings@@3PAEA+12, al
	pop	esi
; Line 64
	ret	0
?SaveGLSettings@@YAXXZ ENDP				; SaveGLSettings
_TEXT	ENDS
PUBLIC	?compareSetting@@YAXIE@Z			; compareSetting
EXTRN	__imp__glDisable@4:PROC
EXTRN	__imp__glEnable@4:PROC
; Function compile flags: /Ogtp
_TEXT	SEGMENT
_Setting$ = 8						; size = 4
_Cur$ = 12						; size = 1
?compareSetting@@YAXIE@Z PROC				; compareSetting
; Line 67
	push	ebp
	mov	ebp, esp
	push	esi
; Line 68
	mov	esi, DWORD PTR _Setting$[ebp]
	push	esi
	call	DWORD PTR __imp__glIsEnabled@4
	mov	cl, BYTE PTR _Cur$[ebp]
	cmp	al, cl
	je	SHORT $LN1@compareSet
; Line 71
	push	esi
	cmp	cl, 1
	jne	SHORT $LN2@compareSet
	call	DWORD PTR __imp__glEnable@4
	pop	esi
; Line 75
	pop	ebp
	ret	0
$LN2@compareSet:
; Line 73
	call	DWORD PTR __imp__glDisable@4
$LN1@compareSet:
	pop	esi
; Line 75
	pop	ebp
	ret	0
?compareSetting@@YAXIE@Z ENDP				; compareSetting
_TEXT	ENDS
PUBLIC	?LoadGLSettings@@YAXXZ				; LoadGLSettings
; Function compile flags: /Ogtp
_TEXT	SEGMENT
?LoadGLSettings@@YAXXZ PROC				; LoadGLSettings
; Line 78
	push	ebx
; Line 79
	mov	bl, BYTE PTR ?GLSettings@@3PAEA
	push	esi
	mov	esi, DWORD PTR __imp__glIsEnabled@4
	push	edi
	push	3008					; 00000bc0H
	call	esi
	mov	edi, DWORD PTR __imp__glDisable@4
	cmp	al, bl
	je	SHORT $LN3@LoadGLSett
	push	3008					; 00000bc0H
	cmp	bl, 1
	jne	SHORT $LN4@LoadGLSett
	call	DWORD PTR __imp__glEnable@4
	jmp	SHORT $LN3@LoadGLSett
$LN4@LoadGLSett:
	call	edi
$LN3@LoadGLSett:
; Line 80
	mov	bl, BYTE PTR ?GLSettings@@3PAEA+1
	push	3042					; 00000be2H
	call	esi
	cmp	al, bl
	je	SHORT $LN8@LoadGLSett
	push	3042					; 00000be2H
	cmp	bl, 1
	jne	SHORT $LN9@LoadGLSett
	call	DWORD PTR __imp__glEnable@4
	jmp	SHORT $LN8@LoadGLSett
$LN9@LoadGLSett:
	call	edi
$LN8@LoadGLSett:
; Line 81
	mov	bl, BYTE PTR ?GLSettings@@3PAEA+2
	push	2903					; 00000b57H
	call	esi
	cmp	al, bl
	je	SHORT $LN13@LoadGLSett
	push	2903					; 00000b57H
	cmp	bl, 1
	jne	SHORT $LN14@LoadGLSett
	call	DWORD PTR __imp__glEnable@4
	jmp	SHORT $LN13@LoadGLSett
$LN14@LoadGLSett:
	call	edi
$LN13@LoadGLSett:
; Line 82
	mov	bl, BYTE PTR ?GLSettings@@3PAEA+3
	push	2884					; 00000b44H
	call	esi
	cmp	al, bl
	je	SHORT $LN18@LoadGLSett
	push	2884					; 00000b44H
	cmp	bl, 1
	jne	SHORT $LN19@LoadGLSett
	call	DWORD PTR __imp__glEnable@4
	jmp	SHORT $LN18@LoadGLSett
$LN19@LoadGLSett:
	call	edi
$LN18@LoadGLSett:
; Line 83
	mov	bl, BYTE PTR ?GLSettings@@3PAEA+4
	push	2929					; 00000b71H
	call	esi
	cmp	al, bl
	je	SHORT $LN23@LoadGLSett
	push	2929					; 00000b71H
	cmp	bl, 1
	jne	SHORT $LN24@LoadGLSett
	call	DWORD PTR __imp__glEnable@4
	jmp	SHORT $LN23@LoadGLSett
$LN24@LoadGLSett:
	call	edi
$LN23@LoadGLSett:
; Line 84
	mov	bl, BYTE PTR ?GLSettings@@3PAEA+5
	push	2912					; 00000b60H
	call	esi
	cmp	al, bl
	je	SHORT $LN28@LoadGLSett
	push	2912					; 00000b60H
	cmp	bl, 1
	jne	SHORT $LN29@LoadGLSett
	call	DWORD PTR __imp__glEnable@4
	jmp	SHORT $LN28@LoadGLSett
$LN29@LoadGLSett:
	call	edi
$LN28@LoadGLSett:
; Line 85
	mov	bl, BYTE PTR ?GLSettings@@3PAEA+6
	push	34820					; 00008804H
	call	esi
	cmp	al, bl
	je	SHORT $LN33@LoadGLSett
	push	34820					; 00008804H
	cmp	bl, 1
	jne	SHORT $LN34@LoadGLSett
	call	DWORD PTR __imp__glEnable@4
	jmp	SHORT $LN33@LoadGLSett
$LN34@LoadGLSett:
	call	edi
$LN33@LoadGLSett:
; Line 86
	mov	bl, BYTE PTR ?GLSettings@@3PAEA+7
	push	2896					; 00000b50H
	call	esi
	cmp	al, bl
	je	SHORT $LN38@LoadGLSett
	push	2896					; 00000b50H
	cmp	bl, 1
	jne	SHORT $LN39@LoadGLSett
	call	DWORD PTR __imp__glEnable@4
	jmp	SHORT $LN38@LoadGLSett
$LN39@LoadGLSett:
	call	edi
$LN38@LoadGLSett:
; Line 87
	mov	bl, BYTE PTR ?GLSettings@@3PAEA+8
	push	2848					; 00000b20H
	call	esi
	cmp	al, bl
	je	SHORT $LN43@LoadGLSett
	push	2848					; 00000b20H
	cmp	bl, 1
	jne	SHORT $LN44@LoadGLSett
	call	DWORD PTR __imp__glEnable@4
	jmp	SHORT $LN43@LoadGLSett
$LN44@LoadGLSett:
	call	edi
$LN43@LoadGLSett:
; Line 88
	push	33985					; 000084c1H
	call	DWORD PTR ?glActiveTextureARB@@3P6GXI@ZA ; glActiveTextureARB
; Line 89
	mov	bl, BYTE PTR ?GLSettings@@3PAEA+10
	push	3553					; 00000de1H
	call	esi
	cmp	al, bl
	je	SHORT $LN48@LoadGLSett
	push	3553					; 00000de1H
	cmp	bl, 1
	jne	SHORT $LN49@LoadGLSett
	call	DWORD PTR __imp__glEnable@4
	jmp	SHORT $LN48@LoadGLSett
$LN49@LoadGLSett:
	call	edi
$LN48@LoadGLSett:
; Line 90
	push	33984					; 000084c0H
	call	DWORD PTR ?glActiveTextureARB@@3P6GXI@ZA ; glActiveTextureARB
; Line 91
	mov	bl, BYTE PTR ?GLSettings@@3PAEA+9
	push	3553					; 00000de1H
	call	esi
	cmp	al, bl
	je	SHORT $LN53@LoadGLSett
	push	3553					; 00000de1H
	cmp	bl, 1
	jne	SHORT $LN54@LoadGLSett
	call	DWORD PTR __imp__glEnable@4
	jmp	SHORT $LN53@LoadGLSett
$LN54@LoadGLSett:
	call	edi
$LN53@LoadGLSett:
; Line 92
	mov	bl, BYTE PTR ?GLSettings@@3PAEA+11
	push	3168					; 00000c60H
	call	esi
	cmp	al, bl
	je	SHORT $LN58@LoadGLSett
	push	3168					; 00000c60H
	cmp	bl, 1
	jne	SHORT $LN59@LoadGLSett
	call	DWORD PTR __imp__glEnable@4
	jmp	SHORT $LN58@LoadGLSett
$LN59@LoadGLSett:
	call	edi
$LN58@LoadGLSett:
; Line 93
	mov	bl, BYTE PTR ?GLSettings@@3PAEA+12
	push	3169					; 00000c61H
	call	esi
	cmp	al, bl
	je	SHORT $LN63@LoadGLSett
	push	3169					; 00000c61H
	cmp	bl, 1
	jne	SHORT $LN64@LoadGLSett
	call	DWORD PTR __imp__glEnable@4
	pop	edi
	pop	esi
	pop	ebx
; Line 94
	ret	0
; Line 93
$LN64@LoadGLSett:
	call	edi
$LN63@LoadGLSett:
; Line 94
	pop	edi
	pop	esi
	pop	ebx
	ret	0
?LoadGLSettings@@YAXXZ ENDP				; LoadGLSettings
_TEXT	ENDS
PUBLIC	?resize@Video@@QAEXHH@Z				; Video::resize
EXTRN	_gluPerspective@32:PROC
EXTRN	__imp__glLoadIdentity@0:PROC
EXTRN	__imp__glMatrixMode@4:PROC
EXTRN	__imp__glViewport@16:PROC
EXTRN	_SDL_SetClipRect:PROC
EXTRN	__fltused:DWORD
; Function compile flags: /Ogtp
_TEXT	SEGMENT
_Rect$ = -8						; size = 8
tv164 = 8						; size = 4
_xres$ = 8						; size = 4
tv167 = 12						; size = 4
_yres$ = 12						; size = 4
?resize@Video@@QAEXHH@Z PROC				; Video::resize
; _this$ = ecx
; Line 107
	push	ebp
	mov	ebp, esp
	sub	esp, 8
; Line 112
	fild	DWORD PTR _xres$[ebp]
	push	esi
	mov	esi, DWORD PTR _xres$[ebp]
	push	edi
	mov	edi, DWORD PTR _yres$[ebp]
	fstp	DWORD PTR tv164[ebp]
	fild	DWORD PTR _yres$[ebp]
; Line 115
	mov	eax, DWORD PTR [ecx+8]
	mov	DWORD PTR [ecx+52], esi
	mov	DWORD PTR [ecx+56], edi
	fstp	DWORD PTR tv167[ebp]
	fld	DWORD PTR tv164[ebp]
	fdiv	DWORD PTR tv167[ebp]
	fstp	DWORD PTR [ecx+68]
	mov	DWORD PTR [eax+8], esi
; Line 116
	mov	edx, DWORD PTR [ecx+8]
	mov	DWORD PTR [edx+12], edi
; Line 122
	mov	ecx, DWORD PTR [ecx+8]
	xor	eax, eax
	mov	DWORD PTR _Rect$[ebp], eax
	lea	eax, DWORD PTR _Rect$[ebp]
	push	eax
	push	ecx
	mov	WORD PTR _Rect$[ebp+6], di
	mov	WORD PTR _Rect$[ebp+4], si
	call	_SDL_SetClipRect
	add	esp, 8
; Line 124
	push	edi
	push	esi
	push	0
	push	0
	call	DWORD PTR __imp__glViewport@16
; Line 125
	mov	esi, DWORD PTR __imp__glMatrixMode@4
	push	5889					; 00001701H
	call	esi
; Line 126
	mov	edi, DWORD PTR __imp__glLoadIdentity@0
	call	edi
; Line 127
	fld	DWORD PTR tv164[ebp]
	fdiv	DWORD PTR tv167[ebp]
	sub	esp, 8
	mov	eax, esp
	mov	DWORD PTR [eax], 0
	mov	DWORD PTR [eax+4], 1083179008		; 40900000H
	sub	esp, 8
	mov	eax, esp
	mov	DWORD PTR [eax], 0
	mov	DWORD PTR [eax+4], 1072693248		; 3ff00000H
	sub	esp, 16					; 00000010H
	mov	eax, esp
	fstp	QWORD PTR [esp+8]
	mov	DWORD PTR [eax], 0
	mov	DWORD PTR [eax+4], 1078362112		; 40468000H
	call	_gluPerspective@32
; Line 128
	push	5888					; 00001700H
	call	esi
; Line 129
	call	edi
; Line 130
	pop	edi
	pop	esi
	mov	esp, ebp
	pop	ebp
	ret	8
?resize@Video@@QAEXHH@Z ENDP				; Video::resize
_TEXT	ENDS
PUBLIC	?close@Video@@QAEXXZ				; Video::close
EXTRN	_SDL_Quit:PROC
; Function compile flags: /Ogtp
_TEXT	SEGMENT
?close@Video@@QAEXXZ PROC				; Video::close
; _this$ = ecx
; Line 181
	mov	eax, DWORD PTR [ecx+8]
	mov	edx, DWORD PTR [ecx+60]
	mov	DWORD PTR [eax+8], edx
; Line 182
	mov	eax, DWORD PTR [ecx+8]
	mov	ecx, DWORD PTR [ecx+64]
	mov	DWORD PTR [eax+12], ecx
; Line 183
	jmp	_SDL_Quit
?close@Video@@QAEXXZ ENDP				; Video::close
_TEXT	ENDS
PUBLIC	?initExtensions@Video@@AAEXXZ			; Video::initExtensions
EXTRN	_SDL_GL_GetProcAddress:PROC
; Function compile flags: /Ogtp
_TEXT	SEGMENT
?initExtensions@Video@@AAEXXZ PROC			; Video::initExtensions
; _this$ = ecx
; Line 189
	push	OFFSET $SG71146
	call	_SDL_GL_GetProcAddress
; Line 190
	push	OFFSET $SG71148
	mov	DWORD PTR ?glActiveTextureARB@@3P6GXI@ZA, eax ; glActiveTextureARB
	call	_SDL_GL_GetProcAddress
; Line 191
	push	OFFSET $SG71150
	mov	DWORD PTR ?glClientActiveTextureARB@@3P6GXI@ZA, eax ; glClientActiveTextureARB
	call	_SDL_GL_GetProcAddress
; Line 193
	push	OFFSET $SG71152
	mov	DWORD PTR ?glMultiTexCoord2fARB@@3P6GXIMM@ZA, eax ; glMultiTexCoord2fARB
	call	_SDL_GL_GetProcAddress
; Line 194
	push	OFFSET $SG71154
	mov	DWORD PTR ?glCompressedTexImage2DARB@@3P6GXIHIHHHHPBX@ZA, eax ; glCompressedTexImage2DARB
	call	_SDL_GL_GetProcAddress
; Line 195
	push	OFFSET $SG71156
	mov	DWORD PTR ?glGenBuffersARB@@3P6GXHPAI@ZA, eax ; glGenBuffersARB
	call	_SDL_GL_GetProcAddress
; Line 196
	push	OFFSET $SG71158
	mov	DWORD PTR ?glBindBufferARB@@3P6GXII@ZA, eax ; glBindBufferARB
	call	_SDL_GL_GetProcAddress
; Line 197
	push	OFFSET $SG71160
	mov	DWORD PTR ?glBufferDataARB@@3P6GXIHPBXI@ZA, eax ; glBufferDataARB
	call	_SDL_GL_GetProcAddress
; Line 199
	push	OFFSET $SG71162
	mov	DWORD PTR ?glDeleteBuffersARB@@3P6GXHPBI@ZA, eax ; glDeleteBuffersARB
	call	_SDL_GL_GetProcAddress
; Line 200
	push	OFFSET $SG71164
	mov	DWORD PTR ?glMapBufferARB@@3P6GPAXII@ZA, eax ; glMapBufferARB
	call	_SDL_GL_GetProcAddress
; Line 202
	push	OFFSET $SG71166
	mov	DWORD PTR ?glUnmapBufferARB@@3P6GEI@ZA, eax ; glUnmapBufferARB
	call	_SDL_GL_GetProcAddress
	add	esp, 44					; 0000002cH
	mov	DWORD PTR ?glDrawRangeElements@@3P6GXIIIHIPBX@ZA, eax ; glDrawRangeElements
; Line 203
	ret	0
?initExtensions@Video@@AAEXXZ ENDP			; Video::initExtensions
_TEXT	ENDS
PUBLIC	?flip@Video@@QAEXXZ				; Video::flip
EXTRN	_SDL_GL_SwapBuffers:PROC
; Function compile flags: /Ogtp
_TEXT	SEGMENT
?flip@Video@@QAEXXZ PROC				; Video::flip
; _this$ = ecx
; Line 207
	jmp	_SDL_GL_SwapBuffers
?flip@Video@@QAEXXZ ENDP				; Video::flip
_TEXT	ENDS
PUBLIC	?clearScreen@Video@@QAEXXZ			; Video::clearScreen
EXTRN	__imp__glClear@4:PROC
EXTRN	__imp__glClearColor@16:PROC
; Function compile flags: /Ogtp
_TEXT	SEGMENT
?clearScreen@Video@@QAEXXZ PROC				; Video::clearScreen
; _this$ = ecx
; Line 212
	sub	esp, 16					; 00000010H
	mov	DWORD PTR [esp+12], 0
	mov	DWORD PTR [esp+8], 0
	mov	DWORD PTR [esp+4], 0
	mov	DWORD PTR [esp], 0
	call	DWORD PTR __imp__glClearColor@16
; Line 213
	push	16640					; 00004100H
	call	DWORD PTR __imp__glClear@4
; Line 214
	ret	0
?clearScreen@Video@@QAEXXZ ENDP				; Video::clearScreen
_TEXT	ENDS
PUBLIC	__$ArrayPad$
PUBLIC	?set3D@Video@@QAEXXZ				; Video::set3D
EXTRN	_gluPickMatrix@36:PROC
EXTRN	?MouseX@@3HA:DWORD				; MouseX
EXTRN	?MouseY@@3HA:DWORD				; MouseY
EXTRN	__imp__glGetIntegerv@8:PROC
EXTRN	___security_cookie:DWORD
EXTRN	@__security_check_cookie@4:PROC
; Function compile flags: /Ogtp
_TEXT	SEGMENT
tv171 = -24						; size = 4
_viewport$71179 = -20					; size = 16
__$ArrayPad$ = -4					; size = 4
?set3D@Video@@QAEXXZ PROC				; Video::set3D
; _this$ = ecx
; Line 219
	push	ebp
	mov	ebp, esp
	sub	esp, 24					; 00000018H
	mov	eax, DWORD PTR ___security_cookie
	xor	eax, ebp
	mov	DWORD PTR __$ArrayPad$[ebp], eax
	push	ebx
	push	esi
	push	edi
; Line 220
	mov	edi, DWORD PTR __imp__glMatrixMode@4
	push	5889					; 00001701H
	mov	esi, ecx
	call	edi
; Line 221
	mov	ebx, DWORD PTR __imp__glLoadIdentity@0
	call	ebx
; Line 223
	cmp	BYTE PTR [esi+12], 0
	je	SHORT $LN1@set3D
; Line 226
	lea	eax, DWORD PTR _viewport$71179[ebp]
	push	eax
	push	2978					; 00000ba2H
	call	DWORD PTR __imp__glGetIntegerv@8
; Line 228
	mov	edx, DWORD PTR _viewport$71179[ebp+12]
	sub	edx, DWORD PTR ?MouseY@@3HA		; MouseY
	lea	ecx, DWORD PTR _viewport$71179[ebp]
	push	ecx
	sub	esp, 8
	mov	eax, esp
	mov	DWORD PTR [eax], 0
	mov	ecx, 1075576832				; 401c0000H
	mov	DWORD PTR [eax+4], ecx
	sub	esp, 8
	mov	eax, esp
	mov	DWORD PTR tv171[ebp], edx
	fild	DWORD PTR tv171[ebp]
	mov	DWORD PTR [eax], 0
	sub	esp, 16					; 00000010H
	mov	DWORD PTR [eax+4], ecx
	fstp	QWORD PTR [esp+8]
	fild	DWORD PTR ?MouseX@@3HA			; MouseX
	fstp	QWORD PTR [esp]
	call	_gluPickMatrix@36
$LN1@set3D:
; Line 231
	fild	DWORD PTR [esi+52]
	sub	esp, 8
	mov	eax, esp
	mov	DWORD PTR [eax], 0
	fidiv	DWORD PTR [esi+56]
	mov	DWORD PTR [eax+4], 1083179008		; 40900000H
	sub	esp, 8
	mov	eax, esp
	mov	DWORD PTR [eax], 0
	mov	DWORD PTR [eax+4], 1072693248		; 3ff00000H
	sub	esp, 16					; 00000010H
	mov	eax, esp
	fstp	QWORD PTR [esp+8]
	mov	DWORD PTR [eax], 0
	mov	DWORD PTR [eax+4], 1078362112		; 40468000H
	call	_gluPerspective@32
; Line 232
	push	5888					; 00001700H
	call	edi
; Line 233
	call	ebx
; Line 234
	mov	ecx, DWORD PTR __$ArrayPad$[ebp]
	pop	edi
	pop	esi
	xor	ecx, ebp
	pop	ebx
	call	@__security_check_cookie@4
	mov	esp, ebp
	pop	ebp
	ret	0
?set3D@Video@@QAEXXZ ENDP				; Video::set3D
_TEXT	ENDS
PUBLIC	?set3D_select@Video@@QAEXXZ			; Video::set3D_select
; Function compile flags: /Ogtp
_TEXT	SEGMENT
?set3D_select@Video@@QAEXXZ PROC			; Video::set3D_select
; _this$ = ecx
; Line 237
	push	esi
	push	edi
; Line 238
	mov	edi, DWORD PTR __imp__glMatrixMode@4
	push	5889					; 00001701H
	mov	esi, ecx
	call	edi
; Line 239
	fild	DWORD PTR [esi+52]
	sub	esp, 8
	mov	eax, esp
	fidiv	DWORD PTR [esi+56]
	mov	DWORD PTR [eax], 0
	mov	DWORD PTR [eax+4], 1083179008		; 40900000H
	sub	esp, 8
	mov	eax, esp
	mov	DWORD PTR [eax], 0
	mov	DWORD PTR [eax+4], 1072693248		; 3ff00000H
	sub	esp, 16					; 00000010H
	mov	eax, esp
	fstp	QWORD PTR [esp+8]
	mov	DWORD PTR [eax], 0
	mov	DWORD PTR [eax+4], 1078362112		; 40468000H
	call	_gluPerspective@32
; Line 240
	push	5888					; 00001700H
	call	edi
; Line 242
	pop	edi
	pop	esi
; Line 241
	jmp	DWORD PTR __imp__glLoadIdentity@0
?set3D_select@Video@@QAEXXZ ENDP			; Video::set3D_select
_TEXT	ENDS
PUBLIC	?set2D@Video@@QAEXXZ				; Video::set2D
EXTRN	__imp__glOrtho@48:PROC
; Function compile flags: /Ogtp
_TEXT	SEGMENT
?set2D@Video@@QAEXXZ PROC				; Video::set2D
; _this$ = ecx
; Line 245
	push	ebx
	push	esi
	push	edi
; Line 246
	mov	edi, DWORD PTR __imp__glMatrixMode@4
	push	5889					; 00001701H
	mov	esi, ecx
	call	edi
; Line 247
	mov	ebx, DWORD PTR __imp__glLoadIdentity@0
	call	ebx
; Line 248
	fild	DWORD PTR [esi+56]
	sub	esp, 8
	mov	eax, esp
	xor	ecx, ecx
	mov	DWORD PTR [eax], ecx
	mov	DWORD PTR [eax+4], 1072693248		; 3ff00000H
	sub	esp, 8
	mov	eax, esp
	mov	DWORD PTR [eax], ecx
	mov	DWORD PTR [eax+4], -1074790400		; bff00000H
	sub	esp, 8
	mov	eax, esp
	mov	DWORD PTR [eax], ecx
	mov	DWORD PTR [eax+4], ecx
	sub	esp, 24					; 00000018H
	fstp	QWORD PTR [esp+16]
	mov	eax, esp
	fild	DWORD PTR [esi+52]
	fstp	QWORD PTR [esp+8]
	mov	DWORD PTR [eax], ecx
	mov	DWORD PTR [eax+4], ecx
	call	DWORD PTR __imp__glOrtho@48
; Line 249
	push	5888					; 00001700H
	call	edi
; Line 250
	call	ebx
; Line 251
	pop	edi
	pop	esi
	pop	ebx
	ret	0
?set2D@Video@@QAEXXZ ENDP				; Video::set2D
_TEXT	ENDS
PUBLIC	__real@c000000000000000
PUBLIC	?setTileMode@Video@@QAEXXZ			; Video::setTileMode
;	COMDAT __real@c000000000000000
CONST	SEGMENT
__real@c000000000000000 DQ 0c000000000000000r	; -2
; Function compile flags: /Ogtp
CONST	ENDS
_TEXT	SEGMENT
?setTileMode@Video@@QAEXXZ PROC				; Video::setTileMode
; _this$ = ecx
; Line 254
	push	ebx
	push	esi
	push	edi
; Line 255
	mov	edi, DWORD PTR __imp__glMatrixMode@4
	push	5889					; 00001701H
	mov	esi, ecx
	call	edi
; Line 256
	mov	ebx, DWORD PTR __imp__glLoadIdentity@0
	call	ebx
; Line 257
	fld	DWORD PTR [esi+68]
	sub	esp, 8
	fadd	ST(0), ST(0)
	mov	eax, esp
	mov	DWORD PTR [eax], 0
	mov	DWORD PTR [eax+4], 1081262080		; 4072c000H
	sub	esp, 8
	mov	eax, esp
	mov	DWORD PTR [eax], 0
	mov	DWORD PTR [eax+4], -1067909120		; c0590000H
	sub	esp, 8
	mov	eax, esp
	mov	DWORD PTR [eax], 0
	mov	DWORD PTR [eax+4], -1073741824		; c0000000H
	sub	esp, 8
	mov	eax, esp
	mov	DWORD PTR [eax], 0
	sub	esp, 16					; 00000010H
	mov	DWORD PTR [eax+4], 1073741824		; 40000000H
	fstp	QWORD PTR [esp+8]
	fld	DWORD PTR [esi+68]
	fmul	QWORD PTR __real@c000000000000000
	fstp	QWORD PTR [esp]
	call	DWORD PTR __imp__glOrtho@48
; Line 258
	push	5888					; 00001700H
	call	edi
; Line 259
	call	ebx
; Line 260
	pop	edi
	pop	esi
	pop	ebx
	ret	0
?setTileMode@Video@@QAEXXZ ENDP				; Video::setTileMode
_TEXT	ENDS
PUBLIC	?doDelete@TextureManager@@UAEXI@Z		; TextureManager::doDelete
EXTRN	__imp__glDeleteTextures@8:PROC
; Function compile flags: /Ogtp
_TEXT	SEGMENT
_id$ = 8						; size = 4
?doDelete@TextureManager@@UAEXI@Z PROC			; TextureManager::doDelete
; _this$ = ecx
; Line 459
	push	ebp
	mov	ebp, esp
; Line 460
	lea	eax, DWORD PTR _id$[ebp]
	push	eax
	push	1
	call	DWORD PTR __imp__glDeleteTextures@8
; Line 461
	pop	ebp
	ret	4
?doDelete@TextureManager@@UAEXI@Z ENDP			; TextureManager::doDelete
_TEXT	ENDS
PUBLIC	__$ArrayPad$
PUBLIC	?loadTGA@@YAIPBD_N@Z				; loadTGA
EXTRN	__imp__glTexImage2D@36:PROC
EXTRN	??_V@YAXPAX@Z:PROC				; operator delete[]
EXTRN	_gluBuild2DMipmaps@28:PROC
EXTRN	__imp__glTexParameteri@12:PROC
EXTRN	__imp__glBindTexture@8:PROC
EXTRN	__imp__glGenTextures@8:PROC
EXTRN	__imp__fclose:PROC
EXTRN	??_U@YAPAXI@Z:PROC				; operator new[]
EXTRN	__imp__fread:PROC
EXTRN	__imp__fopen:PROC
; Function compile flags: /Ogtp
_TEXT	SEGMENT
_t$ = -36						; size = 4
_f$ = -32						; size = 4
_bppformat$ = -28					; size = 4
_h$ = -24						; size = 18
__$ArrayPad$ = -4					; size = 4
_filename$ = 8						; size = 4
_mipmaps$ = 12						; size = 1
?loadTGA@@YAIPBD_N@Z PROC				; loadTGA
; Line 483
	push	ebp
	mov	ebp, esp
	sub	esp, 36					; 00000024H
	mov	eax, DWORD PTR ___security_cookie
	xor	eax, ebp
	mov	DWORD PTR __$ArrayPad$[ebp], eax
	mov	eax, DWORD PTR _filename$[ebp]
; Line 484
	push	OFFSET $SG71818
	push	eax
	call	DWORD PTR __imp__fopen
; Line 486
	push	eax
	push	1
	mov	DWORD PTR _f$[ebp], eax
	lea	eax, DWORD PTR _h$[ebp]
	push	18					; 00000012H
	push	eax
	call	DWORD PTR __imp__fread
	add	esp, 24					; 00000018H
; Line 487
	cmp	BYTE PTR _h$[ebp+2], 2
	je	SHORT $LN7@loadTGA
	xor	eax, eax
; Line 530
	mov	ecx, DWORD PTR __$ArrayPad$[ebp]
	xor	ecx, ebp
	call	@__security_check_cookie@4
	mov	esp, ebp
	pop	ebp
	ret	0
$LN7@loadTGA:
; Line 488
	movsx	ecx, WORD PTR _h$[ebp+12]
	movsx	eax, WORD PTR _h$[ebp+14]
	imul	eax, ecx
; Line 492
	mov	cl, BYTE PTR _h$[ebp+16]
	push	ebx
	push	edi
	cmp	cl, 24					; 00000018H
	jne	SHORT $LN6@loadTGA
; Line 494
	lea	edi, DWORD PTR [eax+eax*2]
; Line 495
	mov	ebx, 6407				; 00001907H
; Line 496
	mov	DWORD PTR _bppformat$[ebp], 32849	; 00008051H
	jmp	SHORT $LN3@loadTGA
$LN6@loadTGA:
; Line 497
	cmp	cl, 32					; 00000020H
	jne	$LN4@loadTGA
; Line 499
	lea	edi, DWORD PTR [eax*4]
; Line 500
	mov	ebx, 6408				; 00001908H
; Line 501
	mov	DWORD PTR _bppformat$[ebp], 32856	; 00008058H
$LN3@loadTGA:
; Line 505
	push	esi
	push	edi
	call	??_U@YAPAXI@Z				; operator new[]
; Line 507
	mov	edx, DWORD PTR _f$[ebp]
	push	edx
	push	1
	mov	esi, eax
	push	edi
	push	esi
	call	DWORD PTR __imp__fread
; Line 508
	mov	eax, DWORD PTR _f$[ebp]
	push	eax
	call	DWORD PTR __imp__fclose
	add	esp, 24					; 00000018H
; Line 513
	lea	ecx, DWORD PTR _t$[ebp]
	push	ecx
	push	1
	call	DWORD PTR __imp__glGenTextures@8
; Line 514
	mov	edx, DWORD PTR _t$[ebp]
	push	edx
	push	3553					; 00000de1H
	call	DWORD PTR __imp__glBindTexture@8
; Line 516
	cmp	BYTE PTR _mipmaps$[ebp], 0
; Line 518
	mov	edi, DWORD PTR __imp__glTexParameteri@12
	je	SHORT $LN2@loadTGA
	push	9987					; 00002703H
	push	10240					; 00002800H
	push	3553					; 00000de1H
	call	edi
; Line 519
	push	9987					; 00002703H
	push	10241					; 00002801H
	push	3553					; 00000de1H
	call	edi
; Line 520
	movsx	eax, WORD PTR _h$[ebp+14]
	movsx	ecx, WORD PTR _h$[ebp+12]
	mov	edx, DWORD PTR _bppformat$[ebp]
	push	esi
	push	5121					; 00001401H
	push	ebx
	push	eax
	push	ecx
	push	edx
	push	3553					; 00000de1H
	call	_gluBuild2DMipmaps@28
; Line 527
	push	esi
	call	??_V@YAXPAX@Z				; operator delete[]
; Line 529
	mov	eax, DWORD PTR _t$[ebp]
	add	esp, 4
	pop	esi
	pop	edi
	pop	ebx
; Line 530
	mov	ecx, DWORD PTR __$ArrayPad$[ebp]
	xor	ecx, ebp
	call	@__security_check_cookie@4
	mov	esp, ebp
	pop	ebp
	ret	0
$LN2@loadTGA:
; Line 523
	push	9729					; 00002601H
	push	10240					; 00002800H
	push	3553					; 00000de1H
	call	edi
; Line 524
	push	9729					; 00002601H
	push	10241					; 00002801H
	push	3553					; 00000de1H
	call	edi
; Line 525
	movsx	eax, WORD PTR _h$[ebp+14]
	movsx	ecx, WORD PTR _h$[ebp+12]
	mov	edx, DWORD PTR _bppformat$[ebp]
	push	esi
	push	5121					; 00001401H
	push	ebx
	push	0
	push	eax
	push	ecx
	push	edx
	push	0
	push	3553					; 00000de1H
	call	DWORD PTR __imp__glTexImage2D@36
; Line 527
	push	esi
	call	??_V@YAXPAX@Z				; operator delete[]
; Line 529
	mov	eax, DWORD PTR _t$[ebp]
	add	esp, 4
	pop	esi
	pop	edi
	pop	ebx
; Line 530
	mov	ecx, DWORD PTR __$ArrayPad$[ebp]
	xor	ecx, ebp
	call	@__security_check_cookie@4
	mov	esp, ebp
	pop	ebp
	ret	0
$LN4@loadTGA:
	mov	ecx, DWORD PTR __$ArrayPad$[ebp]
	pop	edi
	xor	ecx, ebp
	xor	eax, eax
	pop	ebx
	call	@__security_check_cookie@4
	mov	esp, ebp
	pop	ebp
	ret	0
?loadTGA@@YAIPBD_N@Z ENDP				; loadTGA
_TEXT	ENDS
PUBLIC	?size@?$basic_string@DU?$char_traits@D@std@@V?$allocator@D@2@@std@@QBEIXZ ; std::basic_string<char,std::char_traits<char>,std::allocator<char> >::size
; Function compile flags: /Ogtp
;	COMDAT ?size@?$basic_string@DU?$char_traits@D@std@@V?$allocator@D@2@@std@@QBEIXZ
_TEXT	SEGMENT
?size@?$basic_string@DU?$char_traits@D@std@@V?$allocator@D@2@@std@@QBEIXZ PROC ; std::basic_string<char,std::char_traits<char>,std::allocator<char> >::size, COMDAT
; _this$ = ecx
; File c:\program files (x86)\microsoft visual studio 10.0\vc\include\xstring
; Line 1511
	mov	eax, DWORD PTR [ecx+16]
; Line 1512
	ret	0
?size@?$basic_string@DU?$char_traits@D@std@@V?$allocator@D@2@@std@@QBEIXZ ENDP ; std::basic_string<char,std::char_traits<char>,std::allocator<char> >::size
_TEXT	ENDS
PUBLIC	?_Myptr@?$basic_string@DU?$char_traits@D@std@@V?$allocator@D@2@@std@@QAEPADXZ ; std::basic_string<char,std::char_traits<char>,std::allocator<char> >::_Myptr
; Function compile flags: /Ogtp
;	COMDAT ?_Myptr@?$basic_string@DU?$char_traits@D@std@@V?$allocator@D@2@@std@@QAEPADXZ
_TEXT	SEGMENT
?_Myptr@?$basic_string@DU?$char_traits@D@std@@V?$allocator@D@2@@std@@QAEPADXZ PROC ; std::basic_string<char,std::char_traits<char>,std::allocator<char> >::_Myptr, COMDAT
; _this$ = ecx
; Line 2002
	mov	eax, ecx
; Line 2004
	cmp	DWORD PTR [eax+20], 16			; 00000010H
	jb	SHORT $LN4@Myptr
	mov	eax, DWORD PTR [eax]
$LN4@Myptr:
; Line 2005
	ret	0
?_Myptr@?$basic_string@DU?$char_traits@D@std@@V?$allocator@D@2@@std@@QAEPADXZ ENDP ; std::basic_string<char,std::char_traits<char>,std::allocator<char> >::_Myptr
_TEXT	ENDS
PUBLIC	?_Myptr@?$basic_string@DU?$char_traits@D@std@@V?$allocator@D@2@@std@@QBEPBDXZ ; std::basic_string<char,std::char_traits<char>,std::allocator<char> >::_Myptr
; Function compile flags: /Ogtp
;	COMDAT ?_Myptr@?$basic_string@DU?$char_traits@D@std@@V?$allocator@D@2@@std@@QBEPBDXZ
_TEXT	SEGMENT
?_Myptr@?$basic_string@DU?$char_traits@D@std@@V?$allocator@D@2@@std@@QBEPBDXZ PROC ; std::basic_string<char,std::char_traits<char>,std::allocator<char> >::_Myptr, COMDAT
; _this$ = ecx
; Line 2008
	mov	eax, ecx
; Line 2010
	cmp	DWORD PTR [eax+20], 16			; 00000010H
	jb	SHORT $LN4@Myptr@2
	mov	eax, DWORD PTR [eax]
$LN4@Myptr@2:
; Line 2011
	ret	0
?_Myptr@?$basic_string@DU?$char_traits@D@std@@V?$allocator@D@2@@std@@QBEPBDXZ ENDP ; std::basic_string<char,std::char_traits<char>,std::allocator<char> >::_Myptr
_TEXT	ENDS
PUBLIC	??1?$_String_val@DV?$allocator@D@std@@@std@@QAE@XZ ; std::_String_val<char,std::allocator<char> >::~_String_val<char,std::allocator<char> >
; Function compile flags: /Ogtp
;	COMDAT ??1?$_String_val@DV?$allocator@D@std@@@std@@QAE@XZ
_TEXT	SEGMENT
??1?$_String_val@DV?$allocator@D@std@@@std@@QAE@XZ PROC	; std::_String_val<char,std::allocator<char> >::~_String_val<char,std::allocator<char> >, COMDAT
; _this$ = ecx
; Line 459
	ret	0
??1?$_String_val@DV?$allocator@D@std@@@std@@QAE@XZ ENDP	; std::_String_val<char,std::allocator<char> >::~_String_val<char,std::allocator<char> >
_TEXT	ENDS
PUBLIC	??0?$allocator@D@std@@QAE@ABV01@@Z		; std::allocator<char>::allocator<char>
; Function compile flags: /Ogtp
;	COMDAT ??0?$allocator@D@std@@QAE@ABV01@@Z
_TEXT	SEGMENT
___formal$ = 8						; size = 4
??0?$allocator@D@std@@QAE@ABV01@@Z PROC			; std::allocator<char>::allocator<char>, COMDAT
; _this$ = ecx
; File c:\program files (x86)\microsoft visual studio 10.0\vc\include\xmemory
; Line 165
	mov	eax, ecx
; Line 167
	ret	4
??0?$allocator@D@std@@QAE@ABV01@@Z ENDP			; std::allocator<char>::allocator<char>
_TEXT	ENDS
PUBLIC	??R?$less@I@std@@QBE_NABI0@Z			; std::less<unsigned int>::operator()
; Function compile flags: /Ogtp
;	COMDAT ??R?$less@I@std@@QBE_NABI0@Z
_TEXT	SEGMENT
__Left$ = 8						; size = 4
__Right$ = 12						; size = 4
??R?$less@I@std@@QBE_NABI0@Z PROC			; std::less<unsigned int>::operator(), COMDAT
; _this$ = ecx
; File c:\program files (x86)\microsoft visual studio 10.0\vc\include\xfunctional
; Line 124
	push	ebp
	mov	ebp, esp
; Line 125
	mov	eax, DWORD PTR __Left$[ebp]
	mov	ecx, DWORD PTR [eax]
	mov	edx, DWORD PTR __Right$[ebp]
	cmp	ecx, DWORD PTR [edx]
	sbb	eax, eax
	neg	eax
; Line 126
	pop	ebp
	ret	8
??R?$less@I@std@@QBE_NABI0@Z ENDP			; std::less<unsigned int>::operator()
_TEXT	ENDS
PUBLIC	??8?$_Tree_const_iterator@V?$_Tree_val@V?$_Tmap_traits@V?$basic_string@DU?$char_traits@D@std@@V?$allocator@D@2@@std@@IU?$less@V?$basic_string@DU?$char_traits@D@std@@V?$allocator@D@2@@std@@@2@V?$allocator@U?$pair@$$CBV?$basic_string@DU?$char_traits@D@std@@V?$allocator@D@2@@std@@I@std@@@2@$0A@@std@@@std@@@std@@QBE_NABV01@@Z ; std::_Tree_const_iterator<std::_Tree_val<std::_Tmap_traits<std::basic_string<char,std::char_traits<char>,std::allocator<char> >,unsigned int,std::less<std::basic_string<char,std::char_traits<char>,std::allocator<char> > >,std::allocator<std::pair<std::basic_string<char,std::char_traits<char>,std::allocator<char> > const ,unsigned int> >,0> > >::operator==
; Function compile flags: /Ogtp
;	COMDAT ??8?$_Tree_const_iterator@V?$_Tree_val@V?$_Tmap_traits@V?$basic_string@DU?$char_traits@D@std@@V?$allocator@D@2@@std@@IU?$less@V?$basic_string@DU?$char_traits@D@std@@V?$allocator@D@2@@std@@@2@V?$allocator@U?$pair@$$CBV?$basic_string@DU?$char_traits@D@std@@V?$allocator@D@2@@std@@I@std@@@2@$0A@@std@@@std@@@std@@QBE_NABV01@@Z
_TEXT	SEGMENT
__Right$ = 8						; size = 4
??8?$_Tree_const_iterator@V?$_Tree_val@V?$_Tmap_traits@V?$basic_string@DU?$char_traits@D@std@@V?$allocator@D@2@@std@@IU?$less@V?$basic_string@DU?$char_traits@D@std@@V?$allocator@D@2@@std@@@2@V?$allocator@U?$pair@$$CBV?$basic_string@DU?$char_traits@D@std@@V?$allocator@D@2@@std@@I@std@@@2@$0A@@std@@@std@@@std@@QBE_NABV01@@Z PROC ; std::_Tree_const_iterator<std::_Tree_val<std::_Tmap_traits<std::basic_string<char,std::char_traits<char>,std::allocator<char> >,unsigned int,std::less<std::basic_string<char,std::char_traits<char>,std::allocator<char> > >,std::allocator<std::pair<std::basic_string<char,std::char_traits<char>,std::allocator<char> > const ,unsigned int> >,0> > >::operator==, COMDAT
; _this$ = ecx
; File c:\program files (x86)\microsoft visual studio 10.0\vc\include\xtree
; Line 316
	push	ebp
	mov	ebp, esp
; Line 330
	mov	eax, DWORD PTR [ecx]
	mov	edx, DWORD PTR __Right$[ebp]
	xor	ecx, ecx
	cmp	eax, DWORD PTR [edx]
	sete	al
; Line 331
	pop	ebp
	ret	4
??8?$_Tree_const_iterator@V?$_Tree_val@V?$_Tmap_traits@V?$basic_string@DU?$char_traits@D@std@@V?$allocator@D@2@@std@@IU?$less@V?$basic_string@DU?$char_traits@D@std@@V?$allocator@D@2@@std@@@2@V?$allocator@U?$pair@$$CBV?$basic_string@DU?$char_traits@D@std@@V?$allocator@D@2@@std@@I@std@@@2@$0A@@std@@@std@@@std@@QBE_NABV01@@Z ENDP ; std::_Tree_const_iterator<std::_Tree_val<std::_Tmap_traits<std::basic_string<char,std::char_traits<char>,std::allocator<char> >,unsigned int,std::less<std::basic_string<char,std::char_traits<char>,std::allocator<char> > >,std::allocator<std::pair<std::basic_string<char,std::char_traits<char>,std::allocator<char> > const ,unsigned int> >,0> > >::operator==
_TEXT	ENDS
PUBLIC	?_Mynode@?$_Tree_unchecked_const_iterator@V?$_Tree_val@V?$_Tmap_traits@V?$basic_string@DU?$char_traits@D@std@@V?$allocator@D@2@@std@@IU?$less@V?$basic_string@DU?$char_traits@D@std@@V?$allocator@D@2@@std@@@2@V?$allocator@U?$pair@$$CBV?$basic_string@DU?$char_traits@D@std@@V?$allocator@D@2@@std@@I@std@@@2@$0A@@std@@@std@@U_Iterator_base0@2@@std@@QBEPAU_Node@?$_Tree_nod@V?$_Tmap_traits@V?$basic_string@DU?$char_traits@D@std@@V?$allocator@D@2@@std@@IU?$less@V?$basic_string@DU?$char_traits@D@std@@V?$allocator@D@2@@std@@@2@V?$allocator@U?$pair@$$CBV?$basic_string@DU?$char_traits@D@std@@V?$allocator@D@2@@std@@I@std@@@2@$0A@@std@@@2@XZ ; std::_Tree_unchecked_const_iterator<std::_Tree_val<std::_Tmap_traits<std::basic_string<char,std::char_traits<char>,std::allocator<char> >,unsigned int,std::less<std::basic_string<char,std::char_traits<char>,std::allocator<char> > >,std::allocator<std::pair<std::basic_string<char,std::char_traits<char>,std::allocator<char> > const ,unsigned int> >,0> >,std::_Iterator_base0>::_Mynode
; Function compile flags: /Ogtp
;	COMDAT ?_Mynode@?$_Tree_unchecked_const_iterator@V?$_Tree_val@V?$_Tmap_traits@V?$basic_string@DU?$char_traits@D@std@@V?$allocator@D@2@@std@@IU?$less@V?$basic_string@DU?$char_traits@D@std@@V?$allocator@D@2@@std@@@2@V?$allocator@U?$pair@$$CBV?$basic_string@DU?$char_traits@D@std@@V?$allocator@D@2@@std@@I@std@@@2@$0A@@std@@@std@@U_Iterator_base0@2@@std@@QBEPAU_Node@?$_Tree_nod@V?$_Tmap_traits@V?$basic_string@DU?$char_traits@D@std@@V?$allocator@D@2@@std@@IU?$less@V?$basic_string@DU?$char_traits@D@std@@V?$allocator@D@2@@std@@@2@V?$allocator@U?$pair@$$CBV?$basic_string@DU?$char_traits@D@std@@V?$allocator@D@2@@std@@I@std@@@2@$0A@@std@@@2@XZ
_TEXT	SEGMENT
?_Mynode@?$_Tree_unchecked_const_iterator@V?$_Tree_val@V?$_Tmap_traits@V?$basic_string@DU?$char_traits@D@std@@V?$allocator@D@2@@std@@IU?$less@V?$basic_string@DU?$char_traits@D@std@@V?$allocator@D@2@@std@@@2@V?$allocator@U?$pair@$$CBV?$basic_string@DU?$char_traits@D@std@@V?$allocator@D@2@@std@@I@std@@@2@$0A@@std@@@std@@U_Iterator_base0@2@@std@@QBEPAU_Node@?$_Tree_nod@V?$_Tmap_traits@V?$basic_string@DU?$char_traits@D@std@@V?$allocator@D@2@@std@@IU?$less@V?$basic_string@DU?$char_traits@D@std@@V?$allocator@D@2@@std@@@2@V?$allocator@U?$pair@$$CBV?$basic_string@DU?$char_traits@D@std@@V?$allocator@D@2@@std@@I@std@@@2@$0A@@std@@@2@XZ PROC ; std::_Tree_unchecked_const_iterator<std::_Tree_val<std::_Tmap_traits<std::basic_string<char,std::char_traits<char>,std::allocator<char> >,unsigned int,std::less<std::basic_string<char,std::char_traits<char>,std::allocator<char> > >,std::allocator<std::pair<std::basic_string<char,std::char_traits<char>,std::allocator<char> > const ,unsigned int> >,0> >,std::_Iterator_base0>::_Mynode, COMDAT
; _this$ = ecx
; Line 122
	mov	eax, DWORD PTR [ecx]
; Line 123
	ret	0
?_Mynode@?$_Tree_unchecked_const_iterator@V?$_Tree_val@V?$_Tmap_traits@V?$basic_string@DU?$char_traits@D@std@@V?$allocator@D@2@@std@@IU?$less@V?$basic_string@DU?$char_traits@D@std@@V?$allocator@D@2@@std@@@2@V?$allocator@U?$pair@$$CBV?$basic_string@DU?$char_traits@D@std@@V?$allocator@D@2@@std@@I@std@@@2@$0A@@std@@@std@@U_Iterator_base0@2@@std@@QBEPAU_Node@?$_Tree_nod@V?$_Tmap_traits@V?$basic_string@DU?$char_traits@D@std@@V?$allocator@D@2@@std@@IU?$less@V?$basic_string@DU?$char_traits@D@std@@V?$allocator@D@2@@std@@@2@V?$allocator@U?$pair@$$CBV?$basic_string@DU?$char_traits@D@std@@V?$allocator@D@2@@std@@I@std@@@2@$0A@@std@@@2@XZ ENDP ; std::_Tree_unchecked_const_iterator<std::_Tree_val<std::_Tmap_traits<std::basic_string<char,std::char_traits<char>,std::allocator<char> >,unsigned int,std::less<std::basic_string<char,std::char_traits<char>,std::allocator<char> > >,std::allocator<std::pair<std::basic_string<char,std::char_traits<char>,std::allocator<char> > const ,unsigned int> >,0> >,std::_Iterator_base0>::_Mynode
_TEXT	ENDS
PUBLIC	??8?$_Tree_const_iterator@V?$_Tree_val@V?$_Tmap_traits@IPAVManagedItem@@U?$less@I@std@@V?$allocator@U?$pair@$$CBIPAVManagedItem@@@std@@@3@$0A@@std@@@std@@@std@@QBE_NABV01@@Z ; std::_Tree_const_iterator<std::_Tree_val<std::_Tmap_traits<unsigned int,ManagedItem *,std::less<unsigned int>,std::allocator<std::pair<unsigned int const ,ManagedItem *> >,0> > >::operator==
; Function compile flags: /Ogtp
;	COMDAT ??8?$_Tree_const_iterator@V?$_Tree_val@V?$_Tmap_traits@IPAVManagedItem@@U?$less@I@std@@V?$allocator@U?$pair@$$CBIPAVManagedItem@@@std@@@3@$0A@@std@@@std@@@std@@QBE_NABV01@@Z
_TEXT	SEGMENT
__Right$ = 8						; size = 4
??8?$_Tree_const_iterator@V?$_Tree_val@V?$_Tmap_traits@IPAVManagedItem@@U?$less@I@std@@V?$allocator@U?$pair@$$CBIPAVManagedItem@@@std@@@3@$0A@@std@@@std@@@std@@QBE_NABV01@@Z PROC ; std::_Tree_const_iterator<std::_Tree_val<std::_Tmap_traits<unsigned int,ManagedItem *,std::less<unsigned int>,std::allocator<std::pair<unsigned int const ,ManagedItem *> >,0> > >::operator==, COMDAT
; _this$ = ecx
; Line 316
	push	ebp
	mov	ebp, esp
; Line 330
	mov	eax, DWORD PTR [ecx]
	mov	edx, DWORD PTR __Right$[ebp]
	xor	ecx, ecx
	cmp	eax, DWORD PTR [edx]
	sete	al
; Line 331
	pop	ebp
	ret	4
??8?$_Tree_const_iterator@V?$_Tree_val@V?$_Tmap_traits@IPAVManagedItem@@U?$less@I@std@@V?$allocator@U?$pair@$$CBIPAVManagedItem@@@std@@@3@$0A@@std@@@std@@@std@@QBE_NABV01@@Z ENDP ; std::_Tree_const_iterator<std::_Tree_val<std::_Tmap_traits<unsigned int,ManagedItem *,std::less<unsigned int>,std::allocator<std::pair<unsigned int const ,ManagedItem *> >,0> > >::operator==
_TEXT	ENDS
PUBLIC	?_Mynode@?$_Tree_unchecked_const_iterator@V?$_Tree_val@V?$_Tmap_traits@IPAVManagedItem@@U?$less@I@std@@V?$allocator@U?$pair@$$CBIPAVManagedItem@@@std@@@3@$0A@@std@@@std@@U_Iterator_base0@2@@std@@QBEPAU_Node@?$_Tree_nod@V?$_Tmap_traits@IPAVManagedItem@@U?$less@I@std@@V?$allocator@U?$pair@$$CBIPAVManagedItem@@@std@@@3@$0A@@std@@@2@XZ ; std::_Tree_unchecked_const_iterator<std::_Tree_val<std::_Tmap_traits<unsigned int,ManagedItem *,std::less<unsigned int>,std::allocator<std::pair<unsigned int const ,ManagedItem *> >,0> >,std::_Iterator_base0>::_Mynode
; Function compile flags: /Ogtp
;	COMDAT ?_Mynode@?$_Tree_unchecked_const_iterator@V?$_Tree_val@V?$_Tmap_traits@IPAVManagedItem@@U?$less@I@std@@V?$allocator@U?$pair@$$CBIPAVManagedItem@@@std@@@3@$0A@@std@@@std@@U_Iterator_base0@2@@std@@QBEPAU_Node@?$_Tree_nod@V?$_Tmap_traits@IPAVManagedItem@@U?$less@I@std@@V?$allocator@U?$pair@$$CBIPAVManagedItem@@@std@@@3@$0A@@std@@@2@XZ
_TEXT	SEGMENT
?_Mynode@?$_Tree_unchecked_const_iterator@V?$_Tree_val@V?$_Tmap_traits@IPAVManagedItem@@U?$less@I@std@@V?$allocator@U?$pair@$$CBIPAVManagedItem@@@std@@@3@$0A@@std@@@std@@U_Iterator_base0@2@@std@@QBEPAU_Node@?$_Tree_nod@V?$_Tmap_traits@IPAVManagedItem@@U?$less@I@std@@V?$allocator@U?$pair@$$CBIPAVManagedItem@@@std@@@3@$0A@@std@@@2@XZ PROC ; std::_Tree_unchecked_const_iterator<std::_Tree_val<std::_Tmap_traits<unsigned int,ManagedItem *,std::less<unsigned int>,std::allocator<std::pair<unsigned int const ,ManagedItem *> >,0> >,std::_Iterator_base0>::_Mynode, COMDAT
; _this$ = ecx
; Line 122
	mov	eax, DWORD PTR [ecx]
; Line 123
	ret	0
?_Mynode@?$_Tree_unchecked_const_iterator@V?$_Tree_val@V?$_Tmap_traits@IPAVManagedItem@@U?$less@I@std@@V?$allocator@U?$pair@$$CBIPAVManagedItem@@@std@@@3@$0A@@std@@@std@@U_Iterator_base0@2@@std@@QBEPAU_Node@?$_Tree_nod@V?$_Tmap_traits@IPAVManagedItem@@U?$less@I@std@@V?$allocator@U?$pair@$$CBIPAVManagedItem@@@std@@@3@$0A@@std@@@2@XZ ENDP ; std::_Tree_unchecked_const_iterator<std::_Tree_val<std::_Tmap_traits<unsigned int,ManagedItem *,std::less<unsigned int>,std::allocator<std::pair<unsigned int const ,ManagedItem *> >,0> >,std::_Iterator_base0>::_Mynode
_TEXT	ENDS
PUBLIC	?_Eos@?$basic_string@DU?$char_traits@D@std@@V?$allocator@D@2@@std@@QAEXI@Z ; std::basic_string<char,std::char_traits<char>,std::allocator<char> >::_Eos
; Function compile flags: /Ogtp
;	COMDAT ?_Eos@?$basic_string@DU?$char_traits@D@std@@V?$allocator@D@2@@std@@QAEXI@Z
_TEXT	SEGMENT
__Newsize$ = 8						; size = 4
?_Eos@?$basic_string@DU?$char_traits@D@std@@V?$allocator@D@2@@std@@QAEXI@Z PROC ; std::basic_string<char,std::char_traits<char>,std::allocator<char> >::_Eos, COMDAT
; _this$ = ecx
; File c:\program files (x86)\microsoft visual studio 10.0\vc\include\xstring
; Line 1952
	push	ebp
	mov	ebp, esp
; Line 1953
	cmp	DWORD PTR [ecx+20], 16			; 00000010H
	mov	eax, DWORD PTR __Newsize$[ebp]
	mov	DWORD PTR [ecx+16], eax
	jb	SHORT $LN5@Eos
	mov	ecx, DWORD PTR [ecx]
$LN5@Eos:
	mov	BYTE PTR [ecx+eax], 0
; Line 1954
	pop	ebp
	ret	4
?_Eos@?$basic_string@DU?$char_traits@D@std@@V?$allocator@D@2@@std@@QAEXI@Z ENDP ; std::basic_string<char,std::char_traits<char>,std::allocator<char> >::_Eos
_TEXT	ENDS
PUBLIC	??_C@_0BI@CFPLBAOH@invalid?5string?5position?$AA@ ; `string'
PUBLIC	?_Xran@?$basic_string@DU?$char_traits@D@std@@V?$allocator@D@2@@std@@QBEXXZ ; std::basic_string<char,std::char_traits<char>,std::allocator<char> >::_Xran
EXTRN	__imp_?_Xout_of_range@std@@YAXPBD@Z:PROC
;	COMDAT ??_C@_0BI@CFPLBAOH@invalid?5string?5position?$AA@
CONST	SEGMENT
??_C@_0BI@CFPLBAOH@invalid?5string?5position?$AA@ DB 'invalid string posi'
	DB	'tion', 00H					; `string'
; Function compile flags: /Ogtp
CONST	ENDS
;	COMDAT ?_Xran@?$basic_string@DU?$char_traits@D@std@@V?$allocator@D@2@@std@@QBEXXZ
_TEXT	SEGMENT
?_Xran@?$basic_string@DU?$char_traits@D@std@@V?$allocator@D@2@@std@@QBEXXZ PROC ; std::basic_string<char,std::char_traits<char>,std::allocator<char> >::_Xran, COMDAT
; _this$ = ecx
; Line 2020
	push	OFFSET ??_C@_0BI@CFPLBAOH@invalid?5string?5position?$AA@
	call	DWORD PTR __imp_?_Xout_of_range@std@@YAXPBD@Z
$LN4@Xran:
$LN3@Xran:
	int	3
?_Xran@?$basic_string@DU?$char_traits@D@std@@V?$allocator@D@2@@std@@QBEXXZ ENDP ; std::basic_string<char,std::char_traits<char>,std::allocator<char> >::_Xran
_TEXT	ENDS
PUBLIC	?deallocate@?$allocator@D@std@@QAEXPADI@Z	; std::allocator<char>::deallocate
; Function compile flags: /Ogtp
;	COMDAT ?deallocate@?$allocator@D@std@@QAEXPADI@Z
_TEXT	SEGMENT
__Ptr$ = 8						; size = 4
___formal$ = 12						; size = 4
?deallocate@?$allocator@D@std@@QAEXPADI@Z PROC		; std::allocator<char>::deallocate, COMDAT
; _this$ = ecx
; File c:\program files (x86)\microsoft visual studio 10.0\vc\include\xmemory
; Line 181
	push	ebp
	mov	ebp, esp
; Line 182
	mov	eax, DWORD PTR __Ptr$[ebp]
	push	eax
	call	??3@YAXPAX@Z				; operator delete
	add	esp, 4
; Line 183
	pop	ebp
	ret	8
?deallocate@?$allocator@D@std@@QAEXPADI@Z ENDP		; std::allocator<char>::deallocate
_TEXT	ENDS
PUBLIC	?_Color@?$_Tree_val@V?$_Tmap_traits@V?$basic_string@DU?$char_traits@D@std@@V?$allocator@D@2@@std@@IU?$less@V?$basic_string@DU?$char_traits@D@std@@V?$allocator@D@2@@std@@@2@V?$allocator@U?$pair@$$CBV?$basic_string@DU?$char_traits@D@std@@V?$allocator@D@2@@std@@I@std@@@2@$0A@@std@@@std@@SAAADPAU_Node@?$_Tree_nod@V?$_Tmap_traits@V?$basic_string@DU?$char_traits@D@std@@V?$allocator@D@2@@std@@IU?$less@V?$basic_string@DU?$char_traits@D@std@@V?$allocator@D@2@@std@@@2@V?$allocator@U?$pair@$$CBV?$basic_string@DU?$char_traits@D@std@@V?$allocator@D@2@@std@@I@std@@@2@$0A@@std@@@2@@Z ; std::_Tree_val<std::_Tmap_traits<std::basic_string<char,std::char_traits<char>,std::allocator<char> >,unsigned int,std::less<std::basic_string<char,std::char_traits<char>,std::allocator<char> > >,std::allocator<std::pair<std::basic_string<char,std::char_traits<char>,std::allocator<char> > const ,unsigned int> >,0> >::_Color
; Function compile flags: /Ogtp
;	COMDAT ?_Color@?$_Tree_val@V?$_Tmap_traits@V?$basic_string@DU?$char_traits@D@std@@V?$allocator@D@2@@std@@IU?$less@V?$basic_string@DU?$char_traits@D@std@@V?$allocator@D@2@@std@@@2@V?$allocator@U?$pair@$$CBV?$basic_string@DU?$char_traits@D@std@@V?$allocator@D@2@@std@@I@std@@@2@$0A@@std@@@std@@SAAADPAU_Node@?$_Tree_nod@V?$_Tmap_traits@V?$basic_string@DU?$char_traits@D@std@@V?$allocator@D@2@@std@@IU?$less@V?$basic_string@DU?$char_traits@D@std@@V?$allocator@D@2@@std@@@2@V?$allocator@U?$pair@$$CBV?$basic_string@DU?$char_traits@D@std@@V?$allocator@D@2@@std@@I@std@@@2@$0A@@std@@@2@@Z
_TEXT	SEGMENT
__Pnode$ = 8						; size = 4
?_Color@?$_Tree_val@V?$_Tmap_traits@V?$basic_string@DU?$char_traits@D@std@@V?$allocator@D@2@@std@@IU?$less@V?$basic_string@DU?$char_traits@D@std@@V?$allocator@D@2@@std@@@2@V?$allocator@U?$pair@$$CBV?$basic_string@DU?$char_traits@D@std@@V?$allocator@D@2@@std@@I@std@@@2@$0A@@std@@@std@@SAAADPAU_Node@?$_Tree_nod@V?$_Tmap_traits@V?$basic_string@DU?$char_traits@D@std@@V?$allocator@D@2@@std@@IU?$less@V?$basic_string@DU?$char_traits@D@std@@V?$allocator@D@2@@std@@@2@V?$allocator@U?$pair@$$CBV?$basic_string@DU?$char_traits@D@std@@V?$allocator@D@2@@std@@I@std@@@2@$0A@@std@@@2@@Z PROC ; std::_Tree_val<std::_Tmap_traits<std::basic_string<char,std::char_traits<char>,std::allocator<char> >,unsigned int,std::less<std::basic_string<char,std::char_traits<char>,std::allocator<char> > >,std::allocator<std::pair<std::basic_string<char,std::char_traits<char>,std::allocator<char> > const ,unsigned int> >,0> >::_Color, COMDAT
; File c:\program files (x86)\microsoft visual studio 10.0\vc\include\xtree
; Line 606
	push	ebp
	mov	ebp, esp
; Line 607
	mov	eax, DWORD PTR __Pnode$[ebp]
	add	eax, 44					; 0000002cH
; Line 608
	pop	ebp
	ret	0
?_Color@?$_Tree_val@V?$_Tmap_traits@V?$basic_string@DU?$char_traits@D@std@@V?$allocator@D@2@@std@@IU?$less@V?$basic_string@DU?$char_traits@D@std@@V?$allocator@D@2@@std@@@2@V?$allocator@U?$pair@$$CBV?$basic_string@DU?$char_traits@D@std@@V?$allocator@D@2@@std@@I@std@@@2@$0A@@std@@@std@@SAAADPAU_Node@?$_Tree_nod@V?$_Tmap_traits@V?$basic_string@DU?$char_traits@D@std@@V?$allocator@D@2@@std@@IU?$less@V?$basic_string@DU?$char_traits@D@std@@V?$allocator@D@2@@std@@@2@V?$allocator@U?$pair@$$CBV?$basic_string@DU?$char_traits@D@std@@V?$allocator@D@2@@std@@I@std@@@2@$0A@@std@@@2@@Z ENDP ; std::_Tree_val<std::_Tmap_traits<std::basic_string<char,std::char_traits<char>,std::allocator<char> >,unsigned int,std::less<std::basic_string<char,std::char_traits<char>,std::allocator<char> > >,std::allocator<std::pair<std::basic_string<char,std::char_traits<char>,std::allocator<char> > const ,unsigned int> >,0> >::_Color
_TEXT	ENDS
PUBLIC	?_Isnil@?$_Tree_val@V?$_Tmap_traits@V?$basic_string@DU?$char_traits@D@std@@V?$allocator@D@2@@std@@IU?$less@V?$basic_string@DU?$char_traits@D@std@@V?$allocator@D@2@@std@@@2@V?$allocator@U?$pair@$$CBV?$basic_string@DU?$char_traits@D@std@@V?$allocator@D@2@@std@@I@std@@@2@$0A@@std@@@std@@SAAADPAU_Node@?$_Tree_nod@V?$_Tmap_traits@V?$basic_string@DU?$char_traits@D@std@@V?$allocator@D@2@@std@@IU?$less@V?$basic_string@DU?$char_traits@D@std@@V?$allocator@D@2@@std@@@2@V?$allocator@U?$pair@$$CBV?$basic_string@DU?$char_traits@D@std@@V?$allocator@D@2@@std@@I@std@@@2@$0A@@std@@@2@@Z ; std::_Tree_val<std::_Tmap_traits<std::basic_string<char,std::char_traits<char>,std::allocator<char> >,unsigned int,std::less<std::basic_string<char,std::char_traits<char>,std::allocator<char> > >,std::allocator<std::pair<std::basic_string<char,std::char_traits<char>,std::allocator<char> > const ,unsigned int> >,0> >::_Isnil
; Function compile flags: /Ogtp
;	COMDAT ?_Isnil@?$_Tree_val@V?$_Tmap_traits@V?$basic_string@DU?$char_traits@D@std@@V?$allocator@D@2@@std@@IU?$less@V?$basic_string@DU?$char_traits@D@std@@V?$allocator@D@2@@std@@@2@V?$allocator@U?$pair@$$CBV?$basic_string@DU?$char_traits@D@std@@V?$allocator@D@2@@std@@I@std@@@2@$0A@@std@@@std@@SAAADPAU_Node@?$_Tree_nod@V?$_Tmap_traits@V?$basic_string@DU?$char_traits@D@std@@V?$allocator@D@2@@std@@IU?$less@V?$basic_string@DU?$char_traits@D@std@@V?$allocator@D@2@@std@@@2@V?$allocator@U?$pair@$$CBV?$basic_string@DU?$char_traits@D@std@@V?$allocator@D@2@@std@@I@std@@@2@$0A@@std@@@2@@Z
_TEXT	SEGMENT
__Pnode$ = 8						; size = 4
?_Isnil@?$_Tree_val@V?$_Tmap_traits@V?$basic_string@DU?$char_traits@D@std@@V?$allocator@D@2@@std@@IU?$less@V?$basic_string@DU?$char_traits@D@std@@V?$allocator@D@2@@std@@@2@V?$allocator@U?$pair@$$CBV?$basic_string@DU?$char_traits@D@std@@V?$allocator@D@2@@std@@I@std@@@2@$0A@@std@@@std@@SAAADPAU_Node@?$_Tree_nod@V?$_Tmap_traits@V?$basic_string@DU?$char_traits@D@std@@V?$allocator@D@2@@std@@IU?$less@V?$basic_string@DU?$char_traits@D@std@@V?$allocator@D@2@@std@@@2@V?$allocator@U?$pair@$$CBV?$basic_string@DU?$char_traits@D@std@@V?$allocator@D@2@@std@@I@std@@@2@$0A@@std@@@2@@Z PROC ; std::_Tree_val<std::_Tmap_traits<std::basic_string<char,std::char_traits<char>,std::allocator<char> >,unsigned int,std::less<std::basic_string<char,std::char_traits<char>,std::allocator<char> > >,std::allocator<std::pair<std::basic_string<char,std::char_traits<char>,std::allocator<char> > const ,unsigned int> >,0> >::_Isnil, COMDAT
; Line 611
	push	ebp
	mov	ebp, esp
; Line 612
	mov	eax, DWORD PTR __Pnode$[ebp]
	add	eax, 45					; 0000002dH
; Line 613
	pop	ebp
	ret	0
?_Isnil@?$_Tree_val@V?$_Tmap_traits@V?$basic_string@DU?$char_traits@D@std@@V?$allocator@D@2@@std@@IU?$less@V?$basic_string@DU?$char_traits@D@std@@V?$allocator@D@2@@std@@@2@V?$allocator@U?$pair@$$CBV?$basic_string@DU?$char_traits@D@std@@V?$allocator@D@2@@std@@I@std@@@2@$0A@@std@@@std@@SAAADPAU_Node@?$_Tree_nod@V?$_Tmap_traits@V?$basic_string@DU?$char_traits@D@std@@V?$allocator@D@2@@std@@IU?$less@V?$basic_string@DU?$char_traits@D@std@@V?$allocator@D@2@@std@@@2@V?$allocator@U?$pair@$$CBV?$basic_string@DU?$char_traits@D@std@@V?$allocator@D@2@@std@@I@std@@@2@$0A@@std@@@2@@Z ENDP ; std::_Tree_val<std::_Tmap_traits<std::basic_string<char,std::char_traits<char>,std::allocator<char> >,unsigned int,std::less<std::basic_string<char,std::char_traits<char>,std::allocator<char> > >,std::allocator<std::pair<std::basic_string<char,std::char_traits<char>,std::allocator<char> > const ,unsigned int> >,0> >::_Isnil
_TEXT	ENDS
PUBLIC	?_Left@?$_Tree_val@V?$_Tmap_traits@V?$basic_string@DU?$char_traits@D@std@@V?$allocator@D@2@@std@@IU?$less@V?$basic_string@DU?$char_traits@D@std@@V?$allocator@D@2@@std@@@2@V?$allocator@U?$pair@$$CBV?$basic_string@DU?$char_traits@D@std@@V?$allocator@D@2@@std@@I@std@@@2@$0A@@std@@@std@@SAAAPAU_Node@?$_Tree_nod@V?$_Tmap_traits@V?$basic_string@DU?$char_traits@D@std@@V?$allocator@D@2@@std@@IU?$less@V?$basic_string@DU?$char_traits@D@std@@V?$allocator@D@2@@std@@@2@V?$allocator@U?$pair@$$CBV?$basic_string@DU?$char_traits@D@std@@V?$allocator@D@2@@std@@I@std@@@2@$0A@@std@@@2@PAU342@@Z ; std::_Tree_val<std::_Tmap_traits<std::basic_string<char,std::char_traits<char>,std::allocator<char> >,unsigned int,std::less<std::basic_string<char,std::char_traits<char>,std::allocator<char> > >,std::allocator<std::pair<std::basic_string<char,std::char_traits<char>,std::allocator<char> > const ,unsigned int> >,0> >::_Left
; Function compile flags: /Ogtp
;	COMDAT ?_Left@?$_Tree_val@V?$_Tmap_traits@V?$basic_string@DU?$char_traits@D@std@@V?$allocator@D@2@@std@@IU?$less@V?$basic_string@DU?$char_traits@D@std@@V?$allocator@D@2@@std@@@2@V?$allocator@U?$pair@$$CBV?$basic_string@DU?$char_traits@D@std@@V?$allocator@D@2@@std@@I@std@@@2@$0A@@std@@@std@@SAAAPAU_Node@?$_Tree_nod@V?$_Tmap_traits@V?$basic_string@DU?$char_traits@D@std@@V?$allocator@D@2@@std@@IU?$less@V?$basic_string@DU?$char_traits@D@std@@V?$allocator@D@2@@std@@@2@V?$allocator@U?$pair@$$CBV?$basic_string@DU?$char_traits@D@std@@V?$allocator@D@2@@std@@I@std@@@2@$0A@@std@@@2@PAU342@@Z
_TEXT	SEGMENT
__Pnode$ = 8						; size = 4
?_Left@?$_Tree_val@V?$_Tmap_traits@V?$basic_string@DU?$char_traits@D@std@@V?$allocator@D@2@@std@@IU?$less@V?$basic_string@DU?$char_traits@D@std@@V?$allocator@D@2@@std@@@2@V?$allocator@U?$pair@$$CBV?$basic_string@DU?$char_traits@D@std@@V?$allocator@D@2@@std@@I@std@@@2@$0A@@std@@@std@@SAAAPAU_Node@?$_Tree_nod@V?$_Tmap_traits@V?$basic_string@DU?$char_traits@D@std@@V?$allocator@D@2@@std@@IU?$less@V?$basic_string@DU?$char_traits@D@std@@V?$allocator@D@2@@std@@@2@V?$allocator@U?$pair@$$CBV?$basic_string@DU?$char_traits@D@std@@V?$allocator@D@2@@std@@I@std@@@2@$0A@@std@@@2@PAU342@@Z PROC ; std::_Tree_val<std::_Tmap_traits<std::basic_string<char,std::char_traits<char>,std::allocator<char> >,unsigned int,std::less<std::basic_string<char,std::char_traits<char>,std::allocator<char> > >,std::allocator<std::pair<std::basic_string<char,std::char_traits<char>,std::allocator<char> > const ,unsigned int> >,0> >::_Left, COMDAT
; Line 621
	push	ebp
	mov	ebp, esp
; Line 622
	mov	eax, DWORD PTR __Pnode$[ebp]
; Line 623
	pop	ebp
	ret	0
?_Left@?$_Tree_val@V?$_Tmap_traits@V?$basic_string@DU?$char_traits@D@std@@V?$allocator@D@2@@std@@IU?$less@V?$basic_string@DU?$char_traits@D@std@@V?$allocator@D@2@@std@@@2@V?$allocator@U?$pair@$$CBV?$basic_string@DU?$char_traits@D@std@@V?$allocator@D@2@@std@@I@std@@@2@$0A@@std@@@std@@SAAAPAU_Node@?$_Tree_nod@V?$_Tmap_traits@V?$basic_string@DU?$char_traits@D@std@@V?$allocator@D@2@@std@@IU?$less@V?$basic_string@DU?$char_traits@D@std@@V?$allocator@D@2@@std@@@2@V?$allocator@U?$pair@$$CBV?$basic_string@DU?$char_traits@D@std@@V?$allocator@D@2@@std@@I@std@@@2@$0A@@std@@@2@PAU342@@Z ENDP ; std::_Tree_val<std::_Tmap_traits<std::basic_string<char,std::char_traits<char>,std::allocator<char> >,unsigned int,std::less<std::basic_string<char,std::char_traits<char>,std::allocator<char> > >,std::allocator<std::pair<std::basic_string<char,std::char_traits<char>,std::allocator<char> > const ,unsigned int> >,0> >::_Left
_TEXT	ENDS
PUBLIC	?_Parent@?$_Tree_val@V?$_Tmap_traits@V?$basic_string@DU?$char_traits@D@std@@V?$allocator@D@2@@std@@IU?$less@V?$basic_string@DU?$char_traits@D@std@@V?$allocator@D@2@@std@@@2@V?$allocator@U?$pair@$$CBV?$basic_string@DU?$char_traits@D@std@@V?$allocator@D@2@@std@@I@std@@@2@$0A@@std@@@std@@SAAAPAU_Node@?$_Tree_nod@V?$_Tmap_traits@V?$basic_string@DU?$char_traits@D@std@@V?$allocator@D@2@@std@@IU?$less@V?$basic_string@DU?$char_traits@D@std@@V?$allocator@D@2@@std@@@2@V?$allocator@U?$pair@$$CBV?$basic_string@DU?$char_traits@D@std@@V?$allocator@D@2@@std@@I@std@@@2@$0A@@std@@@2@PAU342@@Z ; std::_Tree_val<std::_Tmap_traits<std::basic_string<char,std::char_traits<char>,std::allocator<char> >,unsigned int,std::less<std::basic_string<char,std::char_traits<char>,std::allocator<char> > >,std::allocator<std::pair<std::basic_string<char,std::char_traits<char>,std::allocator<char> > const ,unsigned int> >,0> >::_Parent
; Function compile flags: /Ogtp
;	COMDAT ?_Parent@?$_Tree_val@V?$_Tmap_traits@V?$basic_string@DU?$char_traits@D@std@@V?$allocator@D@2@@std@@IU?$less@V?$basic_string@DU?$char_traits@D@std@@V?$allocator@D@2@@std@@@2@V?$allocator@U?$pair@$$CBV?$basic_string@DU?$char_traits@D@std@@V?$allocator@D@2@@std@@I@std@@@2@$0A@@std@@@std@@SAAAPAU_Node@?$_Tree_nod@V?$_Tmap_traits@V?$basic_string@DU?$char_traits@D@std@@V?$allocator@D@2@@std@@IU?$less@V?$basic_string@DU?$char_traits@D@std@@V?$allocator@D@2@@std@@@2@V?$allocator@U?$pair@$$CBV?$basic_string@DU?$char_traits@D@std@@V?$allocator@D@2@@std@@I@std@@@2@$0A@@std@@@2@PAU342@@Z
_TEXT	SEGMENT
__Pnode$ = 8						; size = 4
?_Parent@?$_Tree_val@V?$_Tmap_traits@V?$basic_string@DU?$char_traits@D@std@@V?$allocator@D@2@@std@@IU?$less@V?$basic_string@DU?$char_traits@D@std@@V?$allocator@D@2@@std@@@2@V?$allocator@U?$pair@$$CBV?$basic_string@DU?$char_traits@D@std@@V?$allocator@D@2@@std@@I@std@@@2@$0A@@std@@@std@@SAAAPAU_Node@?$_Tree_nod@V?$_Tmap_traits@V?$basic_string@DU?$char_traits@D@std@@V?$allocator@D@2@@std@@IU?$less@V?$basic_string@DU?$char_traits@D@std@@V?$allocator@D@2@@std@@@2@V?$allocator@U?$pair@$$CBV?$basic_string@DU?$char_traits@D@std@@V?$allocator@D@2@@std@@I@std@@@2@$0A@@std@@@2@PAU342@@Z PROC ; std::_Tree_val<std::_Tmap_traits<std::basic_string<char,std::char_traits<char>,std::allocator<char> >,unsigned int,std::less<std::basic_string<char,std::char_traits<char>,std::allocator<char> > >,std::allocator<std::pair<std::basic_string<char,std::char_traits<char>,std::allocator<char> > const ,unsigned int> >,0> >::_Parent, COMDAT
; Line 626
	push	ebp
	mov	ebp, esp
; Line 627
	mov	eax, DWORD PTR __Pnode$[ebp]
	add	eax, 4
; Line 628
	pop	ebp
	ret	0
?_Parent@?$_Tree_val@V?$_Tmap_traits@V?$basic_string@DU?$char_traits@D@std@@V?$allocator@D@2@@std@@IU?$less@V?$basic_string@DU?$char_traits@D@std@@V?$allocator@D@2@@std@@@2@V?$allocator@U?$pair@$$CBV?$basic_string@DU?$char_traits@D@std@@V?$allocator@D@2@@std@@I@std@@@2@$0A@@std@@@std@@SAAAPAU_Node@?$_Tree_nod@V?$_Tmap_traits@V?$basic_string@DU?$char_traits@D@std@@V?$allocator@D@2@@std@@IU?$less@V?$basic_string@DU?$char_traits@D@std@@V?$allocator@D@2@@std@@@2@V?$allocator@U?$pair@$$CBV?$basic_string@DU?$char_traits@D@std@@V?$allocator@D@2@@std@@I@std@@@2@$0A@@std@@@2@PAU342@@Z ENDP ; std::_Tree_val<std::_Tmap_traits<std::basic_string<char,std::char_traits<char>,std::allocator<char> >,unsigned int,std::less<std::basic_string<char,std::char_traits<char>,std::allocator<char> > >,std::allocator<std::pair<std::basic_string<char,std::char_traits<char>,std::allocator<char> > const ,unsigned int> >,0> >::_Parent
_TEXT	ENDS
PUBLIC	?_Right@?$_Tree_val@V?$_Tmap_traits@V?$basic_string@DU?$char_traits@D@std@@V?$allocator@D@2@@std@@IU?$less@V?$basic_string@DU?$char_traits@D@std@@V?$allocator@D@2@@std@@@2@V?$allocator@U?$pair@$$CBV?$basic_string@DU?$char_traits@D@std@@V?$allocator@D@2@@std@@I@std@@@2@$0A@@std@@@std@@SAAAPAU_Node@?$_Tree_nod@V?$_Tmap_traits@V?$basic_string@DU?$char_traits@D@std@@V?$allocator@D@2@@std@@IU?$less@V?$basic_string@DU?$char_traits@D@std@@V?$allocator@D@2@@std@@@2@V?$allocator@U?$pair@$$CBV?$basic_string@DU?$char_traits@D@std@@V?$allocator@D@2@@std@@I@std@@@2@$0A@@std@@@2@PAU342@@Z ; std::_Tree_val<std::_Tmap_traits<std::basic_string<char,std::char_traits<char>,std::allocator<char> >,unsigned int,std::less<std::basic_string<char,std::char_traits<char>,std::allocator<char> > >,std::allocator<std::pair<std::basic_string<char,std::char_traits<char>,std::allocator<char> > const ,unsigned int> >,0> >::_Right
; Function compile flags: /Ogtp
;	COMDAT ?_Right@?$_Tree_val@V?$_Tmap_traits@V?$basic_string@DU?$char_traits@D@std@@V?$allocator@D@2@@std@@IU?$less@V?$basic_string@DU?$char_traits@D@std@@V?$allocator@D@2@@std@@@2@V?$allocator@U?$pair@$$CBV?$basic_string@DU?$char_traits@D@std@@V?$allocator@D@2@@std@@I@std@@@2@$0A@@std@@@std@@SAAAPAU_Node@?$_Tree_nod@V?$_Tmap_traits@V?$basic_string@DU?$char_traits@D@std@@V?$allocator@D@2@@std@@IU?$less@V?$basic_string@DU?$char_traits@D@std@@V?$allocator@D@2@@std@@@2@V?$allocator@U?$pair@$$CBV?$basic_string@DU?$char_traits@D@std@@V?$allocator@D@2@@std@@I@std@@@2@$0A@@std@@@2@PAU342@@Z
_TEXT	SEGMENT
__Pnode$ = 8						; size = 4
?_Right@?$_Tree_val@V?$_Tmap_traits@V?$basic_string@DU?$char_traits@D@std@@V?$allocator@D@2@@std@@IU?$less@V?$basic_string@DU?$char_traits@D@std@@V?$allocator@D@2@@std@@@2@V?$allocator@U?$pair@$$CBV?$basic_string@DU?$char_traits@D@std@@V?$allocator@D@2@@std@@I@std@@@2@$0A@@std@@@std@@SAAAPAU_Node@?$_Tree_nod@V?$_Tmap_traits@V?$basic_string@DU?$char_traits@D@std@@V?$allocator@D@2@@std@@IU?$less@V?$basic_string@DU?$char_traits@D@std@@V?$allocator@D@2@@std@@@2@V?$allocator@U?$pair@$$CBV?$basic_string@DU?$char_traits@D@std@@V?$allocator@D@2@@std@@I@std@@@2@$0A@@std@@@2@PAU342@@Z PROC ; std::_Tree_val<std::_Tmap_traits<std::basic_string<char,std::char_traits<char>,std::allocator<char> >,unsigned int,std::less<std::basic_string<char,std::char_traits<char>,std::allocator<char> > >,std::allocator<std::pair<std::basic_string<char,std::char_traits<char>,std::allocator<char> > const ,unsigned int> >,0> >::_Right, COMDAT
; Line 631
	push	ebp
	mov	ebp, esp
; Line 632
	mov	eax, DWORD PTR __Pnode$[ebp]
	add	eax, 8
; Line 633
	pop	ebp
	ret	0
?_Right@?$_Tree_val@V?$_Tmap_traits@V?$basic_string@DU?$char_traits@D@std@@V?$allocator@D@2@@std@@IU?$less@V?$basic_string@DU?$char_traits@D@std@@V?$allocator@D@2@@std@@@2@V?$allocator@U?$pair@$$CBV?$basic_string@DU?$char_traits@D@std@@V?$allocator@D@2@@std@@I@std@@@2@$0A@@std@@@std@@SAAAPAU_Node@?$_Tree_nod@V?$_Tmap_traits@V?$basic_string@DU?$char_traits@D@std@@V?$allocator@D@2@@std@@IU?$less@V?$basic_string@DU?$char_traits@D@std@@V?$allocator@D@2@@std@@@2@V?$allocator@U?$pair@$$CBV?$basic_string@DU?$char_traits@D@std@@V?$allocator@D@2@@std@@I@std@@@2@$0A@@std@@@2@PAU342@@Z ENDP ; std::_Tree_val<std::_Tmap_traits<std::basic_string<char,std::char_traits<char>,std::allocator<char> >,unsigned int,std::less<std::basic_string<char,std::char_traits<char>,std::allocator<char> > >,std::allocator<std::pair<std::basic_string<char,std::char_traits<char>,std::allocator<char> > const ,unsigned int> >,0> >::_Right
_TEXT	ENDS
PUBLIC	?_Myval@?$_Tree_val@V?$_Tmap_traits@V?$basic_string@DU?$char_traits@D@std@@V?$allocator@D@2@@std@@IU?$less@V?$basic_string@DU?$char_traits@D@std@@V?$allocator@D@2@@std@@@2@V?$allocator@U?$pair@$$CBV?$basic_string@DU?$char_traits@D@std@@V?$allocator@D@2@@std@@I@std@@@2@$0A@@std@@@std@@SAAAU?$pair@$$CBV?$basic_string@DU?$char_traits@D@std@@V?$allocator@D@2@@std@@I@2@PAU_Node@?$_Tree_nod@V?$_Tmap_traits@V?$basic_string@DU?$char_traits@D@std@@V?$allocator@D@2@@std@@IU?$less@V?$basic_string@DU?$char_traits@D@std@@V?$allocator@D@2@@std@@@2@V?$allocator@U?$pair@$$CBV?$basic_string@DU?$char_traits@D@std@@V?$allocator@D@2@@std@@I@std@@@2@$0A@@std@@@2@@Z ; std::_Tree_val<std::_Tmap_traits<std::basic_string<char,std::char_traits<char>,std::allocator<char> >,unsigned int,std::less<std::basic_string<char,std::char_traits<char>,std::allocator<char> > >,std::allocator<std::pair<std::basic_string<char,std::char_traits<char>,std::allocator<char> > const ,unsigned int> >,0> >::_Myval
; Function compile flags: /Ogtp
;	COMDAT ?_Myval@?$_Tree_val@V?$_Tmap_traits@V?$basic_string@DU?$char_traits@D@std@@V?$allocator@D@2@@std@@IU?$less@V?$basic_string@DU?$char_traits@D@std@@V?$allocator@D@2@@std@@@2@V?$allocator@U?$pair@$$CBV?$basic_string@DU?$char_traits@D@std@@V?$allocator@D@2@@std@@I@std@@@2@$0A@@std@@@std@@SAAAU?$pair@$$CBV?$basic_string@DU?$char_traits@D@std@@V?$allocator@D@2@@std@@I@2@PAU_Node@?$_Tree_nod@V?$_Tmap_traits@V?$basic_string@DU?$char_traits@D@std@@V?$allocator@D@2@@std@@IU?$less@V?$basic_string@DU?$char_traits@D@std@@V?$allocator@D@2@@std@@@2@V?$allocator@U?$pair@$$CBV?$basic_string@DU?$char_traits@D@std@@V?$allocator@D@2@@std@@I@std@@@2@$0A@@std@@@2@@Z
_TEXT	SEGMENT
__Pnode$ = 8						; size = 4
?_Myval@?$_Tree_val@V?$_Tmap_traits@V?$basic_string@DU?$char_traits@D@std@@V?$allocator@D@2@@std@@IU?$less@V?$basic_string@DU?$char_traits@D@std@@V?$allocator@D@2@@std@@@2@V?$allocator@U?$pair@$$CBV?$basic_string@DU?$char_traits@D@std@@V?$allocator@D@2@@std@@I@std@@@2@$0A@@std@@@std@@SAAAU?$pair@$$CBV?$basic_string@DU?$char_traits@D@std@@V?$allocator@D@2@@std@@I@2@PAU_Node@?$_Tree_nod@V?$_Tmap_traits@V?$basic_string@DU?$char_traits@D@std@@V?$allocator@D@2@@std@@IU?$less@V?$basic_string@DU?$char_traits@D@std@@V?$allocator@D@2@@std@@@2@V?$allocator@U?$pair@$$CBV?$basic_string@DU?$char_traits@D@std@@V?$allocator@D@2@@std@@I@std@@@2@$0A@@std@@@2@@Z PROC ; std::_Tree_val<std::_Tmap_traits<std::basic_string<char,std::char_traits<char>,std::allocator<char> >,unsigned int,std::less<std::basic_string<char,std::char_traits<char>,std::allocator<char> > >,std::allocator<std::pair<std::basic_string<char,std::char_traits<char>,std::allocator<char> > const ,unsigned int> >,0> >::_Myval, COMDAT
; Line 636
	push	ebp
	mov	ebp, esp
; Line 637
	mov	eax, DWORD PTR __Pnode$[ebp]
	add	eax, 12					; 0000000cH
; Line 638
	pop	ebp
	ret	0
?_Myval@?$_Tree_val@V?$_Tmap_traits@V?$basic_string@DU?$char_traits@D@std@@V?$allocator@D@2@@std@@IU?$less@V?$basic_string@DU?$char_traits@D@std@@V?$allocator@D@2@@std@@@2@V?$allocator@U?$pair@$$CBV?$basic_string@DU?$char_traits@D@std@@V?$allocator@D@2@@std@@I@std@@@2@$0A@@std@@@std@@SAAAU?$pair@$$CBV?$basic_string@DU?$char_traits@D@std@@V?$allocator@D@2@@std@@I@2@PAU_Node@?$_Tree_nod@V?$_Tmap_traits@V?$basic_string@DU?$char_traits@D@std@@V?$allocator@D@2@@std@@IU?$less@V?$basic_string@DU?$char_traits@D@std@@V?$allocator@D@2@@std@@@2@V?$allocator@U?$pair@$$CBV?$basic_string@DU?$char_traits@D@std@@V?$allocator@D@2@@std@@I@std@@@2@$0A@@std@@@2@@Z ENDP ; std::_Tree_val<std::_Tmap_traits<std::basic_string<char,std::char_traits<char>,std::allocator<char> >,unsigned int,std::less<std::basic_string<char,std::char_traits<char>,std::allocator<char> > >,std::allocator<std::pair<std::basic_string<char,std::char_traits<char>,std::allocator<char> > const ,unsigned int> >,0> >::_Myval
_TEXT	ENDS
PUBLIC	?_Max@?$_Tree_val@V?$_Tmap_traits@V?$basic_string@DU?$char_traits@D@std@@V?$allocator@D@2@@std@@IU?$less@V?$basic_string@DU?$char_traits@D@std@@V?$allocator@D@2@@std@@@2@V?$allocator@U?$pair@$$CBV?$basic_string@DU?$char_traits@D@std@@V?$allocator@D@2@@std@@I@std@@@2@$0A@@std@@@std@@SAPAU_Node@?$_Tree_nod@V?$_Tmap_traits@V?$basic_string@DU?$char_traits@D@std@@V?$allocator@D@2@@std@@IU?$less@V?$basic_string@DU?$char_traits@D@std@@V?$allocator@D@2@@std@@@2@V?$allocator@U?$pair@$$CBV?$basic_string@DU?$char_traits@D@std@@V?$allocator@D@2@@std@@I@std@@@2@$0A@@std@@@2@PAU342@@Z ; std::_Tree_val<std::_Tmap_traits<std::basic_string<char,std::char_traits<char>,std::allocator<char> >,unsigned int,std::less<std::basic_string<char,std::char_traits<char>,std::allocator<char> > >,std::allocator<std::pair<std::basic_string<char,std::char_traits<char>,std::allocator<char> > const ,unsigned int> >,0> >::_Max
; Function compile flags: /Ogtp
;	COMDAT ?_Max@?$_Tree_val@V?$_Tmap_traits@V?$basic_string@DU?$char_traits@D@std@@V?$allocator@D@2@@std@@IU?$less@V?$basic_string@DU?$char_traits@D@std@@V?$allocator@D@2@@std@@@2@V?$allocator@U?$pair@$$CBV?$basic_string@DU?$char_traits@D@std@@V?$allocator@D@2@@std@@I@std@@@2@$0A@@std@@@std@@SAPAU_Node@?$_Tree_nod@V?$_Tmap_traits@V?$basic_string@DU?$char_traits@D@std@@V?$allocator@D@2@@std@@IU?$less@V?$basic_string@DU?$char_traits@D@std@@V?$allocator@D@2@@std@@@2@V?$allocator@U?$pair@$$CBV?$basic_string@DU?$char_traits@D@std@@V?$allocator@D@2@@std@@I@std@@@2@$0A@@std@@@2@PAU342@@Z
_TEXT	SEGMENT
__Pnode$ = 8						; size = 4
?_Max@?$_Tree_val@V?$_Tmap_traits@V?$basic_string@DU?$char_traits@D@std@@V?$allocator@D@2@@std@@IU?$less@V?$basic_string@DU?$char_traits@D@std@@V?$allocator@D@2@@std@@@2@V?$allocator@U?$pair@$$CBV?$basic_string@DU?$char_traits@D@std@@V?$allocator@D@2@@std@@I@std@@@2@$0A@@std@@@std@@SAPAU_Node@?$_Tree_nod@V?$_Tmap_traits@V?$basic_string@DU?$char_traits@D@std@@V?$allocator@D@2@@std@@IU?$less@V?$basic_string@DU?$char_traits@D@std@@V?$allocator@D@2@@std@@@2@V?$allocator@U?$pair@$$CBV?$basic_string@DU?$char_traits@D@std@@V?$allocator@D@2@@std@@I@std@@@2@$0A@@std@@@2@PAU342@@Z PROC ; std::_Tree_val<std::_Tmap_traits<std::basic_string<char,std::char_traits<char>,std::allocator<char> >,unsigned int,std::less<std::basic_string<char,std::char_traits<char>,std::allocator<char> > >,std::allocator<std::pair<std::basic_string<char,std::char_traits<char>,std::allocator<char> > const ,unsigned int> >,0> >::_Max, COMDAT
; Line 641
	push	ebp
	mov	ebp, esp
; Line 642
	mov	eax, DWORD PTR __Pnode$[ebp]
	mov	ecx, DWORD PTR [eax+8]
	cmp	BYTE PTR [ecx+45], 0
	jne	SHORT $LN1@Max
	npad	1
$LL2@Max:
; Line 643
	mov	eax, ecx
	mov	ecx, DWORD PTR [eax+8]
	cmp	BYTE PTR [ecx+45], 0
	je	SHORT $LL2@Max
$LN1@Max:
; Line 645
	pop	ebp
	ret	0
?_Max@?$_Tree_val@V?$_Tmap_traits@V?$basic_string@DU?$char_traits@D@std@@V?$allocator@D@2@@std@@IU?$less@V?$basic_string@DU?$char_traits@D@std@@V?$allocator@D@2@@std@@@2@V?$allocator@U?$pair@$$CBV?$basic_string@DU?$char_traits@D@std@@V?$allocator@D@2@@std@@I@std@@@2@$0A@@std@@@std@@SAPAU_Node@?$_Tree_nod@V?$_Tmap_traits@V?$basic_string@DU?$char_traits@D@std@@V?$allocator@D@2@@std@@IU?$less@V?$basic_string@DU?$char_traits@D@std@@V?$allocator@D@2@@std@@@2@V?$allocator@U?$pair@$$CBV?$basic_string@DU?$char_traits@D@std@@V?$allocator@D@2@@std@@I@std@@@2@$0A@@std@@@2@PAU342@@Z ENDP ; std::_Tree_val<std::_Tmap_traits<std::basic_string<char,std::char_traits<char>,std::allocator<char> >,unsigned int,std::less<std::basic_string<char,std::char_traits<char>,std::allocator<char> > >,std::allocator<std::pair<std::basic_string<char,std::char_traits<char>,std::allocator<char> > const ,unsigned int> >,0> >::_Max
_TEXT	ENDS
PUBLIC	?_Min@?$_Tree_val@V?$_Tmap_traits@V?$basic_string@DU?$char_traits@D@std@@V?$allocator@D@2@@std@@IU?$less@V?$basic_string@DU?$char_traits@D@std@@V?$allocator@D@2@@std@@@2@V?$allocator@U?$pair@$$CBV?$basic_string@DU?$char_traits@D@std@@V?$allocator@D@2@@std@@I@std@@@2@$0A@@std@@@std@@SAPAU_Node@?$_Tree_nod@V?$_Tmap_traits@V?$basic_string@DU?$char_traits@D@std@@V?$allocator@D@2@@std@@IU?$less@V?$basic_string@DU?$char_traits@D@std@@V?$allocator@D@2@@std@@@2@V?$allocator@U?$pair@$$CBV?$basic_string@DU?$char_traits@D@std@@V?$allocator@D@2@@std@@I@std@@@2@$0A@@std@@@2@PAU342@@Z ; std::_Tree_val<std::_Tmap_traits<std::basic_string<char,std::char_traits<char>,std::allocator<char> >,unsigned int,std::less<std::basic_string<char,std::char_traits<char>,std::allocator<char> > >,std::allocator<std::pair<std::basic_string<char,std::char_traits<char>,std::allocator<char> > const ,unsigned int> >,0> >::_Min
; Function compile flags: /Ogtp
;	COMDAT ?_Min@?$_Tree_val@V?$_Tmap_traits@V?$basic_string@DU?$char_traits@D@std@@V?$allocator@D@2@@std@@IU?$less@V?$basic_string@DU?$char_traits@D@std@@V?$allocator@D@2@@std@@@2@V?$allocator@U?$pair@$$CBV?$basic_string@DU?$char_traits@D@std@@V?$allocator@D@2@@std@@I@std@@@2@$0A@@std@@@std@@SAPAU_Node@?$_Tree_nod@V?$_Tmap_traits@V?$basic_string@DU?$char_traits@D@std@@V?$allocator@D@2@@std@@IU?$less@V?$basic_string@DU?$char_traits@D@std@@V?$allocator@D@2@@std@@@2@V?$allocator@U?$pair@$$CBV?$basic_string@DU?$char_traits@D@std@@V?$allocator@D@2@@std@@I@std@@@2@$0A@@std@@@2@PAU342@@Z
_TEXT	SEGMENT
__Pnode$ = 8						; size = 4
?_Min@?$_Tree_val@V?$_Tmap_traits@V?$basic_string@DU?$char_traits@D@std@@V?$allocator@D@2@@std@@IU?$less@V?$basic_string@DU?$char_traits@D@std@@V?$allocator@D@2@@std@@@2@V?$allocator@U?$pair@$$CBV?$basic_string@DU?$char_traits@D@std@@V?$allocator@D@2@@std@@I@std@@@2@$0A@@std@@@std@@SAPAU_Node@?$_Tree_nod@V?$_Tmap_traits@V?$basic_string@DU?$char_traits@D@std@@V?$allocator@D@2@@std@@IU?$less@V?$basic_string@DU?$char_traits@D@std@@V?$allocator@D@2@@std@@@2@V?$allocator@U?$pair@$$CBV?$basic_string@DU?$char_traits@D@std@@V?$allocator@D@2@@std@@I@std@@@2@$0A@@std@@@2@PAU342@@Z PROC ; std::_Tree_val<std::_Tmap_traits<std::basic_string<char,std::char_traits<char>,std::allocator<char> >,unsigned int,std::less<std::basic_string<char,std::char_traits<char>,std::allocator<char> > >,std::allocator<std::pair<std::basic_string<char,std::char_traits<char>,std::allocator<char> > const ,unsigned int> >,0> >::_Min, COMDAT
; Line 648
	push	ebp
	mov	ebp, esp
; Line 649
	mov	eax, DWORD PTR __Pnode$[ebp]
	mov	ecx, DWORD PTR [eax]
	cmp	BYTE PTR [ecx+45], 0
	jne	SHORT $LN1@Min
	npad	2
$LL2@Min:
; Line 650
	mov	eax, ecx
	mov	ecx, DWORD PTR [eax]
	cmp	BYTE PTR [ecx+45], 0
	je	SHORT $LL2@Min
$LN1@Min:
; Line 652
	pop	ebp
	ret	0
?_Min@?$_Tree_val@V?$_Tmap_traits@V?$basic_string@DU?$char_traits@D@std@@V?$allocator@D@2@@std@@IU?$less@V?$basic_string@DU?$char_traits@D@std@@V?$allocator@D@2@@std@@@2@V?$allocator@U?$pair@$$CBV?$basic_string@DU?$char_traits@D@std@@V?$allocator@D@2@@std@@I@std@@@2@$0A@@std@@@std@@SAPAU_Node@?$_Tree_nod@V?$_Tmap_traits@V?$basic_string@DU?$char_traits@D@std@@V?$allocator@D@2@@std@@IU?$less@V?$basic_string@DU?$char_traits@D@std@@V?$allocator@D@2@@std@@@2@V?$allocator@U?$pair@$$CBV?$basic_string@DU?$char_traits@D@std@@V?$allocator@D@2@@std@@I@std@@@2@$0A@@std@@@2@PAU342@@Z ENDP ; std::_Tree_val<std::_Tmap_traits<std::basic_string<char,std::char_traits<char>,std::allocator<char> >,unsigned int,std::less<std::basic_string<char,std::char_traits<char>,std::allocator<char> > >,std::allocator<std::pair<std::basic_string<char,std::char_traits<char>,std::allocator<char> > const ,unsigned int> >,0> >::_Min
_TEXT	ENDS
PUBLIC	??0?$allocator@U?$pair@$$CBV?$basic_string@DU?$char_traits@D@std@@V?$allocator@D@2@@std@@I@std@@@std@@QAE@XZ ; std::allocator<std::pair<std::basic_string<char,std::char_traits<char>,std::allocator<char> > const ,unsigned int> >::allocator<std::pair<std::basic_string<char,std::char_traits<char>,std::allocator<char> > const ,unsigned int> >
; Function compile flags: /Ogtp
;	COMDAT ??0?$allocator@U?$pair@$$CBV?$basic_string@DU?$char_traits@D@std@@V?$allocator@D@2@@std@@I@std@@@std@@QAE@XZ
_TEXT	SEGMENT
??0?$allocator@U?$pair@$$CBV?$basic_string@DU?$char_traits@D@std@@V?$allocator@D@2@@std@@I@std@@@std@@QAE@XZ PROC ; std::allocator<std::pair<std::basic_string<char,std::char_traits<char>,std::allocator<char> > const ,unsigned int> >::allocator<std::pair<std::basic_string<char,std::char_traits<char>,std::allocator<char> > const ,unsigned int> >, COMDAT
; _this$ = ecx
; File c:\program files (x86)\microsoft visual studio 10.0\vc\include\xmemory
; Line 161
	mov	eax, ecx
; Line 163
	ret	0
??0?$allocator@U?$pair@$$CBV?$basic_string@DU?$char_traits@D@std@@V?$allocator@D@2@@std@@I@std@@@std@@QAE@XZ ENDP ; std::allocator<std::pair<std::basic_string<char,std::char_traits<char>,std::allocator<char> > const ,unsigned int> >::allocator<std::pair<std::basic_string<char,std::char_traits<char>,std::allocator<char> > const ,unsigned int> >
_TEXT	ENDS
PUBLIC	?deallocate@?$allocator@U_Node@?$_Tree_nod@V?$_Tmap_traits@V?$basic_string@DU?$char_traits@D@std@@V?$allocator@D@2@@std@@IU?$less@V?$basic_string@DU?$char_traits@D@std@@V?$allocator@D@2@@std@@@2@V?$allocator@U?$pair@$$CBV?$basic_string@DU?$char_traits@D@std@@V?$allocator@D@2@@std@@I@std@@@2@$0A@@std@@@std@@@std@@QAEXPAU_Node@?$_Tree_nod@V?$_Tmap_traits@V?$basic_string@DU?$char_traits@D@std@@V?$allocator@D@2@@std@@IU?$less@V?$basic_string@DU?$char_traits@D@std@@V?$allocator@D@2@@std@@@2@V?$allocator@U?$pair@$$CBV?$basic_string@DU?$char_traits@D@std@@V?$allocator@D@2@@std@@I@std@@@2@$0A@@std@@@2@I@Z ; std::allocator<std::_Tree_nod<std::_Tmap_traits<std::basic_string<char,std::char_traits<char>,std::allocator<char> >,unsigned int,std::less<std::basic_string<char,std::char_traits<char>,std::allocator<char> > >,std::allocator<std::pair<std::basic_string<char,std::char_traits<char>,std::allocator<char> > const ,unsigned int> >,0> >::_Node>::deallocate
; Function compile flags: /Ogtp
;	COMDAT ?deallocate@?$allocator@U_Node@?$_Tree_nod@V?$_Tmap_traits@V?$basic_string@DU?$char_traits@D@std@@V?$allocator@D@2@@std@@IU?$less@V?$basic_string@DU?$char_traits@D@std@@V?$allocator@D@2@@std@@@2@V?$allocator@U?$pair@$$CBV?$basic_string@DU?$char_traits@D@std@@V?$allocator@D@2@@std@@I@std@@@2@$0A@@std@@@std@@@std@@QAEXPAU_Node@?$_Tree_nod@V?$_Tmap_traits@V?$basic_string@DU?$char_traits@D@std@@V?$allocator@D@2@@std@@IU?$less@V?$basic_string@DU?$char_traits@D@std@@V?$allocator@D@2@@std@@@2@V?$allocator@U?$pair@$$CBV?$basic_string@DU?$char_traits@D@std@@V?$allocator@D@2@@std@@I@std@@@2@$0A@@std@@@2@I@Z
_TEXT	SEGMENT
__Ptr$ = 8						; size = 4
___formal$ = 12						; size = 4
?deallocate@?$allocator@U_Node@?$_Tree_nod@V?$_Tmap_traits@V?$basic_string@DU?$char_traits@D@std@@V?$allocator@D@2@@std@@IU?$less@V?$basic_string@DU?$char_traits@D@std@@V?$allocator@D@2@@std@@@2@V?$allocator@U?$pair@$$CBV?$basic_string@DU?$char_traits@D@std@@V?$allocator@D@2@@std@@I@std@@@2@$0A@@std@@@std@@@std@@QAEXPAU_Node@?$_Tree_nod@V?$_Tmap_traits@V?$basic_string@DU?$char_traits@D@std@@V?$allocator@D@2@@std@@IU?$less@V?$basic_string@DU?$char_traits@D@std@@V?$allocator@D@2@@std@@@2@V?$allocator@U?$pair@$$CBV?$basic_string@DU?$char_traits@D@std@@V?$allocator@D@2@@std@@I@std@@@2@$0A@@std@@@2@I@Z PROC ; std::allocator<std::_Tree_nod<std::_Tmap_traits<std::basic_string<char,std::char_traits<char>,std::allocator<char> >,unsigned int,std::less<std::basic_string<char,std::char_traits<char>,std::allocator<char> > >,std::allocator<std::pair<std::basic_string<char,std::char_traits<char>,std::allocator<char> > const ,unsigned int> >,0> >::_Node>::deallocate, COMDAT
; _this$ = ecx
; Line 181
	push	ebp
	mov	ebp, esp
; Line 182
	mov	eax, DWORD PTR __Ptr$[ebp]
	push	eax
	call	??3@YAXPAX@Z				; operator delete
	add	esp, 4
; Line 183
	pop	ebp
	ret	8
?deallocate@?$allocator@U_Node@?$_Tree_nod@V?$_Tmap_traits@V?$basic_string@DU?$char_traits@D@std@@V?$allocator@D@2@@std@@IU?$less@V?$basic_string@DU?$char_traits@D@std@@V?$allocator@D@2@@std@@@2@V?$allocator@U?$pair@$$CBV?$basic_string@DU?$char_traits@D@std@@V?$allocator@D@2@@std@@I@std@@@2@$0A@@std@@@std@@@std@@QAEXPAU_Node@?$_Tree_nod@V?$_Tmap_traits@V?$basic_string@DU?$char_traits@D@std@@V?$allocator@D@2@@std@@IU?$less@V?$basic_string@DU?$char_traits@D@std@@V?$allocator@D@2@@std@@@2@V?$allocator@U?$pair@$$CBV?$basic_string@DU?$char_traits@D@std@@V?$allocator@D@2@@std@@I@std@@@2@$0A@@std@@@2@I@Z ENDP ; std::allocator<std::_Tree_nod<std::_Tmap_traits<std::basic_string<char,std::char_traits<char>,std::allocator<char> >,unsigned int,std::less<std::basic_string<char,std::char_traits<char>,std::allocator<char> > >,std::allocator<std::pair<std::basic_string<char,std::char_traits<char>,std::allocator<char> > const ,unsigned int> >,0> >::_Node>::deallocate
_TEXT	ENDS
PUBLIC	?_Color@?$_Tree_val@V?$_Tmap_traits@IPAVManagedItem@@U?$less@I@std@@V?$allocator@U?$pair@$$CBIPAVManagedItem@@@std@@@3@$0A@@std@@@std@@SAAADPAU_Node@?$_Tree_nod@V?$_Tmap_traits@IPAVManagedItem@@U?$less@I@std@@V?$allocator@U?$pair@$$CBIPAVManagedItem@@@std@@@3@$0A@@std@@@2@@Z ; std::_Tree_val<std::_Tmap_traits<unsigned int,ManagedItem *,std::less<unsigned int>,std::allocator<std::pair<unsigned int const ,ManagedItem *> >,0> >::_Color
; Function compile flags: /Ogtp
;	COMDAT ?_Color@?$_Tree_val@V?$_Tmap_traits@IPAVManagedItem@@U?$less@I@std@@V?$allocator@U?$pair@$$CBIPAVManagedItem@@@std@@@3@$0A@@std@@@std@@SAAADPAU_Node@?$_Tree_nod@V?$_Tmap_traits@IPAVManagedItem@@U?$less@I@std@@V?$allocator@U?$pair@$$CBIPAVManagedItem@@@std@@@3@$0A@@std@@@2@@Z
_TEXT	SEGMENT
__Pnode$ = 8						; size = 4
?_Color@?$_Tree_val@V?$_Tmap_traits@IPAVManagedItem@@U?$less@I@std@@V?$allocator@U?$pair@$$CBIPAVManagedItem@@@std@@@3@$0A@@std@@@std@@SAAADPAU_Node@?$_Tree_nod@V?$_Tmap_traits@IPAVManagedItem@@U?$less@I@std@@V?$allocator@U?$pair@$$CBIPAVManagedItem@@@std@@@3@$0A@@std@@@2@@Z PROC ; std::_Tree_val<std::_Tmap_traits<unsigned int,ManagedItem *,std::less<unsigned int>,std::allocator<std::pair<unsigned int const ,ManagedItem *> >,0> >::_Color, COMDAT
; File c:\program files (x86)\microsoft visual studio 10.0\vc\include\xtree
; Line 606
	push	ebp
	mov	ebp, esp
; Line 607
	mov	eax, DWORD PTR __Pnode$[ebp]
	add	eax, 20					; 00000014H
; Line 608
	pop	ebp
	ret	0
?_Color@?$_Tree_val@V?$_Tmap_traits@IPAVManagedItem@@U?$less@I@std@@V?$allocator@U?$pair@$$CBIPAVManagedItem@@@std@@@3@$0A@@std@@@std@@SAAADPAU_Node@?$_Tree_nod@V?$_Tmap_traits@IPAVManagedItem@@U?$less@I@std@@V?$allocator@U?$pair@$$CBIPAVManagedItem@@@std@@@3@$0A@@std@@@2@@Z ENDP ; std::_Tree_val<std::_Tmap_traits<unsigned int,ManagedItem *,std::less<unsigned int>,std::allocator<std::pair<unsigned int const ,ManagedItem *> >,0> >::_Color
_TEXT	ENDS
PUBLIC	?_Isnil@?$_Tree_val@V?$_Tmap_traits@IPAVManagedItem@@U?$less@I@std@@V?$allocator@U?$pair@$$CBIPAVManagedItem@@@std@@@3@$0A@@std@@@std@@SAAADPAU_Node@?$_Tree_nod@V?$_Tmap_traits@IPAVManagedItem@@U?$less@I@std@@V?$allocator@U?$pair@$$CBIPAVManagedItem@@@std@@@3@$0A@@std@@@2@@Z ; std::_Tree_val<std::_Tmap_traits<unsigned int,ManagedItem *,std::less<unsigned int>,std::allocator<std::pair<unsigned int const ,ManagedItem *> >,0> >::_Isnil
; Function compile flags: /Ogtp
;	COMDAT ?_Isnil@?$_Tree_val@V?$_Tmap_traits@IPAVManagedItem@@U?$less@I@std@@V?$allocator@U?$pair@$$CBIPAVManagedItem@@@std@@@3@$0A@@std@@@std@@SAAADPAU_Node@?$_Tree_nod@V?$_Tmap_traits@IPAVManagedItem@@U?$less@I@std@@V?$allocator@U?$pair@$$CBIPAVManagedItem@@@std@@@3@$0A@@std@@@2@@Z
_TEXT	SEGMENT
__Pnode$ = 8						; size = 4
?_Isnil@?$_Tree_val@V?$_Tmap_traits@IPAVManagedItem@@U?$less@I@std@@V?$allocator@U?$pair@$$CBIPAVManagedItem@@@std@@@3@$0A@@std@@@std@@SAAADPAU_Node@?$_Tree_nod@V?$_Tmap_traits@IPAVManagedItem@@U?$less@I@std@@V?$allocator@U?$pair@$$CBIPAVManagedItem@@@std@@@3@$0A@@std@@@2@@Z PROC ; std::_Tree_val<std::_Tmap_traits<unsigned int,ManagedItem *,std::less<unsigned int>,std::allocator<std::pair<unsigned int const ,ManagedItem *> >,0> >::_Isnil, COMDAT
; Line 611
	push	ebp
	mov	ebp, esp
; Line 612
	mov	eax, DWORD PTR __Pnode$[ebp]
	add	eax, 21					; 00000015H
; Line 613
	pop	ebp
	ret	0
?_Isnil@?$_Tree_val@V?$_Tmap_traits@IPAVManagedItem@@U?$less@I@std@@V?$allocator@U?$pair@$$CBIPAVManagedItem@@@std@@@3@$0A@@std@@@std@@SAAADPAU_Node@?$_Tree_nod@V?$_Tmap_traits@IPAVManagedItem@@U?$less@I@std@@V?$allocator@U?$pair@$$CBIPAVManagedItem@@@std@@@3@$0A@@std@@@2@@Z ENDP ; std::_Tree_val<std::_Tmap_traits<unsigned int,ManagedItem *,std::less<unsigned int>,std::allocator<std::pair<unsigned int const ,ManagedItem *> >,0> >::_Isnil
_TEXT	ENDS
PUBLIC	?_Left@?$_Tree_val@V?$_Tmap_traits@IPAVManagedItem@@U?$less@I@std@@V?$allocator@U?$pair@$$CBIPAVManagedItem@@@std@@@3@$0A@@std@@@std@@SAAAPAU_Node@?$_Tree_nod@V?$_Tmap_traits@IPAVManagedItem@@U?$less@I@std@@V?$allocator@U?$pair@$$CBIPAVManagedItem@@@std@@@3@$0A@@std@@@2@PAU342@@Z ; std::_Tree_val<std::_Tmap_traits<unsigned int,ManagedItem *,std::less<unsigned int>,std::allocator<std::pair<unsigned int const ,ManagedItem *> >,0> >::_Left
; Function compile flags: /Ogtp
;	COMDAT ?_Left@?$_Tree_val@V?$_Tmap_traits@IPAVManagedItem@@U?$less@I@std@@V?$allocator@U?$pair@$$CBIPAVManagedItem@@@std@@@3@$0A@@std@@@std@@SAAAPAU_Node@?$_Tree_nod@V?$_Tmap_traits@IPAVManagedItem@@U?$less@I@std@@V?$allocator@U?$pair@$$CBIPAVManagedItem@@@std@@@3@$0A@@std@@@2@PAU342@@Z
_TEXT	SEGMENT
__Pnode$ = 8						; size = 4
?_Left@?$_Tree_val@V?$_Tmap_traits@IPAVManagedItem@@U?$less@I@std@@V?$allocator@U?$pair@$$CBIPAVManagedItem@@@std@@@3@$0A@@std@@@std@@SAAAPAU_Node@?$_Tree_nod@V?$_Tmap_traits@IPAVManagedItem@@U?$less@I@std@@V?$allocator@U?$pair@$$CBIPAVManagedItem@@@std@@@3@$0A@@std@@@2@PAU342@@Z PROC ; std::_Tree_val<std::_Tmap_traits<unsigned int,ManagedItem *,std::less<unsigned int>,std::allocator<std::pair<unsigned int const ,ManagedItem *> >,0> >::_Left, COMDAT
; Line 621
	push	ebp
	mov	ebp, esp
; Line 622
	mov	eax, DWORD PTR __Pnode$[ebp]
; Line 623
	pop	ebp
	ret	0
?_Left@?$_Tree_val@V?$_Tmap_traits@IPAVManagedItem@@U?$less@I@std@@V?$allocator@U?$pair@$$CBIPAVManagedItem@@@std@@@3@$0A@@std@@@std@@SAAAPAU_Node@?$_Tree_nod@V?$_Tmap_traits@IPAVManagedItem@@U?$less@I@std@@V?$allocator@U?$pair@$$CBIPAVManagedItem@@@std@@@3@$0A@@std@@@2@PAU342@@Z ENDP ; std::_Tree_val<std::_Tmap_traits<unsigned int,ManagedItem *,std::less<unsigned int>,std::allocator<std::pair<unsigned int const ,ManagedItem *> >,0> >::_Left
_TEXT	ENDS
PUBLIC	?_Parent@?$_Tree_val@V?$_Tmap_traits@IPAVManagedItem@@U?$less@I@std@@V?$allocator@U?$pair@$$CBIPAVManagedItem@@@std@@@3@$0A@@std@@@std@@SAAAPAU_Node@?$_Tree_nod@V?$_Tmap_traits@IPAVManagedItem@@U?$less@I@std@@V?$allocator@U?$pair@$$CBIPAVManagedItem@@@std@@@3@$0A@@std@@@2@PAU342@@Z ; std::_Tree_val<std::_Tmap_traits<unsigned int,ManagedItem *,std::less<unsigned int>,std::allocator<std::pair<unsigned int const ,ManagedItem *> >,0> >::_Parent
; Function compile flags: /Ogtp
;	COMDAT ?_Parent@?$_Tree_val@V?$_Tmap_traits@IPAVManagedItem@@U?$less@I@std@@V?$allocator@U?$pair@$$CBIPAVManagedItem@@@std@@@3@$0A@@std@@@std@@SAAAPAU_Node@?$_Tree_nod@V?$_Tmap_traits@IPAVManagedItem@@U?$less@I@std@@V?$allocator@U?$pair@$$CBIPAVManagedItem@@@std@@@3@$0A@@std@@@2@PAU342@@Z
_TEXT	SEGMENT
__Pnode$ = 8						; size = 4
?_Parent@?$_Tree_val@V?$_Tmap_traits@IPAVManagedItem@@U?$less@I@std@@V?$allocator@U?$pair@$$CBIPAVManagedItem@@@std@@@3@$0A@@std@@@std@@SAAAPAU_Node@?$_Tree_nod@V?$_Tmap_traits@IPAVManagedItem@@U?$less@I@std@@V?$allocator@U?$pair@$$CBIPAVManagedItem@@@std@@@3@$0A@@std@@@2@PAU342@@Z PROC ; std::_Tree_val<std::_Tmap_traits<unsigned int,ManagedItem *,std::less<unsigned int>,std::allocator<std::pair<unsigned int const ,ManagedItem *> >,0> >::_Parent, COMDAT
; Line 626
	push	ebp
	mov	ebp, esp
; Line 627
	mov	eax, DWORD PTR __Pnode$[ebp]
	add	eax, 4
; Line 628
	pop	ebp
	ret	0
?_Parent@?$_Tree_val@V?$_Tmap_traits@IPAVManagedItem@@U?$less@I@std@@V?$allocator@U?$pair@$$CBIPAVManagedItem@@@std@@@3@$0A@@std@@@std@@SAAAPAU_Node@?$_Tree_nod@V?$_Tmap_traits@IPAVManagedItem@@U?$less@I@std@@V?$allocator@U?$pair@$$CBIPAVManagedItem@@@std@@@3@$0A@@std@@@2@PAU342@@Z ENDP ; std::_Tree_val<std::_Tmap_traits<unsigned int,ManagedItem *,std::less<unsigned int>,std::allocator<std::pair<unsigned int const ,ManagedItem *> >,0> >::_Parent
_TEXT	ENDS
PUBLIC	?_Right@?$_Tree_val@V?$_Tmap_traits@IPAVManagedItem@@U?$less@I@std@@V?$allocator@U?$pair@$$CBIPAVManagedItem@@@std@@@3@$0A@@std@@@std@@SAAAPAU_Node@?$_Tree_nod@V?$_Tmap_traits@IPAVManagedItem@@U?$less@I@std@@V?$allocator@U?$pair@$$CBIPAVManagedItem@@@std@@@3@$0A@@std@@@2@PAU342@@Z ; std::_Tree_val<std::_Tmap_traits<unsigned int,ManagedItem *,std::less<unsigned int>,std::allocator<std::pair<unsigned int const ,ManagedItem *> >,0> >::_Right
; Function compile flags: /Ogtp
;	COMDAT ?_Right@?$_Tree_val@V?$_Tmap_traits@IPAVManagedItem@@U?$less@I@std@@V?$allocator@U?$pair@$$CBIPAVManagedItem@@@std@@@3@$0A@@std@@@std@@SAAAPAU_Node@?$_Tree_nod@V?$_Tmap_traits@IPAVManagedItem@@U?$less@I@std@@V?$allocator@U?$pair@$$CBIPAVManagedItem@@@std@@@3@$0A@@std@@@2@PAU342@@Z
_TEXT	SEGMENT
__Pnode$ = 8						; size = 4
?_Right@?$_Tree_val@V?$_Tmap_traits@IPAVManagedItem@@U?$less@I@std@@V?$allocator@U?$pair@$$CBIPAVManagedItem@@@std@@@3@$0A@@std@@@std@@SAAAPAU_Node@?$_Tree_nod@V?$_Tmap_traits@IPAVManagedItem@@U?$less@I@std@@V?$allocator@U?$pair@$$CBIPAVManagedItem@@@std@@@3@$0A@@std@@@2@PAU342@@Z PROC ; std::_Tree_val<std::_Tmap_traits<unsigned int,ManagedItem *,std::less<unsigned int>,std::allocator<std::pair<unsigned int const ,ManagedItem *> >,0> >::_Right, COMDAT
; Line 631
	push	ebp
	mov	ebp, esp
; Line 632
	mov	eax, DWORD PTR __Pnode$[ebp]
	add	eax, 8
; Line 633
	pop	ebp
	ret	0
?_Right@?$_Tree_val@V?$_Tmap_traits@IPAVManagedItem@@U?$less@I@std@@V?$allocator@U?$pair@$$CBIPAVManagedItem@@@std@@@3@$0A@@std@@@std@@SAAAPAU_Node@?$_Tree_nod@V?$_Tmap_traits@IPAVManagedItem@@U?$less@I@std@@V?$allocator@U?$pair@$$CBIPAVManagedItem@@@std@@@3@$0A@@std@@@2@PAU342@@Z ENDP ; std::_Tree_val<std::_Tmap_traits<unsigned int,ManagedItem *,std::less<unsigned int>,std::allocator<std::pair<unsigned int const ,ManagedItem *> >,0> >::_Right
_TEXT	ENDS
PUBLIC	?_Myval@?$_Tree_val@V?$_Tmap_traits@IPAVManagedItem@@U?$less@I@std@@V?$allocator@U?$pair@$$CBIPAVManagedItem@@@std@@@3@$0A@@std@@@std@@SAAAU?$pair@$$CBIPAVManagedItem@@@2@PAU_Node@?$_Tree_nod@V?$_Tmap_traits@IPAVManagedItem@@U?$less@I@std@@V?$allocator@U?$pair@$$CBIPAVManagedItem@@@std@@@3@$0A@@std@@@2@@Z ; std::_Tree_val<std::_Tmap_traits<unsigned int,ManagedItem *,std::less<unsigned int>,std::allocator<std::pair<unsigned int const ,ManagedItem *> >,0> >::_Myval
; Function compile flags: /Ogtp
;	COMDAT ?_Myval@?$_Tree_val@V?$_Tmap_traits@IPAVManagedItem@@U?$less@I@std@@V?$allocator@U?$pair@$$CBIPAVManagedItem@@@std@@@3@$0A@@std@@@std@@SAAAU?$pair@$$CBIPAVManagedItem@@@2@PAU_Node@?$_Tree_nod@V?$_Tmap_traits@IPAVManagedItem@@U?$less@I@std@@V?$allocator@U?$pair@$$CBIPAVManagedItem@@@std@@@3@$0A@@std@@@2@@Z
_TEXT	SEGMENT
__Pnode$ = 8						; size = 4
?_Myval@?$_Tree_val@V?$_Tmap_traits@IPAVManagedItem@@U?$less@I@std@@V?$allocator@U?$pair@$$CBIPAVManagedItem@@@std@@@3@$0A@@std@@@std@@SAAAU?$pair@$$CBIPAVManagedItem@@@2@PAU_Node@?$_Tree_nod@V?$_Tmap_traits@IPAVManagedItem@@U?$less@I@std@@V?$allocator@U?$pair@$$CBIPAVManagedItem@@@std@@@3@$0A@@std@@@2@@Z PROC ; std::_Tree_val<std::_Tmap_traits<unsigned int,ManagedItem *,std::less<unsigned int>,std::allocator<std::pair<unsigned int const ,ManagedItem *> >,0> >::_Myval, COMDAT
; Line 636
	push	ebp
	mov	ebp, esp
; Line 637
	mov	eax, DWORD PTR __Pnode$[ebp]
	add	eax, 12					; 0000000cH
; Line 638
	pop	ebp
	ret	0
?_Myval@?$_Tree_val@V?$_Tmap_traits@IPAVManagedItem@@U?$less@I@std@@V?$allocator@U?$pair@$$CBIPAVManagedItem@@@std@@@3@$0A@@std@@@std@@SAAAU?$pair@$$CBIPAVManagedItem@@@2@PAU_Node@?$_Tree_nod@V?$_Tmap_traits@IPAVManagedItem@@U?$less@I@std@@V?$allocator@U?$pair@$$CBIPAVManagedItem@@@std@@@3@$0A@@std@@@2@@Z ENDP ; std::_Tree_val<std::_Tmap_traits<unsigned int,ManagedItem *,std::less<unsigned int>,std::allocator<std::pair<unsigned int const ,ManagedItem *> >,0> >::_Myval
_TEXT	ENDS
PUBLIC	?_Max@?$_Tree_val@V?$_Tmap_traits@IPAVManagedItem@@U?$less@I@std@@V?$allocator@U?$pair@$$CBIPAVManagedItem@@@std@@@3@$0A@@std@@@std@@SAPAU_Node@?$_Tree_nod@V?$_Tmap_traits@IPAVManagedItem@@U?$less@I@std@@V?$allocator@U?$pair@$$CBIPAVManagedItem@@@std@@@3@$0A@@std@@@2@PAU342@@Z ; std::_Tree_val<std::_Tmap_traits<unsigned int,ManagedItem *,std::less<unsigned int>,std::allocator<std::pair<unsigned int const ,ManagedItem *> >,0> >::_Max
; Function compile flags: /Ogtp
;	COMDAT ?_Max@?$_Tree_val@V?$_Tmap_traits@IPAVManagedItem@@U?$less@I@std@@V?$allocator@U?$pair@$$CBIPAVManagedItem@@@std@@@3@$0A@@std@@@std@@SAPAU_Node@?$_Tree_nod@V?$_Tmap_traits@IPAVManagedItem@@U?$less@I@std@@V?$allocator@U?$pair@$$CBIPAVManagedItem@@@std@@@3@$0A@@std@@@2@PAU342@@Z
_TEXT	SEGMENT
__Pnode$ = 8						; size = 4
?_Max@?$_Tree_val@V?$_Tmap_traits@IPAVManagedItem@@U?$less@I@std@@V?$allocator@U?$pair@$$CBIPAVManagedItem@@@std@@@3@$0A@@std@@@std@@SAPAU_Node@?$_Tree_nod@V?$_Tmap_traits@IPAVManagedItem@@U?$less@I@std@@V?$allocator@U?$pair@$$CBIPAVManagedItem@@@std@@@3@$0A@@std@@@2@PAU342@@Z PROC ; std::_Tree_val<std::_Tmap_traits<unsigned int,ManagedItem *,std::less<unsigned int>,std::allocator<std::pair<unsigned int const ,ManagedItem *> >,0> >::_Max, COMDAT
; Line 641
	push	ebp
	mov	ebp, esp
; Line 642
	mov	eax, DWORD PTR __Pnode$[ebp]
	mov	ecx, DWORD PTR [eax+8]
	cmp	BYTE PTR [ecx+21], 0
	jne	SHORT $LN1@Max@2
	npad	1
$LL2@Max@2:
; Line 643
	mov	eax, ecx
	mov	ecx, DWORD PTR [eax+8]
	cmp	BYTE PTR [ecx+21], 0
	je	SHORT $LL2@Max@2
$LN1@Max@2:
; Line 645
	pop	ebp
	ret	0
?_Max@?$_Tree_val@V?$_Tmap_traits@IPAVManagedItem@@U?$less@I@std@@V?$allocator@U?$pair@$$CBIPAVManagedItem@@@std@@@3@$0A@@std@@@std@@SAPAU_Node@?$_Tree_nod@V?$_Tmap_traits@IPAVManagedItem@@U?$less@I@std@@V?$allocator@U?$pair@$$CBIPAVManagedItem@@@std@@@3@$0A@@std@@@2@PAU342@@Z ENDP ; std::_Tree_val<std::_Tmap_traits<unsigned int,ManagedItem *,std::less<unsigned int>,std::allocator<std::pair<unsigned int const ,ManagedItem *> >,0> >::_Max
_TEXT	ENDS
PUBLIC	?_Min@?$_Tree_val@V?$_Tmap_traits@IPAVManagedItem@@U?$less@I@std@@V?$allocator@U?$pair@$$CBIPAVManagedItem@@@std@@@3@$0A@@std@@@std@@SAPAU_Node@?$_Tree_nod@V?$_Tmap_traits@IPAVManagedItem@@U?$less@I@std@@V?$allocator@U?$pair@$$CBIPAVManagedItem@@@std@@@3@$0A@@std@@@2@PAU342@@Z ; std::_Tree_val<std::_Tmap_traits<unsigned int,ManagedItem *,std::less<unsigned int>,std::allocator<std::pair<unsigned int const ,ManagedItem *> >,0> >::_Min
; Function compile flags: /Ogtp
;	COMDAT ?_Min@?$_Tree_val@V?$_Tmap_traits@IPAVManagedItem@@U?$less@I@std@@V?$allocator@U?$pair@$$CBIPAVManagedItem@@@std@@@3@$0A@@std@@@std@@SAPAU_Node@?$_Tree_nod@V?$_Tmap_traits@IPAVManagedItem@@U?$less@I@std@@V?$allocator@U?$pair@$$CBIPAVManagedItem@@@std@@@3@$0A@@std@@@2@PAU342@@Z
_TEXT	SEGMENT
__Pnode$ = 8						; size = 4
?_Min@?$_Tree_val@V?$_Tmap_traits@IPAVManagedItem@@U?$less@I@std@@V?$allocator@U?$pair@$$CBIPAVManagedItem@@@std@@@3@$0A@@std@@@std@@SAPAU_Node@?$_Tree_nod@V?$_Tmap_traits@IPAVManagedItem@@U?$less@I@std@@V?$allocator@U?$pair@$$CBIPAVManagedItem@@@std@@@3@$0A@@std@@@2@PAU342@@Z PROC ; std::_Tree_val<std::_Tmap_traits<unsigned int,ManagedItem *,std::less<unsigned int>,std::allocator<std::pair<unsigned int const ,ManagedItem *> >,0> >::_Min, COMDAT
; Line 648
	push	ebp
	mov	ebp, esp
; Line 649
	mov	eax, DWORD PTR __Pnode$[ebp]
	mov	ecx, DWORD PTR [eax]
	cmp	BYTE PTR [ecx+21], 0
	jne	SHORT $LN1@Min@2
	npad	2
$LL2@Min@2:
; Line 650
	mov	eax, ecx
	mov	ecx, DWORD PTR [eax]
	cmp	BYTE PTR [ecx+21], 0
	je	SHORT $LL2@Min@2
$LN1@Min@2:
; Line 652
	pop	ebp
	ret	0
?_Min@?$_Tree_val@V?$_Tmap_traits@IPAVManagedItem@@U?$less@I@std@@V?$allocator@U?$pair@$$CBIPAVManagedItem@@@std@@@3@$0A@@std@@@std@@SAPAU_Node@?$_Tree_nod@V?$_Tmap_traits@IPAVManagedItem@@U?$less@I@std@@V?$allocator@U?$pair@$$CBIPAVManagedItem@@@std@@@3@$0A@@std@@@2@PAU342@@Z ENDP ; std::_Tree_val<std::_Tmap_traits<unsigned int,ManagedItem *,std::less<unsigned int>,std::allocator<std::pair<unsigned int const ,ManagedItem *> >,0> >::_Min
_TEXT	ENDS
PUBLIC	??0?$allocator@U?$pair@$$CBIPAVManagedItem@@@std@@@std@@QAE@XZ ; std::allocator<std::pair<unsigned int const ,ManagedItem *> >::allocator<std::pair<unsigned int const ,ManagedItem *> >
; Function compile flags: /Ogtp
;	COMDAT ??0?$allocator@U?$pair@$$CBIPAVManagedItem@@@std@@@std@@QAE@XZ
_TEXT	SEGMENT
??0?$allocator@U?$pair@$$CBIPAVManagedItem@@@std@@@std@@QAE@XZ PROC ; std::allocator<std::pair<unsigned int const ,ManagedItem *> >::allocator<std::pair<unsigned int const ,ManagedItem *> >, COMDAT
; _this$ = ecx
; File c:\program files (x86)\microsoft visual studio 10.0\vc\include\xmemory
; Line 161
	mov	eax, ecx
; Line 163
	ret	0
??0?$allocator@U?$pair@$$CBIPAVManagedItem@@@std@@@std@@QAE@XZ ENDP ; std::allocator<std::pair<unsigned int const ,ManagedItem *> >::allocator<std::pair<unsigned int const ,ManagedItem *> >
_TEXT	ENDS
PUBLIC	?deallocate@?$allocator@U_Node@?$_Tree_nod@V?$_Tmap_traits@IPAVManagedItem@@U?$less@I@std@@V?$allocator@U?$pair@$$CBIPAVManagedItem@@@std@@@3@$0A@@std@@@std@@@std@@QAEXPAU_Node@?$_Tree_nod@V?$_Tmap_traits@IPAVManagedItem@@U?$less@I@std@@V?$allocator@U?$pair@$$CBIPAVManagedItem@@@std@@@3@$0A@@std@@@2@I@Z ; std::allocator<std::_Tree_nod<std::_Tmap_traits<unsigned int,ManagedItem *,std::less<unsigned int>,std::allocator<std::pair<unsigned int const ,ManagedItem *> >,0> >::_Node>::deallocate
; Function compile flags: /Ogtp
;	COMDAT ?deallocate@?$allocator@U_Node@?$_Tree_nod@V?$_Tmap_traits@IPAVManagedItem@@U?$less@I@std@@V?$allocator@U?$pair@$$CBIPAVManagedItem@@@std@@@3@$0A@@std@@@std@@@std@@QAEXPAU_Node@?$_Tree_nod@V?$_Tmap_traits@IPAVManagedItem@@U?$less@I@std@@V?$allocator@U?$pair@$$CBIPAVManagedItem@@@std@@@3@$0A@@std@@@2@I@Z
_TEXT	SEGMENT
__Ptr$ = 8						; size = 4
___formal$ = 12						; size = 4
?deallocate@?$allocator@U_Node@?$_Tree_nod@V?$_Tmap_traits@IPAVManagedItem@@U?$less@I@std@@V?$allocator@U?$pair@$$CBIPAVManagedItem@@@std@@@3@$0A@@std@@@std@@@std@@QAEXPAU_Node@?$_Tree_nod@V?$_Tmap_traits@IPAVManagedItem@@U?$less@I@std@@V?$allocator@U?$pair@$$CBIPAVManagedItem@@@std@@@3@$0A@@std@@@2@I@Z PROC ; std::allocator<std::_Tree_nod<std::_Tmap_traits<unsigned int,ManagedItem *,std::less<unsigned int>,std::allocator<std::pair<unsigned int const ,ManagedItem *> >,0> >::_Node>::deallocate, COMDAT
; _this$ = ecx
; Line 181
	push	ebp
	mov	ebp, esp
; Line 182
	mov	eax, DWORD PTR __Ptr$[ebp]
	push	eax
	call	??3@YAXPAX@Z				; operator delete
	add	esp, 4
; Line 183
	pop	ebp
	ret	8
?deallocate@?$allocator@U_Node@?$_Tree_nod@V?$_Tmap_traits@IPAVManagedItem@@U?$less@I@std@@V?$allocator@U?$pair@$$CBIPAVManagedItem@@@std@@@3@$0A@@std@@@std@@@std@@QAEXPAU_Node@?$_Tree_nod@V?$_Tmap_traits@IPAVManagedItem@@U?$less@I@std@@V?$allocator@U?$pair@$$CBIPAVManagedItem@@@std@@@3@$0A@@std@@@2@I@Z ENDP ; std::allocator<std::_Tree_nod<std::_Tmap_traits<unsigned int,ManagedItem *,std::less<unsigned int>,std::allocator<std::pair<unsigned int const ,ManagedItem *> >,0> >::_Node>::deallocate
_TEXT	ENDS
PUBLIC	??0?$_String_const_iterator@DU?$char_traits@D@std@@V?$allocator@D@2@@std@@QAE@PBDPBU_Container_base0@1@@Z ; std::_String_const_iterator<char,std::char_traits<char>,std::allocator<char> >::_String_const_iterator<char,std::char_traits<char>,std::allocator<char> >
; Function compile flags: /Ogtp
;	COMDAT ??0?$_String_const_iterator@DU?$char_traits@D@std@@V?$allocator@D@2@@std@@QAE@PBDPBU_Container_base0@1@@Z
_TEXT	SEGMENT
__Parg$ = 8						; size = 4
__Pstring$ = 12						; size = 4
??0?$_String_const_iterator@DU?$char_traits@D@std@@V?$allocator@D@2@@std@@QAE@PBDPBU_Container_base0@1@@Z PROC ; std::_String_const_iterator<char,std::char_traits<char>,std::allocator<char> >::_String_const_iterator<char,std::char_traits<char>,std::allocator<char> >, COMDAT
; _this$ = ecx
; File c:\program files (x86)\microsoft visual studio 10.0\vc\include\xstring
; Line 50
	push	ebp
	mov	ebp, esp
	mov	eax, ecx
; Line 53
	mov	ecx, DWORD PTR __Parg$[ebp]
	mov	DWORD PTR [eax], ecx
; Line 54
	pop	ebp
	ret	8
??0?$_String_const_iterator@DU?$char_traits@D@std@@V?$allocator@D@2@@std@@QAE@PBDPBU_Container_base0@1@@Z ENDP ; std::_String_const_iterator<char,std::char_traits<char>,std::allocator<char> >::_String_const_iterator<char,std::char_traits<char>,std::allocator<char> >
_TEXT	ENDS
PUBLIC	??E?$_Tree_unchecked_const_iterator@V?$_Tree_val@V?$_Tmap_traits@V?$basic_string@DU?$char_traits@D@std@@V?$allocator@D@2@@std@@IU?$less@V?$basic_string@DU?$char_traits@D@std@@V?$allocator@D@2@@std@@@2@V?$allocator@U?$pair@$$CBV?$basic_string@DU?$char_traits@D@std@@V?$allocator@D@2@@std@@I@std@@@2@$0A@@std@@@std@@U_Iterator_base0@2@@std@@QAEAAV01@XZ ; std::_Tree_unchecked_const_iterator<std::_Tree_val<std::_Tmap_traits<std::basic_string<char,std::char_traits<char>,std::allocator<char> >,unsigned int,std::less<std::basic_string<char,std::char_traits<char>,std::allocator<char> > >,std::allocator<std::pair<std::basic_string<char,std::char_traits<char>,std::allocator<char> > const ,unsigned int> >,0> >,std::_Iterator_base0>::operator++
; Function compile flags: /Ogtp
;	COMDAT ??E?$_Tree_unchecked_const_iterator@V?$_Tree_val@V?$_Tmap_traits@V?$basic_string@DU?$char_traits@D@std@@V?$allocator@D@2@@std@@IU?$less@V?$basic_string@DU?$char_traits@D@std@@V?$allocator@D@2@@std@@@2@V?$allocator@U?$pair@$$CBV?$basic_string@DU?$char_traits@D@std@@V?$allocator@D@2@@std@@I@std@@@2@$0A@@std@@@std@@U_Iterator_base0@2@@std@@QAEAAV01@XZ
_TEXT	SEGMENT
??E?$_Tree_unchecked_const_iterator@V?$_Tree_val@V?$_Tmap_traits@V?$basic_string@DU?$char_traits@D@std@@V?$allocator@D@2@@std@@IU?$less@V?$basic_string@DU?$char_traits@D@std@@V?$allocator@D@2@@std@@@2@V?$allocator@U?$pair@$$CBV?$basic_string@DU?$char_traits@D@std@@V?$allocator@D@2@@std@@I@std@@@2@$0A@@std@@@std@@U_Iterator_base0@2@@std@@QAEAAV01@XZ PROC ; std::_Tree_unchecked_const_iterator<std::_Tree_val<std::_Tmap_traits<std::basic_string<char,std::char_traits<char>,std::allocator<char> >,unsigned int,std::less<std::basic_string<char,std::char_traits<char>,std::allocator<char> > >,std::allocator<std::pair<std::basic_string<char,std::char_traits<char>,std::allocator<char> > const ,unsigned int> >,0> >,std::_Iterator_base0>::operator++, COMDAT
; _this$ = ecx
; File c:\program files (x86)\microsoft visual studio 10.0\vc\include\xtree
; Line 58
	mov	eax, ecx
; Line 59
	mov	edx, DWORD PTR [eax]
	cmp	BYTE PTR [edx+45], 0
	jne	SHORT $LN3@operator
; Line 61
	mov	ecx, DWORD PTR [edx+8]
	cmp	BYTE PTR [ecx+45], 0
	jne	SHORT $LN34@operator
; Line 63
	mov	edx, DWORD PTR [ecx]
	cmp	BYTE PTR [edx+45], 0
	jne	SHORT $LN17@operator
	npad	5
$LL18@operator:
	mov	ecx, edx
	mov	edx, DWORD PTR [ecx]
	cmp	BYTE PTR [edx+45], 0
	je	SHORT $LL18@operator
$LN17@operator:
	mov	DWORD PTR [eax], ecx
; Line 73
	ret	0
$LN34@operator:
; Line 68
	mov	edx, DWORD PTR [edx+4]
	cmp	BYTE PTR [edx+45], 0
	jne	SHORT $LN1@operator
$LL2@operator:
	mov	ecx, DWORD PTR [eax]
	cmp	ecx, DWORD PTR [edx+8]
	jne	SHORT $LN1@operator
; Line 69
	mov	DWORD PTR [eax], edx
	mov	edx, DWORD PTR [edx+4]
	cmp	BYTE PTR [edx+45], 0
	je	SHORT $LL2@operator
$LN1@operator:
; Line 70
	mov	DWORD PTR [eax], edx
$LN3@operator:
; Line 73
	ret	0
??E?$_Tree_unchecked_const_iterator@V?$_Tree_val@V?$_Tmap_traits@V?$basic_string@DU?$char_traits@D@std@@V?$allocator@D@2@@std@@IU?$less@V?$basic_string@DU?$char_traits@D@std@@V?$allocator@D@2@@std@@@2@V?$allocator@U?$pair@$$CBV?$basic_string@DU?$char_traits@D@std@@V?$allocator@D@2@@std@@I@std@@@2@$0A@@std@@@std@@U_Iterator_base0@2@@std@@QAEAAV01@XZ ENDP ; std::_Tree_unchecked_const_iterator<std::_Tree_val<std::_Tmap_traits<std::basic_string<char,std::char_traits<char>,std::allocator<char> >,unsigned int,std::less<std::basic_string<char,std::char_traits<char>,std::allocator<char> > >,std::allocator<std::pair<std::basic_string<char,std::char_traits<char>,std::allocator<char> > const ,unsigned int> >,0> >,std::_Iterator_base0>::operator++
_TEXT	ENDS
PUBLIC	??D?$_Tree_const_iterator@V?$_Tree_val@V?$_Tmap_traits@IPAVManagedItem@@U?$less@I@std@@V?$allocator@U?$pair@$$CBIPAVManagedItem@@@std@@@3@$0A@@std@@@std@@@std@@QBEABU?$pair@$$CBIPAVManagedItem@@@1@XZ ; std::_Tree_const_iterator<std::_Tree_val<std::_Tmap_traits<unsigned int,ManagedItem *,std::less<unsigned int>,std::allocator<std::pair<unsigned int const ,ManagedItem *> >,0> > >::operator*
; Function compile flags: /Ogtp
;	COMDAT ??D?$_Tree_const_iterator@V?$_Tree_val@V?$_Tmap_traits@IPAVManagedItem@@U?$less@I@std@@V?$allocator@U?$pair@$$CBIPAVManagedItem@@@std@@@3@$0A@@std@@@std@@@std@@QBEABU?$pair@$$CBIPAVManagedItem@@@1@XZ
_TEXT	SEGMENT
??D?$_Tree_const_iterator@V?$_Tree_val@V?$_Tmap_traits@IPAVManagedItem@@U?$less@I@std@@V?$allocator@U?$pair@$$CBIPAVManagedItem@@@std@@@3@$0A@@std@@@std@@@std@@QBEABU?$pair@$$CBIPAVManagedItem@@@1@XZ PROC ; std::_Tree_const_iterator<std::_Tree_val<std::_Tmap_traits<unsigned int,ManagedItem *,std::less<unsigned int>,std::allocator<std::pair<unsigned int const ,ManagedItem *> >,0> > >::operator*, COMDAT
; _this$ = ecx
; Line 246
	mov	eax, DWORD PTR [ecx]
	add	eax, 12					; 0000000cH
; Line 247
	ret	0
??D?$_Tree_const_iterator@V?$_Tree_val@V?$_Tmap_traits@IPAVManagedItem@@U?$less@I@std@@V?$allocator@U?$pair@$$CBIPAVManagedItem@@@std@@@3@$0A@@std@@@std@@@std@@QBEABU?$pair@$$CBIPAVManagedItem@@@1@XZ ENDP ; std::_Tree_const_iterator<std::_Tree_val<std::_Tmap_traits<unsigned int,ManagedItem *,std::less<unsigned int>,std::allocator<std::pair<unsigned int const ,ManagedItem *> >,0> > >::operator*
_TEXT	ENDS
PUBLIC	??_C@_0BA@JFNIOLAK@string?5too?5long?$AA@	; `string'
PUBLIC	?_Xlen@?$basic_string@DU?$char_traits@D@std@@V?$allocator@D@2@@std@@QBEXXZ ; std::basic_string<char,std::char_traits<char>,std::allocator<char> >::_Xlen
EXTRN	__imp_?_Xlength_error@std@@YAXPBD@Z:PROC
;	COMDAT ??_C@_0BA@JFNIOLAK@string?5too?5long?$AA@
; File c:\program files (x86)\microsoft visual studio 10.0\vc\include\xstring
CONST	SEGMENT
??_C@_0BA@JFNIOLAK@string?5too?5long?$AA@ DB 'string too long', 00H ; `string'
; Function compile flags: /Ogtp
CONST	ENDS
;	COMDAT ?_Xlen@?$basic_string@DU?$char_traits@D@std@@V?$allocator@D@2@@std@@QBEXXZ
_TEXT	SEGMENT
?_Xlen@?$basic_string@DU?$char_traits@D@std@@V?$allocator@D@2@@std@@QBEXXZ PROC ; std::basic_string<char,std::char_traits<char>,std::allocator<char> >::_Xlen, COMDAT
; _this$ = ecx
; Line 2015
	push	OFFSET ??_C@_0BA@JFNIOLAK@string?5too?5long?$AA@
	call	DWORD PTR __imp_?_Xlength_error@std@@YAXPBD@Z
$LN4@Xlen:
$LN3@Xlen:
	int	3
?_Xlen@?$basic_string@DU?$char_traits@D@std@@V?$allocator@D@2@@std@@QBEXXZ ENDP ; std::basic_string<char,std::char_traits<char>,std::allocator<char> >::_Xlen
_TEXT	ENDS
PUBLIC	??0?$allocator@U?$pair@$$CBV?$basic_string@DU?$char_traits@D@std@@V?$allocator@D@2@@std@@I@std@@@std@@QAE@ABV01@@Z ; std::allocator<std::pair<std::basic_string<char,std::char_traits<char>,std::allocator<char> > const ,unsigned int> >::allocator<std::pair<std::basic_string<char,std::char_traits<char>,std::allocator<char> > const ,unsigned int> >
; Function compile flags: /Ogtp
;	COMDAT ??0?$allocator@U?$pair@$$CBV?$basic_string@DU?$char_traits@D@std@@V?$allocator@D@2@@std@@I@std@@@std@@QAE@ABV01@@Z
_TEXT	SEGMENT
___formal$ = 8						; size = 4
??0?$allocator@U?$pair@$$CBV?$basic_string@DU?$char_traits@D@std@@V?$allocator@D@2@@std@@I@std@@@std@@QAE@ABV01@@Z PROC ; std::allocator<std::pair<std::basic_string<char,std::char_traits<char>,std::allocator<char> > const ,unsigned int> >::allocator<std::pair<std::basic_string<char,std::char_traits<char>,std::allocator<char> > const ,unsigned int> >, COMDAT
; _this$ = ecx
; File c:\program files (x86)\microsoft visual studio 10.0\vc\include\xmemory
; Line 165
	mov	eax, ecx
; Line 167
	ret	4
??0?$allocator@U?$pair@$$CBV?$basic_string@DU?$char_traits@D@std@@V?$allocator@D@2@@std@@I@std@@@std@@QAE@ABV01@@Z ENDP ; std::allocator<std::pair<std::basic_string<char,std::char_traits<char>,std::allocator<char> > const ,unsigned int> >::allocator<std::pair<std::basic_string<char,std::char_traits<char>,std::allocator<char> > const ,unsigned int> >
_TEXT	ENDS
PUBLIC	??0?$allocator@U?$pair@$$CBIPAVManagedItem@@@std@@@std@@QAE@ABV01@@Z ; std::allocator<std::pair<unsigned int const ,ManagedItem *> >::allocator<std::pair<unsigned int const ,ManagedItem *> >
; Function compile flags: /Ogtp
;	COMDAT ??0?$allocator@U?$pair@$$CBIPAVManagedItem@@@std@@@std@@QAE@ABV01@@Z
_TEXT	SEGMENT
___formal$ = 8						; size = 4
??0?$allocator@U?$pair@$$CBIPAVManagedItem@@@std@@@std@@QAE@ABV01@@Z PROC ; std::allocator<std::pair<unsigned int const ,ManagedItem *> >::allocator<std::pair<unsigned int const ,ManagedItem *> >, COMDAT
; _this$ = ecx
; Line 165
	mov	eax, ecx
; Line 167
	ret	4
??0?$allocator@U?$pair@$$CBIPAVManagedItem@@@std@@@std@@QAE@ABV01@@Z ENDP ; std::allocator<std::pair<unsigned int const ,ManagedItem *> >::allocator<std::pair<unsigned int const ,ManagedItem *> >
_TEXT	ENDS
PUBLIC	??0?$_Tree_unchecked_const_iterator@V?$_Tree_val@V?$_Tmap_traits@V?$basic_string@DU?$char_traits@D@std@@V?$allocator@D@2@@std@@IU?$less@V?$basic_string@DU?$char_traits@D@std@@V?$allocator@D@2@@std@@@2@V?$allocator@U?$pair@$$CBV?$basic_string@DU?$char_traits@D@std@@V?$allocator@D@2@@std@@I@std@@@2@$0A@@std@@@std@@U_Iterator_base0@2@@std@@QAE@PAU_Node@?$_Tree_nod@V?$_Tmap_traits@V?$basic_string@DU?$char_traits@D@std@@V?$allocator@D@2@@std@@IU?$less@V?$basic_string@DU?$char_traits@D@std@@V?$allocator@D@2@@std@@@2@V?$allocator@U?$pair@$$CBV?$basic_string@DU?$char_traits@D@std@@V?$allocator@D@2@@std@@I@std@@@2@$0A@@std@@@1@PBV?$_Tree_val@V?$_Tmap_traits@V?$basic_string@DU?$char_traits@D@std@@V?$allocator@D@2@@std@@IU?$less@V?$basic_string@DU?$char_traits@D@std@@V?$allocator@D@2@@std@@@2@V?$allocator@U?$pair@$$CBV?$basic_string@DU?$char_traits@D@std@@V?$allocator@D@2@@std@@I@std@@@2@$0A@@std@@@1@@Z ; std::_Tree_unchecked_const_iterator<std::_Tree_val<std::_Tmap_traits<std::basic_string<char,std::char_traits<char>,std::allocator<char> >,unsigned int,std::less<std::basic_string<char,std::char_traits<char>,std::allocator<char> > >,std::allocator<std::pair<std::basic_string<char,std::char_traits<char>,std::allocator<char> > const ,unsigned int> >,0> >,std::_Iterator_base0>::_Tree_unchecked_const_iterator<std::_Tree_val<std::_Tmap_traits<std::basic_string<char,std::char_traits<char>,std::allocator<char> >,unsigned int,std::less<std::basic_string<char,std::char_traits<char>,std::allocator<char> > >,std::allocator<std::pair<std::basic_string<char,std::char_traits<char>,std::allocator<char> > const ,unsigned int> >,0> >,std::_Iterator_base0>
; Function compile flags: /Ogtp
;	COMDAT ??0?$_Tree_unchecked_const_iterator@V?$_Tree_val@V?$_Tmap_traits@V?$basic_string@DU?$char_traits@D@std@@V?$allocator@D@2@@std@@IU?$less@V?$basic_string@DU?$char_traits@D@std@@V?$allocator@D@2@@std@@@2@V?$allocator@U?$pair@$$CBV?$basic_string@DU?$char_traits@D@std@@V?$allocator@D@2@@std@@I@std@@@2@$0A@@std@@@std@@U_Iterator_base0@2@@std@@QAE@PAU_Node@?$_Tree_nod@V?$_Tmap_traits@V?$basic_string@DU?$char_traits@D@std@@V?$allocator@D@2@@std@@IU?$less@V?$basic_string@DU?$char_traits@D@std@@V?$allocator@D@2@@std@@@2@V?$allocator@U?$pair@$$CBV?$basic_string@DU?$char_traits@D@std@@V?$allocator@D@2@@std@@I@std@@@2@$0A@@std@@@1@PBV?$_Tree_val@V?$_Tmap_traits@V?$basic_string@DU?$char_traits@D@std@@V?$allocator@D@2@@std@@IU?$less@V?$basic_string@DU?$char_traits@D@std@@V?$allocator@D@2@@std@@@2@V?$allocator@U?$pair@$$CBV?$basic_string@DU?$char_traits@D@std@@V?$allocator@D@2@@std@@I@std@@@2@$0A@@std@@@1@@Z
_TEXT	SEGMENT
__Pnode$ = 8						; size = 4
__Plist$ = 12						; size = 4
??0?$_Tree_unchecked_const_iterator@V?$_Tree_val@V?$_Tmap_traits@V?$basic_string@DU?$char_traits@D@std@@V?$allocator@D@2@@std@@IU?$less@V?$basic_string@DU?$char_traits@D@std@@V?$allocator@D@2@@std@@@2@V?$allocator@U?$pair@$$CBV?$basic_string@DU?$char_traits@D@std@@V?$allocator@D@2@@std@@I@std@@@2@$0A@@std@@@std@@U_Iterator_base0@2@@std@@QAE@PAU_Node@?$_Tree_nod@V?$_Tmap_traits@V?$basic_string@DU?$char_traits@D@std@@V?$allocator@D@2@@std@@IU?$less@V?$basic_string@DU?$char_traits@D@std@@V?$allocator@D@2@@std@@@2@V?$allocator@U?$pair@$$CBV?$basic_string@DU?$char_traits@D@std@@V?$allocator@D@2@@std@@I@std@@@2@$0A@@std@@@1@PBV?$_Tree_val@V?$_Tmap_traits@V?$basic_string@DU?$char_traits@D@std@@V?$allocator@D@2@@std@@IU?$less@V?$basic_string@DU?$char_traits@D@std@@V?$allocator@D@2@@std@@@2@V?$allocator@U?$pair@$$CBV?$basic_string@DU?$char_traits@D@std@@V?$allocator@D@2@@std@@I@std@@@2@$0A@@std@@@1@@Z PROC ; std::_Tree_unchecked_const_iterator<std::_Tree_val<std::_Tmap_traits<std::basic_string<char,std::char_traits<char>,std::allocator<char> >,unsigned int,std::less<std::basic_string<char,std::char_traits<char>,std::allocator<char> > >,std::allocator<std::pair<std::basic_string<char,std::char_traits<char>,std::allocator<char> > const ,unsigned int> >,0> >,std::_Iterator_base0>::_Tree_unchecked_const_iterator<std::_Tree_val<std::_Tmap_traits<std::basic_string<char,std::char_traits<char>,std::allocator<char> >,unsigned int,std::less<std::basic_string<char,std::char_traits<char>,std::allocator<char> > >,std::allocator<std::pair<std::basic_string<char,std::char_traits<char>,std::allocator<char> > const ,unsigned int> >,0> >,std::_Iterator_base0>, COMDAT
; _this$ = ecx
; File c:\program files (x86)\microsoft visual studio 10.0\vc\include\xtree
; Line 43
	push	ebp
	mov	ebp, esp
	mov	eax, ecx
	mov	ecx, DWORD PTR __Pnode$[ebp]
	mov	DWORD PTR [eax], ecx
; Line 45
	pop	ebp
	ret	8
??0?$_Tree_unchecked_const_iterator@V?$_Tree_val@V?$_Tmap_traits@V?$basic_string@DU?$char_traits@D@std@@V?$allocator@D@2@@std@@IU?$less@V?$basic_string@DU?$char_traits@D@std@@V?$allocator@D@2@@std@@@2@V?$allocator@U?$pair@$$CBV?$basic_string@DU?$char_traits@D@std@@V?$allocator@D@2@@std@@I@std@@@2@$0A@@std@@@std@@U_Iterator_base0@2@@std@@QAE@PAU_Node@?$_Tree_nod@V?$_Tmap_traits@V?$basic_string@DU?$char_traits@D@std@@V?$allocator@D@2@@std@@IU?$less@V?$basic_string@DU?$char_traits@D@std@@V?$allocator@D@2@@std@@@2@V?$allocator@U?$pair@$$CBV?$basic_string@DU?$char_traits@D@std@@V?$allocator@D@2@@std@@I@std@@@2@$0A@@std@@@1@PBV?$_Tree_val@V?$_Tmap_traits@V?$basic_string@DU?$char_traits@D@std@@V?$allocator@D@2@@std@@IU?$less@V?$basic_string@DU?$char_traits@D@std@@V?$allocator@D@2@@std@@@2@V?$allocator@U?$pair@$$CBV?$basic_string@DU?$char_traits@D@std@@V?$allocator@D@2@@std@@I@std@@@2@$0A@@std@@@1@@Z ENDP ; std::_Tree_unchecked_const_iterator<std::_Tree_val<std::_Tmap_traits<std::basic_string<char,std::char_traits<char>,std::allocator<char> >,unsigned int,std::less<std::basic_string<char,std::char_traits<char>,std::allocator<char> > >,std::allocator<std::pair<std::basic_string<char,std::char_traits<char>,std::allocator<char> > const ,unsigned int> >,0> >,std::_Iterator_base0>::_Tree_unchecked_const_iterator<std::_Tree_val<std::_Tmap_traits<std::basic_string<char,std::char_traits<char>,std::allocator<char> >,unsigned int,std::less<std::basic_string<char,std::char_traits<char>,std::allocator<char> > >,std::allocator<std::pair<std::basic_string<char,std::char_traits<char>,std::allocator<char> > const ,unsigned int> >,0> >,std::_Iterator_base0>
_TEXT	ENDS
PUBLIC	??9?$_Tree_const_iterator@V?$_Tree_val@V?$_Tmap_traits@IPAVManagedItem@@U?$less@I@std@@V?$allocator@U?$pair@$$CBIPAVManagedItem@@@std@@@3@$0A@@std@@@std@@@std@@QBE_NABV01@@Z ; std::_Tree_const_iterator<std::_Tree_val<std::_Tmap_traits<unsigned int,ManagedItem *,std::less<unsigned int>,std::allocator<std::pair<unsigned int const ,ManagedItem *> >,0> > >::operator!=
; Function compile flags: /Ogtp
;	COMDAT ??9?$_Tree_const_iterator@V?$_Tree_val@V?$_Tmap_traits@IPAVManagedItem@@U?$less@I@std@@V?$allocator@U?$pair@$$CBIPAVManagedItem@@@std@@@3@$0A@@std@@@std@@@std@@QBE_NABV01@@Z
_TEXT	SEGMENT
__Right$ = 8						; size = 4
??9?$_Tree_const_iterator@V?$_Tree_val@V?$_Tmap_traits@IPAVManagedItem@@U?$less@I@std@@V?$allocator@U?$pair@$$CBIPAVManagedItem@@@std@@@3@$0A@@std@@@std@@@std@@QBE_NABV01@@Z PROC ; std::_Tree_const_iterator<std::_Tree_val<std::_Tmap_traits<unsigned int,ManagedItem *,std::less<unsigned int>,std::allocator<std::pair<unsigned int const ,ManagedItem *> >,0> > >::operator!=, COMDAT
; _this$ = ecx
; Line 334
	push	ebp
	mov	ebp, esp
; Line 335
	mov	eax, DWORD PTR [ecx]
	mov	edx, DWORD PTR __Right$[ebp]
	xor	ecx, ecx
	cmp	eax, DWORD PTR [edx]
	setne	al
; Line 336
	pop	ebp
	ret	4
??9?$_Tree_const_iterator@V?$_Tree_val@V?$_Tmap_traits@IPAVManagedItem@@U?$less@I@std@@V?$allocator@U?$pair@$$CBIPAVManagedItem@@@std@@@3@$0A@@std@@@std@@@std@@QBE_NABV01@@Z ENDP ; std::_Tree_const_iterator<std::_Tree_val<std::_Tmap_traits<unsigned int,ManagedItem *,std::less<unsigned int>,std::allocator<std::pair<unsigned int const ,ManagedItem *> >,0> > >::operator!=
_TEXT	ENDS
PUBLIC	??E?$_Tree_unchecked_const_iterator@V?$_Tree_val@V?$_Tmap_traits@IPAVManagedItem@@U?$less@I@std@@V?$allocator@U?$pair@$$CBIPAVManagedItem@@@std@@@3@$0A@@std@@@std@@U_Iterator_base0@2@@std@@QAEAAV01@XZ ; std::_Tree_unchecked_const_iterator<std::_Tree_val<std::_Tmap_traits<unsigned int,ManagedItem *,std::less<unsigned int>,std::allocator<std::pair<unsigned int const ,ManagedItem *> >,0> >,std::_Iterator_base0>::operator++
; Function compile flags: /Ogtp
;	COMDAT ??E?$_Tree_unchecked_const_iterator@V?$_Tree_val@V?$_Tmap_traits@IPAVManagedItem@@U?$less@I@std@@V?$allocator@U?$pair@$$CBIPAVManagedItem@@@std@@@3@$0A@@std@@@std@@U_Iterator_base0@2@@std@@QAEAAV01@XZ
_TEXT	SEGMENT
??E?$_Tree_unchecked_const_iterator@V?$_Tree_val@V?$_Tmap_traits@IPAVManagedItem@@U?$less@I@std@@V?$allocator@U?$pair@$$CBIPAVManagedItem@@@std@@@3@$0A@@std@@@std@@U_Iterator_base0@2@@std@@QAEAAV01@XZ PROC ; std::_Tree_unchecked_const_iterator<std::_Tree_val<std::_Tmap_traits<unsigned int,ManagedItem *,std::less<unsigned int>,std::allocator<std::pair<unsigned int const ,ManagedItem *> >,0> >,std::_Iterator_base0>::operator++, COMDAT
; _this$ = ecx
; Line 58
	mov	eax, ecx
; Line 59
	mov	edx, DWORD PTR [eax]
	cmp	BYTE PTR [edx+21], 0
	jne	SHORT $LN3@operator@2
; Line 61
	mov	ecx, DWORD PTR [edx+8]
	cmp	BYTE PTR [ecx+21], 0
	jne	SHORT $LN34@operator@2
; Line 63
	mov	edx, DWORD PTR [ecx]
	cmp	BYTE PTR [edx+21], 0
	jne	SHORT $LN17@operator@2
	npad	5
$LL18@operator@2:
	mov	ecx, edx
	mov	edx, DWORD PTR [ecx]
	cmp	BYTE PTR [edx+21], 0
	je	SHORT $LL18@operator@2
$LN17@operator@2:
	mov	DWORD PTR [eax], ecx
; Line 73
	ret	0
$LN34@operator@2:
; Line 68
	mov	edx, DWORD PTR [edx+4]
	cmp	BYTE PTR [edx+21], 0
	jne	SHORT $LN1@operator@2
$LL2@operator@2:
	mov	ecx, DWORD PTR [eax]
	cmp	ecx, DWORD PTR [edx+8]
	jne	SHORT $LN1@operator@2
; Line 69
	mov	DWORD PTR [eax], edx
	mov	edx, DWORD PTR [edx+4]
	cmp	BYTE PTR [edx+21], 0
	je	SHORT $LL2@operator@2
$LN1@operator@2:
; Line 70
	mov	DWORD PTR [eax], edx
$LN3@operator@2:
; Line 73
	ret	0
??E?$_Tree_unchecked_const_iterator@V?$_Tree_val@V?$_Tmap_traits@IPAVManagedItem@@U?$less@I@std@@V?$allocator@U?$pair@$$CBIPAVManagedItem@@@std@@@3@$0A@@std@@@std@@U_Iterator_base0@2@@std@@QAEAAV01@XZ ENDP ; std::_Tree_unchecked_const_iterator<std::_Tree_val<std::_Tmap_traits<unsigned int,ManagedItem *,std::less<unsigned int>,std::allocator<std::pair<unsigned int const ,ManagedItem *> >,0> >,std::_Iterator_base0>::operator++
_TEXT	ENDS
PUBLIC	?max_size@?$allocator@D@std@@QBEIXZ		; std::allocator<char>::max_size
; Function compile flags: /Ogtp
;	COMDAT ?max_size@?$allocator@D@std@@QBEIXZ
_TEXT	SEGMENT
?max_size@?$allocator@D@std@@QBEIXZ PROC		; std::allocator<char>::max_size, COMDAT
; _this$ = ecx
; File c:\program files (x86)\microsoft visual studio 10.0\vc\include\xmemory
; Line 219
	or	eax, -1
; Line 220
	ret	0
?max_size@?$allocator@D@std@@QBEIXZ ENDP		; std::allocator<char>::max_size
_TEXT	ENDS
PUBLIC	?_Compat@?$_String_const_iterator@DU?$char_traits@D@std@@V?$allocator@D@2@@std@@QBEXABV12@@Z ; std::_String_const_iterator<char,std::char_traits<char>,std::allocator<char> >::_Compat
; Function compile flags: /Ogtp
;	COMDAT ?_Compat@?$_String_const_iterator@DU?$char_traits@D@std@@V?$allocator@D@2@@std@@QBEXABV12@@Z
_TEXT	SEGMENT
___formal$ = 8						; size = 4
?_Compat@?$_String_const_iterator@DU?$char_traits@D@std@@V?$allocator@D@2@@std@@QBEXABV12@@Z PROC ; std::_String_const_iterator<char,std::char_traits<char>,std::allocator<char> >::_Compat, COMDAT
; _this$ = ecx
; File c:\program files (x86)\microsoft visual studio 10.0\vc\include\xstring
; Line 264
	ret	4
?_Compat@?$_String_const_iterator@DU?$char_traits@D@std@@V?$allocator@D@2@@std@@QBEXABV12@@Z ENDP ; std::_String_const_iterator<char,std::char_traits<char>,std::allocator<char> >::_Compat
_TEXT	ENDS
PUBLIC	??0?$_Tree_unchecked_const_iterator@V?$_Tree_val@V?$_Tmap_traits@IPAVManagedItem@@U?$less@I@std@@V?$allocator@U?$pair@$$CBIPAVManagedItem@@@std@@@3@$0A@@std@@@std@@U_Iterator_base0@2@@std@@QAE@PAU_Node@?$_Tree_nod@V?$_Tmap_traits@IPAVManagedItem@@U?$less@I@std@@V?$allocator@U?$pair@$$CBIPAVManagedItem@@@std@@@3@$0A@@std@@@1@PBV?$_Tree_val@V?$_Tmap_traits@IPAVManagedItem@@U?$less@I@std@@V?$allocator@U?$pair@$$CBIPAVManagedItem@@@std@@@3@$0A@@std@@@1@@Z ; std::_Tree_unchecked_const_iterator<std::_Tree_val<std::_Tmap_traits<unsigned int,ManagedItem *,std::less<unsigned int>,std::allocator<std::pair<unsigned int const ,ManagedItem *> >,0> >,std::_Iterator_base0>::_Tree_unchecked_const_iterator<std::_Tree_val<std::_Tmap_traits<unsigned int,ManagedItem *,std::less<unsigned int>,std::allocator<std::pair<unsigned int const ,ManagedItem *> >,0> >,std::_Iterator_base0>
; Function compile flags: /Ogtp
;	COMDAT ??0?$_Tree_unchecked_const_iterator@V?$_Tree_val@V?$_Tmap_traits@IPAVManagedItem@@U?$less@I@std@@V?$allocator@U?$pair@$$CBIPAVManagedItem@@@std@@@3@$0A@@std@@@std@@U_Iterator_base0@2@@std@@QAE@PAU_Node@?$_Tree_nod@V?$_Tmap_traits@IPAVManagedItem@@U?$less@I@std@@V?$allocator@U?$pair@$$CBIPAVManagedItem@@@std@@@3@$0A@@std@@@1@PBV?$_Tree_val@V?$_Tmap_traits@IPAVManagedItem@@U?$less@I@std@@V?$allocator@U?$pair@$$CBIPAVManagedItem@@@std@@@3@$0A@@std@@@1@@Z
_TEXT	SEGMENT
__Pnode$ = 8						; size = 4
__Plist$ = 12						; size = 4
??0?$_Tree_unchecked_const_iterator@V?$_Tree_val@V?$_Tmap_traits@IPAVManagedItem@@U?$less@I@std@@V?$allocator@U?$pair@$$CBIPAVManagedItem@@@std@@@3@$0A@@std@@@std@@U_Iterator_base0@2@@std@@QAE@PAU_Node@?$_Tree_nod@V?$_Tmap_traits@IPAVManagedItem@@U?$less@I@std@@V?$allocator@U?$pair@$$CBIPAVManagedItem@@@std@@@3@$0A@@std@@@1@PBV?$_Tree_val@V?$_Tmap_traits@IPAVManagedItem@@U?$less@I@std@@V?$allocator@U?$pair@$$CBIPAVManagedItem@@@std@@@3@$0A@@std@@@1@@Z PROC ; std::_Tree_unchecked_const_iterator<std::_Tree_val<std::_Tmap_traits<unsigned int,ManagedItem *,std::less<unsigned int>,std::allocator<std::pair<unsigned int const ,ManagedItem *> >,0> >,std::_Iterator_base0>::_Tree_unchecked_const_iterator<std::_Tree_val<std::_Tmap_traits<unsigned int,ManagedItem *,std::less<unsigned int>,std::allocator<std::pair<unsigned int const ,ManagedItem *> >,0> >,std::_Iterator_base0>, COMDAT
; _this$ = ecx
; File c:\program files (x86)\microsoft visual studio 10.0\vc\include\xtree
; Line 43
	push	ebp
	mov	ebp, esp
	mov	eax, ecx
	mov	ecx, DWORD PTR __Pnode$[ebp]
	mov	DWORD PTR [eax], ecx
; Line 45
	pop	ebp
	ret	8
??0?$_Tree_unchecked_const_iterator@V?$_Tree_val@V?$_Tmap_traits@IPAVManagedItem@@U?$less@I@std@@V?$allocator@U?$pair@$$CBIPAVManagedItem@@@std@@@3@$0A@@std@@@std@@U_Iterator_base0@2@@std@@QAE@PAU_Node@?$_Tree_nod@V?$_Tmap_traits@IPAVManagedItem@@U?$less@I@std@@V?$allocator@U?$pair@$$CBIPAVManagedItem@@@std@@@3@$0A@@std@@@1@PBV?$_Tree_val@V?$_Tmap_traits@IPAVManagedItem@@U?$less@I@std@@V?$allocator@U?$pair@$$CBIPAVManagedItem@@@std@@@3@$0A@@std@@@1@@Z ENDP ; std::_Tree_unchecked_const_iterator<std::_Tree_val<std::_Tmap_traits<unsigned int,ManagedItem *,std::less<unsigned int>,std::allocator<std::pair<unsigned int const ,ManagedItem *> >,0> >,std::_Iterator_base0>::_Tree_unchecked_const_iterator<std::_Tree_val<std::_Tmap_traits<unsigned int,ManagedItem *,std::less<unsigned int>,std::allocator<std::pair<unsigned int const ,ManagedItem *> >,0> >,std::_Iterator_base0>
_TEXT	ENDS
PUBLIC	??0?$_Tmap_traits@V?$basic_string@DU?$char_traits@D@std@@V?$allocator@D@2@@std@@IU?$less@V?$basic_string@DU?$char_traits@D@std@@V?$allocator@D@2@@std@@@2@V?$allocator@U?$pair@$$CBV?$basic_string@DU?$char_traits@D@std@@V?$allocator@D@2@@std@@I@std@@@2@$0A@@std@@QAE@U?$less@V?$basic_string@DU?$char_traits@D@std@@V?$allocator@D@2@@std@@@1@@Z ; std::_Tmap_traits<std::basic_string<char,std::char_traits<char>,std::allocator<char> >,unsigned int,std::less<std::basic_string<char,std::char_traits<char>,std::allocator<char> > >,std::allocator<std::pair<std::basic_string<char,std::char_traits<char>,std::allocator<char> > const ,unsigned int> >,0>::_Tmap_traits<std::basic_string<char,std::char_traits<char>,std::allocator<char> >,unsigned int,std::less<std::basic_string<char,std::char_traits<char>,std::allocator<char> > >,std::allocator<std::pair<std::basic_string<char,std::char_traits<char>,std::allocator<char> > const ,unsigned int> >,0>
; Function compile flags: /Ogtp
;	COMDAT ??0?$_Tmap_traits@V?$basic_string@DU?$char_traits@D@std@@V?$allocator@D@2@@std@@IU?$less@V?$basic_string@DU?$char_traits@D@std@@V?$allocator@D@2@@std@@@2@V?$allocator@U?$pair@$$CBV?$basic_string@DU?$char_traits@D@std@@V?$allocator@D@2@@std@@I@std@@@2@$0A@@std@@QAE@U?$less@V?$basic_string@DU?$char_traits@D@std@@V?$allocator@D@2@@std@@@1@@Z
_TEXT	SEGMENT
__Parg$ = 8						; size = 1
??0?$_Tmap_traits@V?$basic_string@DU?$char_traits@D@std@@V?$allocator@D@2@@std@@IU?$less@V?$basic_string@DU?$char_traits@D@std@@V?$allocator@D@2@@std@@@2@V?$allocator@U?$pair@$$CBV?$basic_string@DU?$char_traits@D@std@@V?$allocator@D@2@@std@@I@std@@@2@$0A@@std@@QAE@U?$less@V?$basic_string@DU?$char_traits@D@std@@V?$allocator@D@2@@std@@@1@@Z PROC ; std::_Tmap_traits<std::basic_string<char,std::char_traits<char>,std::allocator<char> >,unsigned int,std::less<std::basic_string<char,std::char_traits<char>,std::allocator<char> > >,std::allocator<std::pair<std::basic_string<char,std::char_traits<char>,std::allocator<char> > const ,unsigned int> >,0>::_Tmap_traits<std::basic_string<char,std::char_traits<char>,std::allocator<char> >,unsigned int,std::less<std::basic_string<char,std::char_traits<char>,std::allocator<char> > >,std::allocator<std::pair<std::basic_string<char,std::char_traits<char>,std::allocator<char> > const ,unsigned int> >,0>, COMDAT
; _this$ = ecx
; File c:\program files (x86)\microsoft visual studio 10.0\vc\include\map
; Line 40
	mov	eax, ecx
; Line 41
	ret	4
??0?$_Tmap_traits@V?$basic_string@DU?$char_traits@D@std@@V?$allocator@D@2@@std@@IU?$less@V?$basic_string@DU?$char_traits@D@std@@V?$allocator@D@2@@std@@@2@V?$allocator@U?$pair@$$CBV?$basic_string@DU?$char_traits@D@std@@V?$allocator@D@2@@std@@I@std@@@2@$0A@@std@@QAE@U?$less@V?$basic_string@DU?$char_traits@D@std@@V?$allocator@D@2@@std@@@1@@Z ENDP ; std::_Tmap_traits<std::basic_string<char,std::char_traits<char>,std::allocator<char> >,unsigned int,std::less<std::basic_string<char,std::char_traits<char>,std::allocator<char> > >,std::allocator<std::pair<std::basic_string<char,std::char_traits<char>,std::allocator<char> > const ,unsigned int> >,0>::_Tmap_traits<std::basic_string<char,std::char_traits<char>,std::allocator<char> >,unsigned int,std::less<std::basic_string<char,std::char_traits<char>,std::allocator<char> > >,std::allocator<std::pair<std::basic_string<char,std::char_traits<char>,std::allocator<char> > const ,unsigned int> >,0>
_TEXT	ENDS
PUBLIC	??0?$_Tmap_traits@IPAVManagedItem@@U?$less@I@std@@V?$allocator@U?$pair@$$CBIPAVManagedItem@@@std@@@3@$0A@@std@@QAE@U?$less@I@1@@Z ; std::_Tmap_traits<unsigned int,ManagedItem *,std::less<unsigned int>,std::allocator<std::pair<unsigned int const ,ManagedItem *> >,0>::_Tmap_traits<unsigned int,ManagedItem *,std::less<unsigned int>,std::allocator<std::pair<unsigned int const ,ManagedItem *> >,0>
; Function compile flags: /Ogtp
;	COMDAT ??0?$_Tmap_traits@IPAVManagedItem@@U?$less@I@std@@V?$allocator@U?$pair@$$CBIPAVManagedItem@@@std@@@3@$0A@@std@@QAE@U?$less@I@1@@Z
_TEXT	SEGMENT
__Parg$ = 8						; size = 1
??0?$_Tmap_traits@IPAVManagedItem@@U?$less@I@std@@V?$allocator@U?$pair@$$CBIPAVManagedItem@@@std@@@3@$0A@@std@@QAE@U?$less@I@1@@Z PROC ; std::_Tmap_traits<unsigned int,ManagedItem *,std::less<unsigned int>,std::allocator<std::pair<unsigned int const ,ManagedItem *> >,0>::_Tmap_traits<unsigned int,ManagedItem *,std::less<unsigned int>,std::allocator<std::pair<unsigned int const ,ManagedItem *> >,0>, COMDAT
; _this$ = ecx
; Line 40
	mov	eax, ecx
; Line 41
	ret	4
??0?$_Tmap_traits@IPAVManagedItem@@U?$less@I@std@@V?$allocator@U?$pair@$$CBIPAVManagedItem@@@std@@@3@$0A@@std@@QAE@U?$less@I@1@@Z ENDP ; std::_Tmap_traits<unsigned int,ManagedItem *,std::less<unsigned int>,std::allocator<std::pair<unsigned int const ,ManagedItem *> >,0>::_Tmap_traits<unsigned int,ManagedItem *,std::less<unsigned int>,std::allocator<std::pair<unsigned int const ,ManagedItem *> >,0>
_TEXT	ENDS
PUBLIC	??$addressof@U?$pair@$$CBV?$basic_string@DU?$char_traits@D@std@@V?$allocator@D@2@@std@@I@std@@@std@@YAPAU?$pair@$$CBV?$basic_string@DU?$char_traits@D@std@@V?$allocator@D@2@@std@@I@0@AAU10@@Z ; std::addressof<std::pair<std::basic_string<char,std::char_traits<char>,std::allocator<char> > const ,unsigned int> >
; Function compile flags: /Ogtp
;	COMDAT ??$addressof@U?$pair@$$CBV?$basic_string@DU?$char_traits@D@std@@V?$allocator@D@2@@std@@I@std@@@std@@YAPAU?$pair@$$CBV?$basic_string@DU?$char_traits@D@std@@V?$allocator@D@2@@std@@I@0@AAU10@@Z
_TEXT	SEGMENT
__Val$ = 8						; size = 4
??$addressof@U?$pair@$$CBV?$basic_string@DU?$char_traits@D@std@@V?$allocator@D@2@@std@@I@std@@@std@@YAPAU?$pair@$$CBV?$basic_string@DU?$char_traits@D@std@@V?$allocator@D@2@@std@@I@0@AAU10@@Z PROC ; std::addressof<std::pair<std::basic_string<char,std::char_traits<char>,std::allocator<char> > const ,unsigned int> >, COMDAT
; File c:\program files (x86)\microsoft visual studio 10.0\vc\include\xmemory
; Line 110
	push	ebp
	mov	ebp, esp
; Line 111
	mov	eax, DWORD PTR __Val$[ebp]
; Line 112
	pop	ebp
	ret	0
??$addressof@U?$pair@$$CBV?$basic_string@DU?$char_traits@D@std@@V?$allocator@D@2@@std@@I@std@@@std@@YAPAU?$pair@$$CBV?$basic_string@DU?$char_traits@D@std@@V?$allocator@D@2@@std@@I@0@AAU10@@Z ENDP ; std::addressof<std::pair<std::basic_string<char,std::char_traits<char>,std::allocator<char> > const ,unsigned int> >
_TEXT	ENDS
PUBLIC	??$_Kfn@$$CBV?$basic_string@DU?$char_traits@D@std@@V?$allocator@D@2@@std@@I@?$_Tmap_traits@V?$basic_string@DU?$char_traits@D@std@@V?$allocator@D@2@@std@@IU?$less@V?$basic_string@DU?$char_traits@D@std@@V?$allocator@D@2@@std@@@2@V?$allocator@U?$pair@$$CBV?$basic_string@DU?$char_traits@D@std@@V?$allocator@D@2@@std@@I@std@@@2@$0A@@std@@SAABV?$basic_string@DU?$char_traits@D@std@@V?$allocator@D@2@@1@ABU?$pair@$$CBV?$basic_string@DU?$char_traits@D@std@@V?$allocator@D@2@@std@@I@1@@Z ; std::_Tmap_traits<std::basic_string<char,std::char_traits<char>,std::allocator<char> >,unsigned int,std::less<std::basic_string<char,std::char_traits<char>,std::allocator<char> > >,std::allocator<std::pair<std::basic_string<char,std::char_traits<char>,std::allocator<char> > const ,unsigned int> >,0>::_Kfn<std::basic_string<char,std::char_traits<char>,std::allocator<char> > const ,unsigned int>
; Function compile flags: /Ogtp
;	COMDAT ??$_Kfn@$$CBV?$basic_string@DU?$char_traits@D@std@@V?$allocator@D@2@@std@@I@?$_Tmap_traits@V?$basic_string@DU?$char_traits@D@std@@V?$allocator@D@2@@std@@IU?$less@V?$basic_string@DU?$char_traits@D@std@@V?$allocator@D@2@@std@@@2@V?$allocator@U?$pair@$$CBV?$basic_string@DU?$char_traits@D@std@@V?$allocator@D@2@@std@@I@std@@@2@$0A@@std@@SAABV?$basic_string@DU?$char_traits@D@std@@V?$allocator@D@2@@1@ABU?$pair@$$CBV?$basic_string@DU?$char_traits@D@std@@V?$allocator@D@2@@std@@I@1@@Z
_TEXT	SEGMENT
__Val$ = 8						; size = 4
??$_Kfn@$$CBV?$basic_string@DU?$char_traits@D@std@@V?$allocator@D@2@@std@@I@?$_Tmap_traits@V?$basic_string@DU?$char_traits@D@std@@V?$allocator@D@2@@std@@IU?$less@V?$basic_string@DU?$char_traits@D@std@@V?$allocator@D@2@@std@@@2@V?$allocator@U?$pair@$$CBV?$basic_string@DU?$char_traits@D@std@@V?$allocator@D@2@@std@@I@std@@@2@$0A@@std@@SAABV?$basic_string@DU?$char_traits@D@std@@V?$allocator@D@2@@1@ABU?$pair@$$CBV?$basic_string@DU?$char_traits@D@std@@V?$allocator@D@2@@std@@I@1@@Z PROC ; std::_Tmap_traits<std::basic_string<char,std::char_traits<char>,std::allocator<char> >,unsigned int,std::less<std::basic_string<char,std::char_traits<char>,std::allocator<char> > >,std::allocator<std::pair<std::basic_string<char,std::char_traits<char>,std::allocator<char> > const ,unsigned int> >,0>::_Kfn<std::basic_string<char,std::char_traits<char>,std::allocator<char> > const ,unsigned int>, COMDAT
; File c:\program files (x86)\microsoft visual studio 10.0\vc\include\map
; Line 66
	push	ebp
	mov	ebp, esp
; Line 68
	mov	eax, DWORD PTR __Val$[ebp]
; Line 69
	pop	ebp
	ret	0
??$_Kfn@$$CBV?$basic_string@DU?$char_traits@D@std@@V?$allocator@D@2@@std@@I@?$_Tmap_traits@V?$basic_string@DU?$char_traits@D@std@@V?$allocator@D@2@@std@@IU?$less@V?$basic_string@DU?$char_traits@D@std@@V?$allocator@D@2@@std@@@2@V?$allocator@U?$pair@$$CBV?$basic_string@DU?$char_traits@D@std@@V?$allocator@D@2@@std@@I@std@@@2@$0A@@std@@SAABV?$basic_string@DU?$char_traits@D@std@@V?$allocator@D@2@@1@ABU?$pair@$$CBV?$basic_string@DU?$char_traits@D@std@@V?$allocator@D@2@@std@@I@1@@Z ENDP ; std::_Tmap_traits<std::basic_string<char,std::char_traits<char>,std::allocator<char> >,unsigned int,std::less<std::basic_string<char,std::char_traits<char>,std::allocator<char> > >,std::allocator<std::pair<std::basic_string<char,std::char_traits<char>,std::allocator<char> > const ,unsigned int> >,0>::_Kfn<std::basic_string<char,std::char_traits<char>,std::allocator<char> > const ,unsigned int>
_TEXT	ENDS
PUBLIC	??$addressof@U?$pair@$$CBIPAVManagedItem@@@std@@@std@@YAPAU?$pair@$$CBIPAVManagedItem@@@0@AAU10@@Z ; std::addressof<std::pair<unsigned int const ,ManagedItem *> >
; Function compile flags: /Ogtp
;	COMDAT ??$addressof@U?$pair@$$CBIPAVManagedItem@@@std@@@std@@YAPAU?$pair@$$CBIPAVManagedItem@@@0@AAU10@@Z
_TEXT	SEGMENT
__Val$ = 8						; size = 4
??$addressof@U?$pair@$$CBIPAVManagedItem@@@std@@@std@@YAPAU?$pair@$$CBIPAVManagedItem@@@0@AAU10@@Z PROC ; std::addressof<std::pair<unsigned int const ,ManagedItem *> >, COMDAT
; File c:\program files (x86)\microsoft visual studio 10.0\vc\include\xmemory
; Line 110
	push	ebp
	mov	ebp, esp
; Line 111
	mov	eax, DWORD PTR __Val$[ebp]
; Line 112
	pop	ebp
	ret	0
??$addressof@U?$pair@$$CBIPAVManagedItem@@@std@@@std@@YAPAU?$pair@$$CBIPAVManagedItem@@@0@AAU10@@Z ENDP ; std::addressof<std::pair<unsigned int const ,ManagedItem *> >
_TEXT	ENDS
PUBLIC	??$_Kfn@$$CBIPAVManagedItem@@@?$_Tmap_traits@IPAVManagedItem@@U?$less@I@std@@V?$allocator@U?$pair@$$CBIPAVManagedItem@@@std@@@3@$0A@@std@@SAABIABU?$pair@$$CBIPAVManagedItem@@@1@@Z ; std::_Tmap_traits<unsigned int,ManagedItem *,std::less<unsigned int>,std::allocator<std::pair<unsigned int const ,ManagedItem *> >,0>::_Kfn<unsigned int const ,ManagedItem *>
; Function compile flags: /Ogtp
;	COMDAT ??$_Kfn@$$CBIPAVManagedItem@@@?$_Tmap_traits@IPAVManagedItem@@U?$less@I@std@@V?$allocator@U?$pair@$$CBIPAVManagedItem@@@std@@@3@$0A@@std@@SAABIABU?$pair@$$CBIPAVManagedItem@@@1@@Z
_TEXT	SEGMENT
__Val$ = 8						; size = 4
??$_Kfn@$$CBIPAVManagedItem@@@?$_Tmap_traits@IPAVManagedItem@@U?$less@I@std@@V?$allocator@U?$pair@$$CBIPAVManagedItem@@@std@@@3@$0A@@std@@SAABIABU?$pair@$$CBIPAVManagedItem@@@1@@Z PROC ; std::_Tmap_traits<unsigned int,ManagedItem *,std::less<unsigned int>,std::allocator<std::pair<unsigned int const ,ManagedItem *> >,0>::_Kfn<unsigned int const ,ManagedItem *>, COMDAT
; File c:\program files (x86)\microsoft visual studio 10.0\vc\include\map
; Line 66
	push	ebp
	mov	ebp, esp
; Line 68
	mov	eax, DWORD PTR __Val$[ebp]
; Line 69
	pop	ebp
	ret	0
??$_Kfn@$$CBIPAVManagedItem@@@?$_Tmap_traits@IPAVManagedItem@@U?$less@I@std@@V?$allocator@U?$pair@$$CBIPAVManagedItem@@@std@@@3@$0A@@std@@SAABIABU?$pair@$$CBIPAVManagedItem@@@1@@Z ENDP ; std::_Tmap_traits<unsigned int,ManagedItem *,std::less<unsigned int>,std::allocator<std::pair<unsigned int const ,ManagedItem *> >,0>::_Kfn<unsigned int const ,ManagedItem *>
_TEXT	ENDS
PUBLIC	??$move@AAI@std@@YA$$QAIAAI@Z			; std::move<unsigned int &>
; Function compile flags: /Ogtp
;	COMDAT ??$move@AAI@std@@YA$$QAIAAI@Z
_TEXT	SEGMENT
__Arg$ = 8						; size = 4
??$move@AAI@std@@YA$$QAIAAI@Z PROC			; std::move<unsigned int &>, COMDAT
; File c:\program files (x86)\microsoft visual studio 10.0\vc\include\utility
; Line 86
	push	ebp
	mov	ebp, esp
; Line 87
	mov	eax, DWORD PTR __Arg$[ebp]
; Line 88
	pop	ebp
	ret	0
??$move@AAI@std@@YA$$QAIAAI@Z ENDP			; std::move<unsigned int &>
_TEXT	ENDS
PUBLIC	??$move@AAPAVManagedItem@@@std@@YA$$QAPAVManagedItem@@AAPAV1@@Z ; std::move<ManagedItem * &>
; Function compile flags: /Ogtp
;	COMDAT ??$move@AAPAVManagedItem@@@std@@YA$$QAPAVManagedItem@@AAPAV1@@Z
_TEXT	SEGMENT
__Arg$ = 8						; size = 4
??$move@AAPAVManagedItem@@@std@@YA$$QAPAVManagedItem@@AAPAV1@@Z PROC ; std::move<ManagedItem * &>, COMDAT
; Line 86
	push	ebp
	mov	ebp, esp
; Line 87
	mov	eax, DWORD PTR __Arg$[ebp]
; Line 88
	pop	ebp
	ret	0
??$move@AAPAVManagedItem@@@std@@YA$$QAPAVManagedItem@@AAPAV1@@Z ENDP ; std::move<ManagedItem * &>
_TEXT	ENDS
PUBLIC	__TI2?AVbad_alloc@std@@
PUBLIC	??$_Allocate@D@std@@YAPADIPAD@Z			; std::_Allocate<char>
PUBLIC	__CTA2?AVbad_alloc@std@@
PUBLIC	__CT??_R0?AVbad_alloc@std@@@8??0bad_alloc@std@@QAE@ABV01@@Z12
PUBLIC	??0bad_alloc@std@@QAE@ABV01@@Z			; std::bad_alloc::bad_alloc
PUBLIC	__CT??_R0?AVexception@std@@@8??0exception@std@@QAE@ABV01@@Z12
EXTRN	??2@YAPAXI@Z:PROC				; operator new
EXTRN	__CxxThrowException@8:PROC
EXTRN	??0exception@std@@QAE@ABV01@@Z:PROC		; std::exception::exception
;	COMDAT __CT??_R0?AVexception@std@@@8??0exception@std@@QAE@ABV01@@Z12
; File c:\program files (x86)\microsoft visual studio 10.0\vc\include\exception
xdata$x	SEGMENT
__CT??_R0?AVexception@std@@@8??0exception@std@@QAE@ABV01@@Z12 DD 00H
	DD	FLAT:??_R0?AVexception@std@@@8
	DD	00H
	DD	0ffffffffH
	ORG $+4
	DD	0cH
	DD	FLAT:??0exception@std@@QAE@ABV01@@Z
xdata$x	ENDS
;	COMDAT __CT??_R0?AVbad_alloc@std@@@8??0bad_alloc@std@@QAE@ABV01@@Z12
xdata$x	SEGMENT
__CT??_R0?AVbad_alloc@std@@@8??0bad_alloc@std@@QAE@ABV01@@Z12 DD 00H
	DD	FLAT:??_R0?AVbad_alloc@std@@@8
	DD	00H
	DD	0ffffffffH
	ORG $+4
	DD	0cH
	DD	FLAT:??0bad_alloc@std@@QAE@ABV01@@Z
xdata$x	ENDS
;	COMDAT __CTA2?AVbad_alloc@std@@
xdata$x	SEGMENT
__CTA2?AVbad_alloc@std@@ DD 02H
	DD	FLAT:__CT??_R0?AVbad_alloc@std@@@8??0bad_alloc@std@@QAE@ABV01@@Z12
	DD	FLAT:__CT??_R0?AVexception@std@@@8??0exception@std@@QAE@ABV01@@Z12
xdata$x	ENDS
;	COMDAT __TI2?AVbad_alloc@std@@
xdata$x	SEGMENT
__TI2?AVbad_alloc@std@@ DD 00H
	DD	FLAT:??1bad_alloc@std@@UAE@XZ
	DD	00H
	DD	FLAT:__CTA2?AVbad_alloc@std@@
; Function compile flags: /Ogtp
xdata$x	ENDS
;	COMDAT ??$_Allocate@D@std@@YAPADIPAD@Z
_TEXT	SEGMENT
$T82225 = -12						; size = 12
$T82230 = 8						; size = 4
__Count$ = 8						; size = 4
___formal$ = 12						; size = 4
??$_Allocate@D@std@@YAPADIPAD@Z PROC			; std::_Allocate<char>, COMDAT
; File c:\program files (x86)\microsoft visual studio 10.0\vc\include\xmemory
; Line 30
	push	ebp
	mov	ebp, esp
; Line 33
	mov	ecx, DWORD PTR __Count$[ebp]
	sub	esp, 12					; 0000000cH
	xor	eax, eax
	test	ecx, ecx
; Line 35
	je	SHORT $LN5@Allocate
; Line 36
	cmp	ecx, -1
	ja	SHORT $LN1@Allocate
	push	ecx
	call	??2@YAPAXI@Z				; operator new
	add	esp, 4
	test	eax, eax
; Line 39
	jne	SHORT $LN5@Allocate
$LN1@Allocate:
; Line 37
	lea	eax, DWORD PTR $T82230[ebp]
	push	eax
	lea	ecx, DWORD PTR $T82225[ebp]
	mov	DWORD PTR $T82230[ebp], 0
	call	DWORD PTR __imp_??0exception@std@@QAE@ABQBD@Z
	push	OFFSET __TI2?AVbad_alloc@std@@
	lea	ecx, DWORD PTR $T82225[ebp]
	push	ecx
	mov	DWORD PTR $T82225[ebp], OFFSET ??_7bad_alloc@std@@6B@
	call	__CxxThrowException@8
$LN10@Allocate:
$LN5@Allocate:
; Line 40
	mov	esp, ebp
	pop	ebp
	ret	0
$LN9@Allocate:
??$_Allocate@D@std@@YAPADIPAD@Z ENDP			; std::_Allocate<char>
_TEXT	ENDS
PUBLIC	??$?0U?$pair@$$CBV?$basic_string@DU?$char_traits@D@std@@V?$allocator@D@2@@std@@I@std@@@?$allocator@U_Node@?$_Tree_nod@V?$_Tmap_traits@V?$basic_string@DU?$char_traits@D@std@@V?$allocator@D@2@@std@@IU?$less@V?$basic_string@DU?$char_traits@D@std@@V?$allocator@D@2@@std@@@2@V?$allocator@U?$pair@$$CBV?$basic_string@DU?$char_traits@D@std@@V?$allocator@D@2@@std@@I@std@@@2@$0A@@std@@@std@@@std@@QAE@ABV?$allocator@U?$pair@$$CBV?$basic_string@DU?$char_traits@D@std@@V?$allocator@D@2@@std@@I@std@@@1@@Z ; std::allocator<std::_Tree_nod<std::_Tmap_traits<std::basic_string<char,std::char_traits<char>,std::allocator<char> >,unsigned int,std::less<std::basic_string<char,std::char_traits<char>,std::allocator<char> > >,std::allocator<std::pair<std::basic_string<char,std::char_traits<char>,std::allocator<char> > const ,unsigned int> >,0> >::_Node>::allocator<std::_Tree_nod<std::_Tmap_traits<std::basic_string<char,std::char_traits<char>,std::allocator<char> >,unsigned int,std::less<std::basic_string<char,std::char_traits<char>,std::allocator<char> > >,std::allocator<std::pair<std::basic_string<char,std::char_traits<char>,std::allocator<char> > const ,unsigned int> >,0> >::_Node><std::pair<std::basic_string<char,std::char_traits<char>,std::allocator<char> > const ,unsigned int> >
; Function compile flags: /Ogtp
;	COMDAT ??$?0U?$pair@$$CBV?$basic_string@DU?$char_traits@D@std@@V?$allocator@D@2@@std@@I@std@@@?$allocator@U_Node@?$_Tree_nod@V?$_Tmap_traits@V?$basic_string@DU?$char_traits@D@std@@V?$allocator@D@2@@std@@IU?$less@V?$basic_string@DU?$char_traits@D@std@@V?$allocator@D@2@@std@@@2@V?$allocator@U?$pair@$$CBV?$basic_string@DU?$char_traits@D@std@@V?$allocator@D@2@@std@@I@std@@@2@$0A@@std@@@std@@@std@@QAE@ABV?$allocator@U?$pair@$$CBV?$basic_string@DU?$char_traits@D@std@@V?$allocator@D@2@@std@@I@std@@@1@@Z
_TEXT	SEGMENT
___formal$ = 8						; size = 4
??$?0U?$pair@$$CBV?$basic_string@DU?$char_traits@D@std@@V?$allocator@D@2@@std@@I@std@@@?$allocator@U_Node@?$_Tree_nod@V?$_Tmap_traits@V?$basic_string@DU?$char_traits@D@std@@V?$allocator@D@2@@std@@IU?$less@V?$basic_string@DU?$char_traits@D@std@@V?$allocator@D@2@@std@@@2@V?$allocator@U?$pair@$$CBV?$basic_string@DU?$char_traits@D@std@@V?$allocator@D@2@@std@@I@std@@@2@$0A@@std@@@std@@@std@@QAE@ABV?$allocator@U?$pair@$$CBV?$basic_string@DU?$char_traits@D@std@@V?$allocator@D@2@@std@@I@std@@@1@@Z PROC ; std::allocator<std::_Tree_nod<std::_Tmap_traits<std::basic_string<char,std::char_traits<char>,std::allocator<char> >,unsigned int,std::less<std::basic_string<char,std::char_traits<char>,std::allocator<char> > >,std::allocator<std::pair<std::basic_string<char,std::char_traits<char>,std::allocator<char> > const ,unsigned int> >,0> >::_Node>::allocator<std::_Tree_nod<std::_Tmap_traits<std::basic_string<char,std::char_traits<char>,std::allocator<char> >,unsigned int,std::less<std::basic_string<char,std::char_traits<char>,std::allocator<char> > >,std::allocator<std::pair<std::basic_string<char,std::char_traits<char>,std::allocator<char> > const ,unsigned int> >,0> >::_Node><std::pair<std::basic_string<char,std::char_traits<char>,std::allocator<char> > const ,unsigned int> >, COMDAT
; _this$ = ecx
; Line 170
	mov	eax, ecx
; Line 172
	ret	4
??$?0U?$pair@$$CBV?$basic_string@DU?$char_traits@D@std@@V?$allocator@D@2@@std@@I@std@@@?$allocator@U_Node@?$_Tree_nod@V?$_Tmap_traits@V?$basic_string@DU?$char_traits@D@std@@V?$allocator@D@2@@std@@IU?$less@V?$basic_string@DU?$char_traits@D@std@@V?$allocator@D@2@@std@@@2@V?$allocator@U?$pair@$$CBV?$basic_string@DU?$char_traits@D@std@@V?$allocator@D@2@@std@@I@std@@@2@$0A@@std@@@std@@@std@@QAE@ABV?$allocator@U?$pair@$$CBV?$basic_string@DU?$char_traits@D@std@@V?$allocator@D@2@@std@@I@std@@@1@@Z ENDP ; std::allocator<std::_Tree_nod<std::_Tmap_traits<std::basic_string<char,std::char_traits<char>,std::allocator<char> >,unsigned int,std::less<std::basic_string<char,std::char_traits<char>,std::allocator<char> > >,std::allocator<std::pair<std::basic_string<char,std::char_traits<char>,std::allocator<char> > const ,unsigned int> >,0> >::_Node>::allocator<std::_Tree_nod<std::_Tmap_traits<std::basic_string<char,std::char_traits<char>,std::allocator<char> >,unsigned int,std::less<std::basic_string<char,std::char_traits<char>,std::allocator<char> > >,std::allocator<std::pair<std::basic_string<char,std::char_traits<char>,std::allocator<char> > const ,unsigned int> >,0> >::_Node><std::pair<std::basic_string<char,std::char_traits<char>,std::allocator<char> > const ,unsigned int> >
_TEXT	ENDS
PUBLIC	??$_Allocate@U_Node@?$_Tree_nod@V?$_Tmap_traits@V?$basic_string@DU?$char_traits@D@std@@V?$allocator@D@2@@std@@IU?$less@V?$basic_string@DU?$char_traits@D@std@@V?$allocator@D@2@@std@@@2@V?$allocator@U?$pair@$$CBV?$basic_string@DU?$char_traits@D@std@@V?$allocator@D@2@@std@@I@std@@@2@$0A@@std@@@std@@@std@@YAPAU_Node@?$_Tree_nod@V?$_Tmap_traits@V?$basic_string@DU?$char_traits@D@std@@V?$allocator@D@2@@std@@IU?$less@V?$basic_string@DU?$char_traits@D@std@@V?$allocator@D@2@@std@@@2@V?$allocator@U?$pair@$$CBV?$basic_string@DU?$char_traits@D@std@@V?$allocator@D@2@@std@@I@std@@@2@$0A@@std@@@0@IPAU120@@Z ; std::_Allocate<std::_Tree_nod<std::_Tmap_traits<std::basic_string<char,std::char_traits<char>,std::allocator<char> >,unsigned int,std::less<std::basic_string<char,std::char_traits<char>,std::allocator<char> > >,std::allocator<std::pair<std::basic_string<char,std::char_traits<char>,std::allocator<char> > const ,unsigned int> >,0> >::_Node>
; Function compile flags: /Ogtp
;	COMDAT ??$_Allocate@U_Node@?$_Tree_nod@V?$_Tmap_traits@V?$basic_string@DU?$char_traits@D@std@@V?$allocator@D@2@@std@@IU?$less@V?$basic_string@DU?$char_traits@D@std@@V?$allocator@D@2@@std@@@2@V?$allocator@U?$pair@$$CBV?$basic_string@DU?$char_traits@D@std@@V?$allocator@D@2@@std@@I@std@@@2@$0A@@std@@@std@@@std@@YAPAU_Node@?$_Tree_nod@V?$_Tmap_traits@V?$basic_string@DU?$char_traits@D@std@@V?$allocator@D@2@@std@@IU?$less@V?$basic_string@DU?$char_traits@D@std@@V?$allocator@D@2@@std@@@2@V?$allocator@U?$pair@$$CBV?$basic_string@DU?$char_traits@D@std@@V?$allocator@D@2@@std@@I@std@@@2@$0A@@std@@@0@IPAU120@@Z
_TEXT	SEGMENT
$T82238 = -12						; size = 12
$T82242 = 8						; size = 4
__Count$ = 8						; size = 4
___formal$ = 12						; size = 4
??$_Allocate@U_Node@?$_Tree_nod@V?$_Tmap_traits@V?$basic_string@DU?$char_traits@D@std@@V?$allocator@D@2@@std@@IU?$less@V?$basic_string@DU?$char_traits@D@std@@V?$allocator@D@2@@std@@@2@V?$allocator@U?$pair@$$CBV?$basic_string@DU?$char_traits@D@std@@V?$allocator@D@2@@std@@I@std@@@2@$0A@@std@@@std@@@std@@YAPAU_Node@?$_Tree_nod@V?$_Tmap_traits@V?$basic_string@DU?$char_traits@D@std@@V?$allocator@D@2@@std@@IU?$less@V?$basic_string@DU?$char_traits@D@std@@V?$allocator@D@2@@std@@@2@V?$allocator@U?$pair@$$CBV?$basic_string@DU?$char_traits@D@std@@V?$allocator@D@2@@std@@I@std@@@2@$0A@@std@@@0@IPAU120@@Z PROC ; std::_Allocate<std::_Tree_nod<std::_Tmap_traits<std::basic_string<char,std::char_traits<char>,std::allocator<char> >,unsigned int,std::less<std::basic_string<char,std::char_traits<char>,std::allocator<char> > >,std::allocator<std::pair<std::basic_string<char,std::char_traits<char>,std::allocator<char> > const ,unsigned int> >,0> >::_Node>, COMDAT
; Line 30
	push	ebp
	mov	ebp, esp
; Line 33
	mov	ecx, DWORD PTR __Count$[ebp]
	sub	esp, 12					; 0000000cH
	xor	eax, eax
	test	ecx, ecx
; Line 35
	je	SHORT $LN5@Allocate@2
; Line 36
	cmp	ecx, 89478485				; 05555555H
	ja	SHORT $LN1@Allocate@2
	lea	eax, DWORD PTR [ecx+ecx*2]
	shl	eax, 4
	push	eax
	call	??2@YAPAXI@Z				; operator new
	add	esp, 4
	test	eax, eax
; Line 39
	jne	SHORT $LN5@Allocate@2
$LN1@Allocate@2:
; Line 37
	lea	ecx, DWORD PTR $T82242[ebp]
	push	ecx
	lea	ecx, DWORD PTR $T82238[ebp]
	mov	DWORD PTR $T82242[ebp], 0
	call	DWORD PTR __imp_??0exception@std@@QAE@ABQBD@Z
	push	OFFSET __TI2?AVbad_alloc@std@@
	lea	edx, DWORD PTR $T82238[ebp]
	push	edx
	mov	DWORD PTR $T82238[ebp], OFFSET ??_7bad_alloc@std@@6B@
	call	__CxxThrowException@8
$LN10@Allocate@2:
$LN5@Allocate@2:
; Line 40
	mov	esp, ebp
	pop	ebp
	ret	0
$LN9@Allocate@2:
??$_Allocate@U_Node@?$_Tree_nod@V?$_Tmap_traits@V?$basic_string@DU?$char_traits@D@std@@V?$allocator@D@2@@std@@IU?$less@V?$basic_string@DU?$char_traits@D@std@@V?$allocator@D@2@@std@@@2@V?$allocator@U?$pair@$$CBV?$basic_string@DU?$char_traits@D@std@@V?$allocator@D@2@@std@@I@std@@@2@$0A@@std@@@std@@@std@@YAPAU_Node@?$_Tree_nod@V?$_Tmap_traits@V?$basic_string@DU?$char_traits@D@std@@V?$allocator@D@2@@std@@IU?$less@V?$basic_string@DU?$char_traits@D@std@@V?$allocator@D@2@@std@@@2@V?$allocator@U?$pair@$$CBV?$basic_string@DU?$char_traits@D@std@@V?$allocator@D@2@@std@@I@std@@@2@$0A@@std@@@0@IPAU120@@Z ENDP ; std::_Allocate<std::_Tree_nod<std::_Tmap_traits<std::basic_string<char,std::char_traits<char>,std::allocator<char> >,unsigned int,std::less<std::basic_string<char,std::char_traits<char>,std::allocator<char> > >,std::allocator<std::pair<std::basic_string<char,std::char_traits<char>,std::allocator<char> > const ,unsigned int> >,0> >::_Node>
_TEXT	ENDS
PUBLIC	??$?0U?$pair@$$CBIPAVManagedItem@@@std@@@?$allocator@U_Node@?$_Tree_nod@V?$_Tmap_traits@IPAVManagedItem@@U?$less@I@std@@V?$allocator@U?$pair@$$CBIPAVManagedItem@@@std@@@3@$0A@@std@@@std@@@std@@QAE@ABV?$allocator@U?$pair@$$CBIPAVManagedItem@@@std@@@1@@Z ; std::allocator<std::_Tree_nod<std::_Tmap_traits<unsigned int,ManagedItem *,std::less<unsigned int>,std::allocator<std::pair<unsigned int const ,ManagedItem *> >,0> >::_Node>::allocator<std::_Tree_nod<std::_Tmap_traits<unsigned int,ManagedItem *,std::less<unsigned int>,std::allocator<std::pair<unsigned int const ,ManagedItem *> >,0> >::_Node><std::pair<unsigned int const ,ManagedItem *> >
; Function compile flags: /Ogtp
;	COMDAT ??$?0U?$pair@$$CBIPAVManagedItem@@@std@@@?$allocator@U_Node@?$_Tree_nod@V?$_Tmap_traits@IPAVManagedItem@@U?$less@I@std@@V?$allocator@U?$pair@$$CBIPAVManagedItem@@@std@@@3@$0A@@std@@@std@@@std@@QAE@ABV?$allocator@U?$pair@$$CBIPAVManagedItem@@@std@@@1@@Z
_TEXT	SEGMENT
___formal$ = 8						; size = 4
??$?0U?$pair@$$CBIPAVManagedItem@@@std@@@?$allocator@U_Node@?$_Tree_nod@V?$_Tmap_traits@IPAVManagedItem@@U?$less@I@std@@V?$allocator@U?$pair@$$CBIPAVManagedItem@@@std@@@3@$0A@@std@@@std@@@std@@QAE@ABV?$allocator@U?$pair@$$CBIPAVManagedItem@@@std@@@1@@Z PROC ; std::allocator<std::_Tree_nod<std::_Tmap_traits<unsigned int,ManagedItem *,std::less<unsigned int>,std::allocator<std::pair<unsigned int const ,ManagedItem *> >,0> >::_Node>::allocator<std::_Tree_nod<std::_Tmap_traits<unsigned int,ManagedItem *,std::less<unsigned int>,std::allocator<std::pair<unsigned int const ,ManagedItem *> >,0> >::_Node><std::pair<unsigned int const ,ManagedItem *> >, COMDAT
; _this$ = ecx
; Line 170
	mov	eax, ecx
; Line 172
	ret	4
??$?0U?$pair@$$CBIPAVManagedItem@@@std@@@?$allocator@U_Node@?$_Tree_nod@V?$_Tmap_traits@IPAVManagedItem@@U?$less@I@std@@V?$allocator@U?$pair@$$CBIPAVManagedItem@@@std@@@3@$0A@@std@@@std@@@std@@QAE@ABV?$allocator@U?$pair@$$CBIPAVManagedItem@@@std@@@1@@Z ENDP ; std::allocator<std::_Tree_nod<std::_Tmap_traits<unsigned int,ManagedItem *,std::less<unsigned int>,std::allocator<std::pair<unsigned int const ,ManagedItem *> >,0> >::_Node>::allocator<std::_Tree_nod<std::_Tmap_traits<unsigned int,ManagedItem *,std::less<unsigned int>,std::allocator<std::pair<unsigned int const ,ManagedItem *> >,0> >::_Node><std::pair<unsigned int const ,ManagedItem *> >
_TEXT	ENDS
PUBLIC	??$_Allocate@U_Node@?$_Tree_nod@V?$_Tmap_traits@IPAVManagedItem@@U?$less@I@std@@V?$allocator@U?$pair@$$CBIPAVManagedItem@@@std@@@3@$0A@@std@@@std@@@std@@YAPAU_Node@?$_Tree_nod@V?$_Tmap_traits@IPAVManagedItem@@U?$less@I@std@@V?$allocator@U?$pair@$$CBIPAVManagedItem@@@std@@@3@$0A@@std@@@0@IPAU120@@Z ; std::_Allocate<std::_Tree_nod<std::_Tmap_traits<unsigned int,ManagedItem *,std::less<unsigned int>,std::allocator<std::pair<unsigned int const ,ManagedItem *> >,0> >::_Node>
; Function compile flags: /Ogtp
;	COMDAT ??$_Allocate@U_Node@?$_Tree_nod@V?$_Tmap_traits@IPAVManagedItem@@U?$less@I@std@@V?$allocator@U?$pair@$$CBIPAVManagedItem@@@std@@@3@$0A@@std@@@std@@@std@@YAPAU_Node@?$_Tree_nod@V?$_Tmap_traits@IPAVManagedItem@@U?$less@I@std@@V?$allocator@U?$pair@$$CBIPAVManagedItem@@@std@@@3@$0A@@std@@@0@IPAU120@@Z
_TEXT	SEGMENT
$T82250 = -12						; size = 12
$T82254 = 8						; size = 4
__Count$ = 8						; size = 4
___formal$ = 12						; size = 4
??$_Allocate@U_Node@?$_Tree_nod@V?$_Tmap_traits@IPAVManagedItem@@U?$less@I@std@@V?$allocator@U?$pair@$$CBIPAVManagedItem@@@std@@@3@$0A@@std@@@std@@@std@@YAPAU_Node@?$_Tree_nod@V?$_Tmap_traits@IPAVManagedItem@@U?$less@I@std@@V?$allocator@U?$pair@$$CBIPAVManagedItem@@@std@@@3@$0A@@std@@@0@IPAU120@@Z PROC ; std::_Allocate<std::_Tree_nod<std::_Tmap_traits<unsigned int,ManagedItem *,std::less<unsigned int>,std::allocator<std::pair<unsigned int const ,ManagedItem *> >,0> >::_Node>, COMDAT
; Line 30
	push	ebp
	mov	ebp, esp
; Line 33
	mov	ecx, DWORD PTR __Count$[ebp]
	sub	esp, 12					; 0000000cH
	xor	eax, eax
	test	ecx, ecx
; Line 35
	je	SHORT $LN5@Allocate@3
; Line 36
	cmp	ecx, 178956970				; 0aaaaaaaH
	ja	SHORT $LN1@Allocate@3
	lea	eax, DWORD PTR [ecx+ecx*2]
	add	eax, eax
	add	eax, eax
	add	eax, eax
	push	eax
	call	??2@YAPAXI@Z				; operator new
	add	esp, 4
	test	eax, eax
; Line 39
	jne	SHORT $LN5@Allocate@3
$LN1@Allocate@3:
; Line 37
	lea	ecx, DWORD PTR $T82254[ebp]
	push	ecx
	lea	ecx, DWORD PTR $T82250[ebp]
	mov	DWORD PTR $T82254[ebp], 0
	call	DWORD PTR __imp_??0exception@std@@QAE@ABQBD@Z
	push	OFFSET __TI2?AVbad_alloc@std@@
	lea	edx, DWORD PTR $T82250[ebp]
	push	edx
	mov	DWORD PTR $T82250[ebp], OFFSET ??_7bad_alloc@std@@6B@
	call	__CxxThrowException@8
$LN10@Allocate@3:
$LN5@Allocate@3:
; Line 40
	mov	esp, ebp
	pop	ebp
	ret	0
$LN9@Allocate@3:
??$_Allocate@U_Node@?$_Tree_nod@V?$_Tmap_traits@IPAVManagedItem@@U?$less@I@std@@V?$allocator@U?$pair@$$CBIPAVManagedItem@@@std@@@3@$0A@@std@@@std@@@std@@YAPAU_Node@?$_Tree_nod@V?$_Tmap_traits@IPAVManagedItem@@U?$less@I@std@@V?$allocator@U?$pair@$$CBIPAVManagedItem@@@std@@@3@$0A@@std@@@0@IPAU120@@Z ENDP ; std::_Allocate<std::_Tree_nod<std::_Tmap_traits<unsigned int,ManagedItem *,std::less<unsigned int>,std::allocator<std::pair<unsigned int const ,ManagedItem *> >,0> >::_Node>
_TEXT	ENDS
EXTRN	__imp_??0exception@std@@QAE@ABV01@@Z:PROC
; Function compile flags: /Ogtp
;	COMDAT ??0bad_alloc@std@@QAE@ABV01@@Z
_TEXT	SEGMENT
___that$ = 8						; size = 4
??0bad_alloc@std@@QAE@ABV01@@Z PROC			; std::bad_alloc::bad_alloc, COMDAT
; _this$ = ecx
	push	ebp
	mov	ebp, esp
	mov	eax, DWORD PTR ___that$[ebp]
	push	esi
	push	eax
	mov	esi, ecx
	call	DWORD PTR __imp_??0exception@std@@QAE@ABV01@@Z
	mov	DWORD PTR [esi], OFFSET ??_7bad_alloc@std@@6B@
	mov	eax, esi
	pop	esi
	pop	ebp
	ret	4
??0bad_alloc@std@@QAE@ABV01@@Z ENDP			; std::bad_alloc::bad_alloc
_TEXT	ENDS
PUBLIC	?size@?$_Tree@V?$_Tmap_traits@V?$basic_string@DU?$char_traits@D@std@@V?$allocator@D@2@@std@@IU?$less@V?$basic_string@DU?$char_traits@D@std@@V?$allocator@D@2@@std@@@2@V?$allocator@U?$pair@$$CBV?$basic_string@DU?$char_traits@D@std@@V?$allocator@D@2@@std@@I@std@@@2@$0A@@std@@@std@@QBEIXZ ; std::_Tree<std::_Tmap_traits<std::basic_string<char,std::char_traits<char>,std::allocator<char> >,unsigned int,std::less<std::basic_string<char,std::char_traits<char>,std::allocator<char> > >,std::allocator<std::pair<std::basic_string<char,std::char_traits<char>,std::allocator<char> > const ,unsigned int> >,0> >::size
; Function compile flags: /Ogtp
;	COMDAT ?size@?$_Tree@V?$_Tmap_traits@V?$basic_string@DU?$char_traits@D@std@@V?$allocator@D@2@@std@@IU?$less@V?$basic_string@DU?$char_traits@D@std@@V?$allocator@D@2@@std@@@2@V?$allocator@U?$pair@$$CBV?$basic_string@DU?$char_traits@D@std@@V?$allocator@D@2@@std@@I@std@@@2@$0A@@std@@@std@@QBEIXZ
_TEXT	SEGMENT
?size@?$_Tree@V?$_Tmap_traits@V?$basic_string@DU?$char_traits@D@std@@V?$allocator@D@2@@std@@IU?$less@V?$basic_string@DU?$char_traits@D@std@@V?$allocator@D@2@@std@@@2@V?$allocator@U?$pair@$$CBV?$basic_string@DU?$char_traits@D@std@@V?$allocator@D@2@@std@@I@std@@@2@$0A@@std@@@std@@QBEIXZ PROC ; std::_Tree<std::_Tmap_traits<std::basic_string<char,std::char_traits<char>,std::allocator<char> >,unsigned int,std::less<std::basic_string<char,std::char_traits<char>,std::allocator<char> > >,std::allocator<std::pair<std::basic_string<char,std::char_traits<char>,std::allocator<char> > const ,unsigned int> >,0> >::size, COMDAT
; _this$ = ecx
; File c:\program files (x86)\microsoft visual studio 10.0\vc\include\xtree
; Line 869
	mov	eax, DWORD PTR [ecx+8]
; Line 870
	ret	0
?size@?$_Tree@V?$_Tmap_traits@V?$basic_string@DU?$char_traits@D@std@@V?$allocator@D@2@@std@@IU?$less@V?$basic_string@DU?$char_traits@D@std@@V?$allocator@D@2@@std@@@2@V?$allocator@U?$pair@$$CBV?$basic_string@DU?$char_traits@D@std@@V?$allocator@D@2@@std@@I@std@@@2@$0A@@std@@@std@@QBEIXZ ENDP ; std::_Tree<std::_Tmap_traits<std::basic_string<char,std::char_traits<char>,std::allocator<char> >,unsigned int,std::less<std::basic_string<char,std::char_traits<char>,std::allocator<char> > >,std::allocator<std::pair<std::basic_string<char,std::char_traits<char>,std::allocator<char> > const ,unsigned int> >,0> >::size
_TEXT	ENDS
PUBLIC	?size@?$_Tree@V?$_Tmap_traits@IPAVManagedItem@@U?$less@I@std@@V?$allocator@U?$pair@$$CBIPAVManagedItem@@@std@@@3@$0A@@std@@@std@@QBEIXZ ; std::_Tree<std::_Tmap_traits<unsigned int,ManagedItem *,std::less<unsigned int>,std::allocator<std::pair<unsigned int const ,ManagedItem *> >,0> >::size
; Function compile flags: /Ogtp
;	COMDAT ?size@?$_Tree@V?$_Tmap_traits@IPAVManagedItem@@U?$less@I@std@@V?$allocator@U?$pair@$$CBIPAVManagedItem@@@std@@@3@$0A@@std@@@std@@QBEIXZ
_TEXT	SEGMENT
?size@?$_Tree@V?$_Tmap_traits@IPAVManagedItem@@U?$less@I@std@@V?$allocator@U?$pair@$$CBIPAVManagedItem@@@std@@@3@$0A@@std@@@std@@QBEIXZ PROC ; std::_Tree<std::_Tmap_traits<unsigned int,ManagedItem *,std::less<unsigned int>,std::allocator<std::pair<unsigned int const ,ManagedItem *> >,0> >::size, COMDAT
; _this$ = ecx
; Line 869
	mov	eax, DWORD PTR [ecx+8]
; Line 870
	ret	0
?size@?$_Tree@V?$_Tmap_traits@IPAVManagedItem@@U?$less@I@std@@V?$allocator@U?$pair@$$CBIPAVManagedItem@@@std@@@3@$0A@@std@@@std@@QBEIXZ ENDP ; std::_Tree<std::_Tmap_traits<unsigned int,ManagedItem *,std::less<unsigned int>,std::allocator<std::pair<unsigned int const ,ManagedItem *> >,0> >::size
_TEXT	ENDS
PUBLIC	??8?$_String_const_iterator@DU?$char_traits@D@std@@V?$allocator@D@2@@std@@QBE_NABV01@@Z ; std::_String_const_iterator<char,std::char_traits<char>,std::allocator<char> >::operator==
; Function compile flags: /Ogtp
;	COMDAT ??8?$_String_const_iterator@DU?$char_traits@D@std@@V?$allocator@D@2@@std@@QBE_NABV01@@Z
_TEXT	SEGMENT
__Right$ = 8						; size = 4
??8?$_String_const_iterator@DU?$char_traits@D@std@@V?$allocator@D@2@@std@@QBE_NABV01@@Z PROC ; std::_String_const_iterator<char,std::char_traits<char>,std::allocator<char> >::operator==, COMDAT
; _this$ = ecx
; File c:\program files (x86)\microsoft visual studio 10.0\vc\include\xstring
; Line 212
	push	ebp
	mov	ebp, esp
; Line 214
	mov	eax, DWORD PTR [ecx]
	mov	edx, DWORD PTR __Right$[ebp]
	xor	ecx, ecx
	cmp	eax, DWORD PTR [edx]
	sete	al
; Line 215
	pop	ebp
	ret	4
??8?$_String_const_iterator@DU?$char_traits@D@std@@V?$allocator@D@2@@std@@QBE_NABV01@@Z ENDP ; std::_String_const_iterator<char,std::char_traits<char>,std::allocator<char> >::operator==
_TEXT	ENDS
PUBLIC	??0?$_Tree_unchecked_const_iterator@V?$_Tree_val@V?$_Tmap_traits@V?$basic_string@DU?$char_traits@D@std@@V?$allocator@D@2@@std@@IU?$less@V?$basic_string@DU?$char_traits@D@std@@V?$allocator@D@2@@std@@@2@V?$allocator@U?$pair@$$CBV?$basic_string@DU?$char_traits@D@std@@V?$allocator@D@2@@std@@I@std@@@2@$0A@@std@@@std@@U_Iterator_base0@2@@std@@QAE@XZ ; std::_Tree_unchecked_const_iterator<std::_Tree_val<std::_Tmap_traits<std::basic_string<char,std::char_traits<char>,std::allocator<char> >,unsigned int,std::less<std::basic_string<char,std::char_traits<char>,std::allocator<char> > >,std::allocator<std::pair<std::basic_string<char,std::char_traits<char>,std::allocator<char> > const ,unsigned int> >,0> >,std::_Iterator_base0>::_Tree_unchecked_const_iterator<std::_Tree_val<std::_Tmap_traits<std::basic_string<char,std::char_traits<char>,std::allocator<char> >,unsigned int,std::less<std::basic_string<char,std::char_traits<char>,std::allocator<char> > >,std::allocator<std::pair<std::basic_string<char,std::char_traits<char>,std::allocator<char> > const ,unsigned int> >,0> >,std::_Iterator_base0>
; Function compile flags: /Ogtp
;	COMDAT ??0?$_Tree_unchecked_const_iterator@V?$_Tree_val@V?$_Tmap_traits@V?$basic_string@DU?$char_traits@D@std@@V?$allocator@D@2@@std@@IU?$less@V?$basic_string@DU?$char_traits@D@std@@V?$allocator@D@2@@std@@@2@V?$allocator@U?$pair@$$CBV?$basic_string@DU?$char_traits@D@std@@V?$allocator@D@2@@std@@I@std@@@2@$0A@@std@@@std@@U_Iterator_base0@2@@std@@QAE@XZ
_TEXT	SEGMENT
??0?$_Tree_unchecked_const_iterator@V?$_Tree_val@V?$_Tmap_traits@V?$basic_string@DU?$char_traits@D@std@@V?$allocator@D@2@@std@@IU?$less@V?$basic_string@DU?$char_traits@D@std@@V?$allocator@D@2@@std@@@2@V?$allocator@U?$pair@$$CBV?$basic_string@DU?$char_traits@D@std@@V?$allocator@D@2@@std@@I@std@@@2@$0A@@std@@@std@@U_Iterator_base0@2@@std@@QAE@XZ PROC ; std::_Tree_unchecked_const_iterator<std::_Tree_val<std::_Tmap_traits<std::basic_string<char,std::char_traits<char>,std::allocator<char> >,unsigned int,std::less<std::basic_string<char,std::char_traits<char>,std::allocator<char> > >,std::allocator<std::pair<std::basic_string<char,std::char_traits<char>,std::allocator<char> > const ,unsigned int> >,0> >,std::_Iterator_base0>::_Tree_unchecked_const_iterator<std::_Tree_val<std::_Tmap_traits<std::basic_string<char,std::char_traits<char>,std::allocator<char> >,unsigned int,std::less<std::basic_string<char,std::char_traits<char>,std::allocator<char> > >,std::allocator<std::pair<std::basic_string<char,std::char_traits<char>,std::allocator<char> > const ,unsigned int> >,0> >,std::_Iterator_base0>, COMDAT
; _this$ = ecx
; File c:\program files (x86)\microsoft visual studio 10.0\vc\include\xtree
; Line 38
	mov	eax, ecx
	mov	DWORD PTR [eax], 0
; Line 39
	ret	0
??0?$_Tree_unchecked_const_iterator@V?$_Tree_val@V?$_Tmap_traits@V?$basic_string@DU?$char_traits@D@std@@V?$allocator@D@2@@std@@IU?$less@V?$basic_string@DU?$char_traits@D@std@@V?$allocator@D@2@@std@@@2@V?$allocator@U?$pair@$$CBV?$basic_string@DU?$char_traits@D@std@@V?$allocator@D@2@@std@@I@std@@@2@$0A@@std@@@std@@U_Iterator_base0@2@@std@@QAE@XZ ENDP ; std::_Tree_unchecked_const_iterator<std::_Tree_val<std::_Tmap_traits<std::basic_string<char,std::char_traits<char>,std::allocator<char> >,unsigned int,std::less<std::basic_string<char,std::char_traits<char>,std::allocator<char> > >,std::allocator<std::pair<std::basic_string<char,std::char_traits<char>,std::allocator<char> > const ,unsigned int> >,0> >,std::_Iterator_base0>::_Tree_unchecked_const_iterator<std::_Tree_val<std::_Tmap_traits<std::basic_string<char,std::char_traits<char>,std::allocator<char> >,unsigned int,std::less<std::basic_string<char,std::char_traits<char>,std::allocator<char> > >,std::allocator<std::pair<std::basic_string<char,std::char_traits<char>,std::allocator<char> > const ,unsigned int> >,0> >,std::_Iterator_base0>
_TEXT	ENDS
PUBLIC	??F?$_Tree_unchecked_const_iterator@V?$_Tree_val@V?$_Tmap_traits@V?$basic_string@DU?$char_traits@D@std@@V?$allocator@D@2@@std@@IU?$less@V?$basic_string@DU?$char_traits@D@std@@V?$allocator@D@2@@std@@@2@V?$allocator@U?$pair@$$CBV?$basic_string@DU?$char_traits@D@std@@V?$allocator@D@2@@std@@I@std@@@2@$0A@@std@@@std@@U_Iterator_base0@2@@std@@QAEAAV01@XZ ; std::_Tree_unchecked_const_iterator<std::_Tree_val<std::_Tmap_traits<std::basic_string<char,std::char_traits<char>,std::allocator<char> >,unsigned int,std::less<std::basic_string<char,std::char_traits<char>,std::allocator<char> > >,std::allocator<std::pair<std::basic_string<char,std::char_traits<char>,std::allocator<char> > const ,unsigned int> >,0> >,std::_Iterator_base0>::operator--
; Function compile flags: /Ogtp
;	COMDAT ??F?$_Tree_unchecked_const_iterator@V?$_Tree_val@V?$_Tmap_traits@V?$basic_string@DU?$char_traits@D@std@@V?$allocator@D@2@@std@@IU?$less@V?$basic_string@DU?$char_traits@D@std@@V?$allocator@D@2@@std@@@2@V?$allocator@U?$pair@$$CBV?$basic_string@DU?$char_traits@D@std@@V?$allocator@D@2@@std@@I@std@@@2@$0A@@std@@@std@@U_Iterator_base0@2@@std@@QAEAAV01@XZ
_TEXT	SEGMENT
??F?$_Tree_unchecked_const_iterator@V?$_Tree_val@V?$_Tmap_traits@V?$basic_string@DU?$char_traits@D@std@@V?$allocator@D@2@@std@@IU?$less@V?$basic_string@DU?$char_traits@D@std@@V?$allocator@D@2@@std@@@2@V?$allocator@U?$pair@$$CBV?$basic_string@DU?$char_traits@D@std@@V?$allocator@D@2@@std@@I@std@@@2@$0A@@std@@@std@@U_Iterator_base0@2@@std@@QAEAAV01@XZ PROC ; std::_Tree_unchecked_const_iterator<std::_Tree_val<std::_Tmap_traits<std::basic_string<char,std::char_traits<char>,std::allocator<char> >,unsigned int,std::less<std::basic_string<char,std::char_traits<char>,std::allocator<char> > >,std::allocator<std::pair<std::basic_string<char,std::char_traits<char>,std::allocator<char> > const ,unsigned int> >,0> >,std::_Iterator_base0>::operator--, COMDAT
; _this$ = ecx
; Line 83
	mov	eax, ecx
; Line 84
	mov	ecx, DWORD PTR [eax]
	cmp	BYTE PTR [ecx+45], 0
	je	SHORT $LN8@operator@3
; Line 85
	mov	ecx, DWORD PTR [ecx+8]
	mov	DWORD PTR [eax], ecx
; Line 101
	ret	0
$LN8@operator@3:
; Line 86
	mov	edx, DWORD PTR [ecx]
	cmp	BYTE PTR [edx+45], 0
	jne	SHORT $LN40@operator@3
; Line 88
	mov	ecx, DWORD PTR [edx+8]
	cmp	BYTE PTR [ecx+45], 0
	jne	SHORT $LN21@operator@3
$LL22@operator@3:
	mov	edx, ecx
	mov	ecx, DWORD PTR [edx+8]
	cmp	BYTE PTR [ecx+45], 0
	je	SHORT $LL22@operator@3
; Line 98
	mov	DWORD PTR [eax], edx
; Line 101
	ret	0
$LN40@operator@3:
; Line 93
	mov	edx, DWORD PTR [ecx+4]
	cmp	BYTE PTR [edx+45], 0
	jne	SHORT $LN3@operator@3
$LL4@operator@3:
	mov	ecx, DWORD PTR [eax]
	cmp	ecx, DWORD PTR [edx]
	jne	SHORT $LN3@operator@3
; Line 94
	mov	DWORD PTR [eax], edx
	mov	edx, DWORD PTR [edx+4]
	cmp	BYTE PTR [edx+45], 0
	je	SHORT $LL4@operator@3
$LN3@operator@3:
; Line 95
	mov	ecx, DWORD PTR [eax]
	cmp	BYTE PTR [ecx+45], 0
	jne	SHORT $LN1@operator@3
; Line 88
$LN21@operator@3:
; Line 98
	mov	DWORD PTR [eax], edx
$LN1@operator@3:
; Line 101
	ret	0
??F?$_Tree_unchecked_const_iterator@V?$_Tree_val@V?$_Tmap_traits@V?$basic_string@DU?$char_traits@D@std@@V?$allocator@D@2@@std@@IU?$less@V?$basic_string@DU?$char_traits@D@std@@V?$allocator@D@2@@std@@@2@V?$allocator@U?$pair@$$CBV?$basic_string@DU?$char_traits@D@std@@V?$allocator@D@2@@std@@I@std@@@2@$0A@@std@@@std@@U_Iterator_base0@2@@std@@QAEAAV01@XZ ENDP ; std::_Tree_unchecked_const_iterator<std::_Tree_val<std::_Tmap_traits<std::basic_string<char,std::char_traits<char>,std::allocator<char> >,unsigned int,std::less<std::basic_string<char,std::char_traits<char>,std::allocator<char> > >,std::allocator<std::pair<std::basic_string<char,std::char_traits<char>,std::allocator<char> > const ,unsigned int> >,0> >,std::_Iterator_base0>::operator--
_TEXT	ENDS
PUBLIC	??0?$_Tree_unchecked_const_iterator@V?$_Tree_val@V?$_Tmap_traits@IPAVManagedItem@@U?$less@I@std@@V?$allocator@U?$pair@$$CBIPAVManagedItem@@@std@@@3@$0A@@std@@@std@@U_Iterator_base0@2@@std@@QAE@XZ ; std::_Tree_unchecked_const_iterator<std::_Tree_val<std::_Tmap_traits<unsigned int,ManagedItem *,std::less<unsigned int>,std::allocator<std::pair<unsigned int const ,ManagedItem *> >,0> >,std::_Iterator_base0>::_Tree_unchecked_const_iterator<std::_Tree_val<std::_Tmap_traits<unsigned int,ManagedItem *,std::less<unsigned int>,std::allocator<std::pair<unsigned int const ,ManagedItem *> >,0> >,std::_Iterator_base0>
; Function compile flags: /Ogtp
;	COMDAT ??0?$_Tree_unchecked_const_iterator@V?$_Tree_val@V?$_Tmap_traits@IPAVManagedItem@@U?$less@I@std@@V?$allocator@U?$pair@$$CBIPAVManagedItem@@@std@@@3@$0A@@std@@@std@@U_Iterator_base0@2@@std@@QAE@XZ
_TEXT	SEGMENT
??0?$_Tree_unchecked_const_iterator@V?$_Tree_val@V?$_Tmap_traits@IPAVManagedItem@@U?$less@I@std@@V?$allocator@U?$pair@$$CBIPAVManagedItem@@@std@@@3@$0A@@std@@@std@@U_Iterator_base0@2@@std@@QAE@XZ PROC ; std::_Tree_unchecked_const_iterator<std::_Tree_val<std::_Tmap_traits<unsigned int,ManagedItem *,std::less<unsigned int>,std::allocator<std::pair<unsigned int const ,ManagedItem *> >,0> >,std::_Iterator_base0>::_Tree_unchecked_const_iterator<std::_Tree_val<std::_Tmap_traits<unsigned int,ManagedItem *,std::less<unsigned int>,std::allocator<std::pair<unsigned int const ,ManagedItem *> >,0> >,std::_Iterator_base0>, COMDAT
; _this$ = ecx
; Line 38
	mov	eax, ecx
	mov	DWORD PTR [eax], 0
; Line 39
	ret	0
??0?$_Tree_unchecked_const_iterator@V?$_Tree_val@V?$_Tmap_traits@IPAVManagedItem@@U?$less@I@std@@V?$allocator@U?$pair@$$CBIPAVManagedItem@@@std@@@3@$0A@@std@@@std@@U_Iterator_base0@2@@std@@QAE@XZ ENDP ; std::_Tree_unchecked_const_iterator<std::_Tree_val<std::_Tmap_traits<unsigned int,ManagedItem *,std::less<unsigned int>,std::allocator<std::pair<unsigned int const ,ManagedItem *> >,0> >,std::_Iterator_base0>::_Tree_unchecked_const_iterator<std::_Tree_val<std::_Tmap_traits<unsigned int,ManagedItem *,std::less<unsigned int>,std::allocator<std::pair<unsigned int const ,ManagedItem *> >,0> >,std::_Iterator_base0>
_TEXT	ENDS
PUBLIC	??F?$_Tree_unchecked_const_iterator@V?$_Tree_val@V?$_Tmap_traits@IPAVManagedItem@@U?$less@I@std@@V?$allocator@U?$pair@$$CBIPAVManagedItem@@@std@@@3@$0A@@std@@@std@@U_Iterator_base0@2@@std@@QAEAAV01@XZ ; std::_Tree_unchecked_const_iterator<std::_Tree_val<std::_Tmap_traits<unsigned int,ManagedItem *,std::less<unsigned int>,std::allocator<std::pair<unsigned int const ,ManagedItem *> >,0> >,std::_Iterator_base0>::operator--
; Function compile flags: /Ogtp
;	COMDAT ??F?$_Tree_unchecked_const_iterator@V?$_Tree_val@V?$_Tmap_traits@IPAVManagedItem@@U?$less@I@std@@V?$allocator@U?$pair@$$CBIPAVManagedItem@@@std@@@3@$0A@@std@@@std@@U_Iterator_base0@2@@std@@QAEAAV01@XZ
_TEXT	SEGMENT
??F?$_Tree_unchecked_const_iterator@V?$_Tree_val@V?$_Tmap_traits@IPAVManagedItem@@U?$less@I@std@@V?$allocator@U?$pair@$$CBIPAVManagedItem@@@std@@@3@$0A@@std@@@std@@U_Iterator_base0@2@@std@@QAEAAV01@XZ PROC ; std::_Tree_unchecked_const_iterator<std::_Tree_val<std::_Tmap_traits<unsigned int,ManagedItem *,std::less<unsigned int>,std::allocator<std::pair<unsigned int const ,ManagedItem *> >,0> >,std::_Iterator_base0>::operator--, COMDAT
; _this$ = ecx
; Line 83
	mov	eax, ecx
; Line 84
	mov	ecx, DWORD PTR [eax]
	cmp	BYTE PTR [ecx+21], 0
	je	SHORT $LN8@operator@4
; Line 85
	mov	ecx, DWORD PTR [ecx+8]
	mov	DWORD PTR [eax], ecx
; Line 101
	ret	0
$LN8@operator@4:
; Line 86
	mov	edx, DWORD PTR [ecx]
	cmp	BYTE PTR [edx+21], 0
	jne	SHORT $LN40@operator@4
; Line 88
	mov	ecx, DWORD PTR [edx+8]
	cmp	BYTE PTR [ecx+21], 0
	jne	SHORT $LN21@operator@4
$LL22@operator@4:
	mov	edx, ecx
	mov	ecx, DWORD PTR [edx+8]
	cmp	BYTE PTR [ecx+21], 0
	je	SHORT $LL22@operator@4
; Line 98
	mov	DWORD PTR [eax], edx
; Line 101
	ret	0
$LN40@operator@4:
; Line 93
	mov	edx, DWORD PTR [ecx+4]
	cmp	BYTE PTR [edx+21], 0
	jne	SHORT $LN3@operator@4
$LL4@operator@4:
	mov	ecx, DWORD PTR [eax]
	cmp	ecx, DWORD PTR [edx]
	jne	SHORT $LN3@operator@4
; Line 94
	mov	DWORD PTR [eax], edx
	mov	edx, DWORD PTR [edx+4]
	cmp	BYTE PTR [edx+21], 0
	je	SHORT $LL4@operator@4
$LN3@operator@4:
; Line 95
	mov	ecx, DWORD PTR [eax]
	cmp	BYTE PTR [ecx+21], 0
	jne	SHORT $LN1@operator@4
; Line 88
$LN21@operator@4:
; Line 98
	mov	DWORD PTR [eax], edx
$LN1@operator@4:
; Line 101
	ret	0
??F?$_Tree_unchecked_const_iterator@V?$_Tree_val@V?$_Tmap_traits@IPAVManagedItem@@U?$less@I@std@@V?$allocator@U?$pair@$$CBIPAVManagedItem@@@std@@@3@$0A@@std@@@std@@U_Iterator_base0@2@@std@@QAEAAV01@XZ ENDP ; std::_Tree_unchecked_const_iterator<std::_Tree_val<std::_Tmap_traits<unsigned int,ManagedItem *,std::less<unsigned int>,std::allocator<std::pair<unsigned int const ,ManagedItem *> >,0> >,std::_Iterator_base0>::operator--
_TEXT	ENDS
PUBLIC	?max_size@?$allocator@U?$pair@$$CBV?$basic_string@DU?$char_traits@D@std@@V?$allocator@D@2@@std@@I@std@@@std@@QBEIXZ ; std::allocator<std::pair<std::basic_string<char,std::char_traits<char>,std::allocator<char> > const ,unsigned int> >::max_size
; Function compile flags: /Ogtp
;	COMDAT ?max_size@?$allocator@U?$pair@$$CBV?$basic_string@DU?$char_traits@D@std@@V?$allocator@D@2@@std@@I@std@@@std@@QBEIXZ
_TEXT	SEGMENT
?max_size@?$allocator@U?$pair@$$CBV?$basic_string@DU?$char_traits@D@std@@V?$allocator@D@2@@std@@I@std@@@std@@QBEIXZ PROC ; std::allocator<std::pair<std::basic_string<char,std::char_traits<char>,std::allocator<char> > const ,unsigned int> >::max_size, COMDAT
; _this$ = ecx
; File c:\program files (x86)\microsoft visual studio 10.0\vc\include\xmemory
; Line 219
	mov	eax, 134217727				; 07ffffffH
; Line 220
	ret	0
?max_size@?$allocator@U?$pair@$$CBV?$basic_string@DU?$char_traits@D@std@@V?$allocator@D@2@@std@@I@std@@@std@@QBEIXZ ENDP ; std::allocator<std::pair<std::basic_string<char,std::char_traits<char>,std::allocator<char> > const ,unsigned int> >::max_size
_TEXT	ENDS
PUBLIC	?max_size@?$allocator@U?$pair@$$CBIPAVManagedItem@@@std@@@std@@QBEIXZ ; std::allocator<std::pair<unsigned int const ,ManagedItem *> >::max_size
; Function compile flags: /Ogtp
;	COMDAT ?max_size@?$allocator@U?$pair@$$CBIPAVManagedItem@@@std@@@std@@QBEIXZ
_TEXT	SEGMENT
?max_size@?$allocator@U?$pair@$$CBIPAVManagedItem@@@std@@@std@@QBEIXZ PROC ; std::allocator<std::pair<unsigned int const ,ManagedItem *> >::max_size, COMDAT
; _this$ = ecx
; Line 219
	mov	eax, 536870911				; 1fffffffH
; Line 220
	ret	0
?max_size@?$allocator@U?$pair@$$CBIPAVManagedItem@@@std@@@std@@QBEIXZ ENDP ; std::allocator<std::pair<unsigned int const ,ManagedItem *> >::max_size
_TEXT	ENDS
PUBLIC	??$forward@U?$pair@$$CBV?$basic_string@DU?$char_traits@D@std@@V?$allocator@D@2@@std@@I@std@@@std@@YA$$QAU?$pair@$$CBV?$basic_string@DU?$char_traits@D@std@@V?$allocator@D@2@@std@@I@0@AAU10@@Z ; std::forward<std::pair<std::basic_string<char,std::char_traits<char>,std::allocator<char> > const ,unsigned int> >
; Function compile flags: /Ogtp
;	COMDAT ??$forward@U?$pair@$$CBV?$basic_string@DU?$char_traits@D@std@@V?$allocator@D@2@@std@@I@std@@@std@@YA$$QAU?$pair@$$CBV?$basic_string@DU?$char_traits@D@std@@V?$allocator@D@2@@std@@I@0@AAU10@@Z
_TEXT	SEGMENT
__Arg$ = 8						; size = 4
??$forward@U?$pair@$$CBV?$basic_string@DU?$char_traits@D@std@@V?$allocator@D@2@@std@@I@std@@@std@@YA$$QAU?$pair@$$CBV?$basic_string@DU?$char_traits@D@std@@V?$allocator@D@2@@std@@I@0@AAU10@@Z PROC ; std::forward<std::pair<std::basic_string<char,std::char_traits<char>,std::allocator<char> > const ,unsigned int> >, COMDAT
; File c:\program files (x86)\microsoft visual studio 10.0\vc\include\utility
; Line 78
	push	ebp
	mov	ebp, esp
; Line 79
	mov	eax, DWORD PTR __Arg$[ebp]
; Line 80
	pop	ebp
	ret	0
??$forward@U?$pair@$$CBV?$basic_string@DU?$char_traits@D@std@@V?$allocator@D@2@@std@@I@std@@@std@@YA$$QAU?$pair@$$CBV?$basic_string@DU?$char_traits@D@std@@V?$allocator@D@2@@std@@I@0@AAU10@@Z ENDP ; std::forward<std::pair<std::basic_string<char,std::char_traits<char>,std::allocator<char> > const ,unsigned int> >
_TEXT	ENDS
PUBLIC	??$forward@U?$pair@$$CBIPAVManagedItem@@@std@@@std@@YA$$QAU?$pair@$$CBIPAVManagedItem@@@0@AAU10@@Z ; std::forward<std::pair<unsigned int const ,ManagedItem *> >
; Function compile flags: /Ogtp
;	COMDAT ??$forward@U?$pair@$$CBIPAVManagedItem@@@std@@@std@@YA$$QAU?$pair@$$CBIPAVManagedItem@@@0@AAU10@@Z
_TEXT	SEGMENT
__Arg$ = 8						; size = 4
??$forward@U?$pair@$$CBIPAVManagedItem@@@std@@@std@@YA$$QAU?$pair@$$CBIPAVManagedItem@@@0@AAU10@@Z PROC ; std::forward<std::pair<unsigned int const ,ManagedItem *> >, COMDAT
; Line 78
	push	ebp
	mov	ebp, esp
; Line 79
	mov	eax, DWORD PTR __Arg$[ebp]
; Line 80
	pop	ebp
	ret	0
??$forward@U?$pair@$$CBIPAVManagedItem@@@std@@@std@@YA$$QAU?$pair@$$CBIPAVManagedItem@@@0@AAU10@@Z ENDP ; std::forward<std::pair<unsigned int const ,ManagedItem *> >
_TEXT	ENDS
PUBLIC	??$_Move@AAD@std@@YA$$QADAAD@Z			; std::_Move<char &>
; Function compile flags: /Ogtp
;	COMDAT ??$_Move@AAD@std@@YA$$QADAAD@Z
_TEXT	SEGMENT
__Arg$ = 8						; size = 4
??$_Move@AAD@std@@YA$$QADAAD@Z PROC			; std::_Move<char &>, COMDAT
; Line 94
	push	ebp
	mov	ebp, esp
; Line 95
	mov	eax, DWORD PTR __Arg$[ebp]
; Line 96
	pop	ebp
	ret	0
??$_Move@AAD@std@@YA$$QADAAD@Z ENDP			; std::_Move<char &>
_TEXT	ENDS
PUBLIC	??$_Destroy@U?$pair@$$CBIPAVManagedItem@@@std@@@std@@YAXPAU?$pair@$$CBIPAVManagedItem@@@0@@Z ; std::_Destroy<std::pair<unsigned int const ,ManagedItem *> >
; Function compile flags: /Ogtp
;	COMDAT ??$_Destroy@U?$pair@$$CBIPAVManagedItem@@@std@@@std@@YAXPAU?$pair@$$CBIPAVManagedItem@@@0@@Z
_TEXT	SEGMENT
__Ptr$ = 8						; size = 4
??$_Destroy@U?$pair@$$CBIPAVManagedItem@@@std@@@std@@YAXPAU?$pair@$$CBIPAVManagedItem@@@0@@Z PROC ; std::_Destroy<std::pair<unsigned int const ,ManagedItem *> >, COMDAT
; File c:\program files (x86)\microsoft visual studio 10.0\vc\include\xmemory
; Line 64
	ret	0
??$_Destroy@U?$pair@$$CBIPAVManagedItem@@@std@@@std@@YAXPAU?$pair@$$CBIPAVManagedItem@@@0@@Z ENDP ; std::_Destroy<std::pair<unsigned int const ,ManagedItem *> >
_TEXT	ENDS
PUBLIC	??$move@AA_N@std@@YA$$QA_NAA_N@Z		; std::move<bool &>
; Function compile flags: /Ogtp
;	COMDAT ??$move@AA_N@std@@YA$$QA_NAA_N@Z
_TEXT	SEGMENT
__Arg$ = 8						; size = 4
??$move@AA_N@std@@YA$$QA_NAA_N@Z PROC			; std::move<bool &>, COMDAT
; File c:\program files (x86)\microsoft visual studio 10.0\vc\include\utility
; Line 86
	push	ebp
	mov	ebp, esp
; Line 87
	mov	eax, DWORD PTR __Arg$[ebp]
; Line 88
	pop	ebp
	ret	0
??$move@AA_N@std@@YA$$QA_NAA_N@Z ENDP			; std::move<bool &>
_TEXT	ENDS
PUBLIC	??$move@AAV?$_Tree_iterator@V?$_Tree_val@V?$_Tmap_traits@V?$basic_string@DU?$char_traits@D@std@@V?$allocator@D@2@@std@@IU?$less@V?$basic_string@DU?$char_traits@D@std@@V?$allocator@D@2@@std@@@2@V?$allocator@U?$pair@$$CBV?$basic_string@DU?$char_traits@D@std@@V?$allocator@D@2@@std@@I@std@@@2@$0A@@std@@@std@@@std@@@std@@YA$$QAV?$_Tree_iterator@V?$_Tree_val@V?$_Tmap_traits@V?$basic_string@DU?$char_traits@D@std@@V?$allocator@D@2@@std@@IU?$less@V?$basic_string@DU?$char_traits@D@std@@V?$allocator@D@2@@std@@@2@V?$allocator@U?$pair@$$CBV?$basic_string@DU?$char_traits@D@std@@V?$allocator@D@2@@std@@I@std@@@2@$0A@@std@@@std@@@0@AAV10@@Z ; std::move<std::_Tree_iterator<std::_Tree_val<std::_Tmap_traits<std::basic_string<char,std::char_traits<char>,std::allocator<char> >,unsigned int,std::less<std::basic_string<char,std::char_traits<char>,std::allocator<char> > >,std::allocator<std::pair<std::basic_string<char,std::char_traits<char>,std::allocator<char> > const ,unsigned int> >,0> > > &>
; Function compile flags: /Ogtp
;	COMDAT ??$move@AAV?$_Tree_iterator@V?$_Tree_val@V?$_Tmap_traits@V?$basic_string@DU?$char_traits@D@std@@V?$allocator@D@2@@std@@IU?$less@V?$basic_string@DU?$char_traits@D@std@@V?$allocator@D@2@@std@@@2@V?$allocator@U?$pair@$$CBV?$basic_string@DU?$char_traits@D@std@@V?$allocator@D@2@@std@@I@std@@@2@$0A@@std@@@std@@@std@@@std@@YA$$QAV?$_Tree_iterator@V?$_Tree_val@V?$_Tmap_traits@V?$basic_string@DU?$char_traits@D@std@@V?$allocator@D@2@@std@@IU?$less@V?$basic_string@DU?$char_traits@D@std@@V?$allocator@D@2@@std@@@2@V?$allocator@U?$pair@$$CBV?$basic_string@DU?$char_traits@D@std@@V?$allocator@D@2@@std@@I@std@@@2@$0A@@std@@@std@@@0@AAV10@@Z
_TEXT	SEGMENT
__Arg$ = 8						; size = 4
??$move@AAV?$_Tree_iterator@V?$_Tree_val@V?$_Tmap_traits@V?$basic_string@DU?$char_traits@D@std@@V?$allocator@D@2@@std@@IU?$less@V?$basic_string@DU?$char_traits@D@std@@V?$allocator@D@2@@std@@@2@V?$allocator@U?$pair@$$CBV?$basic_string@DU?$char_traits@D@std@@V?$allocator@D@2@@std@@I@std@@@2@$0A@@std@@@std@@@std@@@std@@YA$$QAV?$_Tree_iterator@V?$_Tree_val@V?$_Tmap_traits@V?$basic_string@DU?$char_traits@D@std@@V?$allocator@D@2@@std@@IU?$less@V?$basic_string@DU?$char_traits@D@std@@V?$allocator@D@2@@std@@@2@V?$allocator@U?$pair@$$CBV?$basic_string@DU?$char_traits@D@std@@V?$allocator@D@2@@std@@I@std@@@2@$0A@@std@@@std@@@0@AAV10@@Z PROC ; std::move<std::_Tree_iterator<std::_Tree_val<std::_Tmap_traits<std::basic_string<char,std::char_traits<char>,std::allocator<char> >,unsigned int,std::less<std::basic_string<char,std::char_traits<char>,std::allocator<char> > >,std::allocator<std::pair<std::basic_string<char,std::char_traits<char>,std::allocator<char> > const ,unsigned int> >,0> > > &>, COMDAT
; Line 86
	push	ebp
	mov	ebp, esp
; Line 87
	mov	eax, DWORD PTR __Arg$[ebp]
; Line 88
	pop	ebp
	ret	0
??$move@AAV?$_Tree_iterator@V?$_Tree_val@V?$_Tmap_traits@V?$basic_string@DU?$char_traits@D@std@@V?$allocator@D@2@@std@@IU?$less@V?$basic_string@DU?$char_traits@D@std@@V?$allocator@D@2@@std@@@2@V?$allocator@U?$pair@$$CBV?$basic_string@DU?$char_traits@D@std@@V?$allocator@D@2@@std@@I@std@@@2@$0A@@std@@@std@@@std@@@std@@YA$$QAV?$_Tree_iterator@V?$_Tree_val@V?$_Tmap_traits@V?$basic_string@DU?$char_traits@D@std@@V?$allocator@D@2@@std@@IU?$less@V?$basic_string@DU?$char_traits@D@std@@V?$allocator@D@2@@std@@@2@V?$allocator@U?$pair@$$CBV?$basic_string@DU?$char_traits@D@std@@V?$allocator@D@2@@std@@I@std@@@2@$0A@@std@@@std@@@0@AAV10@@Z ENDP ; std::move<std::_Tree_iterator<std::_Tree_val<std::_Tmap_traits<std::basic_string<char,std::char_traits<char>,std::allocator<char> >,unsigned int,std::less<std::basic_string<char,std::char_traits<char>,std::allocator<char> > >,std::allocator<std::pair<std::basic_string<char,std::char_traits<char>,std::allocator<char> > const ,unsigned int> >,0> > > &>
_TEXT	ENDS
PUBLIC	??$move@AAV?$_Tree_iterator@V?$_Tree_val@V?$_Tmap_traits@IPAVManagedItem@@U?$less@I@std@@V?$allocator@U?$pair@$$CBIPAVManagedItem@@@std@@@3@$0A@@std@@@std@@@std@@@std@@YA$$QAV?$_Tree_iterator@V?$_Tree_val@V?$_Tmap_traits@IPAVManagedItem@@U?$less@I@std@@V?$allocator@U?$pair@$$CBIPAVManagedItem@@@std@@@3@$0A@@std@@@std@@@0@AAV10@@Z ; std::move<std::_Tree_iterator<std::_Tree_val<std::_Tmap_traits<unsigned int,ManagedItem *,std::less<unsigned int>,std::allocator<std::pair<unsigned int const ,ManagedItem *> >,0> > > &>
; Function compile flags: /Ogtp
;	COMDAT ??$move@AAV?$_Tree_iterator@V?$_Tree_val@V?$_Tmap_traits@IPAVManagedItem@@U?$less@I@std@@V?$allocator@U?$pair@$$CBIPAVManagedItem@@@std@@@3@$0A@@std@@@std@@@std@@@std@@YA$$QAV?$_Tree_iterator@V?$_Tree_val@V?$_Tmap_traits@IPAVManagedItem@@U?$less@I@std@@V?$allocator@U?$pair@$$CBIPAVManagedItem@@@std@@@3@$0A@@std@@@std@@@0@AAV10@@Z
_TEXT	SEGMENT
__Arg$ = 8						; size = 4
??$move@AAV?$_Tree_iterator@V?$_Tree_val@V?$_Tmap_traits@IPAVManagedItem@@U?$less@I@std@@V?$allocator@U?$pair@$$CBIPAVManagedItem@@@std@@@3@$0A@@std@@@std@@@std@@@std@@YA$$QAV?$_Tree_iterator@V?$_Tree_val@V?$_Tmap_traits@IPAVManagedItem@@U?$less@I@std@@V?$allocator@U?$pair@$$CBIPAVManagedItem@@@std@@@3@$0A@@std@@@std@@@0@AAV10@@Z PROC ; std::move<std::_Tree_iterator<std::_Tree_val<std::_Tmap_traits<unsigned int,ManagedItem *,std::less<unsigned int>,std::allocator<std::pair<unsigned int const ,ManagedItem *> >,0> > > &>, COMDAT
; Line 86
	push	ebp
	mov	ebp, esp
; Line 87
	mov	eax, DWORD PTR __Arg$[ebp]
; Line 88
	pop	ebp
	ret	0
??$move@AAV?$_Tree_iterator@V?$_Tree_val@V?$_Tmap_traits@IPAVManagedItem@@U?$less@I@std@@V?$allocator@U?$pair@$$CBIPAVManagedItem@@@std@@@3@$0A@@std@@@std@@@std@@@std@@YA$$QAV?$_Tree_iterator@V?$_Tree_val@V?$_Tmap_traits@IPAVManagedItem@@U?$less@I@std@@V?$allocator@U?$pair@$$CBIPAVManagedItem@@@std@@@3@$0A@@std@@@std@@@0@AAV10@@Z ENDP ; std::move<std::_Tree_iterator<std::_Tree_val<std::_Tmap_traits<unsigned int,ManagedItem *,std::less<unsigned int>,std::allocator<std::pair<unsigned int const ,ManagedItem *> >,0> > > &>
_TEXT	ENDS
PUBLIC	?_Unchecked@?$_String_iterator@DU?$char_traits@D@std@@V?$allocator@D@2@@std@@QBEPADXZ ; std::_String_iterator<char,std::char_traits<char>,std::allocator<char> >::_Unchecked
; Function compile flags: /Ogtp
;	COMDAT ?_Unchecked@?$_String_iterator@DU?$char_traits@D@std@@V?$allocator@D@2@@std@@QBEPADXZ
_TEXT	SEGMENT
?_Unchecked@?$_String_iterator@DU?$char_traits@D@std@@V?$allocator@D@2@@std@@QBEPADXZ PROC ; std::_String_iterator<char,std::char_traits<char>,std::allocator<char> >::_Unchecked, COMDAT
; _this$ = ecx
; File c:\program files (x86)\microsoft visual studio 10.0\vc\include\xstring
; Line 338
	mov	eax, DWORD PTR [ecx]
; Line 339
	ret	0
?_Unchecked@?$_String_iterator@DU?$char_traits@D@std@@V?$allocator@D@2@@std@@QBEPADXZ ENDP ; std::_String_iterator<char,std::char_traits<char>,std::allocator<char> >::_Unchecked
_TEXT	ENDS
PUBLIC	??D?$_String_const_iterator@DU?$char_traits@D@std@@V?$allocator@D@2@@std@@QBEABDXZ ; std::_String_const_iterator<char,std::char_traits<char>,std::allocator<char> >::operator*
; Function compile flags: /Ogtp
;	COMDAT ??D?$_String_const_iterator@DU?$char_traits@D@std@@V?$allocator@D@2@@std@@QBEABDXZ
_TEXT	SEGMENT
??D?$_String_const_iterator@DU?$char_traits@D@std@@V?$allocator@D@2@@std@@QBEABDXZ PROC ; std::_String_const_iterator<char,std::char_traits<char>,std::allocator<char> >::operator*, COMDAT
; _this$ = ecx
; Line 92
	mov	eax, DWORD PTR [ecx]
; Line 93
	ret	0
??D?$_String_const_iterator@DU?$char_traits@D@std@@V?$allocator@D@2@@std@@QBEABDXZ ENDP ; std::_String_const_iterator<char,std::char_traits<char>,std::allocator<char> >::operator*
_TEXT	ENDS
PUBLIC	??E?$_String_const_iterator@DU?$char_traits@D@std@@V?$allocator@D@2@@std@@QAEAAV01@XZ ; std::_String_const_iterator<char,std::char_traits<char>,std::allocator<char> >::operator++
; Function compile flags: /Ogtp
;	COMDAT ??E?$_String_const_iterator@DU?$char_traits@D@std@@V?$allocator@D@2@@std@@QAEAAV01@XZ
_TEXT	SEGMENT
??E?$_String_const_iterator@DU?$char_traits@D@std@@V?$allocator@D@2@@std@@QAEAAV01@XZ PROC ; std::_String_const_iterator<char,std::char_traits<char>,std::allocator<char> >::operator++, COMDAT
; _this$ = ecx
; Line 101
	mov	eax, ecx
; Line 119
	inc	DWORD PTR [eax]
; Line 121
	ret	0
??E?$_String_const_iterator@DU?$char_traits@D@std@@V?$allocator@D@2@@std@@QAEAAV01@XZ ENDP ; std::_String_const_iterator<char,std::char_traits<char>,std::allocator<char> >::operator++
_TEXT	ENDS
PUBLIC	??$forward@_N@std@@YA$$QA_NAA_N@Z		; std::forward<bool>
; Function compile flags: /Ogtp
;	COMDAT ??$forward@_N@std@@YA$$QA_NAA_N@Z
_TEXT	SEGMENT
__Arg$ = 8						; size = 4
??$forward@_N@std@@YA$$QA_NAA_N@Z PROC			; std::forward<bool>, COMDAT
; File c:\program files (x86)\microsoft visual studio 10.0\vc\include\utility
; Line 78
	push	ebp
	mov	ebp, esp
; Line 79
	mov	eax, DWORD PTR __Arg$[ebp]
; Line 80
	pop	ebp
	ret	0
??$forward@_N@std@@YA$$QA_NAA_N@Z ENDP			; std::forward<bool>
_TEXT	ENDS
PUBLIC	??$forward@AAV?$_Tree_iterator@V?$_Tree_val@V?$_Tmap_traits@V?$basic_string@DU?$char_traits@D@std@@V?$allocator@D@2@@std@@IU?$less@V?$basic_string@DU?$char_traits@D@std@@V?$allocator@D@2@@std@@@2@V?$allocator@U?$pair@$$CBV?$basic_string@DU?$char_traits@D@std@@V?$allocator@D@2@@std@@I@std@@@2@$0A@@std@@@std@@@std@@@std@@YAAAV?$_Tree_iterator@V?$_Tree_val@V?$_Tmap_traits@V?$basic_string@DU?$char_traits@D@std@@V?$allocator@D@2@@std@@IU?$less@V?$basic_string@DU?$char_traits@D@std@@V?$allocator@D@2@@std@@@2@V?$allocator@U?$pair@$$CBV?$basic_string@DU?$char_traits@D@std@@V?$allocator@D@2@@std@@I@std@@@2@$0A@@std@@@std@@@0@AAV10@@Z ; std::forward<std::_Tree_iterator<std::_Tree_val<std::_Tmap_traits<std::basic_string<char,std::char_traits<char>,std::allocator<char> >,unsigned int,std::less<std::basic_string<char,std::char_traits<char>,std::allocator<char> > >,std::allocator<std::pair<std::basic_string<char,std::char_traits<char>,std::allocator<char> > const ,unsigned int> >,0> > > &>
; Function compile flags: /Ogtp
;	COMDAT ??$forward@AAV?$_Tree_iterator@V?$_Tree_val@V?$_Tmap_traits@V?$basic_string@DU?$char_traits@D@std@@V?$allocator@D@2@@std@@IU?$less@V?$basic_string@DU?$char_traits@D@std@@V?$allocator@D@2@@std@@@2@V?$allocator@U?$pair@$$CBV?$basic_string@DU?$char_traits@D@std@@V?$allocator@D@2@@std@@I@std@@@2@$0A@@std@@@std@@@std@@@std@@YAAAV?$_Tree_iterator@V?$_Tree_val@V?$_Tmap_traits@V?$basic_string@DU?$char_traits@D@std@@V?$allocator@D@2@@std@@IU?$less@V?$basic_string@DU?$char_traits@D@std@@V?$allocator@D@2@@std@@@2@V?$allocator@U?$pair@$$CBV?$basic_string@DU?$char_traits@D@std@@V?$allocator@D@2@@std@@I@std@@@2@$0A@@std@@@std@@@0@AAV10@@Z
_TEXT	SEGMENT
__Arg$ = 8						; size = 4
??$forward@AAV?$_Tree_iterator@V?$_Tree_val@V?$_Tmap_traits@V?$basic_string@DU?$char_traits@D@std@@V?$allocator@D@2@@std@@IU?$less@V?$basic_string@DU?$char_traits@D@std@@V?$allocator@D@2@@std@@@2@V?$allocator@U?$pair@$$CBV?$basic_string@DU?$char_traits@D@std@@V?$allocator@D@2@@std@@I@std@@@2@$0A@@std@@@std@@@std@@@std@@YAAAV?$_Tree_iterator@V?$_Tree_val@V?$_Tmap_traits@V?$basic_string@DU?$char_traits@D@std@@V?$allocator@D@2@@std@@IU?$less@V?$basic_string@DU?$char_traits@D@std@@V?$allocator@D@2@@std@@@2@V?$allocator@U?$pair@$$CBV?$basic_string@DU?$char_traits@D@std@@V?$allocator@D@2@@std@@I@std@@@2@$0A@@std@@@std@@@0@AAV10@@Z PROC ; std::forward<std::_Tree_iterator<std::_Tree_val<std::_Tmap_traits<std::basic_string<char,std::char_traits<char>,std::allocator<char> >,unsigned int,std::less<std::basic_string<char,std::char_traits<char>,std::allocator<char> > >,std::allocator<std::pair<std::basic_string<char,std::char_traits<char>,std::allocator<char> > const ,unsigned int> >,0> > > &>, COMDAT
; Line 78
	push	ebp
	mov	ebp, esp
; Line 79
	mov	eax, DWORD PTR __Arg$[ebp]
; Line 80
	pop	ebp
	ret	0
??$forward@AAV?$_Tree_iterator@V?$_Tree_val@V?$_Tmap_traits@V?$basic_string@DU?$char_traits@D@std@@V?$allocator@D@2@@std@@IU?$less@V?$basic_string@DU?$char_traits@D@std@@V?$allocator@D@2@@std@@@2@V?$allocator@U?$pair@$$CBV?$basic_string@DU?$char_traits@D@std@@V?$allocator@D@2@@std@@I@std@@@2@$0A@@std@@@std@@@std@@@std@@YAAAV?$_Tree_iterator@V?$_Tree_val@V?$_Tmap_traits@V?$basic_string@DU?$char_traits@D@std@@V?$allocator@D@2@@std@@IU?$less@V?$basic_string@DU?$char_traits@D@std@@V?$allocator@D@2@@std@@@2@V?$allocator@U?$pair@$$CBV?$basic_string@DU?$char_traits@D@std@@V?$allocator@D@2@@std@@I@std@@@2@$0A@@std@@@std@@@0@AAV10@@Z ENDP ; std::forward<std::_Tree_iterator<std::_Tree_val<std::_Tmap_traits<std::basic_string<char,std::char_traits<char>,std::allocator<char> >,unsigned int,std::less<std::basic_string<char,std::char_traits<char>,std::allocator<char> > >,std::allocator<std::pair<std::basic_string<char,std::char_traits<char>,std::allocator<char> > const ,unsigned int> >,0> > > &>
_TEXT	ENDS
PUBLIC	??$?0AAV?$_Tree_iterator@V?$_Tree_val@V?$_Tmap_traits@V?$basic_string@DU?$char_traits@D@std@@V?$allocator@D@2@@std@@IU?$less@V?$basic_string@DU?$char_traits@D@std@@V?$allocator@D@2@@std@@@2@V?$allocator@U?$pair@$$CBV?$basic_string@DU?$char_traits@D@std@@V?$allocator@D@2@@std@@I@std@@@2@$0A@@std@@@std@@@std@@_N@?$_Pair_base@V?$_Tree_iterator@V?$_Tree_val@V?$_Tmap_traits@V?$basic_string@DU?$char_traits@D@std@@V?$allocator@D@2@@std@@IU?$less@V?$basic_string@DU?$char_traits@D@std@@V?$allocator@D@2@@std@@@2@V?$allocator@U?$pair@$$CBV?$basic_string@DU?$char_traits@D@std@@V?$allocator@D@2@@std@@I@std@@@2@$0A@@std@@@std@@@std@@_N@std@@QAE@AAV?$_Tree_iterator@V?$_Tree_val@V?$_Tmap_traits@V?$basic_string@DU?$char_traits@D@std@@V?$allocator@D@2@@std@@IU?$less@V?$basic_string@DU?$char_traits@D@std@@V?$allocator@D@2@@std@@@2@V?$allocator@U?$pair@$$CBV?$basic_string@DU?$char_traits@D@std@@V?$allocator@D@2@@std@@I@std@@@2@$0A@@std@@@std@@@1@$$QA_N@Z ; std::_Pair_base<std::_Tree_iterator<std::_Tree_val<std::_Tmap_traits<std::basic_string<char,std::char_traits<char>,std::allocator<char> >,unsigned int,std::less<std::basic_string<char,std::char_traits<char>,std::allocator<char> > >,std::allocator<std::pair<std::basic_string<char,std::char_traits<char>,std::allocator<char> > const ,unsigned int> >,0> > >,bool>::_Pair_base<std::_Tree_iterator<std::_Tree_val<std::_Tmap_traits<std::basic_string<char,std::char_traits<char>,std::allocator<char> >,unsigned int,std::less<std::basic_string<char,std::char_traits<char>,std::allocator<char> > >,std::allocator<std::pair<std::basic_string<char,std::char_traits<char>,std::allocator<char> > const ,unsigned int> >,0> > >,bool><std::_Tree_iterator<std::_Tree_val<std::_Tmap_traits<std::basic_string<char,std::char_traits<char>,std::allocator<char> >,unsigned int,std::less<std::basic_string<char,std::char_traits<char>,std::allocator<char> > >,std::allocator<std::pair<std::basic_string<char,std::char_traits<char>,std::allocator<char> > const ,unsigned int> >,0> > > &,bool>
; Function compile flags: /Ogtp
;	COMDAT ??$?0AAV?$_Tree_iterator@V?$_Tree_val@V?$_Tmap_traits@V?$basic_string@DU?$char_traits@D@std@@V?$allocator@D@2@@std@@IU?$less@V?$basic_string@DU?$char_traits@D@std@@V?$allocator@D@2@@std@@@2@V?$allocator@U?$pair@$$CBV?$basic_string@DU?$char_traits@D@std@@V?$allocator@D@2@@std@@I@std@@@2@$0A@@std@@@std@@@std@@_N@?$_Pair_base@V?$_Tree_iterator@V?$_Tree_val@V?$_Tmap_traits@V?$basic_string@DU?$char_traits@D@std@@V?$allocator@D@2@@std@@IU?$less@V?$basic_string@DU?$char_traits@D@std@@V?$allocator@D@2@@std@@@2@V?$allocator@U?$pair@$$CBV?$basic_string@DU?$char_traits@D@std@@V?$allocator@D@2@@std@@I@std@@@2@$0A@@std@@@std@@@std@@_N@std@@QAE@AAV?$_Tree_iterator@V?$_Tree_val@V?$_Tmap_traits@V?$basic_string@DU?$char_traits@D@std@@V?$allocator@D@2@@std@@IU?$less@V?$basic_string@DU?$char_traits@D@std@@V?$allocator@D@2@@std@@@2@V?$allocator@U?$pair@$$CBV?$basic_string@DU?$char_traits@D@std@@V?$allocator@D@2@@std@@I@std@@@2@$0A@@std@@@std@@@1@$$QA_N@Z
_TEXT	SEGMENT
__Val1$ = 8						; size = 4
__Val2$ = 12						; size = 4
??$?0AAV?$_Tree_iterator@V?$_Tree_val@V?$_Tmap_traits@V?$basic_string@DU?$char_traits@D@std@@V?$allocator@D@2@@std@@IU?$less@V?$basic_string@DU?$char_traits@D@std@@V?$allocator@D@2@@std@@@2@V?$allocator@U?$pair@$$CBV?$basic_string@DU?$char_traits@D@std@@V?$allocator@D@2@@std@@I@std@@@2@$0A@@std@@@std@@@std@@_N@?$_Pair_base@V?$_Tree_iterator@V?$_Tree_val@V?$_Tmap_traits@V?$basic_string@DU?$char_traits@D@std@@V?$allocator@D@2@@std@@IU?$less@V?$basic_string@DU?$char_traits@D@std@@V?$allocator@D@2@@std@@@2@V?$allocator@U?$pair@$$CBV?$basic_string@DU?$char_traits@D@std@@V?$allocator@D@2@@std@@I@std@@@2@$0A@@std@@@std@@@std@@_N@std@@QAE@AAV?$_Tree_iterator@V?$_Tree_val@V?$_Tmap_traits@V?$basic_string@DU?$char_traits@D@std@@V?$allocator@D@2@@std@@IU?$less@V?$basic_string@DU?$char_traits@D@std@@V?$allocator@D@2@@std@@@2@V?$allocator@U?$pair@$$CBV?$basic_string@DU?$char_traits@D@std@@V?$allocator@D@2@@std@@I@std@@@2@$0A@@std@@@std@@@1@$$QA_N@Z PROC ; std::_Pair_base<std::_Tree_iterator<std::_Tree_val<std::_Tmap_traits<std::basic_string<char,std::char_traits<char>,std::allocator<char> >,unsigned int,std::less<std::basic_string<char,std::char_traits<char>,std::allocator<char> > >,std::allocator<std::pair<std::basic_string<char,std::char_traits<char>,std::allocator<char> > const ,unsigned int> >,0> > >,bool>::_Pair_base<std::_Tree_iterator<std::_Tree_val<std::_Tmap_traits<std::basic_string<char,std::char_traits<char>,std::allocator<char> >,unsigned int,std::less<std::basic_string<char,std::char_traits<char>,std::allocator<char> > >,std::allocator<std::pair<std::basic_string<char,std::char_traits<char>,std::allocator<char> > const ,unsigned int> >,0> > >,bool><std::_Tree_iterator<std::_Tree_val<std::_Tmap_traits<std::basic_string<char,std::char_traits<char>,std::allocator<char> >,unsigned int,std::less<std::basic_string<char,std::char_traits<char>,std::allocator<char> > >,std::allocator<std::pair<std::basic_string<char,std::char_traits<char>,std::allocator<char> > const ,unsigned int> >,0> > > &,bool>, COMDAT
; _this$ = ecx
; Line 163
	push	ebp
	mov	ebp, esp
	mov	eax, ecx
	mov	ecx, DWORD PTR __Val1$[ebp]
	mov	edx, DWORD PTR [ecx]
	mov	ecx, DWORD PTR __Val2$[ebp]
	mov	DWORD PTR [eax], edx
	mov	dl, BYTE PTR [ecx]
	mov	BYTE PTR [eax+4], dl
; Line 164
	pop	ebp
	ret	8
??$?0AAV?$_Tree_iterator@V?$_Tree_val@V?$_Tmap_traits@V?$basic_string@DU?$char_traits@D@std@@V?$allocator@D@2@@std@@IU?$less@V?$basic_string@DU?$char_traits@D@std@@V?$allocator@D@2@@std@@@2@V?$allocator@U?$pair@$$CBV?$basic_string@DU?$char_traits@D@std@@V?$allocator@D@2@@std@@I@std@@@2@$0A@@std@@@std@@@std@@_N@?$_Pair_base@V?$_Tree_iterator@V?$_Tree_val@V?$_Tmap_traits@V?$basic_string@DU?$char_traits@D@std@@V?$allocator@D@2@@std@@IU?$less@V?$basic_string@DU?$char_traits@D@std@@V?$allocator@D@2@@std@@@2@V?$allocator@U?$pair@$$CBV?$basic_string@DU?$char_traits@D@std@@V?$allocator@D@2@@std@@I@std@@@2@$0A@@std@@@std@@@std@@_N@std@@QAE@AAV?$_Tree_iterator@V?$_Tree_val@V?$_Tmap_traits@V?$basic_string@DU?$char_traits@D@std@@V?$allocator@D@2@@std@@IU?$less@V?$basic_string@DU?$char_traits@D@std@@V?$allocator@D@2@@std@@@2@V?$allocator@U?$pair@$$CBV?$basic_string@DU?$char_traits@D@std@@V?$allocator@D@2@@std@@I@std@@@2@$0A@@std@@@std@@@1@$$QA_N@Z ENDP ; std::_Pair_base<std::_Tree_iterator<std::_Tree_val<std::_Tmap_traits<std::basic_string<char,std::char_traits<char>,std::allocator<char> >,unsigned int,std::less<std::basic_string<char,std::char_traits<char>,std::allocator<char> > >,std::allocator<std::pair<std::basic_string<char,std::char_traits<char>,std::allocator<char> > const ,unsigned int> >,0> > >,bool>::_Pair_base<std::_Tree_iterator<std::_Tree_val<std::_Tmap_traits<std::basic_string<char,std::char_traits<char>,std::allocator<char> >,unsigned int,std::less<std::basic_string<char,std::char_traits<char>,std::allocator<char> > >,std::allocator<std::pair<std::basic_string<char,std::char_traits<char>,std::allocator<char> > const ,unsigned int> >,0> > >,bool><std::_Tree_iterator<std::_Tree_val<std::_Tmap_traits<std::basic_string<char,std::char_traits<char>,std::allocator<char> >,unsigned int,std::less<std::basic_string<char,std::char_traits<char>,std::allocator<char> > >,std::allocator<std::pair<std::basic_string<char,std::char_traits<char>,std::allocator<char> > const ,unsigned int> >,0> > > &,bool>
_TEXT	ENDS
PUBLIC	??$forward@AAV?$_Tree_iterator@V?$_Tree_val@V?$_Tmap_traits@IPAVManagedItem@@U?$less@I@std@@V?$allocator@U?$pair@$$CBIPAVManagedItem@@@std@@@3@$0A@@std@@@std@@@std@@@std@@YAAAV?$_Tree_iterator@V?$_Tree_val@V?$_Tmap_traits@IPAVManagedItem@@U?$less@I@std@@V?$allocator@U?$pair@$$CBIPAVManagedItem@@@std@@@3@$0A@@std@@@std@@@0@AAV10@@Z ; std::forward<std::_Tree_iterator<std::_Tree_val<std::_Tmap_traits<unsigned int,ManagedItem *,std::less<unsigned int>,std::allocator<std::pair<unsigned int const ,ManagedItem *> >,0> > > &>
; Function compile flags: /Ogtp
;	COMDAT ??$forward@AAV?$_Tree_iterator@V?$_Tree_val@V?$_Tmap_traits@IPAVManagedItem@@U?$less@I@std@@V?$allocator@U?$pair@$$CBIPAVManagedItem@@@std@@@3@$0A@@std@@@std@@@std@@@std@@YAAAV?$_Tree_iterator@V?$_Tree_val@V?$_Tmap_traits@IPAVManagedItem@@U?$less@I@std@@V?$allocator@U?$pair@$$CBIPAVManagedItem@@@std@@@3@$0A@@std@@@std@@@0@AAV10@@Z
_TEXT	SEGMENT
__Arg$ = 8						; size = 4
??$forward@AAV?$_Tree_iterator@V?$_Tree_val@V?$_Tmap_traits@IPAVManagedItem@@U?$less@I@std@@V?$allocator@U?$pair@$$CBIPAVManagedItem@@@std@@@3@$0A@@std@@@std@@@std@@@std@@YAAAV?$_Tree_iterator@V?$_Tree_val@V?$_Tmap_traits@IPAVManagedItem@@U?$less@I@std@@V?$allocator@U?$pair@$$CBIPAVManagedItem@@@std@@@3@$0A@@std@@@std@@@0@AAV10@@Z PROC ; std::forward<std::_Tree_iterator<std::_Tree_val<std::_Tmap_traits<unsigned int,ManagedItem *,std::less<unsigned int>,std::allocator<std::pair<unsigned int const ,ManagedItem *> >,0> > > &>, COMDAT
; Line 78
	push	ebp
	mov	ebp, esp
; Line 79
	mov	eax, DWORD PTR __Arg$[ebp]
; Line 80
	pop	ebp
	ret	0
??$forward@AAV?$_Tree_iterator@V?$_Tree_val@V?$_Tmap_traits@IPAVManagedItem@@U?$less@I@std@@V?$allocator@U?$pair@$$CBIPAVManagedItem@@@std@@@3@$0A@@std@@@std@@@std@@@std@@YAAAV?$_Tree_iterator@V?$_Tree_val@V?$_Tmap_traits@IPAVManagedItem@@U?$less@I@std@@V?$allocator@U?$pair@$$CBIPAVManagedItem@@@std@@@3@$0A@@std@@@std@@@0@AAV10@@Z ENDP ; std::forward<std::_Tree_iterator<std::_Tree_val<std::_Tmap_traits<unsigned int,ManagedItem *,std::less<unsigned int>,std::allocator<std::pair<unsigned int const ,ManagedItem *> >,0> > > &>
_TEXT	ENDS
PUBLIC	??$?0AAV?$_Tree_iterator@V?$_Tree_val@V?$_Tmap_traits@IPAVManagedItem@@U?$less@I@std@@V?$allocator@U?$pair@$$CBIPAVManagedItem@@@std@@@3@$0A@@std@@@std@@@std@@_N@?$_Pair_base@V?$_Tree_iterator@V?$_Tree_val@V?$_Tmap_traits@IPAVManagedItem@@U?$less@I@std@@V?$allocator@U?$pair@$$CBIPAVManagedItem@@@std@@@3@$0A@@std@@@std@@@std@@_N@std@@QAE@AAV?$_Tree_iterator@V?$_Tree_val@V?$_Tmap_traits@IPAVManagedItem@@U?$less@I@std@@V?$allocator@U?$pair@$$CBIPAVManagedItem@@@std@@@3@$0A@@std@@@std@@@1@$$QA_N@Z ; std::_Pair_base<std::_Tree_iterator<std::_Tree_val<std::_Tmap_traits<unsigned int,ManagedItem *,std::less<unsigned int>,std::allocator<std::pair<unsigned int const ,ManagedItem *> >,0> > >,bool>::_Pair_base<std::_Tree_iterator<std::_Tree_val<std::_Tmap_traits<unsigned int,ManagedItem *,std::less<unsigned int>,std::allocator<std::pair<unsigned int const ,ManagedItem *> >,0> > >,bool><std::_Tree_iterator<std::_Tree_val<std::_Tmap_traits<unsigned int,ManagedItem *,std::less<unsigned int>,std::allocator<std::pair<unsigned int const ,ManagedItem *> >,0> > > &,bool>
; Function compile flags: /Ogtp
;	COMDAT ??$?0AAV?$_Tree_iterator@V?$_Tree_val@V?$_Tmap_traits@IPAVManagedItem@@U?$less@I@std@@V?$allocator@U?$pair@$$CBIPAVManagedItem@@@std@@@3@$0A@@std@@@std@@@std@@_N@?$_Pair_base@V?$_Tree_iterator@V?$_Tree_val@V?$_Tmap_traits@IPAVManagedItem@@U?$less@I@std@@V?$allocator@U?$pair@$$CBIPAVManagedItem@@@std@@@3@$0A@@std@@@std@@@std@@_N@std@@QAE@AAV?$_Tree_iterator@V?$_Tree_val@V?$_Tmap_traits@IPAVManagedItem@@U?$less@I@std@@V?$allocator@U?$pair@$$CBIPAVManagedItem@@@std@@@3@$0A@@std@@@std@@@1@$$QA_N@Z
_TEXT	SEGMENT
__Val1$ = 8						; size = 4
__Val2$ = 12						; size = 4
??$?0AAV?$_Tree_iterator@V?$_Tree_val@V?$_Tmap_traits@IPAVManagedItem@@U?$less@I@std@@V?$allocator@U?$pair@$$CBIPAVManagedItem@@@std@@@3@$0A@@std@@@std@@@std@@_N@?$_Pair_base@V?$_Tree_iterator@V?$_Tree_val@V?$_Tmap_traits@IPAVManagedItem@@U?$less@I@std@@V?$allocator@U?$pair@$$CBIPAVManagedItem@@@std@@@3@$0A@@std@@@std@@@std@@_N@std@@QAE@AAV?$_Tree_iterator@V?$_Tree_val@V?$_Tmap_traits@IPAVManagedItem@@U?$less@I@std@@V?$allocator@U?$pair@$$CBIPAVManagedItem@@@std@@@3@$0A@@std@@@std@@@1@$$QA_N@Z PROC ; std::_Pair_base<std::_Tree_iterator<std::_Tree_val<std::_Tmap_traits<unsigned int,ManagedItem *,std::less<unsigned int>,std::allocator<std::pair<unsigned int const ,ManagedItem *> >,0> > >,bool>::_Pair_base<std::_Tree_iterator<std::_Tree_val<std::_Tmap_traits<unsigned int,ManagedItem *,std::less<unsigned int>,std::allocator<std::pair<unsigned int const ,ManagedItem *> >,0> > >,bool><std::_Tree_iterator<std::_Tree_val<std::_Tmap_traits<unsigned int,ManagedItem *,std::less<unsigned int>,std::allocator<std::pair<unsigned int const ,ManagedItem *> >,0> > > &,bool>, COMDAT
; _this$ = ecx
; Line 163
	push	ebp
	mov	ebp, esp
	mov	eax, ecx
	mov	ecx, DWORD PTR __Val1$[ebp]
	mov	edx, DWORD PTR [ecx]
	mov	ecx, DWORD PTR __Val2$[ebp]
	mov	DWORD PTR [eax], edx
	mov	dl, BYTE PTR [ecx]
	mov	BYTE PTR [eax+4], dl
; Line 164
	pop	ebp
	ret	8
??$?0AAV?$_Tree_iterator@V?$_Tree_val@V?$_Tmap_traits@IPAVManagedItem@@U?$less@I@std@@V?$allocator@U?$pair@$$CBIPAVManagedItem@@@std@@@3@$0A@@std@@@std@@@std@@_N@?$_Pair_base@V?$_Tree_iterator@V?$_Tree_val@V?$_Tmap_traits@IPAVManagedItem@@U?$less@I@std@@V?$allocator@U?$pair@$$CBIPAVManagedItem@@@std@@@3@$0A@@std@@@std@@@std@@_N@std@@QAE@AAV?$_Tree_iterator@V?$_Tree_val@V?$_Tmap_traits@IPAVManagedItem@@U?$less@I@std@@V?$allocator@U?$pair@$$CBIPAVManagedItem@@@std@@@3@$0A@@std@@@std@@@1@$$QA_N@Z ENDP ; std::_Pair_base<std::_Tree_iterator<std::_Tree_val<std::_Tmap_traits<unsigned int,ManagedItem *,std::less<unsigned int>,std::allocator<std::pair<unsigned int const ,ManagedItem *> >,0> > >,bool>::_Pair_base<std::_Tree_iterator<std::_Tree_val<std::_Tmap_traits<unsigned int,ManagedItem *,std::less<unsigned int>,std::allocator<std::pair<unsigned int const ,ManagedItem *> >,0> > >,bool><std::_Tree_iterator<std::_Tree_val<std::_Tmap_traits<unsigned int,ManagedItem *,std::less<unsigned int>,std::allocator<std::pair<unsigned int const ,ManagedItem *> >,0> > > &,bool>
_TEXT	ENDS
PUBLIC	??$forward@PAVManagedItem@@@std@@YA$$QAPAVManagedItem@@AAPAV1@@Z ; std::forward<ManagedItem *>
; Function compile flags: /Ogtp
;	COMDAT ??$forward@PAVManagedItem@@@std@@YA$$QAPAVManagedItem@@AAPAV1@@Z
_TEXT	SEGMENT
__Arg$ = 8						; size = 4
??$forward@PAVManagedItem@@@std@@YA$$QAPAVManagedItem@@AAPAV1@@Z PROC ; std::forward<ManagedItem *>, COMDAT
; Line 78
	push	ebp
	mov	ebp, esp
; Line 79
	mov	eax, DWORD PTR __Arg$[ebp]
; Line 80
	pop	ebp
	ret	0
??$forward@PAVManagedItem@@@std@@YA$$QAPAVManagedItem@@AAPAV1@@Z ENDP ; std::forward<ManagedItem *>
_TEXT	ENDS
PUBLIC	??$forward@$$CBV?$basic_string@DU?$char_traits@D@std@@V?$allocator@D@2@@std@@@std@@YA$$QBV?$basic_string@DU?$char_traits@D@std@@V?$allocator@D@2@@0@ABV10@@Z ; std::forward<std::basic_string<char,std::char_traits<char>,std::allocator<char> > const >
; Function compile flags: /Ogtp
;	COMDAT ??$forward@$$CBV?$basic_string@DU?$char_traits@D@std@@V?$allocator@D@2@@std@@@std@@YA$$QBV?$basic_string@DU?$char_traits@D@std@@V?$allocator@D@2@@0@ABV10@@Z
_TEXT	SEGMENT
__Arg$ = 8						; size = 4
??$forward@$$CBV?$basic_string@DU?$char_traits@D@std@@V?$allocator@D@2@@std@@@std@@YA$$QBV?$basic_string@DU?$char_traits@D@std@@V?$allocator@D@2@@0@ABV10@@Z PROC ; std::forward<std::basic_string<char,std::char_traits<char>,std::allocator<char> > const >, COMDAT
; Line 78
	push	ebp
	mov	ebp, esp
; Line 79
	mov	eax, DWORD PTR __Arg$[ebp]
; Line 80
	pop	ebp
	ret	0
??$forward@$$CBV?$basic_string@DU?$char_traits@D@std@@V?$allocator@D@2@@std@@@std@@YA$$QBV?$basic_string@DU?$char_traits@D@std@@V?$allocator@D@2@@0@ABV10@@Z ENDP ; std::forward<std::basic_string<char,std::char_traits<char>,std::allocator<char> > const >
_TEXT	ENDS
PUBLIC	??$forward@I@std@@YA$$QAIAAI@Z			; std::forward<unsigned int>
; Function compile flags: /Ogtp
;	COMDAT ??$forward@I@std@@YA$$QAIAAI@Z
_TEXT	SEGMENT
__Arg$ = 8						; size = 4
??$forward@I@std@@YA$$QAIAAI@Z PROC			; std::forward<unsigned int>, COMDAT
; Line 78
	push	ebp
	mov	ebp, esp
; Line 79
	mov	eax, DWORD PTR __Arg$[ebp]
; Line 80
	pop	ebp
	ret	0
??$forward@I@std@@YA$$QAIAAI@Z ENDP			; std::forward<unsigned int>
_TEXT	ENDS
PUBLIC	??$forward@$$CBI@std@@YA$$QBIABI@Z		; std::forward<unsigned int const >
; Function compile flags: /Ogtp
;	COMDAT ??$forward@$$CBI@std@@YA$$QBIABI@Z
_TEXT	SEGMENT
__Arg$ = 8						; size = 4
??$forward@$$CBI@std@@YA$$QBIABI@Z PROC			; std::forward<unsigned int const >, COMDAT
; Line 78
	push	ebp
	mov	ebp, esp
; Line 79
	mov	eax, DWORD PTR __Arg$[ebp]
; Line 80
	pop	ebp
	ret	0
??$forward@$$CBI@std@@YA$$QBIABI@Z ENDP			; std::forward<unsigned int const >
_TEXT	ENDS
PUBLIC	??$move@ABV?$basic_string@DU?$char_traits@D@std@@V?$allocator@D@2@@std@@@std@@YA$$QBV?$basic_string@DU?$char_traits@D@std@@V?$allocator@D@2@@0@ABV10@@Z ; std::move<std::basic_string<char,std::char_traits<char>,std::allocator<char> > const &>
; Function compile flags: /Ogtp
;	COMDAT ??$move@ABV?$basic_string@DU?$char_traits@D@std@@V?$allocator@D@2@@std@@@std@@YA$$QBV?$basic_string@DU?$char_traits@D@std@@V?$allocator@D@2@@0@ABV10@@Z
_TEXT	SEGMENT
__Arg$ = 8						; size = 4
??$move@ABV?$basic_string@DU?$char_traits@D@std@@V?$allocator@D@2@@std@@@std@@YA$$QBV?$basic_string@DU?$char_traits@D@std@@V?$allocator@D@2@@0@ABV10@@Z PROC ; std::move<std::basic_string<char,std::char_traits<char>,std::allocator<char> > const &>, COMDAT
; Line 86
	push	ebp
	mov	ebp, esp
; Line 87
	mov	eax, DWORD PTR __Arg$[ebp]
; Line 88
	pop	ebp
	ret	0
??$move@ABV?$basic_string@DU?$char_traits@D@std@@V?$allocator@D@2@@std@@@std@@YA$$QBV?$basic_string@DU?$char_traits@D@std@@V?$allocator@D@2@@0@ABV10@@Z ENDP ; std::move<std::basic_string<char,std::char_traits<char>,std::allocator<char> > const &>
_TEXT	ENDS
PUBLIC	??$move@ABI@std@@YA$$QBIABI@Z			; std::move<unsigned int const &>
; Function compile flags: /Ogtp
;	COMDAT ??$move@ABI@std@@YA$$QBIABI@Z
_TEXT	SEGMENT
__Arg$ = 8						; size = 4
??$move@ABI@std@@YA$$QBIABI@Z PROC			; std::move<unsigned int const &>, COMDAT
; Line 86
	push	ebp
	mov	ebp, esp
; Line 87
	mov	eax, DWORD PTR __Arg$[ebp]
; Line 88
	pop	ebp
	ret	0
??$move@ABI@std@@YA$$QBIABI@Z ENDP			; std::move<unsigned int const &>
_TEXT	ENDS
PUBLIC	?init@Video@@QAEXHH_N@Z				; Video::init
EXTRN	__imp__glEnableClientState@4:PROC
EXTRN	__imp__exit:PROC
EXTRN	__imp__printf:PROC
EXTRN	_SDL_GetError:PROC
EXTRN	_SDL_SetVideoMode:PROC
EXTRN	_SDL_GL_SetAttribute:PROC
EXTRN	_SDL_Init:PROC
; Function compile flags: /Ogtp
_TEXT	SEGMENT
tv212 = 8						; size = 4
_xres$ = 8						; size = 4
_yres$ = 12						; size = 4
tv209 = 16						; size = 4
_fullscreen$ = 16					; size = 1
?init@Video@@QAEXHH_N@Z PROC				; Video::init
; _this$ = ecx
; File c:\programovani\wow editor\test\src\editor\video.cpp
; Line 133
	push	ebp
	mov	ebp, esp
	push	ebx
	push	esi
	push	edi
; Line 134
	push	33					; 00000021H
	mov	esi, ecx
	call	_SDL_Init
	add	esp, 4
; Line 136
	cmp	BYTE PTR _fullscreen$[ebp], 0
	mov	DWORD PTR [esi+4], 1342177299		; 50000013H
	je	SHORT $LN2@init
; Line 137
	mov	DWORD PTR [esi+4], -805306349		; d0000013H
$LN2@init:
; Line 141
	push	8
	push	0
	call	_SDL_GL_SetAttribute
; Line 142
	push	8
	push	1
	call	_SDL_GL_SetAttribute
; Line 143
	push	8
	push	2
	call	_SDL_GL_SetAttribute
; Line 145
	push	32					; 00000020H
	push	6
	call	_SDL_GL_SetAttribute
; Line 146
	mov	eax, DWORD PTR [esi+4]
	mov	edi, DWORD PTR _yres$[ebp]
	mov	ebx, DWORD PTR _xres$[ebp]
	push	eax
	push	32					; 00000020H
	push	edi
	push	ebx
	call	_SDL_SetVideoMode
	add	esp, 48					; 00000030H
	mov	DWORD PTR [esi+8], eax
; Line 152
	test	eax, eax
	jne	SHORT $LN1@init
; Line 153
	call	_SDL_GetError
	push	eax
	push	OFFSET $SG71134
	call	DWORD PTR __imp__printf
	add	esp, 8
; Line 154
	push	1
	call	DWORD PTR __imp__exit
$LN6@init:
$LN1@init:
; Line 157
	mov	ecx, esi
	call	?initExtensions@Video@@AAEXXZ		; Video::initExtensions
; Line 164
	fild	DWORD PTR _xres$[ebp]
; Line 166
	push	edi
	push	ebx
	fstp	DWORD PTR tv209[ebp]
	push	0
	fild	DWORD PTR _yres$[ebp]
	push	0
	mov	DWORD PTR [esi+60], ebx
	mov	DWORD PTR [esi+64], edi
	fstp	DWORD PTR tv212[ebp]
	mov	DWORD PTR [esi+52], ebx
	fld	DWORD PTR tv209[ebp]
	mov	DWORD PTR [esi+56], edi
	fdiv	DWORD PTR tv212[ebp]
	fstp	DWORD PTR [esi+68]
	call	DWORD PTR __imp__glViewport@16
; Line 167
	push	5889					; 00001701H
	call	DWORD PTR __imp__glMatrixMode@4
; Line 168
	call	DWORD PTR __imp__glLoadIdentity@0
; Line 170
	fld	DWORD PTR tv209[ebp]
	fdiv	DWORD PTR tv212[ebp]
	sub	esp, 8
	mov	eax, esp
	mov	DWORD PTR [eax], 0
	mov	DWORD PTR [eax+4], 1083179008		; 40900000H
	sub	esp, 8
	mov	eax, esp
	mov	DWORD PTR [eax], 0
	mov	DWORD PTR [eax+4], 1072693248		; 3ff00000H
	sub	esp, 16					; 00000010H
	mov	eax, esp
	fstp	QWORD PTR [esp+8]
	mov	DWORD PTR [eax], 0
	mov	DWORD PTR [eax+4], 1078362112		; 40468000H
	call	_gluPerspective@32
; Line 173
	mov	esi, DWORD PTR __imp__glEnableClientState@4
	push	32884					; 00008074H
	call	esi
; Line 174
	push	32885					; 00008075H
	call	esi
; Line 175
	push	32888					; 00008078H
	call	esi
; Line 176
	pop	edi
	pop	esi
	pop	ebx
	pop	ebp
	ret	12					; 0000000cH
$LN5@init:
?init@Video@@QAEXHH_N@Z ENDP				; Video::init
_TEXT	ENDS
PUBLIC	?c_str@?$basic_string@DU?$char_traits@D@std@@V?$allocator@D@2@@std@@QBEPBDXZ ; std::basic_string<char,std::char_traits<char>,std::allocator<char> >::c_str
; Function compile flags: /Ogtp
;	COMDAT ?c_str@?$basic_string@DU?$char_traits@D@std@@V?$allocator@D@2@@std@@QBEPBDXZ
_TEXT	SEGMENT
?c_str@?$basic_string@DU?$char_traits@D@std@@V?$allocator@D@2@@std@@QBEPBDXZ PROC ; std::basic_string<char,std::char_traits<char>,std::allocator<char> >::c_str, COMDAT
; _this$ = ecx
; File c:\program files (x86)\microsoft visual studio 10.0\vc\include\xstring
; Line 1495
	mov	eax, ecx
; Line 1496
	cmp	DWORD PTR [eax+20], 16			; 00000010H
	jb	SHORT $LN6@c_str
	mov	eax, DWORD PTR [eax]
$LN6@c_str:
; Line 1497
	ret	0
?c_str@?$basic_string@DU?$char_traits@D@std@@V?$allocator@D@2@@std@@QBEPBDXZ ENDP ; std::basic_string<char,std::char_traits<char>,std::allocator<char> >::c_str
_TEXT	ENDS
PUBLIC	??9?$_Tree_const_iterator@V?$_Tree_val@V?$_Tmap_traits@V?$basic_string@DU?$char_traits@D@std@@V?$allocator@D@2@@std@@IU?$less@V?$basic_string@DU?$char_traits@D@std@@V?$allocator@D@2@@std@@@2@V?$allocator@U?$pair@$$CBV?$basic_string@DU?$char_traits@D@std@@V?$allocator@D@2@@std@@I@std@@@2@$0A@@std@@@std@@@std@@QBE_NABV01@@Z ; std::_Tree_const_iterator<std::_Tree_val<std::_Tmap_traits<std::basic_string<char,std::char_traits<char>,std::allocator<char> >,unsigned int,std::less<std::basic_string<char,std::char_traits<char>,std::allocator<char> > >,std::allocator<std::pair<std::basic_string<char,std::char_traits<char>,std::allocator<char> > const ,unsigned int> >,0> > >::operator!=
; Function compile flags: /Ogtp
;	COMDAT ??9?$_Tree_const_iterator@V?$_Tree_val@V?$_Tmap_traits@V?$basic_string@DU?$char_traits@D@std@@V?$allocator@D@2@@std@@IU?$less@V?$basic_string@DU?$char_traits@D@std@@V?$allocator@D@2@@std@@@2@V?$allocator@U?$pair@$$CBV?$basic_string@DU?$char_traits@D@std@@V?$allocator@D@2@@std@@I@std@@@2@$0A@@std@@@std@@@std@@QBE_NABV01@@Z
_TEXT	SEGMENT
__Right$ = 8						; size = 4
??9?$_Tree_const_iterator@V?$_Tree_val@V?$_Tmap_traits@V?$basic_string@DU?$char_traits@D@std@@V?$allocator@D@2@@std@@IU?$less@V?$basic_string@DU?$char_traits@D@std@@V?$allocator@D@2@@std@@@2@V?$allocator@U?$pair@$$CBV?$basic_string@DU?$char_traits@D@std@@V?$allocator@D@2@@std@@I@std@@@2@$0A@@std@@@std@@@std@@QBE_NABV01@@Z PROC ; std::_Tree_const_iterator<std::_Tree_val<std::_Tmap_traits<std::basic_string<char,std::char_traits<char>,std::allocator<char> >,unsigned int,std::less<std::basic_string<char,std::char_traits<char>,std::allocator<char> > >,std::allocator<std::pair<std::basic_string<char,std::char_traits<char>,std::allocator<char> > const ,unsigned int> >,0> > >::operator!=, COMDAT
; _this$ = ecx
; File c:\program files (x86)\microsoft visual studio 10.0\vc\include\xtree
; Line 334
	push	ebp
	mov	ebp, esp
; Line 335
	mov	eax, DWORD PTR [ecx]
	mov	edx, DWORD PTR __Right$[ebp]
	xor	ecx, ecx
	cmp	eax, DWORD PTR [edx]
	setne	al
; Line 336
	pop	ebp
	ret	4
??9?$_Tree_const_iterator@V?$_Tree_val@V?$_Tmap_traits@V?$basic_string@DU?$char_traits@D@std@@V?$allocator@D@2@@std@@IU?$less@V?$basic_string@DU?$char_traits@D@std@@V?$allocator@D@2@@std@@@2@V?$allocator@U?$pair@$$CBV?$basic_string@DU?$char_traits@D@std@@V?$allocator@D@2@@std@@I@std@@@2@$0A@@std@@@std@@@std@@QBE_NABV01@@Z ENDP ; std::_Tree_const_iterator<std::_Tree_val<std::_Tmap_traits<std::basic_string<char,std::char_traits<char>,std::allocator<char> >,unsigned int,std::less<std::basic_string<char,std::char_traits<char>,std::allocator<char> > >,std::allocator<std::pair<std::basic_string<char,std::char_traits<char>,std::allocator<char> > const ,unsigned int> >,0> > >::operator!=
_TEXT	ENDS
PUBLIC	?compare@?$basic_string@DU?$char_traits@D@std@@V?$allocator@D@2@@std@@QBEHIIPBDI@Z ; std::basic_string<char,std::char_traits<char>,std::allocator<char> >::compare
; Function compile flags: /Ogtp
;	COMDAT ?compare@?$basic_string@DU?$char_traits@D@std@@V?$allocator@D@2@@std@@QBEHIIPBDI@Z
_TEXT	SEGMENT
__Off$ = 8						; size = 4
__N0$ = 12						; size = 4
__Ptr$ = 16						; size = 4
__Count$ = 20						; size = 4
?compare@?$basic_string@DU?$char_traits@D@std@@V?$allocator@D@2@@std@@QBEHIIPBDI@Z PROC ; std::basic_string<char,std::char_traits<char>,std::allocator<char> >::compare, COMDAT
; _this$ = ecx
; File c:\program files (x86)\microsoft visual studio 10.0\vc\include\xstring
; Line 1887
	push	ebp
	mov	ebp, esp
; Line 1893
	mov	eax, DWORD PTR [ecx+16]
	push	ebx
	push	esi
	push	edi
	mov	edi, DWORD PTR __Off$[ebp]
	cmp	eax, edi
	jae	SHORT $LN2@compare@2
; Line 1894
	push	OFFSET ??_C@_0BI@CFPLBAOH@invalid?5string?5position?$AA@
	call	DWORD PTR __imp_?_Xout_of_range@std@@YAXPBD@Z
$LN19@compare@2:
$LN2@compare@2:
; Line 1895
	mov	esi, DWORD PTR __N0$[ebp]
	sub	eax, edi
	cmp	eax, esi
	jae	SHORT $LN1@compare@2
; Line 1896
	mov	esi, eax
$LN1@compare@2:
; Line 1899
	mov	ebx, DWORD PTR __Count$[ebp]
	mov	edx, esi
	cmp	esi, ebx
	jb	SHORT $LN6@compare@2
	mov	edx, ebx
$LN6@compare@2:
	cmp	DWORD PTR [ecx+20], 16			; 00000010H
	jb	SHORT $LN16@compare@2
	mov	eax, DWORD PTR [ecx]
	jmp	SHORT $LN17@compare@2
$LN16@compare@2:
	mov	eax, ecx
$LN17@compare@2:
	mov	ecx, DWORD PTR __Ptr$[ebp]
	push	edx
	push	ecx
	add	eax, edi
	push	eax
	call	?compare@?$char_traits@D@std@@SAHPBD0I@Z ; std::char_traits<char>::compare
	add	esp, 12					; 0000000cH
; Line 1901
	test	eax, eax
	jne	SHORT $LN8@compare@2
	cmp	esi, ebx
	jae	SHORT $LN7@compare@2
	pop	edi
	pop	esi
	or	eax, -1
	pop	ebx
; Line 1902
	pop	ebp
	ret	16					; 00000010H
$LN7@compare@2:
; Line 1901
	xor	eax, eax
	cmp	esi, ebx
	setne	al
$LN8@compare@2:
	pop	edi
	pop	esi
	pop	ebx
; Line 1902
	pop	ebp
	ret	16					; 00000010H
$LN18@compare@2:
?compare@?$basic_string@DU?$char_traits@D@std@@V?$allocator@D@2@@std@@QBEHIIPBDI@Z ENDP ; std::basic_string<char,std::char_traits<char>,std::allocator<char> >::compare
_TEXT	ENDS
PUBLIC	?_Tidy@?$basic_string@DU?$char_traits@D@std@@V?$allocator@D@2@@std@@QAEX_NI@Z ; std::basic_string<char,std::char_traits<char>,std::allocator<char> >::_Tidy
; Function compile flags: /Ogtp
;	COMDAT ?_Tidy@?$basic_string@DU?$char_traits@D@std@@V?$allocator@D@2@@std@@QAEX_NI@Z
_TEXT	SEGMENT
__Built$ = 8						; size = 1
__Newsize$ = 12						; size = 4
?_Tidy@?$basic_string@DU?$char_traits@D@std@@V?$allocator@D@2@@std@@QAEX_NI@Z PROC ; std::basic_string<char,std::char_traits<char>,std::allocator<char> >::_Tidy, COMDAT
; _this$ = ecx
; Line 1987
	push	ebp
	mov	ebp, esp
; Line 1988
	cmp	BYTE PTR __Built$[ebp], 0
	push	esi
	push	edi
	mov	edi, DWORD PTR __Newsize$[ebp]
	mov	esi, ecx
	je	SHORT $LN9@Tidy
; Line 1990
	cmp	DWORD PTR [esi+20], 16			; 00000010H
	jb	SHORT $LN9@Tidy
; Line 1992
	push	ebx
	mov	ebx, DWORD PTR [esi]
; Line 1993
	test	edi, edi
	je	SHORT $LN7@Tidy
; Line 1994
	push	edi
	push	ebx
	push	esi
	call	_memcpy
	add	esp, 12					; 0000000cH
$LN7@Tidy:
; Line 1995
	push	ebx
	call	??3@YAXPAX@Z				; operator delete
	add	esp, 4
	pop	ebx
$LN9@Tidy:
; Line 1998
	mov	DWORD PTR [esi+16], edi
	mov	DWORD PTR [esi+20], 15			; 0000000fH
	mov	BYTE PTR [edi+esi], 0
	pop	edi
	pop	esi
; Line 1999
	pop	ebp
	ret	8
?_Tidy@?$basic_string@DU?$char_traits@D@std@@V?$allocator@D@2@@std@@QAEX_NI@Z ENDP ; std::basic_string<char,std::char_traits<char>,std::allocator<char> >::_Tidy
_TEXT	ENDS
PUBLIC	??0?$_String_val@DV?$allocator@D@std@@@std@@QAE@V?$allocator@D@1@@Z ; std::_String_val<char,std::allocator<char> >::_String_val<char,std::allocator<char> >
; Function compile flags: /Ogtp
;	COMDAT ??0?$_String_val@DV?$allocator@D@std@@@std@@QAE@V?$allocator@D@1@@Z
_TEXT	SEGMENT
__Al$ = 8						; size = 1
??0?$_String_val@DV?$allocator@D@std@@@std@@QAE@V?$allocator@D@1@@Z PROC ; std::_String_val<char,std::allocator<char> >::_String_val<char,std::allocator<char> >, COMDAT
; _this$ = ecx
; Line 454
	mov	eax, ecx
; Line 455
	ret	4
??0?$_String_val@DV?$allocator@D@std@@@std@@QAE@V?$allocator@D@1@@Z ENDP ; std::_String_val<char,std::allocator<char> >::_String_val<char,std::allocator<char> >
_TEXT	ENDS
PUBLIC	?_Lmost@?$_Tree@V?$_Tmap_traits@V?$basic_string@DU?$char_traits@D@std@@V?$allocator@D@2@@std@@IU?$less@V?$basic_string@DU?$char_traits@D@std@@V?$allocator@D@2@@std@@@2@V?$allocator@U?$pair@$$CBV?$basic_string@DU?$char_traits@D@std@@V?$allocator@D@2@@std@@I@std@@@2@$0A@@std@@@std@@IBEAAPAU_Node@?$_Tree_nod@V?$_Tmap_traits@V?$basic_string@DU?$char_traits@D@std@@V?$allocator@D@2@@std@@IU?$less@V?$basic_string@DU?$char_traits@D@std@@V?$allocator@D@2@@std@@@2@V?$allocator@U?$pair@$$CBV?$basic_string@DU?$char_traits@D@std@@V?$allocator@D@2@@std@@I@std@@@2@$0A@@std@@@2@XZ ; std::_Tree<std::_Tmap_traits<std::basic_string<char,std::char_traits<char>,std::allocator<char> >,unsigned int,std::less<std::basic_string<char,std::char_traits<char>,std::allocator<char> > >,std::allocator<std::pair<std::basic_string<char,std::char_traits<char>,std::allocator<char> > const ,unsigned int> >,0> >::_Lmost
; Function compile flags: /Ogtp
;	COMDAT ?_Lmost@?$_Tree@V?$_Tmap_traits@V?$basic_string@DU?$char_traits@D@std@@V?$allocator@D@2@@std@@IU?$less@V?$basic_string@DU?$char_traits@D@std@@V?$allocator@D@2@@std@@@2@V?$allocator@U?$pair@$$CBV?$basic_string@DU?$char_traits@D@std@@V?$allocator@D@2@@std@@I@std@@@2@$0A@@std@@@std@@IBEAAPAU_Node@?$_Tree_nod@V?$_Tmap_traits@V?$basic_string@DU?$char_traits@D@std@@V?$allocator@D@2@@std@@IU?$less@V?$basic_string@DU?$char_traits@D@std@@V?$allocator@D@2@@std@@@2@V?$allocator@U?$pair@$$CBV?$basic_string@DU?$char_traits@D@std@@V?$allocator@D@2@@std@@I@std@@@2@$0A@@std@@@2@XZ
_TEXT	SEGMENT
?_Lmost@?$_Tree@V?$_Tmap_traits@V?$basic_string@DU?$char_traits@D@std@@V?$allocator@D@2@@std@@IU?$less@V?$basic_string@DU?$char_traits@D@std@@V?$allocator@D@2@@std@@@2@V?$allocator@U?$pair@$$CBV?$basic_string@DU?$char_traits@D@std@@V?$allocator@D@2@@std@@I@std@@@2@$0A@@std@@@std@@IBEAAPAU_Node@?$_Tree_nod@V?$_Tmap_traits@V?$basic_string@DU?$char_traits@D@std@@V?$allocator@D@2@@std@@IU?$less@V?$basic_string@DU?$char_traits@D@std@@V?$allocator@D@2@@std@@@2@V?$allocator@U?$pair@$$CBV?$basic_string@DU?$char_traits@D@std@@V?$allocator@D@2@@std@@I@std@@@2@$0A@@std@@@2@XZ PROC ; std::_Tree<std::_Tmap_traits<std::basic_string<char,std::char_traits<char>,std::allocator<char> >,unsigned int,std::less<std::basic_string<char,std::char_traits<char>,std::allocator<char> > >,std::allocator<std::pair<std::basic_string<char,std::char_traits<char>,std::allocator<char> > const ,unsigned int> >,0> >::_Lmost, COMDAT
; _this$ = ecx
; File c:\program files (x86)\microsoft visual studio 10.0\vc\include\xtree
; Line 1759
	mov	eax, DWORD PTR [ecx+4]
; Line 1760
	ret	0
?_Lmost@?$_Tree@V?$_Tmap_traits@V?$basic_string@DU?$char_traits@D@std@@V?$allocator@D@2@@std@@IU?$less@V?$basic_string@DU?$char_traits@D@std@@V?$allocator@D@2@@std@@@2@V?$allocator@U?$pair@$$CBV?$basic_string@DU?$char_traits@D@std@@V?$allocator@D@2@@std@@I@std@@@2@$0A@@std@@@std@@IBEAAPAU_Node@?$_Tree_nod@V?$_Tmap_traits@V?$basic_string@DU?$char_traits@D@std@@V?$allocator@D@2@@std@@IU?$less@V?$basic_string@DU?$char_traits@D@std@@V?$allocator@D@2@@std@@@2@V?$allocator@U?$pair@$$CBV?$basic_string@DU?$char_traits@D@std@@V?$allocator@D@2@@std@@I@std@@@2@$0A@@std@@@2@XZ ENDP ; std::_Tree<std::_Tmap_traits<std::basic_string<char,std::char_traits<char>,std::allocator<char> >,unsigned int,std::less<std::basic_string<char,std::char_traits<char>,std::allocator<char> > >,std::allocator<std::pair<std::basic_string<char,std::char_traits<char>,std::allocator<char> > const ,unsigned int> >,0> >::_Lmost
_TEXT	ENDS
PUBLIC	??1?$_Tree_val@V?$_Tmap_traits@V?$basic_string@DU?$char_traits@D@std@@V?$allocator@D@2@@std@@IU?$less@V?$basic_string@DU?$char_traits@D@std@@V?$allocator@D@2@@std@@@2@V?$allocator@U?$pair@$$CBV?$basic_string@DU?$char_traits@D@std@@V?$allocator@D@2@@std@@I@std@@@2@$0A@@std@@@std@@QAE@XZ ; std::_Tree_val<std::_Tmap_traits<std::basic_string<char,std::char_traits<char>,std::allocator<char> >,unsigned int,std::less<std::basic_string<char,std::char_traits<char>,std::allocator<char> > >,std::allocator<std::pair<std::basic_string<char,std::char_traits<char>,std::allocator<char> > const ,unsigned int> >,0> >::~_Tree_val<std::_Tmap_traits<std::basic_string<char,std::char_traits<char>,std::allocator<char> >,unsigned int,std::less<std::basic_string<char,std::char_traits<char>,std::allocator<char> > >,std::allocator<std::pair<std::basic_string<char,std::char_traits<char>,std::allocator<char> > const ,unsigned int> >,0> >
; Function compile flags: /Ogtp
;	COMDAT ??1?$_Tree_val@V?$_Tmap_traits@V?$basic_string@DU?$char_traits@D@std@@V?$allocator@D@2@@std@@IU?$less@V?$basic_string@DU?$char_traits@D@std@@V?$allocator@D@2@@std@@@2@V?$allocator@U?$pair@$$CBV?$basic_string@DU?$char_traits@D@std@@V?$allocator@D@2@@std@@I@std@@@2@$0A@@std@@@std@@QAE@XZ
_TEXT	SEGMENT
??1?$_Tree_val@V?$_Tmap_traits@V?$basic_string@DU?$char_traits@D@std@@V?$allocator@D@2@@std@@IU?$less@V?$basic_string@DU?$char_traits@D@std@@V?$allocator@D@2@@std@@@2@V?$allocator@U?$pair@$$CBV?$basic_string@DU?$char_traits@D@std@@V?$allocator@D@2@@std@@I@std@@@2@$0A@@std@@@std@@QAE@XZ PROC ; std::_Tree_val<std::_Tmap_traits<std::basic_string<char,std::char_traits<char>,std::allocator<char> >,unsigned int,std::less<std::basic_string<char,std::char_traits<char>,std::allocator<char> > >,std::allocator<std::pair<std::basic_string<char,std::char_traits<char>,std::allocator<char> > const ,unsigned int> >,0> >::~_Tree_val<std::_Tmap_traits<std::basic_string<char,std::char_traits<char>,std::allocator<char> >,unsigned int,std::less<std::basic_string<char,std::char_traits<char>,std::allocator<char> > >,std::allocator<std::pair<std::basic_string<char,std::char_traits<char>,std::allocator<char> > const ,unsigned int> >,0> >, COMDAT
; _this$ = ecx
; Line 555
	mov	eax, DWORD PTR [ecx+4]
	push	eax
	call	??3@YAXPAX@Z				; operator delete
	pop	ecx
; Line 556
	ret	0
??1?$_Tree_val@V?$_Tmap_traits@V?$basic_string@DU?$char_traits@D@std@@V?$allocator@D@2@@std@@IU?$less@V?$basic_string@DU?$char_traits@D@std@@V?$allocator@D@2@@std@@@2@V?$allocator@U?$pair@$$CBV?$basic_string@DU?$char_traits@D@std@@V?$allocator@D@2@@std@@I@std@@@2@$0A@@std@@@std@@QAE@XZ ENDP ; std::_Tree_val<std::_Tmap_traits<std::basic_string<char,std::char_traits<char>,std::allocator<char> >,unsigned int,std::less<std::basic_string<char,std::char_traits<char>,std::allocator<char> > >,std::allocator<std::pair<std::basic_string<char,std::char_traits<char>,std::allocator<char> > const ,unsigned int> >,0> >::~_Tree_val<std::_Tmap_traits<std::basic_string<char,std::char_traits<char>,std::allocator<char> >,unsigned int,std::less<std::basic_string<char,std::char_traits<char>,std::allocator<char> > >,std::allocator<std::pair<std::basic_string<char,std::char_traits<char>,std::allocator<char> > const ,unsigned int> >,0> >
_TEXT	ENDS
PUBLIC	?_Key@?$_Tree_val@V?$_Tmap_traits@V?$basic_string@DU?$char_traits@D@std@@V?$allocator@D@2@@std@@IU?$less@V?$basic_string@DU?$char_traits@D@std@@V?$allocator@D@2@@std@@@2@V?$allocator@U?$pair@$$CBV?$basic_string@DU?$char_traits@D@std@@V?$allocator@D@2@@std@@I@std@@@2@$0A@@std@@@std@@SAAAV?$basic_string@DU?$char_traits@D@std@@V?$allocator@D@2@@2@PAU_Node@?$_Tree_nod@V?$_Tmap_traits@V?$basic_string@DU?$char_traits@D@std@@V?$allocator@D@2@@std@@IU?$less@V?$basic_string@DU?$char_traits@D@std@@V?$allocator@D@2@@std@@@2@V?$allocator@U?$pair@$$CBV?$basic_string@DU?$char_traits@D@std@@V?$allocator@D@2@@std@@I@std@@@2@$0A@@std@@@2@@Z ; std::_Tree_val<std::_Tmap_traits<std::basic_string<char,std::char_traits<char>,std::allocator<char> >,unsigned int,std::less<std::basic_string<char,std::char_traits<char>,std::allocator<char> > >,std::allocator<std::pair<std::basic_string<char,std::char_traits<char>,std::allocator<char> > const ,unsigned int> >,0> >::_Key
; Function compile flags: /Ogtp
;	COMDAT ?_Key@?$_Tree_val@V?$_Tmap_traits@V?$basic_string@DU?$char_traits@D@std@@V?$allocator@D@2@@std@@IU?$less@V?$basic_string@DU?$char_traits@D@std@@V?$allocator@D@2@@std@@@2@V?$allocator@U?$pair@$$CBV?$basic_string@DU?$char_traits@D@std@@V?$allocator@D@2@@std@@I@std@@@2@$0A@@std@@@std@@SAAAV?$basic_string@DU?$char_traits@D@std@@V?$allocator@D@2@@2@PAU_Node@?$_Tree_nod@V?$_Tmap_traits@V?$basic_string@DU?$char_traits@D@std@@V?$allocator@D@2@@std@@IU?$less@V?$basic_string@DU?$char_traits@D@std@@V?$allocator@D@2@@std@@@2@V?$allocator@U?$pair@$$CBV?$basic_string@DU?$char_traits@D@std@@V?$allocator@D@2@@std@@I@std@@@2@$0A@@std@@@2@@Z
_TEXT	SEGMENT
__Pnode$ = 8						; size = 4
