; Listing generated by Microsoft (R) Optimizing Compiler Version 16.00.40219.01 

	TITLE	C:\programovani\WoW Editor\Test\src\Editor\World.cpp
	.686P
	.XMM
	include listing.inc
	.model	flat

INCLUDELIB MSVCRT
INCLUDELIB OLDNAMES

PUBLIC	?SelectBuffer@@3PAIA				; SelectBuffer
PUBLIC	?startTime@@3PAHA				; startTime
PUBLIC	?primaryLoaded@@3_NA				; primaryLoaded
PUBLIC	?numTimers@@3HA					; numTimers
PUBLIC	?value@?$integral_constant@_N$0A@@tr1@std@@2_NB	; std::tr1::integral_constant<bool,0>::value
PUBLIC	?value@?$integral_constant@_N$00@tr1@std@@2_NB	; std::tr1::integral_constant<bool,1>::value
PUBLIC	?value@?$integral_constant@I$0A@@tr1@std@@2IB	; std::tr1::integral_constant<unsigned int,0>::value
PUBLIC	?_Rank@?$_Arithmetic_traits@_N@std@@2HB		; std::_Arithmetic_traits<bool>::_Rank
PUBLIC	?_Rank@?$_Arithmetic_traits@D@std@@2HB		; std::_Arithmetic_traits<char>::_Rank
PUBLIC	?_Rank@?$_Arithmetic_traits@C@std@@2HB		; std::_Arithmetic_traits<signed char>::_Rank
PUBLIC	?_Rank@?$_Arithmetic_traits@E@std@@2HB		; std::_Arithmetic_traits<unsigned char>::_Rank
PUBLIC	?_Rank@?$_Arithmetic_traits@F@std@@2HB		; std::_Arithmetic_traits<short>::_Rank
PUBLIC	?_Rank@?$_Arithmetic_traits@G@std@@2HB		; std::_Arithmetic_traits<unsigned short>::_Rank
PUBLIC	?_Rank@?$_Arithmetic_traits@H@std@@2HB		; std::_Arithmetic_traits<int>::_Rank
PUBLIC	?_Rank@?$_Arithmetic_traits@I@std@@2HB		; std::_Arithmetic_traits<unsigned int>::_Rank
PUBLIC	?_Rank@?$_Arithmetic_traits@J@std@@2HB		; std::_Arithmetic_traits<long>::_Rank
PUBLIC	?_Rank@?$_Arithmetic_traits@K@std@@2HB		; std::_Arithmetic_traits<unsigned long>::_Rank
PUBLIC	?_Rank@?$_Arithmetic_traits@_J@std@@2HB		; std::_Arithmetic_traits<__int64>::_Rank
PUBLIC	?_Rank@?$_Arithmetic_traits@_K@std@@2HB		; std::_Arithmetic_traits<unsigned __int64>::_Rank
PUBLIC	?_Rank@?$_Arithmetic_traits@M@std@@2HB		; std::_Arithmetic_traits<float>::_Rank
PUBLIC	?_Rank@?$_Arithmetic_traits@N@std@@2HB		; std::_Arithmetic_traits<double>::_Rank
PUBLIC	?_Rank@?$_Arithmetic_traits@O@std@@2HB		; std::_Arithmetic_traits<long double>::_Rank
PUBLIC	?collate@?$_Locbase@H@std@@2HB			; std::_Locbase<int>::collate
PUBLIC	?ctype@?$_Locbase@H@std@@2HB			; std::_Locbase<int>::ctype
PUBLIC	?monetary@?$_Locbase@H@std@@2HB			; std::_Locbase<int>::monetary
PUBLIC	?numeric@?$_Locbase@H@std@@2HB			; std::_Locbase<int>::numeric
PUBLIC	?time@?$_Locbase@H@std@@2HB			; std::_Locbase<int>::time
PUBLIC	?messages@?$_Locbase@H@std@@2HB			; std::_Locbase<int>::messages
PUBLIC	?all@?$_Locbase@H@std@@2HB			; std::_Locbase<int>::all
PUBLIC	?none@?$_Locbase@H@std@@2HB			; std::_Locbase<int>::none
PUBLIC	?skipws@?$_Iosb@H@std@@2W4_Fmtflags@12@B	; std::_Iosb<int>::skipws
PUBLIC	?unitbuf@?$_Iosb@H@std@@2W4_Fmtflags@12@B	; std::_Iosb<int>::unitbuf
PUBLIC	?uppercase@?$_Iosb@H@std@@2W4_Fmtflags@12@B	; std::_Iosb<int>::uppercase
PUBLIC	?showbase@?$_Iosb@H@std@@2W4_Fmtflags@12@B	; std::_Iosb<int>::showbase
PUBLIC	?showpoint@?$_Iosb@H@std@@2W4_Fmtflags@12@B	; std::_Iosb<int>::showpoint
PUBLIC	?showpos@?$_Iosb@H@std@@2W4_Fmtflags@12@B	; std::_Iosb<int>::showpos
PUBLIC	?left@?$_Iosb@H@std@@2W4_Fmtflags@12@B		; std::_Iosb<int>::left
PUBLIC	?right@?$_Iosb@H@std@@2W4_Fmtflags@12@B		; std::_Iosb<int>::right
PUBLIC	?internal@?$_Iosb@H@std@@2W4_Fmtflags@12@B	; std::_Iosb<int>::internal
PUBLIC	?dec@?$_Iosb@H@std@@2W4_Fmtflags@12@B		; std::_Iosb<int>::dec
PUBLIC	?oct@?$_Iosb@H@std@@2W4_Fmtflags@12@B		; std::_Iosb<int>::oct
PUBLIC	?hex@?$_Iosb@H@std@@2W4_Fmtflags@12@B		; std::_Iosb<int>::hex
PUBLIC	?scientific@?$_Iosb@H@std@@2W4_Fmtflags@12@B	; std::_Iosb<int>::scientific
PUBLIC	?fixed@?$_Iosb@H@std@@2W4_Fmtflags@12@B		; std::_Iosb<int>::fixed
PUBLIC	?hexfloat@?$_Iosb@H@std@@2W4_Fmtflags@12@B	; std::_Iosb<int>::hexfloat
PUBLIC	?boolalpha@?$_Iosb@H@std@@2W4_Fmtflags@12@B	; std::_Iosb<int>::boolalpha
PUBLIC	?_Stdio@?$_Iosb@H@std@@2W4_Fmtflags@12@B	; std::_Iosb<int>::_Stdio
PUBLIC	?adjustfield@?$_Iosb@H@std@@2W4_Fmtflags@12@B	; std::_Iosb<int>::adjustfield
PUBLIC	?basefield@?$_Iosb@H@std@@2W4_Fmtflags@12@B	; std::_Iosb<int>::basefield
PUBLIC	?floatfield@?$_Iosb@H@std@@2W4_Fmtflags@12@B	; std::_Iosb<int>::floatfield
PUBLIC	?goodbit@?$_Iosb@H@std@@2W4_Iostate@12@B	; std::_Iosb<int>::goodbit
PUBLIC	?eofbit@?$_Iosb@H@std@@2W4_Iostate@12@B		; std::_Iosb<int>::eofbit
PUBLIC	?failbit@?$_Iosb@H@std@@2W4_Iostate@12@B	; std::_Iosb<int>::failbit
PUBLIC	?badbit@?$_Iosb@H@std@@2W4_Iostate@12@B		; std::_Iosb<int>::badbit
PUBLIC	?_Hardfail@?$_Iosb@H@std@@2W4_Iostate@12@B	; std::_Iosb<int>::_Hardfail
PUBLIC	?in@?$_Iosb@H@std@@2W4_Openmode@12@B		; std::_Iosb<int>::in
PUBLIC	?out@?$_Iosb@H@std@@2W4_Openmode@12@B		; std::_Iosb<int>::out
PUBLIC	?ate@?$_Iosb@H@std@@2W4_Openmode@12@B		; std::_Iosb<int>::ate
PUBLIC	?app@?$_Iosb@H@std@@2W4_Openmode@12@B		; std::_Iosb<int>::app
PUBLIC	?trunc@?$_Iosb@H@std@@2W4_Openmode@12@B		; std::_Iosb<int>::trunc
PUBLIC	?_Nocreate@?$_Iosb@H@std@@2W4_Openmode@12@B	; std::_Iosb<int>::_Nocreate
PUBLIC	?_Noreplace@?$_Iosb@H@std@@2W4_Openmode@12@B	; std::_Iosb<int>::_Noreplace
PUBLIC	?binary@?$_Iosb@H@std@@2W4_Openmode@12@B	; std::_Iosb<int>::binary
PUBLIC	?beg@?$_Iosb@H@std@@2W4_Seekdir@12@B		; std::_Iosb<int>::beg
PUBLIC	?cur@?$_Iosb@H@std@@2W4_Seekdir@12@B		; std::_Iosb<int>::cur
PUBLIC	?end@?$_Iosb@H@std@@2W4_Seekdir@12@B		; std::_Iosb<int>::end
PUBLIC	?gWorld@@3PAVWorld@@A				; gWorld
PUBLIC	?gdetailtexcoords@@3IA				; gdetailtexcoords
PUBLIC	?galphatexcoords@@3IA				; galphatexcoords
PUBLIC	?nextTileLoad@@3HA				; nextTileLoad
PUBLIC	?loadingTile@@3HA				; loadingTile
PUBLIC	?update@@3HA					; update
_BSS	SEGMENT
?SelectBuffer@@3PAIA DD 02000H DUP (?)			; SelectBuffer
?startTime@@3PAHA DD 019H DUP (?)			; startTime
?primaryLoaded@@3_NA DB 01H DUP (?)			; primaryLoaded
	ALIGN	4

?numTimers@@3HA DD 01H DUP (?)				; numTimers
?gWorld@@3PAVWorld@@A DD 01H DUP (?)			; gWorld
?gdetailtexcoords@@3IA DD 01H DUP (?)			; gdetailtexcoords
?galphatexcoords@@3IA DD 01H DUP (?)			; galphatexcoords
?nextTileLoad@@3HA DD 01H DUP (?)			; nextTileLoad
?loadingTile@@3HA DD 01H DUP (?)			; loadingTile
?update@@3HA DD	01H DUP (?)				; update
_BSS	ENDS
CONST	SEGMENT
_detail_size DD	041000000r			; 8
$SG116922 DB	0aH, '[World of Warcraft Studio - Editor] - Loading world'
	DB	' %s', 0aH, 00H
	ORG $+3
$SG116952 DB	'World\Maps\%s\%s.wdt', 00H
	ORG $+3
$SG116961 DB	'MAIN', 00H
	ORG $+3
$SG116975 DB	'MODF', 00H
	ORG $+3
$SG116988 DB	'World\Maps\%s\%s.wdl', 00H
	ORG $+3
$SG117034 DB	'World\Maps\%s\%s.wdl', 00H
	ORG $+3
$SG117121 DB	'XTextures\river\lake_c.10.blp', 00H
	ORG $+2
$SG117162 DB	'World\dnc.db', 00H
	ORG $+3
$SG117167 DB	'World\Maps\%s\%s.wdt', 00H
	ORG $+3
$SG117176 DB	'MWMO', 00H
	ORG $+3
$SG117190 DB	'MODF', 00H
	ORG $+3
$SG117388 DB	'[World of Warcraft Studio - Editor] - Unloaded world %s', 0aH
	DB	00H
	ORG $+3
$SG117474 DB	'World\Maps\%s\%s_%d_%d.adt', 00H
	ORG $+1
$SG117491 DB	'[World of Warcraft Studio - Editor] - Saving Tile?', 0aH
	DB	00H
$SG117532 DB	'World\Maps\%s\%s_%d_%d.adt', 00H
	ORG $+1
$SG117755 DB	'[World of Warcraft Studio - Editor] - %d ms', 0aH, 00H
	ORG $+3
$SG117780 DB	'[World of Warcraft Studio - Editor] - Initialization Tim'
	DB	'e ', 00H
	ORG $+1
$SG117791 DB	'[World of Warcraft Studio - Editor] - Terrain Time ', 00H
$SG117797 DB	'[World of Warcraft Studio - Editor] - WMO Time ', 00H
$SG117807 DB	'[World of Warcraft Studio - Editor] - Map Objects ', 00H
	ORG $+1
$SG117817 DB	'[World of Warcraft Studio - Editor] - Model ', 00H
	ORG $+3
$SG117818 DB	'[World of Warcraft Studio - Editor] - Entire Selection T'
	DB	'ime ', 00H
	ORG $+3
$SG118096 DB	'%s_map_%d_%d.raw', 00H
	ORG $+3
$SG118097 DB	'wb', 00H
CONST	ENDS
;	COMDAT ?end@?$_Iosb@H@std@@2W4_Seekdir@12@B
CONST	SEGMENT
?end@?$_Iosb@H@std@@2W4_Seekdir@12@B DD 02H		; std::_Iosb<int>::end
CONST	ENDS
;	COMDAT ?cur@?$_Iosb@H@std@@2W4_Seekdir@12@B
CONST	SEGMENT
?cur@?$_Iosb@H@std@@2W4_Seekdir@12@B DD 01H		; std::_Iosb<int>::cur
CONST	ENDS
;	COMDAT ?beg@?$_Iosb@H@std@@2W4_Seekdir@12@B
CONST	SEGMENT
?beg@?$_Iosb@H@std@@2W4_Seekdir@12@B DD 00H		; std::_Iosb<int>::beg
CONST	ENDS
;	COMDAT ?binary@?$_Iosb@H@std@@2W4_Openmode@12@B
CONST	SEGMENT
?binary@?$_Iosb@H@std@@2W4_Openmode@12@B DD 020H	; std::_Iosb<int>::binary
CONST	ENDS
;	COMDAT ?_Noreplace@?$_Iosb@H@std@@2W4_Openmode@12@B
CONST	SEGMENT
?_Noreplace@?$_Iosb@H@std@@2W4_Openmode@12@B DD 080H	; std::_Iosb<int>::_Noreplace
CONST	ENDS
;	COMDAT ?_Nocreate@?$_Iosb@H@std@@2W4_Openmode@12@B
CONST	SEGMENT
?_Nocreate@?$_Iosb@H@std@@2W4_Openmode@12@B DD 040H	; std::_Iosb<int>::_Nocreate
CONST	ENDS
;	COMDAT ?trunc@?$_Iosb@H@std@@2W4_Openmode@12@B
CONST	SEGMENT
?trunc@?$_Iosb@H@std@@2W4_Openmode@12@B DD 010H		; std::_Iosb<int>::trunc
CONST	ENDS
;	COMDAT ?app@?$_Iosb@H@std@@2W4_Openmode@12@B
CONST	SEGMENT
?app@?$_Iosb@H@std@@2W4_Openmode@12@B DD 08H		; std::_Iosb<int>::app
CONST	ENDS
;	COMDAT ?ate@?$_Iosb@H@std@@2W4_Openmode@12@B
CONST	SEGMENT
?ate@?$_Iosb@H@std@@2W4_Openmode@12@B DD 04H		; std::_Iosb<int>::ate
CONST	ENDS
;	COMDAT ?out@?$_Iosb@H@std@@2W4_Openmode@12@B
CONST	SEGMENT
?out@?$_Iosb@H@std@@2W4_Openmode@12@B DD 02H		; std::_Iosb<int>::out
CONST	ENDS
;	COMDAT ?in@?$_Iosb@H@std@@2W4_Openmode@12@B
CONST	SEGMENT
?in@?$_Iosb@H@std@@2W4_Openmode@12@B DD 01H		; std::_Iosb<int>::in
CONST	ENDS
;	COMDAT ?_Hardfail@?$_Iosb@H@std@@2W4_Iostate@12@B
CONST	SEGMENT
?_Hardfail@?$_Iosb@H@std@@2W4_Iostate@12@B DD 010H	; std::_Iosb<int>::_Hardfail
CONST	ENDS
;	COMDAT ?badbit@?$_Iosb@H@std@@2W4_Iostate@12@B
CONST	SEGMENT
?badbit@?$_Iosb@H@std@@2W4_Iostate@12@B DD 04H		; std::_Iosb<int>::badbit
CONST	ENDS
;	COMDAT ?failbit@?$_Iosb@H@std@@2W4_Iostate@12@B
CONST	SEGMENT
?failbit@?$_Iosb@H@std@@2W4_Iostate@12@B DD 02H		; std::_Iosb<int>::failbit
CONST	ENDS
;	COMDAT ?eofbit@?$_Iosb@H@std@@2W4_Iostate@12@B
CONST	SEGMENT
?eofbit@?$_Iosb@H@std@@2W4_Iostate@12@B DD 01H		; std::_Iosb<int>::eofbit
CONST	ENDS
;	COMDAT ?goodbit@?$_Iosb@H@std@@2W4_Iostate@12@B
CONST	SEGMENT
?goodbit@?$_Iosb@H@std@@2W4_Iostate@12@B DD 00H		; std::_Iosb<int>::goodbit
CONST	ENDS
;	COMDAT ?floatfield@?$_Iosb@H@std@@2W4_Fmtflags@12@B
CONST	SEGMENT
?floatfield@?$_Iosb@H@std@@2W4_Fmtflags@12@B DD 03000H	; std::_Iosb<int>::floatfield
CONST	ENDS
;	COMDAT ?basefield@?$_Iosb@H@std@@2W4_Fmtflags@12@B
CONST	SEGMENT
?basefield@?$_Iosb@H@std@@2W4_Fmtflags@12@B DD 0e00H	; std::_Iosb<int>::basefield
CONST	ENDS
;	COMDAT ?adjustfield@?$_Iosb@H@std@@2W4_Fmtflags@12@B
CONST	SEGMENT
?adjustfield@?$_Iosb@H@std@@2W4_Fmtflags@12@B DD 01c0H	; std::_Iosb<int>::adjustfield
CONST	ENDS
;	COMDAT ?_Stdio@?$_Iosb@H@std@@2W4_Fmtflags@12@B
CONST	SEGMENT
?_Stdio@?$_Iosb@H@std@@2W4_Fmtflags@12@B DD 08000H	; std::_Iosb<int>::_Stdio
CONST	ENDS
;	COMDAT ?boolalpha@?$_Iosb@H@std@@2W4_Fmtflags@12@B
CONST	SEGMENT
?boolalpha@?$_Iosb@H@std@@2W4_Fmtflags@12@B DD 04000H	; std::_Iosb<int>::boolalpha
CONST	ENDS
;	COMDAT ?hexfloat@?$_Iosb@H@std@@2W4_Fmtflags@12@B
CONST	SEGMENT
?hexfloat@?$_Iosb@H@std@@2W4_Fmtflags@12@B DD 03000H	; std::_Iosb<int>::hexfloat
CONST	ENDS
;	COMDAT ?fixed@?$_Iosb@H@std@@2W4_Fmtflags@12@B
CONST	SEGMENT
?fixed@?$_Iosb@H@std@@2W4_Fmtflags@12@B DD 02000H	; std::_Iosb<int>::fixed
CONST	ENDS
;	COMDAT ?scientific@?$_Iosb@H@std@@2W4_Fmtflags@12@B
CONST	SEGMENT
?scientific@?$_Iosb@H@std@@2W4_Fmtflags@12@B DD 01000H	; std::_Iosb<int>::scientific
CONST	ENDS
;	COMDAT ?hex@?$_Iosb@H@std@@2W4_Fmtflags@12@B
CONST	SEGMENT
?hex@?$_Iosb@H@std@@2W4_Fmtflags@12@B DD 0800H		; std::_Iosb<int>::hex
CONST	ENDS
;	COMDAT ?oct@?$_Iosb@H@std@@2W4_Fmtflags@12@B
CONST	SEGMENT
?oct@?$_Iosb@H@std@@2W4_Fmtflags@12@B DD 0400H		; std::_Iosb<int>::oct
CONST	ENDS
;	COMDAT ?dec@?$_Iosb@H@std@@2W4_Fmtflags@12@B
CONST	SEGMENT
?dec@?$_Iosb@H@std@@2W4_Fmtflags@12@B DD 0200H		; std::_Iosb<int>::dec
CONST	ENDS
;	COMDAT ?internal@?$_Iosb@H@std@@2W4_Fmtflags@12@B
CONST	SEGMENT
?internal@?$_Iosb@H@std@@2W4_Fmtflags@12@B DD 0100H	; std::_Iosb<int>::internal
CONST	ENDS
;	COMDAT ?right@?$_Iosb@H@std@@2W4_Fmtflags@12@B
CONST	SEGMENT
?right@?$_Iosb@H@std@@2W4_Fmtflags@12@B DD 080H		; std::_Iosb<int>::right
CONST	ENDS
;	COMDAT ?left@?$_Iosb@H@std@@2W4_Fmtflags@12@B
CONST	SEGMENT
?left@?$_Iosb@H@std@@2W4_Fmtflags@12@B DD 040H		; std::_Iosb<int>::left
CONST	ENDS
;	COMDAT ?showpos@?$_Iosb@H@std@@2W4_Fmtflags@12@B
CONST	SEGMENT
?showpos@?$_Iosb@H@std@@2W4_Fmtflags@12@B DD 020H	; std::_Iosb<int>::showpos
CONST	ENDS
;	COMDAT ?showpoint@?$_Iosb@H@std@@2W4_Fmtflags@12@B
CONST	SEGMENT
?showpoint@?$_Iosb@H@std@@2W4_Fmtflags@12@B DD 010H	; std::_Iosb<int>::showpoint
CONST	ENDS
;	COMDAT ?showbase@?$_Iosb@H@std@@2W4_Fmtflags@12@B
CONST	SEGMENT
?showbase@?$_Iosb@H@std@@2W4_Fmtflags@12@B DD 08H	; std::_Iosb<int>::showbase
CONST	ENDS
;	COMDAT ?uppercase@?$_Iosb@H@std@@2W4_Fmtflags@12@B
CONST	SEGMENT
?uppercase@?$_Iosb@H@std@@2W4_Fmtflags@12@B DD 04H	; std::_Iosb<int>::uppercase
CONST	ENDS
;	COMDAT ?unitbuf@?$_Iosb@H@std@@2W4_Fmtflags@12@B
CONST	SEGMENT
?unitbuf@?$_Iosb@H@std@@2W4_Fmtflags@12@B DD 02H	; std::_Iosb<int>::unitbuf
CONST	ENDS
;	COMDAT ?skipws@?$_Iosb@H@std@@2W4_Fmtflags@12@B
CONST	SEGMENT
?skipws@?$_Iosb@H@std@@2W4_Fmtflags@12@B DD 01H		; std::_Iosb<int>::skipws
CONST	ENDS
;	COMDAT ?none@?$_Locbase@H@std@@2HB
CONST	SEGMENT
?none@?$_Locbase@H@std@@2HB DD 00H			; std::_Locbase<int>::none
CONST	ENDS
;	COMDAT ?all@?$_Locbase@H@std@@2HB
CONST	SEGMENT
?all@?$_Locbase@H@std@@2HB DD 03fH			; std::_Locbase<int>::all
CONST	ENDS
;	COMDAT ?messages@?$_Locbase@H@std@@2HB
CONST	SEGMENT
?messages@?$_Locbase@H@std@@2HB DD 020H			; std::_Locbase<int>::messages
CONST	ENDS
;	COMDAT ?time@?$_Locbase@H@std@@2HB
CONST	SEGMENT
?time@?$_Locbase@H@std@@2HB DD 010H			; std::_Locbase<int>::time
CONST	ENDS
;	COMDAT ?numeric@?$_Locbase@H@std@@2HB
CONST	SEGMENT
?numeric@?$_Locbase@H@std@@2HB DD 08H			; std::_Locbase<int>::numeric
CONST	ENDS
;	COMDAT ?monetary@?$_Locbase@H@std@@2HB
CONST	SEGMENT
?monetary@?$_Locbase@H@std@@2HB DD 04H			; std::_Locbase<int>::monetary
CONST	ENDS
;	COMDAT ?ctype@?$_Locbase@H@std@@2HB
CONST	SEGMENT
?ctype@?$_Locbase@H@std@@2HB DD 02H			; std::_Locbase<int>::ctype
CONST	ENDS
;	COMDAT ?collate@?$_Locbase@H@std@@2HB
CONST	SEGMENT
?collate@?$_Locbase@H@std@@2HB DD 01H			; std::_Locbase<int>::collate
CONST	ENDS
;	COMDAT ?_Rank@?$_Arithmetic_traits@O@std@@2HB
CONST	SEGMENT
?_Rank@?$_Arithmetic_traits@O@std@@2HB DD 09H		; std::_Arithmetic_traits<long double>::_Rank
CONST	ENDS
;	COMDAT ?_Rank@?$_Arithmetic_traits@N@std@@2HB
CONST	SEGMENT
?_Rank@?$_Arithmetic_traits@N@std@@2HB DD 08H		; std::_Arithmetic_traits<double>::_Rank
CONST	ENDS
;	COMDAT ?_Rank@?$_Arithmetic_traits@M@std@@2HB
CONST	SEGMENT
?_Rank@?$_Arithmetic_traits@M@std@@2HB DD 07H		; std::_Arithmetic_traits<float>::_Rank
CONST	ENDS
;	COMDAT ?_Rank@?$_Arithmetic_traits@_K@std@@2HB
CONST	SEGMENT
?_Rank@?$_Arithmetic_traits@_K@std@@2HB DD 06H		; std::_Arithmetic_traits<unsigned __int64>::_Rank
CONST	ENDS
;	COMDAT ?_Rank@?$_Arithmetic_traits@_J@std@@2HB
CONST	SEGMENT
?_Rank@?$_Arithmetic_traits@_J@std@@2HB DD 06H		; std::_Arithmetic_traits<__int64>::_Rank
CONST	ENDS
;	COMDAT ?_Rank@?$_Arithmetic_traits@K@std@@2HB
CONST	SEGMENT
?_Rank@?$_Arithmetic_traits@K@std@@2HB DD 05H		; std::_Arithmetic_traits<unsigned long>::_Rank
CONST	ENDS
;	COMDAT ?_Rank@?$_Arithmetic_traits@J@std@@2HB
CONST	SEGMENT
?_Rank@?$_Arithmetic_traits@J@std@@2HB DD 05H		; std::_Arithmetic_traits<long>::_Rank
CONST	ENDS
;	COMDAT ?_Rank@?$_Arithmetic_traits@I@std@@2HB
CONST	SEGMENT
?_Rank@?$_Arithmetic_traits@I@std@@2HB DD 04H		; std::_Arithmetic_traits<unsigned int>::_Rank
CONST	ENDS
;	COMDAT ?_Rank@?$_Arithmetic_traits@H@std@@2HB
CONST	SEGMENT
?_Rank@?$_Arithmetic_traits@H@std@@2HB DD 04H		; std::_Arithmetic_traits<int>::_Rank
CONST	ENDS
;	COMDAT ?_Rank@?$_Arithmetic_traits@G@std@@2HB
CONST	SEGMENT
?_Rank@?$_Arithmetic_traits@G@std@@2HB DD 03H		; std::_Arithmetic_traits<unsigned short>::_Rank
CONST	ENDS
;	COMDAT ?_Rank@?$_Arithmetic_traits@F@std@@2HB
CONST	SEGMENT
?_Rank@?$_Arithmetic_traits@F@std@@2HB DD 03H		; std::_Arithmetic_traits<short>::_Rank
CONST	ENDS
;	COMDAT ?_Rank@?$_Arithmetic_traits@E@std@@2HB
CONST	SEGMENT
?_Rank@?$_Arithmetic_traits@E@std@@2HB DD 02H		; std::_Arithmetic_traits<unsigned char>::_Rank
CONST	ENDS
;	COMDAT ?_Rank@?$_Arithmetic_traits@C@std@@2HB
CONST	SEGMENT
?_Rank@?$_Arithmetic_traits@C@std@@2HB DD 02H		; std::_Arithmetic_traits<signed char>::_Rank
CONST	ENDS
;	COMDAT ?_Rank@?$_Arithmetic_traits@D@std@@2HB
CONST	SEGMENT
?_Rank@?$_Arithmetic_traits@D@std@@2HB DD 02H		; std::_Arithmetic_traits<char>::_Rank
CONST	ENDS
;	COMDAT ?_Rank@?$_Arithmetic_traits@_N@std@@2HB
CONST	SEGMENT
?_Rank@?$_Arithmetic_traits@_N@std@@2HB DD 01H		; std::_Arithmetic_traits<bool>::_Rank
CONST	ENDS
;	COMDAT ?value@?$integral_constant@I$0A@@tr1@std@@2IB
CONST	SEGMENT
?value@?$integral_constant@I$0A@@tr1@std@@2IB DD 00H	; std::tr1::integral_constant<unsigned int,0>::value
CONST	ENDS
;	COMDAT ?value@?$integral_constant@_N$00@tr1@std@@2_NB
CONST	SEGMENT
?value@?$integral_constant@_N$00@tr1@std@@2_NB DB 01H	; std::tr1::integral_constant<bool,1>::value
CONST	ENDS
;	COMDAT ?value@?$integral_constant@_N$0A@@tr1@std@@2_NB
CONST	SEGMENT
?value@?$integral_constant@_N$0A@@tr1@std@@2_NB DB 00H	; std::tr1::integral_constant<bool,0>::value
CONST	ENDS
PUBLIC	??_7bad_alloc@std@@6B@				; std::bad_alloc::`vftable'
PUBLIC	??0bad_alloc@std@@QAE@PBD@Z			; std::bad_alloc::bad_alloc
PUBLIC	??_R4bad_alloc@std@@6B@				; std::bad_alloc::`RTTI Complete Object Locator'
PUBLIC	??_R0?AVbad_alloc@std@@@8			; std::bad_alloc `RTTI Type Descriptor'
PUBLIC	??_R3bad_alloc@std@@8				; std::bad_alloc::`RTTI Class Hierarchy Descriptor'
PUBLIC	??_R2bad_alloc@std@@8				; std::bad_alloc::`RTTI Base Class Array'
PUBLIC	??_R1A@?0A@EA@bad_alloc@std@@8			; std::bad_alloc::`RTTI Base Class Descriptor at (0,-1,0,64)'
PUBLIC	??_R1A@?0A@EA@exception@std@@8			; std::exception::`RTTI Base Class Descriptor at (0,-1,0,64)'
PUBLIC	??_R0?AVexception@std@@@8			; std::exception `RTTI Type Descriptor'
PUBLIC	??_R3exception@std@@8				; std::exception::`RTTI Class Hierarchy Descriptor'
PUBLIC	??_R2exception@std@@8				; std::exception::`RTTI Base Class Array'
EXTRN	__imp_??0exception@std@@QAE@ABQBD@Z:PROC
EXTRN	??_7type_info@@6B@:QWORD			; type_info::`vftable'
EXTRN	??_Ebad_alloc@std@@UAEPAXI@Z:PROC		; std::bad_alloc::`vector deleting destructor'
EXTRN	?what@exception@std@@UBEPBDXZ:PROC		; std::exception::what
;	COMDAT ??_R2exception@std@@8
; File c:\program files (x86)\microsoft visual studio 10.0\vc\include\exception
rdata$r	SEGMENT
??_R2exception@std@@8 DD FLAT:??_R1A@?0A@EA@exception@std@@8 ; std::exception::`RTTI Base Class Array'
rdata$r	ENDS
;	COMDAT ??_R3exception@std@@8
rdata$r	SEGMENT
??_R3exception@std@@8 DD 00H				; std::exception::`RTTI Class Hierarchy Descriptor'
	DD	00H
	DD	01H
	DD	FLAT:??_R2exception@std@@8
rdata$r	ENDS
;	COMDAT ??_R0?AVexception@std@@@8
_DATA	SEGMENT
??_R0?AVexception@std@@@8 DD FLAT:??_7type_info@@6B@	; std::exception `RTTI Type Descriptor'
	DD	00H
	DB	'.?AVexception@std@@', 00H
_DATA	ENDS
;	COMDAT ??_R1A@?0A@EA@exception@std@@8
rdata$r	SEGMENT
??_R1A@?0A@EA@exception@std@@8 DD FLAT:??_R0?AVexception@std@@@8 ; std::exception::`RTTI Base Class Descriptor at (0,-1,0,64)'
	DD	00H
	DD	00H
	DD	0ffffffffH
	DD	00H
	DD	040H
	DD	FLAT:??_R3exception@std@@8
rdata$r	ENDS
;	COMDAT ??_R1A@?0A@EA@bad_alloc@std@@8
rdata$r	SEGMENT
??_R1A@?0A@EA@bad_alloc@std@@8 DD FLAT:??_R0?AVbad_alloc@std@@@8 ; std::bad_alloc::`RTTI Base Class Descriptor at (0,-1,0,64)'
	DD	01H
	DD	00H
	DD	0ffffffffH
	DD	00H
	DD	040H
	DD	FLAT:??_R3bad_alloc@std@@8
rdata$r	ENDS
;	COMDAT ??_R2bad_alloc@std@@8
rdata$r	SEGMENT
??_R2bad_alloc@std@@8 DD FLAT:??_R1A@?0A@EA@bad_alloc@std@@8 ; std::bad_alloc::`RTTI Base Class Array'
	DD	FLAT:??_R1A@?0A@EA@exception@std@@8
rdata$r	ENDS
;	COMDAT ??_R3bad_alloc@std@@8
rdata$r	SEGMENT
??_R3bad_alloc@std@@8 DD 00H				; std::bad_alloc::`RTTI Class Hierarchy Descriptor'
	DD	00H
	DD	02H
	DD	FLAT:??_R2bad_alloc@std@@8
rdata$r	ENDS
;	COMDAT ??_R0?AVbad_alloc@std@@@8
_DATA	SEGMENT
??_R0?AVbad_alloc@std@@@8 DD FLAT:??_7type_info@@6B@	; std::bad_alloc `RTTI Type Descriptor'
	DD	00H
	DB	'.?AVbad_alloc@std@@', 00H
_DATA	ENDS
;	COMDAT ??_R4bad_alloc@std@@6B@
rdata$r	SEGMENT
??_R4bad_alloc@std@@6B@ DD 00H				; std::bad_alloc::`RTTI Complete Object Locator'
	DD	00H
	DD	00H
	DD	FLAT:??_R0?AVbad_alloc@std@@@8
	DD	FLAT:??_R3bad_alloc@std@@8
rdata$r	ENDS
;	COMDAT ??_7bad_alloc@std@@6B@
CONST	SEGMENT
??_7bad_alloc@std@@6B@ DD FLAT:??_R4bad_alloc@std@@6B@	; std::bad_alloc::`vftable'
	DD	FLAT:??_Ebad_alloc@std@@UAEPAXI@Z
	DD	FLAT:?what@exception@std@@UBEPBDXZ
; Function compile flags: /Ogtp
CONST	ENDS
;	COMDAT ??0bad_alloc@std@@QAE@PBD@Z
_TEXT	SEGMENT
__Message$ = 8						; size = 4
??0bad_alloc@std@@QAE@PBD@Z PROC			; std::bad_alloc::bad_alloc, COMDAT
; _this$ = ecx
; Line 345
	push	ebp
	mov	ebp, esp
	push	esi
	lea	eax, DWORD PTR __Message$[ebp]
	push	eax
	mov	esi, ecx
	call	DWORD PTR __imp_??0exception@std@@QAE@ABQBD@Z
	mov	DWORD PTR [esi], OFFSET ??_7bad_alloc@std@@6B@
; Line 346
	mov	eax, esi
	pop	esi
	pop	ebp
	ret	4
??0bad_alloc@std@@QAE@PBD@Z ENDP			; std::bad_alloc::bad_alloc
_TEXT	ENDS
PUBLIC	??1bad_alloc@std@@UAE@XZ			; std::bad_alloc::~bad_alloc
EXTRN	__imp_??1exception@std@@UAE@XZ:PROC
; Function compile flags: /Ogtp
;	COMDAT ??1bad_alloc@std@@UAE@XZ
_TEXT	SEGMENT
??1bad_alloc@std@@UAE@XZ PROC				; std::bad_alloc::~bad_alloc, COMDAT
; _this$ = ecx
; Line 354
	mov	DWORD PTR [ecx], OFFSET ??_7bad_alloc@std@@6B@
; Line 355
	jmp	DWORD PTR __imp_??1exception@std@@UAE@XZ
??1bad_alloc@std@@UAE@XZ ENDP				; std::bad_alloc::~bad_alloc
_TEXT	ENDS
EXTRN	??3@YAXPAX@Z:PROC				; operator delete
; Function compile flags: /Ogtp
;	COMDAT ??_Gbad_alloc@std@@UAEPAXI@Z
_TEXT	SEGMENT
___flags$ = 8						; size = 4
??_Gbad_alloc@std@@UAEPAXI@Z PROC			; std::bad_alloc::`scalar deleting destructor', COMDAT
; _this$ = ecx
	push	ebp
	mov	ebp, esp
	push	esi
	mov	esi, ecx
	mov	DWORD PTR [esi], OFFSET ??_7bad_alloc@std@@6B@
	call	DWORD PTR __imp_??1exception@std@@UAE@XZ
	test	BYTE PTR ___flags$[ebp], 1
	je	SHORT $LN6@scalar
	push	esi
	call	??3@YAXPAX@Z				; operator delete
	add	esp, 4
$LN6@scalar:
	mov	eax, esi
	pop	esi
	pop	ebp
	ret	4
??_Gbad_alloc@std@@UAEPAXI@Z ENDP			; std::bad_alloc::`scalar deleting destructor'
_TEXT	ENDS
PUBLIC	??2@YAPAXIPAX@Z					; operator new
; Function compile flags: /Ogtp
;	COMDAT ??2@YAPAXIPAX@Z
_TEXT	SEGMENT
___formal$ = 8						; size = 4
__Where$ = 12						; size = 4
??2@YAPAXIPAX@Z PROC					; operator new, COMDAT
; File c:\program files (x86)\microsoft visual studio 10.0\vc\include\new
; Line 56
	push	ebp
	mov	ebp, esp
; Line 57
	mov	eax, DWORD PTR __Where$[ebp]
; Line 58
	pop	ebp
	ret	0
??2@YAPAXIPAX@Z ENDP					; operator new
_TEXT	ENDS
PUBLIC	??3@YAXPAX0@Z					; operator delete
; Function compile flags: /Ogtp
;	COMDAT ??3@YAXPAX0@Z
_TEXT	SEGMENT
___formal$ = 8						; size = 4
___formal$ = 12						; size = 4
??3@YAXPAX0@Z PROC					; operator delete, COMDAT
; Line 62
	ret	0
??3@YAXPAX0@Z ENDP					; operator delete
_TEXT	ENDS
PUBLIC	?compare@?$char_traits@D@std@@SAHPBD0I@Z	; std::char_traits<char>::compare
; Function compile flags: /Ogtp
;	COMDAT ?compare@?$char_traits@D@std@@SAHPBD0I@Z
_TEXT	SEGMENT
__First1$ = 8						; size = 4
__First2$ = 12						; size = 4
__Count$ = 16						; size = 4
?compare@?$char_traits@D@std@@SAHPBD0I@Z PROC		; std::char_traits<char>::compare, COMDAT
; File c:\program files (x86)\microsoft visual studio 10.0\vc\include\iosfwd
; Line 485
	push	ebp
	mov	ebp, esp
; Line 486
	mov	ecx, DWORD PTR __First2$[ebp]
	mov	edx, DWORD PTR __First1$[ebp]
	push	esi
	mov	esi, DWORD PTR __Count$[ebp]
	push	edi
	cmp	esi, 4
	jb	SHORT $LN11@compare
$LL4@compare:
	mov	eax, DWORD PTR [edx]
	cmp	eax, DWORD PTR [ecx]
	jne	SHORT $LN5@compare
	sub	esi, 4
	add	ecx, 4
	add	edx, 4
	cmp	esi, 4
	jae	SHORT $LL4@compare
$LN11@compare:
	test	esi, esi
	je	SHORT $LN6@compare
$LN5@compare:
	movzx	eax, BYTE PTR [edx]
	movzx	edi, BYTE PTR [ecx]
	sub	eax, edi
	jne	SHORT $LN7@compare
	cmp	esi, 1
	jbe	SHORT $LN6@compare
	movzx	eax, BYTE PTR [edx+1]
	movzx	edi, BYTE PTR [ecx+1]
	sub	eax, edi
	jne	SHORT $LN7@compare
	cmp	esi, 2
	jbe	SHORT $LN6@compare
	movzx	eax, BYTE PTR [edx+2]
	movzx	edi, BYTE PTR [ecx+2]
	sub	eax, edi
	jne	SHORT $LN7@compare
	cmp	esi, 3
	jbe	SHORT $LN6@compare
	movzx	eax, BYTE PTR [edx+3]
	movzx	ecx, BYTE PTR [ecx+3]
	sub	eax, ecx
$LN7@compare:
	sar	eax, 31					; 0000001fH
	pop	edi
	or	eax, 1
	pop	esi
; Line 487
	pop	ebp
	ret	0
$LN6@compare:
	pop	edi
; Line 486
	xor	eax, eax
	pop	esi
; Line 487
	pop	ebp
	ret	0
?compare@?$char_traits@D@std@@SAHPBD0I@Z ENDP		; std::char_traits<char>::compare
_TEXT	ENDS
PUBLIC	?length@?$char_traits@D@std@@SAIPBD@Z		; std::char_traits<char>::length
; Function compile flags: /Ogtp
;	COMDAT ?length@?$char_traits@D@std@@SAIPBD@Z
_TEXT	SEGMENT
__First$ = 8						; size = 4
?length@?$char_traits@D@std@@SAIPBD@Z PROC		; std::char_traits<char>::length, COMDAT
; Line 490
	push	ebp
	mov	ebp, esp
; Line 491
	mov	eax, DWORD PTR __First$[ebp]
	lea	edx, DWORD PTR [eax+1]
	npad	7
$LL3@length:
	mov	cl, BYTE PTR [eax]
	inc	eax
	test	cl, cl
	jne	SHORT $LL3@length
	sub	eax, edx
; Line 492
	pop	ebp
	ret	0
?length@?$char_traits@D@std@@SAIPBD@Z ENDP		; std::char_traits<char>::length
_TEXT	ENDS
PUBLIC	?copy@?$char_traits@D@std@@SAPADPADPBDI@Z	; std::char_traits<char>::copy
EXTRN	_memcpy:PROC
; Function compile flags: /Ogtp
;	COMDAT ?copy@?$char_traits@D@std@@SAPADPADPBDI@Z
_TEXT	SEGMENT
__First1$ = 8						; size = 4
__First2$ = 12						; size = 4
__Count$ = 16						; size = 4
?copy@?$char_traits@D@std@@SAPADPADPBDI@Z PROC		; std::char_traits<char>::copy, COMDAT
; Line 496
	push	ebp
	mov	ebp, esp
; Line 498
	pop	ebp
; Line 497
	jmp	_memcpy
?copy@?$char_traits@D@std@@SAPADPADPBDI@Z ENDP		; std::char_traits<char>::copy
_TEXT	ENDS
PUBLIC	?move@?$char_traits@D@std@@SAPADPADPBDI@Z	; std::char_traits<char>::move
EXTRN	__imp__memmove:PROC
; Function compile flags: /Ogtp
;	COMDAT ?move@?$char_traits@D@std@@SAPADPADPBDI@Z
_TEXT	SEGMENT
__First1$ = 8						; size = 4
__First2$ = 12						; size = 4
__Count$ = 16						; size = 4
?move@?$char_traits@D@std@@SAPADPADPBDI@Z PROC		; std::char_traits<char>::move, COMDAT
; Line 516
	push	ebp
	mov	ebp, esp
; Line 518
	pop	ebp
; Line 517
	jmp	DWORD PTR __imp__memmove
?move@?$char_traits@D@std@@SAPADPADPBDI@Z ENDP		; std::char_traits<char>::move
_TEXT	ENDS
PUBLIC	?assign@?$char_traits@D@std@@SAXAADABD@Z	; std::char_traits<char>::assign
; Function compile flags: /Ogtp
;	COMDAT ?assign@?$char_traits@D@std@@SAXAADABD@Z
_TEXT	SEGMENT
__Left$ = 8						; size = 4
__Right$ = 12						; size = 4
?assign@?$char_traits@D@std@@SAXAADABD@Z PROC		; std::char_traits<char>::assign, COMDAT
; Line 526
	push	ebp
	mov	ebp, esp
; Line 527
	mov	eax, DWORD PTR __Right$[ebp]
	mov	cl, BYTE PTR [eax]
	mov	edx, DWORD PTR __Left$[ebp]
	mov	BYTE PTR [edx], cl
; Line 528
	pop	ebp
	ret	0
?assign@?$char_traits@D@std@@SAXAADABD@Z ENDP		; std::char_traits<char>::assign
_TEXT	ENDS
PUBLIC	_fmodf
EXTRN	__fltused:DWORD
EXTRN	__CIfmod:PROC
; Function compile flags: /Ogtp
;	COMDAT _fmodf
_TEXT	SEGMENT
tv72 = 8						; size = 4
__X$ = 8						; size = 4
__Y$ = 12						; size = 4
_fmodf	PROC						; COMDAT
; File c:\program files (x86)\microsoft visual studio 10.0\vc\include\math.h
; Line 418
	push	ebp
	mov	ebp, esp
	fld	DWORD PTR __X$[ebp]
	fld	DWORD PTR __Y$[ebp]
	call	__CIfmod
	fstp	DWORD PTR tv72[ebp]
	fld	DWORD PTR tv72[ebp]
	pop	ebp
	ret	0
_fmodf	ENDP
_TEXT	ENDS
PUBLIC	_sqrtf
EXTRN	__CIsqrt:PROC
; Function compile flags: /Ogtp
;	COMDAT _sqrtf
_TEXT	SEGMENT
tv69 = 8						; size = 4
__X$ = 8						; size = 4
_sqrtf	PROC						; COMDAT
; Line 434
	push	ebp
	mov	ebp, esp
	fld	DWORD PTR __X$[ebp]
	call	__CIsqrt
	fstp	DWORD PTR tv69[ebp]
	fld	DWORD PTR tv69[ebp]
	pop	ebp
	ret	0
_sqrtf	ENDP
_TEXT	ENDS
PUBLIC	?fmod@@YAMMM@Z					; fmod
; Function compile flags: /Ogtp
;	COMDAT ?fmod@@YAMMM@Z
_TEXT	SEGMENT
tv77 = 8						; size = 4
__X$ = 8						; size = 4
__Y$ = 12						; size = 4
?fmod@@YAMMM@Z PROC					; fmod, COMDAT
; Line 522
	push	ebp
	mov	ebp, esp
	fld	DWORD PTR __X$[ebp]
	fld	DWORD PTR __Y$[ebp]
	call	__CIfmod
	fstp	DWORD PTR tv77[ebp]
	fld	DWORD PTR tv77[ebp]
	pop	ebp
	ret	0
?fmod@@YAMMM@Z ENDP					; fmod
_TEXT	ENDS
PUBLIC	?sqrt@@YAMM@Z					; sqrt
; Function compile flags: /Ogtp
;	COMDAT ?sqrt@@YAMM@Z
_TEXT	SEGMENT
tv73 = 8						; size = 4
__X$ = 8						; size = 4
?sqrt@@YAMM@Z PROC					; sqrt, COMDAT
; Line 542
	push	ebp
	mov	ebp, esp
	fld	DWORD PTR __X$[ebp]
	call	__CIsqrt
	fstp	DWORD PTR tv73[ebp]
	fld	DWORD PTR tv73[ebp]
	pop	ebp
	ret	0
?sqrt@@YAMM@Z ENDP					; sqrt
_TEXT	ENDS
PUBLIC	?_Adopt@_Iterator_base0@std@@QAEXPBX@Z		; std::_Iterator_base0::_Adopt
; Function compile flags: /Ogtp
;	COMDAT ?_Adopt@_Iterator_base0@std@@QAEXPBX@Z
_TEXT	SEGMENT
___formal$ = 8						; size = 4
?_Adopt@_Iterator_base0@std@@QAEXPBX@Z PROC		; std::_Iterator_base0::_Adopt, COMDAT
; _this$ = ecx
; File c:\program files (x86)\microsoft visual studio 10.0\vc\include\xutility
; Line 49
	ret	4
?_Adopt@_Iterator_base0@std@@QAEXPBX@Z ENDP		; std::_Iterator_base0::_Adopt
_TEXT	ENDS
PUBLIC	?getPos@MPQFile@@QAEIXZ				; MPQFile::getPos
; Function compile flags: /Ogtp
;	COMDAT ?getPos@MPQFile@@QAEIXZ
_TEXT	SEGMENT
?getPos@MPQFile@@QAEIXZ PROC				; MPQFile::getPos, COMDAT
; _this$ = ecx
; File c:\programovani\wow editor\test\src\editor\mpq.h
; Line 47
	mov	eax, DWORD PTR [ecx+1032]
	ret	0
?getPos@MPQFile@@QAEIXZ ENDP				; MPQFile::getPos
_TEXT	ENDS
PUBLIC	?isEof@MPQFile@@QAE_NXZ				; MPQFile::isEof
; Function compile flags: /Ogtp
;	COMDAT ?isEof@MPQFile@@QAE_NXZ
_TEXT	SEGMENT
?isEof@MPQFile@@QAE_NXZ PROC				; MPQFile::isEof, COMDAT
; _this$ = ecx
; Line 50
	mov	al, BYTE PTR [ecx+1024]
	ret	0
?isEof@MPQFile@@QAE_NXZ ENDP				; MPQFile::isEof
_TEXT	ENDS
PUBLIC	?flipcc@@YAXPAD@Z				; flipcc
; Function compile flags: /Ogtp
;	COMDAT ?flipcc@@YAXPAD@Z
_TEXT	SEGMENT
_fcc$ = 8						; size = 4
?flipcc@@YAXPAD@Z PROC					; flipcc, COMDAT
; Line 67
	push	ebp
	mov	ebp, esp
; Line 69
	mov	eax, DWORD PTR _fcc$[ebp]
; Line 70
	movzx	edx, BYTE PTR [eax+3]
	mov	cl, BYTE PTR [eax]
	mov	BYTE PTR [eax], dl
; Line 73
	movzx	edx, BYTE PTR [eax+2]
	mov	BYTE PTR [eax+3], cl
	mov	cl, BYTE PTR [eax+1]
	mov	BYTE PTR [eax+1], dl
; Line 74
	mov	BYTE PTR [eax+2], cl
; Line 75
	pop	ebp
	ret	0
?flipcc@@YAXPAD@Z ENDP					; flipcc
_TEXT	ENDS
PUBLIC	??0Vec3D@@QAE@MMM@Z				; Vec3D::Vec3D
; Function compile flags: /Ogtp
;	COMDAT ??0Vec3D@@QAE@MMM@Z
_TEXT	SEGMENT
_x0$ = 8						; size = 4
_y0$ = 12						; size = 4
_z0$ = 16						; size = 4
??0Vec3D@@QAE@MMM@Z PROC				; Vec3D::Vec3D, COMDAT
; _this$ = ecx
; File c:\programovani\wow editor\test\src\editor\vec3d.h
; Line 12
	push	ebp
	mov	ebp, esp
	mov	edx, DWORD PTR _y0$[ebp]
	mov	eax, ecx
	mov	ecx, DWORD PTR _x0$[ebp]
	mov	DWORD PTR [eax], ecx
	mov	ecx, DWORD PTR _z0$[ebp]
	mov	DWORD PTR [eax+4], edx
	mov	DWORD PTR [eax+8], ecx
	pop	ebp
	ret	12					; 0000000cH
??0Vec3D@@QAE@MMM@Z ENDP				; Vec3D::Vec3D
_TEXT	ENDS
PUBLIC	??0Vec3D@@QAE@ABV0@@Z				; Vec3D::Vec3D
; Function compile flags: /Ogtp
;	COMDAT ??0Vec3D@@QAE@ABV0@@Z
_TEXT	SEGMENT
_v$ = 8							; size = 4
??0Vec3D@@QAE@ABV0@@Z PROC				; Vec3D::Vec3D, COMDAT
; _this$ = ecx
; Line 14
	push	ebp
	mov	ebp, esp
	mov	eax, ecx
	mov	ecx, DWORD PTR _v$[ebp]
	mov	edx, DWORD PTR [ecx]
	mov	DWORD PTR [eax], edx
	mov	edx, DWORD PTR [ecx+4]
	mov	DWORD PTR [eax+4], edx
	mov	ecx, DWORD PTR [ecx+8]
	mov	DWORD PTR [eax+8], ecx
	pop	ebp
	ret	4
??0Vec3D@@QAE@ABV0@@Z ENDP				; Vec3D::Vec3D
_TEXT	ENDS
PUBLIC	??4Vec3D@@QAEAAV0@ABV0@@Z			; Vec3D::operator=
; Function compile flags: /Ogtp
;	COMDAT ??4Vec3D@@QAEAAV0@ABV0@@Z
_TEXT	SEGMENT
_v$ = 8							; size = 4
??4Vec3D@@QAEAAV0@ABV0@@Z PROC				; Vec3D::operator=, COMDAT
; _this$ = ecx
; Line 17
	push	ebp
	mov	ebp, esp
	mov	eax, ecx
; Line 18
	mov	ecx, DWORD PTR _v$[ebp]
	mov	edx, DWORD PTR [ecx]
	mov	DWORD PTR [eax], edx
; Line 19
	mov	edx, DWORD PTR [ecx+4]
	mov	DWORD PTR [eax+4], edx
; Line 20
	mov	ecx, DWORD PTR [ecx+8]
	mov	DWORD PTR [eax+8], ecx
; Line 22
	pop	ebp
	ret	4
??4Vec3D@@QAEAAV0@ABV0@@Z ENDP				; Vec3D::operator=
_TEXT	ENDS
PUBLIC	??HVec3D@@QBE?AV0@ABV0@@Z			; Vec3D::operator+
; Function compile flags: /Ogtp
;	COMDAT ??HVec3D@@QBE?AV0@ABV0@@Z
_TEXT	SEGMENT
___$ReturnUdt$ = 8					; size = 4
_v$ = 12						; size = 4
??HVec3D@@QBE?AV0@ABV0@@Z PROC				; Vec3D::operator+, COMDAT
; _this$ = ecx
; Line 25
	push	ebp
	mov	ebp, esp
; Line 26
	mov	edx, DWORD PTR _v$[ebp]
	fld	DWORD PTR [edx]
	mov	eax, DWORD PTR ___$ReturnUdt$[ebp]
	fadd	DWORD PTR [ecx]
	fstp	DWORD PTR [eax]
	fld	DWORD PTR [edx+4]
	fadd	DWORD PTR [ecx+4]
	fstp	DWORD PTR [eax+4]
	fld	DWORD PTR [edx+8]
	fadd	DWORD PTR [ecx+8]
	fstp	DWORD PTR [eax+8]
; Line 28
	pop	ebp
	ret	8
??HVec3D@@QBE?AV0@ABV0@@Z ENDP				; Vec3D::operator+
_TEXT	ENDS
PUBLIC	??GVec3D@@QBE?AV0@ABV0@@Z			; Vec3D::operator-
; Function compile flags: /Ogtp
;	COMDAT ??GVec3D@@QBE?AV0@ABV0@@Z
_TEXT	SEGMENT
___$ReturnUdt$ = 8					; size = 4
_v$ = 12						; size = 4
??GVec3D@@QBE?AV0@ABV0@@Z PROC				; Vec3D::operator-, COMDAT
; _this$ = ecx
; Line 31
	push	ebp
	mov	ebp, esp
; Line 32
	mov	edx, DWORD PTR _v$[ebp]
	fld	DWORD PTR [ecx]
	fsub	DWORD PTR [edx]
	mov	eax, DWORD PTR ___$ReturnUdt$[ebp]
	fstp	DWORD PTR [eax]
	fld	DWORD PTR [ecx+4]
	fsub	DWORD PTR [edx+4]
	fstp	DWORD PTR [eax+4]
	fld	DWORD PTR [ecx+8]
	fsub	DWORD PTR [edx+8]
	fstp	DWORD PTR [eax+8]
; Line 34
	pop	ebp
	ret	8
??GVec3D@@QBE?AV0@ABV0@@Z ENDP				; Vec3D::operator-
_TEXT	ENDS
PUBLIC	??DVec3D@@QBE?AV0@M@Z				; Vec3D::operator*
; Function compile flags: /Ogtp
;	COMDAT ??DVec3D@@QBE?AV0@M@Z
_TEXT	SEGMENT
___$ReturnUdt$ = 8					; size = 4
_d$ = 12						; size = 4
??DVec3D@@QBE?AV0@M@Z PROC				; Vec3D::operator*, COMDAT
; _this$ = ecx
; Line 42
	push	ebp
	mov	ebp, esp
; Line 43
	fld	DWORD PTR [ecx]
	mov	eax, DWORD PTR ___$ReturnUdt$[ebp]
	fld	DWORD PTR _d$[ebp]
	fld	ST(0)
	fmulp	ST(2), ST(0)
	fxch	ST(1)
	fstp	DWORD PTR [eax]
	fld	DWORD PTR [ecx+4]
	fmul	ST(0), ST(1)
	fstp	DWORD PTR [eax+4]
	fmul	DWORD PTR [ecx+8]
	fstp	DWORD PTR [eax+8]
; Line 45
	pop	ebp
	ret	8
??DVec3D@@QBE?AV0@M@Z ENDP				; Vec3D::operator*
_TEXT	ENDS
PUBLIC	??LVec3D@@QBE?AV0@ABV0@@Z			; Vec3D::operator%
; Function compile flags: /Ogtp
;	COMDAT ??LVec3D@@QBE?AV0@ABV0@@Z
_TEXT	SEGMENT
___$ReturnUdt$ = 8					; size = 4
_v$ = 12						; size = 4
??LVec3D@@QBE?AV0@ABV0@@Z PROC				; Vec3D::operator%, COMDAT
; _this$ = ecx
; Line 53
	push	ebp
	mov	ebp, esp
; Line 54
	mov	edx, DWORD PTR _v$[ebp]
	fld	DWORD PTR [edx+8]
	mov	eax, DWORD PTR ___$ReturnUdt$[ebp]
	fmul	DWORD PTR [ecx+4]
	fld	DWORD PTR [edx+4]
	fmul	DWORD PTR [ecx+8]
	fsubp	ST(1), ST(0)
	fstp	DWORD PTR [eax]
	fld	DWORD PTR [ecx+8]
	fmul	DWORD PTR [edx]
	fld	DWORD PTR [ecx]
	fmul	DWORD PTR [edx+8]
	fsubp	ST(1), ST(0)
	fstp	DWORD PTR [eax+4]
	fld	DWORD PTR [edx+4]
	fmul	DWORD PTR [ecx]
	fld	DWORD PTR [edx]
	fmul	DWORD PTR [ecx+4]
	fsubp	ST(1), ST(0)
	fstp	DWORD PTR [eax+8]
; Line 56
	pop	ebp
	ret	8
??LVec3D@@QBE?AV0@ABV0@@Z ENDP				; Vec3D::operator%
_TEXT	ENDS
PUBLIC	??XVec3D@@QAEAAV0@M@Z				; Vec3D::operator*=
; Function compile flags: /Ogtp
;	COMDAT ??XVec3D@@QAEAAV0@M@Z
_TEXT	SEGMENT
_d$ = 8							; size = 4
??XVec3D@@QAEAAV0@M@Z PROC				; Vec3D::operator*=, COMDAT
; _this$ = ecx
; Line 75
	push	ebp
	mov	ebp, esp
	mov	eax, ecx
; Line 76
	fld	DWORD PTR [eax]
	fld	DWORD PTR _d$[ebp]
	fld	ST(0)
	fmulp	ST(2), ST(0)
	fxch	ST(1)
	fstp	DWORD PTR [eax]
; Line 77
	fld	DWORD PTR [eax+4]
	fmul	ST(0), ST(1)
	fstp	DWORD PTR [eax+4]
; Line 78
	fmul	DWORD PTR [eax+8]
	fstp	DWORD PTR [eax+8]
; Line 80
	pop	ebp
	ret	4
??XVec3D@@QAEAAV0@M@Z ENDP				; Vec3D::operator*=
_TEXT	ENDS
PUBLIC	?length@Vec3D@@QBEMXZ				; Vec3D::length
; Function compile flags: /Ogtp
;	COMDAT ?length@Vec3D@@QBEMXZ
_TEXT	SEGMENT
tv170 = -4						; size = 4
tv161 = -4						; size = 4
?length@Vec3D@@QBEMXZ PROC				; Vec3D::length, COMDAT
; _this$ = ecx
; Line 88
	push	ebp
	mov	ebp, esp
	push	ecx
; Line 89
	fld	DWORD PTR [ecx+4]
	fld	DWORD PTR [ecx]
	fld	DWORD PTR [ecx+8]
	fld	ST(1)
	fmulp	ST(2), ST(0)
	fld	ST(2)
	fmulp	ST(3), ST(0)
	fxch	ST(1)
	faddp	ST(2), ST(0)
	fmul	ST(0), ST(0)
	faddp	ST(1), ST(0)
	fstp	DWORD PTR tv170[ebp]
	fld	DWORD PTR tv170[ebp]
	call	__CIsqrt
	fstp	DWORD PTR tv161[ebp]
	fld	DWORD PTR tv161[ebp]
; Line 90
	mov	esp, ebp
	pop	ebp
	ret	0
?length@Vec3D@@QBEMXZ ENDP				; Vec3D::length
_TEXT	ENDS
PUBLIC	__real@3ff0000000000000
PUBLIC	?normalize@Vec3D@@QAEAAV1@XZ			; Vec3D::normalize
;	COMDAT __real@3ff0000000000000
CONST	SEGMENT
__real@3ff0000000000000 DQ 03ff0000000000000r	; 1
; Function compile flags: /Ogtp
CONST	ENDS
;	COMDAT ?normalize@Vec3D@@QAEAAV1@XZ
_TEXT	SEGMENT
tv206 = -4						; size = 4
tv196 = -4						; size = 4
$T132543 = -4						; size = 4
?normalize@Vec3D@@QAEAAV1@XZ PROC			; Vec3D::normalize, COMDAT
; _this$ = ecx
; Line 93
	push	ebp
	mov	ebp, esp
	push	ecx
	push	esi
	mov	esi, ecx
; Line 94
	fld	DWORD PTR [esi+4]
	fld	DWORD PTR [esi]
	fld	DWORD PTR [esi+8]
	fld	ST(1)
	fmulp	ST(2), ST(0)
	fld	ST(2)
	fmulp	ST(3), ST(0)
	fxch	ST(1)
	faddp	ST(2), ST(0)
	fmul	ST(0), ST(0)
	faddp	ST(1), ST(0)
	fstp	DWORD PTR tv206[ebp]
	fld	DWORD PTR tv206[ebp]
	call	__CIsqrt
	fstp	DWORD PTR tv196[ebp]
	fld	DWORD PTR tv196[ebp]
; Line 95
	mov	eax, esi
	fld1
	fdivrp	ST(1), ST(0)
	fstp	DWORD PTR $T132543[ebp]
	fld	DWORD PTR [esi]
	fld	DWORD PTR $T132543[ebp]
	fld	ST(0)
	fmulp	ST(2), ST(0)
	fxch	ST(1)
	fstp	DWORD PTR [esi]
	fld	ST(0)
	fmul	DWORD PTR [esi+4]
	fstp	DWORD PTR [esi+4]
	fmul	DWORD PTR [esi+8]
	fstp	DWORD PTR [esi+8]
	pop	esi
; Line 96
	mov	esp, ebp
	pop	ebp
	ret	0
?normalize@Vec3D@@QAEAAV1@XZ ENDP			; Vec3D::normalize
_TEXT	ENDS
PUBLIC	??BVec3D@@QAEPAMXZ				; Vec3D::operator float *
; Function compile flags: /Ogtp
;	COMDAT ??BVec3D@@QAEPAMXZ
_TEXT	SEGMENT
??BVec3D@@QAEPAMXZ PROC					; Vec3D::operator float *, COMDAT
; _this$ = ecx
; Line 112
	mov	eax, ecx
; Line 114
	ret	0
??BVec3D@@QAEPAMXZ ENDP					; Vec3D::operator float *
_TEXT	ENDS
PUBLIC	??0Vec2D@@QAE@MM@Z				; Vec2D::Vec2D
; Function compile flags: /Ogtp
;	COMDAT ??0Vec2D@@QAE@MM@Z
_TEXT	SEGMENT
_x0$ = 8						; size = 4
_y0$ = 12						; size = 4
??0Vec2D@@QAE@MM@Z PROC					; Vec2D::Vec2D, COMDAT
; _this$ = ecx
; Line 122
	push	ebp
	mov	ebp, esp
	mov	edx, DWORD PTR _y0$[ebp]
	mov	eax, ecx
	mov	ecx, DWORD PTR _x0$[ebp]
	mov	DWORD PTR [eax], ecx
	mov	DWORD PTR [eax+4], edx
	pop	ebp
	ret	8
??0Vec2D@@QAE@MM@Z ENDP					; Vec2D::Vec2D
_TEXT	ENDS
PUBLIC	??4Vec2D@@QAEAAV0@ABV0@@Z			; Vec2D::operator=
; Function compile flags: /Ogtp
;	COMDAT ??4Vec2D@@QAEAAV0@ABV0@@Z
_TEXT	SEGMENT
_v$ = 8							; size = 4
??4Vec2D@@QAEAAV0@ABV0@@Z PROC				; Vec2D::operator=, COMDAT
; _this$ = ecx
; Line 127
	push	ebp
	mov	ebp, esp
	mov	eax, ecx
; Line 128
	mov	ecx, DWORD PTR _v$[ebp]
	mov	edx, DWORD PTR [ecx]
	mov	DWORD PTR [eax], edx
; Line 129
	mov	ecx, DWORD PTR [ecx+4]
	mov	DWORD PTR [eax+4], ecx
; Line 131
	pop	ebp
	ret	4
??4Vec2D@@QAEAAV0@ABV0@@Z ENDP				; Vec2D::operator=
_TEXT	ENDS
PUBLIC	?delref@ManagedItem@@QAE_NXZ			; ManagedItem::delref
; Function compile flags: /Ogtp
;	COMDAT ?delref@ManagedItem@@QAE_NXZ
_TEXT	SEGMENT
?delref@ManagedItem@@QAE_NXZ PROC			; ManagedItem::delref, COMDAT
; _this$ = ecx
; File c:\programovani\wow editor\test\src\editor\manager.h
; Line 24
	dec	DWORD PTR [ecx+4]
	mov	eax, 0
	sete	al
; Line 25
	ret	0
?delref@ManagedItem@@QAE_NXZ ENDP			; ManagedItem::delref
_TEXT	ENDS
PUBLIC	??0Vec4D@@QAE@MMMM@Z				; Vec4D::Vec4D
; Function compile flags: /Ogtp
;	COMDAT ??0Vec4D@@QAE@MMMM@Z
_TEXT	SEGMENT
_x0$ = 8						; size = 4
_y0$ = 12						; size = 4
_z0$ = 16						; size = 4
_w0$ = 20						; size = 4
??0Vec4D@@QAE@MMMM@Z PROC				; Vec4D::Vec4D, COMDAT
; _this$ = ecx
; File c:\programovani\wow editor\test\src\editor\quaternion.h
; Line 12
	push	ebp
	mov	ebp, esp
	mov	edx, DWORD PTR _y0$[ebp]
	mov	eax, ecx
	mov	ecx, DWORD PTR _x0$[ebp]
	mov	DWORD PTR [eax], ecx
	mov	ecx, DWORD PTR _z0$[ebp]
	mov	DWORD PTR [eax+4], edx
	mov	edx, DWORD PTR _w0$[ebp]
	mov	DWORD PTR [eax+8], ecx
	mov	DWORD PTR [eax+12], edx
	pop	ebp
	ret	16					; 00000010H
??0Vec4D@@QAE@MMMM@Z ENDP				; Vec4D::Vec4D
_TEXT	ENDS
PUBLIC	??0Vec4D@@QAE@ABVVec3D@@M@Z			; Vec4D::Vec4D
; Function compile flags: /Ogtp
;	COMDAT ??0Vec4D@@QAE@ABVVec3D@@M@Z
_TEXT	SEGMENT
_v$ = 8							; size = 4
_w0$ = 12						; size = 4
??0Vec4D@@QAE@ABVVec3D@@M@Z PROC			; Vec4D::Vec4D, COMDAT
; _this$ = ecx
; Line 16
	push	ebp
	mov	ebp, esp
	mov	eax, ecx
	mov	ecx, DWORD PTR _v$[ebp]
	mov	edx, DWORD PTR [ecx]
	mov	DWORD PTR [eax], edx
	mov	edx, DWORD PTR [ecx+4]
	mov	DWORD PTR [eax+4], edx
	mov	ecx, DWORD PTR [ecx+8]
	mov	edx, DWORD PTR _w0$[ebp]
	mov	DWORD PTR [eax+8], ecx
	mov	DWORD PTR [eax+12], edx
	pop	ebp
	ret	8
??0Vec4D@@QAE@ABVVec3D@@M@Z ENDP			; Vec4D::Vec4D
_TEXT	ENDS
PUBLIC	??BVec4D@@QAEPAMXZ				; Vec4D::operator float *
; Function compile flags: /Ogtp
;	COMDAT ??BVec4D@@QAEPAMXZ
_TEXT	SEGMENT
??BVec4D@@QAEPAMXZ PROC					; Vec4D::operator float *, COMDAT
; _this$ = ecx
; Line 99
	mov	eax, ecx
; Line 101
	ret	0
??BVec4D@@QAEPAMXZ ENDP					; Vec4D::operator float *
_TEXT	ENDS
PUBLIC	??_H@YGXPAXIHP6EPAX0@Z@Z			; `vector constructor iterator'
; Function compile flags: /Ogtp
;	COMDAT ??_H@YGXPAXIHP6EPAX0@Z@Z
_TEXT	SEGMENT
___t$ = 8						; size = 4
___s$ = 12						; size = 4
___n$ = 16						; size = 4
___f$ = 20						; size = 4
??_H@YGXPAXIHP6EPAX0@Z@Z PROC				; `vector constructor iterator', COMDAT
	push	ebp
	mov	ebp, esp
	push	edi
	mov	edi, DWORD PTR ___n$[ebp]
	dec	edi
	js	SHORT $LN1@vector
	push	ebx
	mov	ebx, DWORD PTR ___f$[ebp]
	push	esi
	mov	esi, DWORD PTR ___t$[ebp]
$LL2@vector:
	mov	ecx, esi
	call	ebx
	add	esi, DWORD PTR ___s$[ebp]
	dec	edi
	jns	SHORT $LL2@vector
	pop	esi
	pop	ebx
$LN1@vector:
	pop	edi
	pop	ebp
	ret	16					; 00000010H
??_H@YGXPAXIHP6EPAX0@Z@Z ENDP				; `vector constructor iterator'
_TEXT	ENDS
PUBLIC	??_FVec3D@@QAEXXZ				; Vec3D::`default constructor closure'
; Function compile flags: /Ogtp
;	COMDAT ??_FVec3D@@QAEXXZ
_TEXT	SEGMENT
??_FVec3D@@QAEXXZ PROC					; Vec3D::`default constructor closure', COMDAT
; _this$ = ecx
	xor	eax, eax
	mov	DWORD PTR [ecx], eax
	mov	DWORD PTR [ecx+4], eax
	mov	DWORD PTR [ecx+8], eax
	ret	0
??_FVec3D@@QAEXXZ ENDP					; Vec3D::`default constructor closure'
_TEXT	ENDS
PUBLIC	?isLoaded@MapTile@@QAE_NXZ			; MapTile::isLoaded
; Function compile flags: /Ogtp
;	COMDAT ?isLoaded@MapTile@@QAE_NXZ
_TEXT	SEGMENT
?isLoaded@MapTile@@QAE_NXZ PROC				; MapTile::isLoaded, COMDAT
; _this$ = ecx
; File c:\programovani\wow editor\test\src\editor\maptile.h
; Line 218
	movzx	eax, BYTE PTR [ecx+2132]
	movzx	edx, BYTE PTR [ecx+2104]
	movzx	ecx, BYTE PTR [ecx+2088]
	and	eax, edx
	and	eax, ecx
	ret	0
?isLoaded@MapTile@@QAE_NXZ ENDP				; MapTile::isLoaded
_TEXT	ENDS
PUBLIC	?partialLoad@MapTile@@QAEXXZ			; MapTile::partialLoad
EXTRN	?loadModel@MapTile@@AAEXXZ:PROC			; MapTile::loadModel
EXTRN	?loadWMO@MapTile@@AAEXXZ:PROC			; MapTile::loadWMO
EXTRN	?loadChunk@MapTile@@AAEXXZ:PROC			; MapTile::loadChunk
EXTRN	?loadTexture@MapTile@@AAEXXZ:PROC		; MapTile::loadTexture
; Function compile flags: /Ogtp
;	COMDAT ?partialLoad@MapTile@@QAEXXZ
_TEXT	SEGMENT
?partialLoad@MapTile@@QAEXXZ PROC			; MapTile::partialLoad, COMDAT
; _this$ = ecx
; Line 220
	push	esi
	mov	esi, ecx
; Line 221
	cmp	BYTE PTR [esi+2088], 0
	jne	SHORT $LN10@partialLoa
; Line 223
	push	edi
	mov	edi, 2
$LL9@partialLoa:
; Line 224
	mov	ecx, esi
	call	?loadTexture@MapTile@@AAEXXZ		; MapTile::loadTexture
	dec	edi
	jne	SHORT $LL9@partialLoa
	pop	edi
$LN1@partialLoa:
	pop	esi
; Line 235
	ret	0
$LN10@partialLoa:
; Line 226
	cmp	BYTE PTR [esi+32], 0
	jne	SHORT $LN5@partialLoa
	pop	esi
; Line 229
	jmp	?loadChunk@MapTile@@AAEXXZ		; MapTile::loadChunk
$LN5@partialLoa:
; Line 231
	cmp	BYTE PTR [esi+2132], 0
	jne	SHORT $LN3@partialLoa
	pop	esi
; Line 232
	jmp	?loadWMO@MapTile@@AAEXXZ		; MapTile::loadWMO
$LN3@partialLoa:
; Line 233
	cmp	BYTE PTR [esi+2104], 0
	jne	SHORT $LN1@partialLoa
	pop	esi
; Line 234
	jmp	?loadModel@MapTile@@AAEXXZ		; MapTile::loadModel
?partialLoad@MapTile@@QAEXXZ ENDP			; MapTile::partialLoad
_TEXT	ENDS
PUBLIC	??0OutdoorLightStats@@QAE@XZ			; OutdoorLightStats::OutdoorLightStats
; Function compile flags: /Ogtp
;	COMDAT ??0OutdoorLightStats@@QAE@XZ
_TEXT	SEGMENT
??0OutdoorLightStats@@QAE@XZ PROC			; OutdoorLightStats::OutdoorLightStats, COMDAT
; _this$ = ecx
	mov	eax, ecx
	xor	ecx, ecx
	mov	DWORD PTR [eax+24], ecx
	mov	DWORD PTR [eax+28], ecx
	mov	DWORD PTR [eax+32], ecx
	mov	DWORD PTR [eax+36], ecx
	mov	DWORD PTR [eax+40], ecx
	mov	DWORD PTR [eax+44], ecx
	mov	DWORD PTR [eax+48], ecx
	mov	DWORD PTR [eax+52], ecx
	mov	DWORD PTR [eax+56], ecx
	mov	DWORD PTR [eax+60], ecx
	mov	DWORD PTR [eax+64], ecx
	mov	DWORD PTR [eax+68], ecx
	mov	DWORD PTR [eax+72], ecx
	mov	DWORD PTR [eax+76], ecx
	mov	DWORD PTR [eax+80], ecx
	mov	DWORD PTR [eax+84], ecx
	mov	DWORD PTR [eax+88], ecx
	mov	DWORD PTR [eax+92], ecx
	ret	0
??0OutdoorLightStats@@QAE@XZ ENDP			; OutdoorLightStats::OutdoorLightStats
_TEXT	ENDS
PUBLIC	??_FVec2D@@QAEXXZ				; Vec2D::`default constructor closure'
; Function compile flags: /Ogtp
;	COMDAT ??_FVec2D@@QAEXXZ
_TEXT	SEGMENT
??_FVec2D@@QAEXXZ PROC					; Vec2D::`default constructor closure', COMDAT
; _this$ = ecx
	mov	DWORD PTR [ecx], 0
	mov	DWORD PTR [ecx+4], 0
	ret	0
??_FVec2D@@QAEXXZ ENDP					; Vec2D::`default constructor closure'
_TEXT	ENDS
PUBLIC	??_GMapTile@@QAEPAXI@Z				; MapTile::`scalar deleting destructor'
EXTRN	??1MapTile@@QAE@XZ:PROC				; MapTile::~MapTile
; Function compile flags: /Ogtp
;	COMDAT ??_GMapTile@@QAEPAXI@Z
_TEXT	SEGMENT
___flags$ = 8						; size = 4
??_GMapTile@@QAEPAXI@Z PROC				; MapTile::`scalar deleting destructor', COMDAT
; _this$ = ecx
	push	ebp
	mov	ebp, esp
	push	esi
	mov	esi, ecx
	call	??1MapTile@@QAE@XZ			; MapTile::~MapTile
	test	BYTE PTR ___flags$[ebp], 1
	je	SHORT $LN4@scalar@2
	push	esi
	call	??3@YAXPAX@Z				; operator delete
	add	esp, 4
$LN4@scalar@2:
	mov	eax, esi
	pop	esi
	pop	ebp
	ret	4
??_GMapTile@@QAEPAXI@Z ENDP				; MapTile::`scalar deleting destructor'
_TEXT	ENDS
PUBLIC	??_GSkies@@QAEPAXI@Z				; Skies::`scalar deleting destructor'
EXTRN	??1Skies@@QAE@XZ:PROC				; Skies::~Skies
; Function compile flags: /Ogtp
;	COMDAT ??_GSkies@@QAEPAXI@Z
_TEXT	SEGMENT
___flags$ = 8						; size = 4
??_GSkies@@QAEPAXI@Z PROC				; Skies::`scalar deleting destructor', COMDAT
; _this$ = ecx
	push	ebp
	mov	ebp, esp
	push	esi
	mov	esi, ecx
	call	??1Skies@@QAE@XZ			; Skies::~Skies
	test	BYTE PTR ___flags$[ebp], 1
	je	SHORT $LN4@scalar@3
	push	esi
	call	??3@YAXPAX@Z				; operator delete
	add	esp, 4
$LN4@scalar@3:
	mov	eax, esi
	pop	esi
	pop	ebp
	ret	4
??_GSkies@@QAEPAXI@Z ENDP				; Skies::`scalar deleting destructor'
_TEXT	ENDS
PUBLIC	?oktile@@YA_NHH@Z				; oktile
; Function compile flags: /Ogtp
_TEXT	SEGMENT
_i$ = 8							; size = 4
_j$ = 12						; size = 4
?oktile@@YA_NHH@Z PROC					; oktile
; File c:\programovani\wow editor\test\src\editor\world.cpp
; Line 515
	push	ebp
	mov	ebp, esp
; Line 516
	mov	ecx, DWORD PTR _i$[ebp]
	test	ecx, ecx
	js	SHORT $LN3@oktile
	mov	eax, DWORD PTR _j$[ebp]
	test	eax, eax
	js	SHORT $LN3@oktile
	cmp	ecx, 64					; 00000040H
	jge	SHORT $LN3@oktile
	cmp	eax, 64					; 00000040H
	jge	SHORT $LN3@oktile
	mov	eax, 1
; Line 517
	pop	ebp
	ret	0
$LN3@oktile:
; Line 516
	xor	eax, eax
; Line 517
	pop	ebp
	ret	0
?oktile@@YA_NHH@Z ENDP					; oktile
_TEXT	ENDS
PUBLIC	?saveTile@World@@QAEXHH@Z			; World::saveTile
EXTRN	?saveTile@MapTile@@QAEXXZ:PROC			; MapTile::saveTile
EXTRN	?gLog@@YAXPADZZ:PROC				; gLog
; Function compile flags: /Ogtp
_TEXT	SEGMENT
_x$ = 8							; size = 4
_z$ = 12						; size = 4
?saveTile@World@@QAEXHH@Z PROC				; World::saveTile
; _this$ = ecx
; Line 620
	push	ebp
	mov	ebp, esp
	push	edi
	mov	edi, ecx
; Line 621
	mov	ecx, DWORD PTR _x$[ebp]
	test	ecx, ecx
	js	SHORT $LN5@saveTile
	push	ebx
	mov	ebx, DWORD PTR _z$[ebp]
	test	ebx, ebx
	js	SHORT $LN17@saveTile
	cmp	ecx, 64					; 00000040H
	jge	SHORT $LN17@saveTile
	cmp	ebx, 64					; 00000040H
	jge	SHORT $LN17@saveTile
	mov	eax, ebx
	shl	eax, 6
	add	eax, ecx
	cmp	BYTE PTR [eax+edi+304], 0
	je	SHORT $LN17@saveTile
; Line 626
	push	esi
	xor	esi, esi
$LL16@saveTile:
; Line 628
	mov	eax, DWORD PTR [edi+esi*4]
	test	eax, eax
	je	SHORT $LN3@saveTile
	cmp	DWORD PTR [eax+2244], ecx
	jne	SHORT $LN3@saveTile
	cmp	DWORD PTR [eax+2248], ebx
	jne	SHORT $LN3@saveTile
; Line 630
	push	OFFSET $SG117491
	call	?gLog@@YAXPADZZ				; gLog
; Line 631
	mov	ecx, DWORD PTR [edi+esi*4]
	add	esp, 4
	call	?saveTile@MapTile@@QAEXXZ		; MapTile::saveTile
	mov	ecx, DWORD PTR _x$[ebp]
$LN3@saveTile:
; Line 626
	inc	esi
	cmp	esi, 36					; 00000024H
	jl	SHORT $LL16@saveTile
	pop	esi
$LN17@saveTile:
	pop	ebx
$LN5@saveTile:
	pop	edi
; Line 634
	pop	ebp
	ret	8
?saveTile@World@@QAEXHH@Z ENDP				; World::saveTile
_TEXT	ENDS
PUBLIC	?tileLoaded@World@@QAE_NHH@Z			; World::tileLoaded
; Function compile flags: /Ogtp
_TEXT	SEGMENT
_x$ = 8							; size = 4
_z$ = 12						; size = 4
?tileLoaded@World@@QAE_NHH@Z PROC			; World::tileLoaded
; _this$ = ecx
; Line 637
	push	ebp
	mov	ebp, esp
	push	ebx
; Line 638
	mov	ebx, DWORD PTR _x$[ebp]
	push	edi
	test	ebx, ebx
	js	SHORT $LN6@tileLoaded
	mov	edi, DWORD PTR _z$[ebp]
	test	edi, edi
	js	SHORT $LN6@tileLoaded
	cmp	ebx, 64					; 00000040H
	jge	SHORT $LN6@tileLoaded
	cmp	edi, 64					; 00000040H
	jge	SHORT $LN6@tileLoaded
	mov	eax, edi
	shl	eax, 6
	add	eax, ebx
	cmp	BYTE PTR [eax+ecx+304], 0
	je	SHORT $LN6@tileLoaded
; Line 644
	push	esi
	mov	esi, 36					; 00000024H
; Line 645
	xor	edx, edx
$LL5@tileLoaded:
; Line 647
	mov	eax, DWORD PTR [ecx+edx*4]
	test	eax, eax
	je	SHORT $LN21@tileLoaded
	cmp	DWORD PTR [eax+2244], ebx
	jne	SHORT $LN18@tileLoaded
	cmp	DWORD PTR [eax+2248], edi
	je	SHORT $LN15@tileLoaded
$LN18@tileLoaded:
; Line 651
	test	eax, eax
	jne	SHORT $LN4@tileLoaded
$LN21@tileLoaded:
	cmp	edx, esi
	jge	SHORT $LN4@tileLoaded
	mov	esi, edx
$LN4@tileLoaded:
; Line 645
	inc	edx
	cmp	edx, 36					; 00000024H
	jl	SHORT $LL5@tileLoaded
; Line 653
	pop	esi
	pop	edi
	xor	al, al
	pop	ebx
; Line 654
	pop	ebp
	ret	8
$LN15@tileLoaded:
	pop	esi
	pop	edi
; Line 649
	mov	al, 1
	pop	ebx
; Line 654
	pop	ebp
	ret	8
$LN6@tileLoaded:
	pop	edi
; Line 641
	mov	al, 1
	pop	ebx
; Line 654
	pop	ebp
	ret	8
?tileLoaded@World@@QAE_NHH@Z ENDP			; World::tileLoaded
_TEXT	ENDS
PUBLIC	?lightingDefaults@@YAXXZ			; lightingDefaults
EXTRN	__imp__glDisable@4:PROC
EXTRN	__imp__glEnable@4:PROC
EXTRN	__imp__glLightf@12:PROC
; Function compile flags: /Ogtp
_TEXT	SEGMENT
?lightingDefaults@@YAXXZ PROC				; lightingDefaults
; Line 702
	push	esi
; Line 703
	mov	esi, DWORD PTR __imp__glLightf@12
	push	ecx
	mov	DWORD PTR [esp], 1065353216		; 3f800000H
	push	4615					; 00001207H
	push	16384					; 00004000H
	call	esi
; Line 704
	push	ecx
	mov	DWORD PTR [esp], 0
	push	4616					; 00001208H
	push	16384					; 00004000H
	call	esi
; Line 705
	push	ecx
	mov	DWORD PTR [esp], 0
	push	4617					; 00001209H
	push	16384					; 00004000H
	call	esi
; Line 707
	push	16384					; 00004000H
	call	DWORD PTR __imp__glEnable@4
; Line 709
	mov	esi, DWORD PTR __imp__glDisable@4
	push	16385					; 00004001H
	call	esi
; Line 710
	push	16386					; 00004002H
	call	esi
; Line 711
	push	16387					; 00004003H
	call	esi
; Line 712
	push	16388					; 00004004H
	call	esi
; Line 713
	push	16389					; 00004005H
	call	esi
; Line 714
	push	16390					; 00004006H
	call	esi
; Line 715
	push	16391					; 00004007H
	call	esi
	pop	esi
; Line 716
	ret	0
?lightingDefaults@@YAXXZ ENDP				; lightingDefaults
_TEXT	ENDS
PUBLIC	?outdoorLighting@World@@QAEXXZ			; World::outdoorLighting
EXTRN	__imp__glLightfv@12:PROC
EXTRN	__imp__glLightModelfv@8:PROC
; Function compile flags: /Ogtp
_TEXT	SEGMENT
_pos$ = -64						; size = 16
_col$ = -48						; size = 16
_black$ = -32						; size = 16
_ambient$ = -16						; size = 16
?outdoorLighting@World@@QAEXXZ PROC			; World::outdoorLighting
; _this$ = ecx
; Line 734
	push	ebp
	mov	ebp, esp
	sub	esp, 64					; 00000040H
	push	esi
	push	edi
	mov	esi, ecx
; Line 736
	mov	eax, DWORD PTR [esi+20884]
	xor	edi, edi
	mov	DWORD PTR _black$[ebp], edi
	mov	DWORD PTR _black$[ebp+4], edi
	mov	DWORD PTR _black$[ebp+8], edi
	mov	DWORD PTR _black$[ebp+12], edi
	mov	ecx, DWORD PTR [eax+168]
	mov	DWORD PTR _ambient$[ebp], ecx
	mov	edx, DWORD PTR [eax+172]
; Line 737
	lea	ecx, DWORD PTR _ambient$[ebp]
	mov	DWORD PTR _ambient$[ebp+4], edx
	mov	eax, DWORD PTR [eax+176]
	push	ecx
	push	2899					; 00000b53H
	mov	DWORD PTR _ambient$[ebp+8], eax
	mov	DWORD PTR _ambient$[ebp+12], 1065353216	; 3f800000H
	call	DWORD PTR __imp__glLightModelfv@8
; Line 745
	mov	eax, -1082130432			; bf800000H
	mov	DWORD PTR _pos$[ebp], eax
	mov	DWORD PTR _pos$[ebp+8], eax
; Line 746
	mov	eax, DWORD PTR [esi+20884]
; Line 747
	mov	esi, DWORD PTR __imp__glLightfv@12
	mov	DWORD PTR _pos$[ebp+4], 1065353216	; 3f800000H
	mov	DWORD PTR _pos$[ebp+12], edi
	mov	edx, DWORD PTR [eax+160]
	mov	ecx, DWORD PTR [eax+156]
	mov	eax, DWORD PTR [eax+164]
	mov	DWORD PTR _col$[ebp+4], edx
	lea	edx, DWORD PTR _black$[ebp]
	push	edx
	push	4608					; 00001200H
	push	16384					; 00004000H
	mov	DWORD PTR _col$[ebp], ecx
	mov	DWORD PTR _col$[ebp+8], eax
	mov	DWORD PTR _col$[ebp+12], 1065353216	; 3f800000H
	call	esi
; Line 748
	lea	eax, DWORD PTR _col$[ebp]
	push	eax
	push	4609					; 00001201H
	push	16384					; 00004000H
	call	esi
; Line 749
	lea	ecx, DWORD PTR _pos$[ebp]
	push	ecx
	push	4611					; 00001203H
	push	16384					; 00004000H
	call	esi
	pop	edi
	pop	esi
; Line 759
	mov	esp, ebp
	pop	ebp
	ret	0
?outdoorLighting@World@@QAEXXZ ENDP			; World::outdoorLighting
_TEXT	ENDS
PUBLIC	?outdoorLighting2@World@@QAEXXZ			; World::outdoorLighting2
; Function compile flags: /Ogtp
_TEXT	SEGMENT
_pos$ = -64						; size = 16
_col$ = -48						; size = 16
_black$ = -32						; size = 16
_ambient$ = -16						; size = 16
?outdoorLighting2@World@@QAEXXZ PROC			; World::outdoorLighting2
; _this$ = ecx
; Line 762
	push	ebp
	mov	ebp, esp
	sub	esp, 64					; 00000040H
	push	esi
	push	edi
	mov	esi, ecx
; Line 764
	mov	eax, DWORD PTR [esi+20884]
	xor	edi, edi
	mov	DWORD PTR _black$[ebp], edi
	mov	DWORD PTR _black$[ebp+4], edi
	mov	DWORD PTR _black$[ebp+8], edi
	mov	DWORD PTR _black$[ebp+12], edi
	mov	ecx, DWORD PTR [eax+168]
	mov	DWORD PTR _ambient$[ebp], ecx
	mov	edx, DWORD PTR [eax+172]
; Line 765
	lea	ecx, DWORD PTR _ambient$[ebp]
	mov	DWORD PTR _ambient$[ebp+4], edx
	mov	eax, DWORD PTR [eax+176]
	push	ecx
	push	2899					; 00000b53H
	mov	DWORD PTR _ambient$[ebp+8], eax
	mov	DWORD PTR _ambient$[ebp+12], 1065353216	; 3f800000H
	call	DWORD PTR __imp__glLightModelfv@8
; Line 773
	mov	eax, -1082130432			; bf800000H
	mov	DWORD PTR _pos$[ebp], eax
	mov	DWORD PTR _pos$[ebp+4], eax
	mov	DWORD PTR _pos$[ebp+8], eax
; Line 774
	mov	eax, DWORD PTR [esi+20884]
; Line 775
	mov	esi, DWORD PTR __imp__glLightfv@12
	mov	DWORD PTR _pos$[ebp+12], edi
	mov	edx, DWORD PTR [eax+160]
	mov	ecx, DWORD PTR [eax+156]
	mov	eax, DWORD PTR [eax+164]
	mov	DWORD PTR _col$[ebp+4], edx
	lea	edx, DWORD PTR _black$[ebp]
	push	edx
	push	4608					; 00001200H
	push	16384					; 00004000H
	mov	DWORD PTR _col$[ebp], ecx
	mov	DWORD PTR _col$[ebp+8], eax
	mov	DWORD PTR _col$[ebp+12], 1065353216	; 3f800000H
	call	esi
; Line 776
	lea	eax, DWORD PTR _col$[ebp]
	push	eax
	push	4609					; 00001201H
	push	16384					; 00004000H
	call	esi
; Line 777
	lea	ecx, DWORD PTR _pos$[ebp]
	push	ecx
	push	4611					; 00001203H
	push	16384					; 00004000H
	call	esi
	pop	edi
	pop	esi
; Line 787
	mov	esp, ebp
	pop	ebp
	ret	0
?outdoorLighting2@World@@QAEXXZ ENDP			; World::outdoorLighting2
_TEXT	ENDS
PUBLIC	?outdoorLights@World@@QAEX_N@Z			; World::outdoorLights
; Function compile flags: /Ogtp
_TEXT	SEGMENT
_ambient$117572 = -16					; size = 16
_ambient$117566 = -16					; size = 16
_on$ = 8						; size = 1
?outdoorLights@World@@QAEX_N@Z PROC			; World::outdoorLights
; _this$ = ecx
; Line 790
	push	ebp
	mov	ebp, esp
; Line 795
	xor	eax, eax
	sub	esp, 16					; 00000010H
	cmp	BYTE PTR _on$[ebp], al
	je	SHORT $LN6@outdoorLig
; Line 796
	mov	eax, DWORD PTR [ecx+20884]
	mov	ecx, DWORD PTR [eax+168]
	mov	DWORD PTR _ambient$117566[ebp], ecx
	mov	edx, DWORD PTR [eax+172]
; Line 797
	lea	ecx, DWORD PTR _ambient$117566[ebp]
	mov	DWORD PTR _ambient$117566[ebp+4], edx
	mov	eax, DWORD PTR [eax+176]
	push	ecx
	push	2899					; 00000b53H
	mov	DWORD PTR _ambient$117566[ebp+8], eax
	mov	DWORD PTR _ambient$117566[ebp+12], 1065353216 ; 3f800000H
	call	DWORD PTR __imp__glLightModelfv@8
; Line 800
	push	16384					; 00004000H
	call	DWORD PTR __imp__glEnable@4
; Line 812
	push	16385					; 00004001H
	call	DWORD PTR __imp__glDisable@4
; Line 822
	mov	esp, ebp
	pop	ebp
	ret	4
$LN6@outdoorLig:
	push	esi
; Line 818
	lea	edx, DWORD PTR _ambient$117572[ebp]
	push	edx
	push	2899					; 00000b53H
	mov	DWORD PTR _ambient$117572[ebp], eax
	mov	DWORD PTR _ambient$117572[ebp+4], eax
	mov	DWORD PTR _ambient$117572[ebp+8], eax
	mov	DWORD PTR _ambient$117572[ebp+12], 1065353216 ; 3f800000H
	call	DWORD PTR __imp__glLightModelfv@8
; Line 819
	mov	esi, DWORD PTR __imp__glDisable@4
	push	16384					; 00004000H
	call	esi
; Line 820
	push	16385					; 00004001H
	call	esi
	pop	esi
; Line 822
	mov	esp, ebp
	pop	ebp
	ret	4
?outdoorLights@World@@QAEX_N@Z ENDP			; World::outdoorLights
_TEXT	ENDS
PUBLIC	__real@3fe0000000000000
PUBLIC	?setupFog@World@@QAEXXZ				; World::setupFog
EXTRN	__imp__glFogf@8:PROC
EXTRN	__imp__glFogfv@8:PROC
;	COMDAT __real@3fe0000000000000
; File c:\programovani\wow editor\test\src\editor\quaternion.h
CONST	SEGMENT
__real@3fe0000000000000 DQ 03fe0000000000000r	; 0.5
; Function compile flags: /Ogtp
CONST	ENDS
_TEXT	SEGMENT
_fogcolor$117579 = -20					; size = 16
tv192 = -4						; size = 4
_fogdist$117577 = -4					; size = 4
?setupFog@World@@QAEXXZ PROC				; World::setupFog
; _this$ = ecx
; File c:\programovani\wow editor\test\src\editor\world.cpp
; Line 825
	push	ebp
	mov	ebp, esp
	sub	esp, 20					; 00000014H
	push	esi
	mov	esi, ecx
; Line 826
	cmp	BYTE PTR [esi+20905], 0
	je	$LN2@setupFog
; Line 839
	mov	eax, DWORD PTR [esi+20884]
	push	edi
	mov	edi, DWORD PTR [esi+20868]
	mov	DWORD PTR [esi+20860], edi
	mov	ecx, DWORD PTR [eax+240]
	mov	DWORD PTR _fogcolor$117579[ebp], ecx
	mov	edx, DWORD PTR [eax+244]
; Line 840
	lea	ecx, DWORD PTR _fogcolor$117579[ebp]
	mov	DWORD PTR _fogcolor$117579[ebp+4], edx
	mov	eax, DWORD PTR [eax+248]
	push	ecx
	push	2918					; 00000b66H
	mov	DWORD PTR _fogdist$117577[ebp], edi
	mov	DWORD PTR _fogcolor$117579[ebp+8], eax
	mov	DWORD PTR _fogcolor$117579[ebp+12], 1065353216 ; 3f800000H
	call	DWORD PTR __imp__glFogfv@8
; Line 842
	push	ecx
	mov	DWORD PTR [esp], edi
	mov	edi, DWORD PTR __imp__glFogf@8
	push	2916					; 00000b64H
	call	edi
; Line 843
	fld	DWORD PTR _fogdist$117577[ebp]
	fmul	QWORD PTR __real@3fe0000000000000
	push	ecx
	fstp	DWORD PTR tv192[ebp]
	fld	DWORD PTR tv192[ebp]
	fstp	DWORD PTR [esp]
	push	2915					; 00000b63H
	call	edi
; Line 845
	push	2912					; 00000b60H
	call	DWORD PTR __imp__glEnable@4
; Line 852
	fld	DWORD PTR [esi+20860]
	fmul	ST(0), ST(0)
	pop	edi
	fstp	DWORD PTR [esi+20864]
	pop	esi
; Line 853
	mov	esp, ebp
	pop	ebp
	ret	0
$LN2@setupFog:
; Line 849
	push	2912					; 00000b60H
	call	DWORD PTR __imp__glDisable@4
; Line 850
	mov	edx, DWORD PTR [esi+20828]
	mov	DWORD PTR [esi+20860], edx
; Line 852
	fld	DWORD PTR [esi+20860]
	fmul	ST(0), ST(0)
	fstp	DWORD PTR [esi+20864]
	pop	esi
; Line 853
	mov	esp, ebp
	pop	ebp
	ret	0
?setupFog@World@@QAEXXZ ENDP				; World::setupFog
_TEXT	ENDS
PUBLIC	??4OutdoorLightStats@@QAEAAU0@ABU0@@Z		; OutdoorLightStats::operator=
; Function compile flags: /Ogtp
;	COMDAT ??4OutdoorLightStats@@QAEAAU0@ABU0@@Z
_TEXT	SEGMENT
___that$ = 8						; size = 4
??4OutdoorLightStats@@QAEAAU0@ABU0@@Z PROC		; OutdoorLightStats::operator=, COMDAT
; _this$ = ecx
	push	ebp
	mov	ebp, esp
	mov	eax, ecx
	mov	ecx, DWORD PTR ___that$[ebp]
	mov	edx, DWORD PTR [ecx]
	mov	DWORD PTR [eax], edx
	mov	edx, DWORD PTR [ecx+4]
	mov	DWORD PTR [eax+4], edx
	mov	edx, DWORD PTR [ecx+8]
	mov	DWORD PTR [eax+8], edx
	mov	edx, DWORD PTR [ecx+12]
	mov	DWORD PTR [eax+12], edx
	mov	edx, DWORD PTR [ecx+16]
	mov	DWORD PTR [eax+16], edx
	mov	edx, DWORD PTR [ecx+20]
	mov	DWORD PTR [eax+20], edx
	mov	edx, DWORD PTR [ecx+24]
	mov	DWORD PTR [eax+24], edx
	mov	edx, DWORD PTR [ecx+28]
	mov	DWORD PTR [eax+28], edx
	mov	edx, DWORD PTR [ecx+32]
	mov	DWORD PTR [eax+32], edx
	mov	edx, DWORD PTR [ecx+36]
	mov	DWORD PTR [eax+36], edx
	mov	edx, DWORD PTR [ecx+40]
	mov	DWORD PTR [eax+40], edx
	mov	edx, DWORD PTR [ecx+44]
	mov	DWORD PTR [eax+44], edx
	mov	edx, DWORD PTR [ecx+48]
	mov	DWORD PTR [eax+48], edx
	mov	edx, DWORD PTR [ecx+52]
	mov	DWORD PTR [eax+52], edx
	mov	edx, DWORD PTR [ecx+56]
	mov	DWORD PTR [eax+56], edx
	mov	edx, DWORD PTR [ecx+60]
	mov	DWORD PTR [eax+60], edx
	mov	edx, DWORD PTR [ecx+64]
	mov	DWORD PTR [eax+64], edx
	mov	edx, DWORD PTR [ecx+68]
	mov	DWORD PTR [eax+68], edx
	mov	edx, DWORD PTR [ecx+72]
	mov	DWORD PTR [eax+72], edx
	mov	edx, DWORD PTR [ecx+76]
	mov	DWORD PTR [eax+76], edx
	mov	edx, DWORD PTR [ecx+80]
	mov	DWORD PTR [eax+80], edx
	mov	edx, DWORD PTR [ecx+84]
	mov	DWORD PTR [eax+84], edx
	mov	edx, DWORD PTR [ecx+88]
	mov	DWORD PTR [eax+88], edx
	mov	ecx, DWORD PTR [ecx+92]
	mov	DWORD PTR [eax+92], ecx
	pop	ebp
	ret	4
??4OutdoorLightStats@@QAEAAU0@ABU0@@Z ENDP		; OutdoorLightStats::operator=
_TEXT	ENDS
PUBLIC	?startTimer@@YAXXZ				; startTimer
EXTRN	_SDL_GetTicks:PROC
; Function compile flags: /Ogtp
_TEXT	SEGMENT
?startTimer@@YAXXZ PROC					; startTimer
; Line 1249
	call	_SDL_GetTicks
	mov	ecx, DWORD PTR ?numTimers@@3HA		; numTimers
	mov	DWORD PTR ?startTime@@3PAHA[ecx*4], eax
; Line 1250
	inc	ecx
	mov	DWORD PTR ?numTimers@@3HA, ecx		; numTimers
; Line 1251
	ret	0
?startTimer@@YAXXZ ENDP					; startTimer
_TEXT	ENDS
PUBLIC	?stopTimer@@YAXXZ				; stopTimer
; Function compile flags: /Ogtp
_TEXT	SEGMENT
?stopTimer@@YAXXZ PROC					; stopTimer
; Line 1255
	call	_SDL_GetTicks
; Line 1256
	mov	ecx, DWORD PTR ?numTimers@@3HA		; numTimers
; Line 1257
	sub	eax, DWORD PTR ?startTime@@3PAHA[ecx*4-4]
	dec	ecx
	push	eax
	push	OFFSET $SG117755
	mov	DWORD PTR ?numTimers@@3HA, ecx		; numTimers
	call	?gLog@@YAXPADZZ				; gLog
	add	esp, 8
; Line 1258
	ret	0
?stopTimer@@YAXXZ ENDP					; stopTimer
_TEXT	ENDS
PUBLIC	?stopTimer2@@YAHXZ				; stopTimer2
; Function compile flags: /Ogtp
_TEXT	SEGMENT
?stopTimer2@@YAHXZ PROC					; stopTimer2
; Line 1262
	call	_SDL_GetTicks
; Line 1263
	mov	ecx, DWORD PTR ?numTimers@@3HA		; numTimers
; Line 1264
	sub	eax, DWORD PTR ?startTime@@3PAHA[ecx*4-4]
	dec	ecx
	mov	DWORD PTR ?numTimers@@3HA, ecx		; numTimers
; Line 1265
	ret	0
?stopTimer2@@YAHXZ ENDP					; stopTimer2
_TEXT	ENDS
PUBLIC	__real@4072c00000000000
PUBLIC	__real@0000000000000000
PUBLIC	__$ArrayPad$
PUBLIC	?drawSelectionChunk@World@@QAEXHH@Z		; World::drawSelectionChunk
EXTRN	?drawSelect2@MapChunk@@QAEXXZ:PROC		; MapChunk::drawSelect2
EXTRN	__imp__glInitNames@0:PROC
EXTRN	__imp__glClear@4:PROC
EXTRN	?retrieve@Frustum@@QAEXXZ:PROC			; Frustum::retrieve
EXTRN	_gluLookAt@72:PROC
EXTRN	?glBindBufferARB@@3P6GXII@ZA:DWORD		; glBindBufferARB
EXTRN	?resetAnim@ModelManager@@QAEXXZ:PROC		; ModelManager::resetAnim
EXTRN	?reset@WMOInstance@@SAXXZ:PROC			; WMOInstance::reset
EXTRN	?set3D_select@Video@@QAEXXZ:PROC		; Video::set3D_select
EXTRN	?video@@3VVideo@@A:BYTE				; video
EXTRN	_gluPickMatrix@36:PROC
EXTRN	__imp__glGetIntegerv@8:PROC
EXTRN	__imp__glLoadIdentity@0:PROC
EXTRN	__imp__glMatrixMode@4:PROC
EXTRN	__imp__glRenderMode@4:PROC
EXTRN	__imp__glSelectBuffer@8:PROC
EXTRN	?Selection@@3PAVnameEntry@@A:DWORD		; Selection
EXTRN	___security_cookie:DWORD
EXTRN	@__security_check_cookie@4:PROC
;	COMDAT __real@4072c00000000000
; File c:\programovani\wow editor\test\src\editor\vec3d.h
CONST	SEGMENT
__real@4072c00000000000 DQ 04072c00000000000r	; 300
CONST	ENDS
;	COMDAT __real@0000000000000000
CONST	SEGMENT
__real@0000000000000000 DQ 00000000000000000r	; 0
; Function compile flags: /Ogtp
CONST	ENDS
_TEXT	SEGMENT
tv811 = -72						; size = 4
_rt$117834 = -68					; size = 12
$T132802 = -56						; size = 12
$T132801 = -56						; size = 12
_l$117829 = -44						; size = 12
_nc$117831 = -32					; size = 12
$T132798 = -32						; size = 12
_viewport$ = -20					; size = 16
__$ArrayPad$ = -4					; size = 4
_cursorX$ = 8						; size = 4
_cursorY$ = 12						; size = 4
?drawSelectionChunk@World@@QAEXHH@Z PROC		; World::drawSelectionChunk
; _this$ = ecx
; File c:\programovani\wow editor\test\src\editor\world.cpp
; Line 1381
	push	ebp
	mov	ebp, esp
	sub	esp, 72					; 00000048H
	mov	eax, DWORD PTR ___security_cookie
	xor	eax, ebp
	mov	DWORD PTR __$ArrayPad$[ebp], eax
; Line 1382
	mov	eax, DWORD PTR ?Selection@@3PAVnameEntry@@A ; Selection
	push	ebx
	push	esi
	xor	ebx, ebx
	push	edi
	mov	esi, ecx
	cmp	eax, ebx
	je	$LN2@drawSelect
	cmp	DWORD PTR [eax+28], 3
	jne	$LN2@drawSelect
; Line 1385
	push	OFFSET ?SelectBuffer@@3PAIA		; SelectBuffer
	push	8192					; 00002000H
	call	DWORD PTR __imp__glSelectBuffer@8
; Line 1386
	push	7170					; 00001c02H
	call	DWORD PTR __imp__glRenderMode@4
; Line 1388
	push	5889					; 00001701H
	call	DWORD PTR __imp__glMatrixMode@4
; Line 1389
	mov	edi, DWORD PTR __imp__glLoadIdentity@0
	call	edi
; Line 1391
	lea	eax, DWORD PTR _viewport$[ebp]
	push	eax
	push	2978					; 00000ba2H
	call	DWORD PTR __imp__glGetIntegerv@8
; Line 1393
	mov	edx, DWORD PTR _viewport$[ebp+12]
	sub	edx, DWORD PTR _cursorY$[ebp]
	lea	ecx, DWORD PTR _viewport$[ebp]
	push	ecx
	sub	esp, 8
	mov	eax, esp
	mov	DWORD PTR [eax], ebx
	mov	ecx, 1075576832				; 401c0000H
	mov	DWORD PTR [eax+4], ecx
	sub	esp, 8
	mov	eax, esp
	mov	DWORD PTR tv811[ebp], edx
	fild	DWORD PTR tv811[ebp]
	mov	DWORD PTR [eax], ebx
	sub	esp, 16					; 00000010H
	mov	DWORD PTR [eax+4], ecx
	fstp	QWORD PTR [esp+8]
	fild	DWORD PTR _cursorX$[ebp]
	fstp	QWORD PTR [esp]
	call	_gluPickMatrix@36
; Line 1394
	mov	ecx, OFFSET ?video@@3VVideo@@A		; video
	call	?set3D_select@Video@@QAEXXZ		; Video::set3D_select
; Line 1396
	call	?reset@WMOInstance@@SAXXZ		; WMOInstance::reset
; Line 1397
	lea	ecx, DWORD PTR [esi+21100]
	call	?resetAnim@ModelManager@@QAEXXZ		; ModelManager::resetAnim
; Line 1399
	push	ebx
	push	34962					; 00008892H
	call	DWORD PTR ?glBindBufferARB@@3P6GXII@ZA	; glBindBufferARB
; Line 1401
	fld	DWORD PTR [esi+20840]
	fmul	ST(0), ST(0)
; Line 1406
	sub	esp, 8
	mov	eax, esp
	mov	DWORD PTR [eax], ebx
	fstp	DWORD PTR [esi+20856]
	mov	DWORD PTR [eax+4], ebx
	fld	DWORD PTR [esi+20828]
	sub	esp, 8
	fmul	ST(0), ST(0)
	mov	eax, esp
	mov	DWORD PTR [eax], ebx
	mov	DWORD PTR [eax+4], 1072693248		; 3ff00000H
	fstp	DWORD PTR [esi+20844]
	sub	esp, 8
	fld	DWORD PTR [esi+20832]
	mov	eax, esp
	fmul	ST(0), ST(0)
	mov	DWORD PTR [eax], ebx
	sub	esp, 48					; 00000030H
	mov	DWORD PTR [eax+4], ebx
	fstp	DWORD PTR [esi+20848]
	fld	DWORD PTR [esi+20836]
	fmul	ST(0), ST(0)
	fstp	DWORD PTR [esi+20852]
	fld	DWORD PTR [esi+20948]
	fstp	QWORD PTR [esp+40]
	fld	DWORD PTR [esi+20944]
	fstp	QWORD PTR [esp+32]
	fld	DWORD PTR [esi+20940]
	fstp	QWORD PTR [esp+24]
	fld	DWORD PTR [esi+20936]
	fstp	QWORD PTR [esp+16]
	fld	DWORD PTR [esi+20932]
	fstp	QWORD PTR [esp+8]
	fld	DWORD PTR [esi+20928]
	fstp	QWORD PTR [esp]
	call	_gluLookAt@72
; Line 1409
	lea	ecx, DWORD PTR [esi+20952]
	call	?retrieve@Frustum@@QAEXXZ		; Frustum::retrieve
; Line 1411
	cmp	BYTE PTR [esi+20897], bl
	je	$LN1@drawSelect
; Line 1413
	fld	DWORD PTR [esi+20940]
	lea	ecx, DWORD PTR $T132798[ebp]
	fsub	DWORD PTR [esi+20928]
	fstp	DWORD PTR $T132798[ebp]
	fld	DWORD PTR [esi+20944]
	fsub	DWORD PTR [esi+20932]
	fstp	DWORD PTR $T132798[ebp+4]
	fld	DWORD PTR [esi+20948]
	fsub	DWORD PTR [esi+20936]
	fstp	DWORD PTR $T132798[ebp+8]
	call	?normalize@Vec3D@@QAEAAV1@XZ		; Vec3D::normalize
; Line 1414
	fld	DWORD PTR [esi+20928]
	mov	ecx, DWORD PTR [eax]
	fldz
	mov	edx, DWORD PTR [eax+4]
	mov	eax, DWORD PTR [eax+8]
	fadd	ST(1), ST(0)
	fxch	ST(1)
	mov	DWORD PTR _l$117829[ebp+4], edx
	mov	DWORD PTR _l$117829[ebp+8], eax
	mov	DWORD PTR _l$117829[ebp], ecx
	fstp	DWORD PTR _nc$117831[ebp]
; Line 1415
	lea	ecx, DWORD PTR $T132801[ebp]
	fld	DWORD PTR [esi+20932]
	fadd	QWORD PTR __real@4072c00000000000
	fstp	DWORD PTR _nc$117831[ebp+4]
	fld	DWORD PTR [esi+20936]
	fadd	ST(0), ST(1)
	fstp	DWORD PTR _nc$117831[ebp+8]
	fld	DWORD PTR _l$117829[ebp+4]
	fmul	ST(0), ST(1)
	fld	DWORD PTR _l$117829[ebp+8]
	fld	ST(0)
	fsub	ST(0), ST(2)
	fstp	DWORD PTR $T132801[ebp]
	fld	DWORD PTR _l$117829[ebp]
	fld	ST(0)
	fmul	ST(0), ST(4)
	fxch	ST(2)
	fmulp	ST(4), ST(0)
	fxch	ST(1)
	fsubrp	ST(3), ST(0)
	fxch	ST(2)
	fstp	DWORD PTR $T132801[ebp+4]
	fsubrp	ST(1), ST(0)
	fstp	DWORD PTR $T132801[ebp+8]
	call	?normalize@Vec3D@@QAEAAV1@XZ		; Vec3D::normalize
	mov	ecx, DWORD PTR [eax]
	mov	edx, DWORD PTR [eax+4]
	mov	eax, DWORD PTR [eax+8]
	mov	DWORD PTR _rt$117834[ebp+8], eax
; Line 1416
	fld	DWORD PTR _rt$117834[ebp+8]
	mov	DWORD PTR _rt$117834[ebp+4], edx
	fld	ST(0)
	mov	DWORD PTR _rt$117834[ebp], ecx
	fld	DWORD PTR _l$117829[ebp+4]
	lea	ecx, DWORD PTR $T132802[ebp]
	fld	ST(0)
	fmulp	ST(2), ST(0)
	fld	DWORD PTR _rt$117834[ebp+4]
	fld	ST(0)
	fld	DWORD PTR _l$117829[ebp+8]
	fld	ST(0)
	fmulp	ST(2), ST(0)
	fxch	ST(4)
	fsubrp	ST(1), ST(0)
	fstp	DWORD PTR $T132802[ebp]
	fld	DWORD PTR _rt$117834[ebp]
	fld	ST(0)
	fmulp	ST(4), ST(0)
	fld	DWORD PTR _l$117829[ebp]
	fld	ST(0)
	fmulp	ST(6), ST(0)
	fxch	ST(4)
	fsubrp	ST(5), ST(0)
	fxch	ST(4)
	fstp	DWORD PTR $T132802[ebp+4]
	fmulp	ST(2), ST(0)
	fmulp	ST(2), ST(0)
	fsubrp	ST(1), ST(0)
	fstp	DWORD PTR $T132802[ebp+8]
	call	?normalize@Vec3D@@QAEAAV1@XZ		; Vec3D::normalize
; Line 1419
	call	edi
; Line 1420
	fld	DWORD PTR [esi+20936]
	sub	esp, 8
	mov	eax, esp
	mov	DWORD PTR [eax], ebx
	mov	DWORD PTR [eax+4], ebx
	sub	esp, 8
	mov	eax, esp
	mov	DWORD PTR [eax], ebx
	mov	DWORD PTR [eax+4], ebx
	sub	esp, 8
	mov	eax, esp
	mov	DWORD PTR [eax], ebx
	sub	esp, 48					; 00000030H
	mov	DWORD PTR [eax+4], 1072693248		; 3ff00000H
	fstp	QWORD PTR [esp+40]
	fld	DWORD PTR [esi+20932]
	fstp	QWORD PTR [esp+32]
	fld	DWORD PTR [esi+20928]
	fstp	QWORD PTR [esp+24]
	fld	DWORD PTR _nc$117831[ebp+8]
	fstp	QWORD PTR [esp+16]
	fld	DWORD PTR _nc$117831[ebp+4]
	fstp	QWORD PTR [esp+8]
	fld	DWORD PTR _nc$117831[ebp]
	fstp	QWORD PTR [esp]
	call	_gluLookAt@72
$LN1@drawSelect:
; Line 1422
	push	256					; 00000100H
	call	DWORD PTR __imp__glClear@4
; Line 1423
	call	DWORD PTR __imp__glInitNames@0
; Line 1424
	mov	ecx, DWORD PTR ?Selection@@3PAVnameEntry@@A ; Selection
	mov	ecx, DWORD PTR [ecx+32]
	call	?drawSelect2@MapChunk@@QAEXXZ		; MapChunk::drawSelect2
$LN2@drawSelect:
; Line 1425
	mov	ecx, DWORD PTR __$ArrayPad$[ebp]
	pop	edi
	pop	esi
	xor	ecx, ebp
	pop	ebx
	call	@__security_check_cookie@4
	mov	esp, ebp
	pop	ebp
	ret	8
?drawSelectionChunk@World@@QAEXHH@Z ENDP		; World::drawSelectionChunk
_TEXT	ENDS
PUBLIC	?getSelection@World@@QAEHXZ			; World::getSelection
; Function compile flags: /Ogtp
_TEXT	SEGMENT
_CurMin$ = -4						; size = 4
?getSelection@World@@QAEHXZ PROC			; World::getSelection
; _this$ = ecx
; Line 1428
	push	ebp
	mov	ebp, esp
	push	ecx
	push	esi
	push	edi
; Line 1429
	push	7168					; 00001c00H
	mov	esi, ecx
	call	DWORD PTR __imp__glRenderMode@4
	mov	edx, eax
; Line 1430
	xor	edi, edi
; Line 1433
	xor	ecx, ecx
; Line 1435
	xor	eax, eax
	mov	DWORD PTR [esi+268], edx
	mov	DWORD PTR _CurMin$[ebp], edi
	mov	DWORD PTR [esi+272], -1
	mov	DWORD PTR [esi+21248], edi
	cmp	edx, edi
	jle	SHORT $LN4@getSelecti
	or	edi, -1
	push	ebx
	npad	4
$LL6@getSelecti:
; Line 1438
	mov	edx, DWORD PTR ?SelectBuffer@@3PAIA[ecx*4+4]
	mov	ebx, DWORD PTR ?SelectBuffer@@3PAIA[ecx*4]
	cmp	edx, edi
	jae	SHORT $LN12@getSelecti
; Line 1440
	mov	edi, edx
	mov	DWORD PTR [esi+272], edi
; Line 1441
	mov	edx, DWORD PTR ?SelectBuffer@@3PAIA[ecx*4+12]
	mov	DWORD PTR _CurMin$[ebp], edx
; Line 1442
	cmp	ebx, 1
	jle	SHORT $LN2@getSelecti
; Line 1443
	mov	edx, DWORD PTR ?SelectBuffer@@3PAIA[ecx*4+16]
	mov	DWORD PTR [esi+21248], edx
; Line 1444
	jmp	SHORT $LN12@getSelecti
$LN2@getSelecti:
; Line 1445
	mov	DWORD PTR [esi+21248], -1
$LN12@getSelecti:
; Line 1435
	inc	eax
; Line 1448
	lea	ecx, DWORD PTR [ecx+ebx+3]
	cmp	eax, DWORD PTR [esi+268]
	jl	SHORT $LL6@getSelecti
; Line 1453
	mov	eax, DWORD PTR _CurMin$[ebp]
	pop	ebx
$LN4@getSelecti:
	pop	edi
	pop	esi
; Line 1454
	mov	esp, ebp
	pop	ebp
	ret	0
?getSelection@World@@QAEHXZ ENDP			; World::getSelection
_TEXT	ENDS
PUBLIC	__real@4040aaaaa0000000
PUBLIC	__real@4080aaaaa0000000
PUBLIC	?getAreaID@World@@QAEIXZ			; World::getAreaID
EXTRN	?getChunk@MapTile@@QAEPAVMapChunk@@II@Z:PROC	; MapTile::getChunk
EXTRN	__ftol2_sse_excpt:PROC
;	COMDAT __real@4040aaaaa0000000
; File c:\program files (x86)\microsoft visual studio 10.0\vc\include\math.h
CONST	SEGMENT
__real@4040aaaaa0000000 DQ 04040aaaaa0000000r	; 33.3333
CONST	ENDS
;	COMDAT __real@4080aaaaa0000000
CONST	SEGMENT
__real@4080aaaaa0000000 DQ 04080aaaaa0000000r	; 533.333
; Function compile flags: /Ogtp
CONST	ENDS
_TEXT	SEGMENT
tv158 = -20						; size = 8
tv232 = -16						; size = 4
tv174 = -16						; size = 4
$T132919 = -16						; size = 4
tv239 = -12						; size = 8
tv241 = -8						; size = 4
tv249 = -4						; size = 4
$T132928 = -4						; size = 4
tv244 = -2						; size = 2
tv227 = -2						; size = 2
?getAreaID@World@@QAEIXZ PROC				; World::getAreaID
; _this$ = ecx
; File c:\programovani\wow editor\test\src\editor\world.cpp
; Line 1476
	push	ebp
	mov	ebp, esp
	sub	esp, 20					; 00000014H
	push	ebx
	push	esi
	mov	esi, ecx
; Line 1480
	fld	DWORD PTR [esi+20928]
	push	edi
	fld	QWORD PTR __real@4080aaaaa0000000
	fdiv	ST(1), ST(0)
	fxch	ST(1)
	call	__ftol2_sse_excpt
; Line 1481
	fld	DWORD PTR [esi+20936]
	fdiv	ST(0), ST(1)
	mov	edi, eax
	call	__ftol2_sse_excpt
; Line 1483
	mov	edx, DWORD PTR [esi+20936]
	mov	ecx, DWORD PTR [esi+20928]
	mov	DWORD PTR $T132928[ebp], edx
; Line 1485
	mov	edx, DWORD PTR [esi+21048]
	mov	DWORD PTR $T132919[ebp], ecx
	lea	ecx, DWORD PTR [edx-1]
	cmp	edi, ecx
	jl	$LN25@getAreaID
	lea	ecx, DWORD PTR [edx+1]
	cmp	edi, ecx
	jg	$LN25@getAreaID
	mov	ecx, DWORD PTR [esi+21052]
	lea	ebx, DWORD PTR [ecx-1]
	cmp	eax, ebx
	jl	$LN25@getAreaID
	lea	ebx, DWORD PTR [ecx+1]
	cmp	eax, ebx
	jg	$LN25@getAreaID
; Line 1487
	sub	eax, ecx
	lea	eax, DWORD PTR [eax+eax*4]
	sub	eax, edx
	add	eax, edi
	mov	esi, DWORD PTR [esi+eax*4+192]
; Line 1488
	test	esi, esi
; Line 1489
	je	$LN25@getAreaID
; Line 1491
	fld	DWORD PTR $T132928[ebp]
	fxch	ST(1)
	call	__CIfmod
	fstp	DWORD PTR tv249[ebp]
	fld	DWORD PTR tv249[ebp]
	fdiv	QWORD PTR __real@4040aaaaa0000000
	fnstcw	WORD PTR tv244[ebp]
	movzx	eax, WORD PTR tv244[ebp]
	or	eax, 3072				; 00000c00H
	mov	DWORD PTR tv241[ebp], eax
	fldcw	WORD PTR tv241[ebp]
	fistp	QWORD PTR tv239[ebp]
	mov	ecx, DWORD PTR tv239[ebp]
	push	ecx
	fldcw	WORD PTR tv244[ebp]
	fld	DWORD PTR $T132919[ebp]
	fld	QWORD PTR __real@4080aaaaa0000000
	call	__CIfmod
	fstp	DWORD PTR tv232[ebp]
	fld	DWORD PTR tv232[ebp]
	mov	ecx, esi
	fdiv	QWORD PTR __real@4040aaaaa0000000
	fnstcw	WORD PTR tv227[ebp]
	movzx	eax, WORD PTR tv227[ebp]
	or	eax, 3072				; 00000c00H
	mov	DWORD PTR tv174[ebp], eax
	fldcw	WORD PTR tv174[ebp]
	fistp	QWORD PTR tv158[ebp]
	mov	edx, DWORD PTR tv158[ebp]
	push	edx
	fldcw	WORD PTR tv227[ebp]
	call	?getChunk@MapTile@@QAEPAVMapChunk@@II@Z	; MapTile::getChunk
; Line 1493
	test	eax, eax
; Line 1494
	je	SHORT $LN3@getAreaID
; Line 1496
	mov	eax, DWORD PTR [eax+232]
	pop	edi
	pop	esi
	pop	ebx
; Line 1497
	mov	esp, ebp
	pop	ebp
	ret	0
$LN25@getAreaID:
; Line 1485
	fstp	ST(0)
$LN3@getAreaID:
	pop	edi
	pop	esi
	xor	eax, eax
	pop	ebx
; Line 1497
	mov	esp, ebp
	pop	ebp
	ret	0
?getAreaID@World@@QAEIXZ ENDP				; World::getAreaID
_TEXT	ENDS
PUBLIC	__real@4030000000000000
PUBLIC	__real@4000000000000000
PUBLIC	?drawTileMode@World@@QAEXM@Z			; World::drawTileMode
EXTRN	__imp__glEnd@0:PROC
EXTRN	__imp__glBegin@4:PROC
EXTRN	__imp__glColor4f@16:PROC
EXTRN	__imp__glVertex3f@12:PROC
EXTRN	__imp__glPopMatrix@0:PROC
EXTRN	?drawTextures@MapTile@@QAEXXZ:PROC		; MapTile::drawTextures
EXTRN	__imp__glDepthMask@4:PROC
EXTRN	__imp__glDisableClientState@4:PROC
EXTRN	__imp__glEnableClientState@4:PROC
EXTRN	__imp__glTranslatef@12:PROC
EXTRN	__imp__glScalef@12:PROC
EXTRN	__imp__glPushMatrix@0:PROC
EXTRN	__imp__glBlendFunc@8:PROC
;	COMDAT __real@4030000000000000
; File c:\program files (x86)\microsoft visual studio 10.0\vc\include\math.h
CONST	SEGMENT
__real@4030000000000000 DQ 04030000000000000r	; 16
CONST	ENDS
;	COMDAT __real@4000000000000000
CONST	SEGMENT
__real@4000000000000000 DQ 04000000000000000r	; 2
; Function compile flags: /Ogtp
CONST	ENDS
_TEXT	SEGMENT
tv463 = -8						; size = 4
tv527 = -4						; size = 4
tv524 = -4						; size = 4
tv502 = -4						; size = 4
tv495 = -4						; size = 4
tv491 = -4						; size = 4
tv484 = -4						; size = 4
_x$117896 = -4						; size = 4
_y$117886 = -4						; size = 4
_ah$ = 8						; size = 4
?drawTileMode@World@@QAEXM@Z PROC			; World::drawTileMode
; _this$ = ecx
; File c:\programovani\wow editor\test\src\editor\world.cpp
; Line 1500
	push	ebp
	mov	ebp, esp
	sub	esp, 8
	push	ebx
	push	esi
	push	edi
; Line 1501
	push	16640					; 00004100H
	mov	esi, ecx
	call	DWORD PTR __imp__glClear@4
; Line 1502
	push	3042					; 00000be2H
	call	DWORD PTR __imp__glEnable@4
; Line 1503
	push	771					; 00000303H
	push	770					; 00000302H
	call	DWORD PTR __imp__glBlendFunc@8
; Line 1505
	mov	edi, DWORD PTR __imp__glPushMatrix@0
	call	edi
; Line 1506
	mov	eax, DWORD PTR [esi+260]
	sub	esp, 12					; 0000000cH
	mov	DWORD PTR [esp+8], 1065353216		; 3f800000H
	mov	ecx, eax
	mov	DWORD PTR [esp+4], eax
	mov	DWORD PTR [esp], ecx
	call	DWORD PTR __imp__glScalef@12
; Line 1508
	call	edi
; Line 1509
	fld	DWORD PTR [esi+20936]
	fchs
	sub	esp, 12					; 0000000cH
	fld	QWORD PTR __real@4040aaaaa0000000
	mov	DWORD PTR [esp+8], 0
	fdiv	ST(1), ST(0)
	fxch	ST(1)
	fstp	DWORD PTR tv527[ebp]
	fld	DWORD PTR tv527[ebp]
	fstp	DWORD PTR [esp+4]
	fld	DWORD PTR [esi+20928]
	fchs
	fdivrp	ST(1), ST(0)
	fstp	DWORD PTR tv524[ebp]
	fld	DWORD PTR tv524[ebp]
	fstp	DWORD PTR [esp]
	call	DWORD PTR __imp__glTranslatef@12
; Line 1511
	fld	DWORD PTR [esi+20928]
	fld	QWORD PTR __real@4040aaaaa0000000
; Line 1516
	push	32886					; 00008076H
	fdiv	ST(1), ST(0)
	fld	DWORD PTR ?video@@3VVideo@@A+68
	fld	QWORD PTR __real@4000000000000000
	fmul	ST(1), ST(0)
	fld	DWORD PTR [esi+260]
	fdivp	ST(2), ST(0)
	fld	ST(3)
	fsubrp	ST(2), ST(0)
	fxch	ST(1)
	fstp	DWORD PTR [esi+21252]
	fld	DWORD PTR ?video@@3VVideo@@A+68
	fmul	ST(0), ST(1)
	fdiv	DWORD PTR [esi+260]
	faddp	ST(3), ST(0)
	fxch	ST(2)
	fstp	DWORD PTR [esi+21256]
	fdivr	DWORD PTR [esi+20936]
	fld	DWORD PTR [esi+260]
	fdivp	ST(2), ST(0)
	fld	ST(0)
	fsub	ST(0), ST(2)
	fstp	DWORD PTR [esi+21260]
	faddp	ST(1), ST(0)
	fstp	DWORD PTR [esi+21264]
	call	DWORD PTR __imp__glEnableClientState@4
; Line 1517
	mov	edi, DWORD PTR __imp__glDisableClientState@4
	push	32885					; 00008075H
	call	edi
; Line 1518
	push	32888					; 00008078H
	call	edi
; Line 1519
	push	2884					; 00000b44H
	call	DWORD PTR __imp__glDisable@4
; Line 1520
	push	0
	call	DWORD PTR __imp__glDepthMask@4
; Line 1522
	mov	DWORD PTR _y$117886[ebp], 1
	mov	ebx, 41					; 00000029H
$LL17@drawTileMo:
; Line 1524
	mov	edi, 1
$LL40@drawTileMo:
; Line 1526
	test	edi, edi
	js	SHORT $LN13@drawTileMo
	cmp	DWORD PTR _y$117886[ebp], 0
	jl	SHORT $LN13@drawTileMo
	cmp	edi, 64					; 00000040H
	jge	SHORT $LN13@drawTileMo
	cmp	ebx, 356				; 00000164H
	jge	SHORT $LN13@drawTileMo
	lea	edx, DWORD PTR [ebx+edi]
	mov	ecx, DWORD PTR [esi+edx*4]
	test	ecx, ecx
	je	SHORT $LN13@drawTileMo
; Line 1529
	call	?drawTextures@MapTile@@QAEXXZ		; MapTile::drawTextures
$LN13@drawTileMo:
; Line 1524
	inc	edi
	cmp	edi, 4
	jl	SHORT $LL40@drawTileMo
; Line 1522
	inc	DWORD PTR _y$117886[ebp]
	add	ebx, 5
	cmp	ebx, 56					; 00000038H
	jl	SHORT $LL17@drawTileMo
; Line 1534
	push	32886					; 00008076H
	call	DWORD PTR __imp__glDisableClientState@4
; Line 1536
	mov	edi, DWORD PTR __imp__glEnableClientState@4
	push	32885					; 00008075H
	call	edi
; Line 1537
	push	32888					; 00008078H
	call	edi
; Line 1539
	call	DWORD PTR __imp__glPopMatrix@0
; Line 1540
	cmp	BYTE PTR [esi+20906], 0
	je	$LN7@drawTileMo
; Line 1542
	fld	DWORD PTR [esi+20936]
	push	ecx
	fchs
	mov	DWORD PTR [esp], 0
	fdiv	QWORD PTR __real@4040aaaaa0000000
	fstp	DWORD PTR tv502[ebp]
	fld	DWORD PTR tv502[ebp]
	fld	QWORD PTR __real@4030000000000000
	call	__CIfmod
	fstp	DWORD PTR tv495[ebp]
	fld	DWORD PTR tv495[ebp]
	push	ecx
	fstp	DWORD PTR [esp]
	fld	DWORD PTR [esi+20928]
	fchs
	fdiv	QWORD PTR __real@4040aaaaa0000000
	fstp	DWORD PTR tv491[ebp]
	fld	DWORD PTR tv491[ebp]
	fld	QWORD PTR __real@4030000000000000
	call	__CIfmod
	fstp	DWORD PTR tv484[ebp]
	fld	DWORD PTR tv484[ebp]
	push	ecx
	fstp	DWORD PTR [esp]
	call	DWORD PTR __imp__glTranslatef@12
; Line 1543
	mov	ebx, DWORD PTR __imp__glVertex3f@12
	mov	DWORD PTR _x$117896[ebp], -32		; ffffffe0H
	npad	4
$LL39@drawTileMo:
; Line 1545
	mov	eax, DWORD PTR _x$117896[ebp]
	and	eax, -2147483633			; 8000000fH
	jns	SHORT $LN51@drawTileMo
	dec	eax
	or	eax, -16				; fffffff0H
	inc	eax
$LN51@drawTileMo:
	jne	SHORT $LN6@drawTileMo
; Line 1546
	sub	esp, 16					; 00000010H
	mov	DWORD PTR [esp+12], 1056964608		; 3f000000H
	mov	DWORD PTR [esp+8], 0
	mov	DWORD PTR [esp+4], 1065353216		; 3f800000H
	mov	DWORD PTR [esp], 0
; Line 1547
	jmp	SHORT $LN52@drawTileMo
$LN6@drawTileMo:
; Line 1548
	sub	esp, 16					; 00000010H
	mov	DWORD PTR [esp+12], 1056964608		; 3f000000H
	mov	DWORD PTR [esp+8], 0
	mov	DWORD PTR [esp+4], 0
	mov	DWORD PTR [esp], 1065353216		; 3f800000H
$LN52@drawTileMo:
	call	DWORD PTR __imp__glColor4f@16
; Line 1549
	push	1
	call	DWORD PTR __imp__glBegin@4
; Line 1550
	fild	DWORD PTR _x$117896[ebp]
	sub	esp, 12					; 0000000cH
	mov	DWORD PTR [esp+8], -1082130432		; bf800000H
	fstp	DWORD PTR tv463[ebp]
	mov	edi, DWORD PTR tv463[ebp]
	mov	DWORD PTR [esp+4], edi
	mov	DWORD PTR [esp], -1040187392		; c2000000H
	call	ebx
; Line 1551
	sub	esp, 12					; 0000000cH
	mov	DWORD PTR [esp+8], -1082130432		; bf800000H
	mov	DWORD PTR [esp+4], edi
	mov	DWORD PTR [esp], 1111490560		; 42400000H
	call	ebx
; Line 1552
	sub	esp, 12					; 0000000cH
	mov	DWORD PTR [esp+8], -1082130432		; bf800000H
	mov	DWORD PTR [esp+4], -1040187392		; c2000000H
	mov	DWORD PTR [esp], edi
	call	ebx
; Line 1553
	sub	esp, 12					; 0000000cH
	mov	DWORD PTR [esp+8], -1082130432		; bf800000H
	mov	DWORD PTR [esp+4], 1111490560		; 42400000H
	mov	DWORD PTR [esp], edi
	call	ebx
; Line 1554
	call	DWORD PTR __imp__glEnd@0
	mov	eax, DWORD PTR _x$117896[ebp]
	inc	eax
	mov	DWORD PTR _x$117896[ebp], eax
	cmp	eax, 48					; 00000030H
	jle	$LL39@drawTileMo
$LN7@drawTileMo:
; Line 1558
	call	DWORD PTR __imp__glPopMatrix@0
; Line 1560
	mov	ecx, DWORD PTR [esi+192]
	test	ecx, ecx
	jne	SHORT $LN3@drawTileMo
	cmp	BYTE PTR [esi+21056], cl
	je	$LN2@drawTileMo
$LN3@drawTileMo:
; Line 1563
	cmp	BYTE PTR [esi+21056], 0
	fld	QWORD PTR __real@4080aaaaa0000000
	jne	SHORT $LN1@drawTileMo
	fld	DWORD PTR [esi+20928]
	fld	DWORD PTR [ecx+2256]
	fcompp
	fnstsw	ax
	test	ah, 65					; 00000041H
	je	SHORT $LN1@drawTileMo
	fld	DWORD PTR [esi+20928]
	fld	DWORD PTR [ecx+2256]
	fadd	ST(0), ST(2)
	fcompp
	fnstsw	ax
	test	ah, 5
	jnp	SHORT $LN1@drawTileMo
	fld	DWORD PTR [esi+20936]
	fld	DWORD PTR [ecx+2260]
	fcompp
	fnstsw	ax
	test	ah, 65					; 00000041H
	je	SHORT $LN1@drawTileMo
	fld	DWORD PTR [esi+20936]
	fld	DWORD PTR [ecx+2260]
	fadd	ST(0), ST(2)
	fcompp
	fnstsw	ax
	test	ah, 5
	jp	SHORT $LN50@drawTileMo
$LN1@drawTileMo:
; Line 1565
	fld	DWORD PTR [esi+20928]
	fdiv	ST(0), ST(1)
	call	__ftol2_sse_excpt
; Line 1566
	fdivr	DWORD PTR [esi+20936]
	mov	DWORD PTR [esi+244], eax
	call	__ftol2_sse_excpt
	pop	edi
	mov	DWORD PTR [esi+248], eax
; Line 1568
	mov	BYTE PTR [esi+20903], 1
	pop	esi
	pop	ebx
; Line 1571
	mov	esp, ebp
	pop	ebp
	ret	4
$LN50@drawTileMo:
; Line 1563
	fstp	ST(0)
$LN2@drawTileMo:
	pop	edi
	pop	esi
	pop	ebx
; Line 1571
	mov	esp, ebp
	pop	ebp
	ret	4
?drawTileMode@World@@QAEXM@Z ENDP			; World::drawTileMode
_TEXT	ENDS
PUBLIC	?GetVertex@World@@QAE_NMMPAVVec3D@@@Z		; World::GetVertex
EXTRN	?GetVertex@MapTile@@QAE_NMMPAVVec3D@@@Z:PROC	; MapTile::GetVertex
; Function compile flags: /Ogtp
_TEXT	SEGMENT
_x$ = 8							; size = 4
_z$ = 12						; size = 4
_V$ = 16						; size = 4
?GetVertex@World@@QAE_NMMPAVVec3D@@@Z PROC		; World::GetVertex
; _this$ = ecx
; Line 1574
	push	ebp
	mov	ebp, esp
; Line 1576
	fld	DWORD PTR _x$[ebp]
	push	esi
	fld	QWORD PTR __real@4080aaaaa0000000
	push	edi
	fdiv	ST(1), ST(0)
	mov	esi, ecx
	fxch	ST(1)
	call	__ftol2_sse_excpt
; Line 1577
	fdivr	DWORD PTR _z$[ebp]
	mov	edi, eax
	call	__ftol2_sse_excpt
; Line 1579
	test	edi, edi
	js	SHORT $LN5@GetVertex
	test	eax, eax
	js	SHORT $LN5@GetVertex
	cmp	edi, 64					; 00000040H
	jge	SHORT $LN5@GetVertex
	cmp	eax, 64					; 00000040H
	jge	SHORT $LN5@GetVertex
	mov	ecx, eax
	shl	ecx, 6
	add	ecx, edi
	cmp	BYTE PTR [ecx+esi+304], 0
	je	SHORT $LN5@GetVertex
; Line 1582
	xor	edx, edx
$LL4@GetVertex:
; Line 1584
	mov	ecx, DWORD PTR [esi+edx*4]
	test	ecx, ecx
	je	SHORT $LN3@GetVertex
	cmp	DWORD PTR [ecx+2244], edi
	jne	SHORT $LN3@GetVertex
	cmp	DWORD PTR [ecx+2248], eax
	je	SHORT $LN14@GetVertex
$LN3@GetVertex:
; Line 1582
	inc	edx
	cmp	edx, 36					; 00000024H
	jl	SHORT $LL4@GetVertex
$LN5@GetVertex:
	pop	edi
; Line 1580
	xor	al, al
	pop	esi
; Line 1591
	pop	ebp
	ret	12					; 0000000cH
$LN14@GetVertex:
; Line 1586
	mov	eax, DWORD PTR _V$[ebp]
	mov	ecx, DWORD PTR _z$[ebp]
	push	eax
	mov	eax, DWORD PTR _x$[ebp]
	sub	esp, 8
	mov	DWORD PTR [esp+4], ecx
	mov	ecx, DWORD PTR [esi+edx*4]
	mov	DWORD PTR [esp], eax
	call	?GetVertex@MapTile@@QAE_NMMPAVVec3D@@@Z	; MapTile::GetVertex
	pop	edi
	pop	esi
; Line 1591
	pop	ebp
	ret	12					; 0000000cH
?GetVertex@World@@QAE_NMMPAVVec3D@@@Z ENDP		; World::GetVertex
_TEXT	ENDS
PUBLIC	?changeTerrain@World@@QAEXMMMMH@Z		; World::changeTerrain
EXTRN	?recalcNorms@MapChunk@@QAEXXZ:PROC		; MapChunk::recalcNorms
EXTRN	?changeTerrain@MapChunk@@QAEXMMMMH@Z:PROC	; MapChunk::changeTerrain
; Function compile flags: /Ogtp
_TEXT	SEGMENT
_this$ = -16						; size = 4
tv322 = -12						; size = 4
_i$117941 = -8						; size = 4
_j$117937 = -4						; size = 4
_x$ = 8							; size = 4
_z$ = 12						; size = 4
_change$ = 16						; size = 4
_j$117950 = 20						; size = 4
_radius$ = 20						; size = 4
tv378 = 24						; size = 4
_BrushType$ = 24					; size = 4
?changeTerrain@World@@QAEXMMMMH@Z PROC			; World::changeTerrain
; _this$ = ecx
; Line 1594
	push	ebp
	mov	ebp, esp
	sub	esp, 16					; 00000010H
	push	ebx
	push	esi
	push	edi
	mov	edi, ecx
; Line 1595
	mov	edx, 5
	mov	DWORD PTR _this$[ebp], edi
	mov	DWORD PTR _j$117937[ebp], 1
	mov	DWORD PTR tv322[ebp], edx
	npad	3
$LL20@changeTerr:
; Line 1597
	mov	eax, 1
	mov	DWORD PTR _i$117941[ebp], eax
$LL45@changeTerr:
; Line 1599
	test	eax, eax
	js	$LN16@changeTerr
	cmp	DWORD PTR _j$117937[ebp], 0
	jl	SHORT $LN16@changeTerr
	cmp	eax, 64					; 00000040H
	jge	SHORT $LN16@changeTerr
	cmp	edx, 320				; 00000140H
	jge	SHORT $LN16@changeTerr
	lea	ecx, DWORD PTR [edx+eax]
	cmp	DWORD PTR [edi+ecx*4+144], 0
	je	SHORT $LN16@changeTerr
; Line 1601
	mov	ebx, DWORD PTR _radius$[ebp]
	xor	esi, esi
	add	edx, eax
	lea	edi, DWORD PTR [edi+edx*4+144]
	npad	2
$LL13@changeTerr:
; Line 1602
	mov	edx, DWORD PTR _BrushType$[ebp]
	mov	eax, DWORD PTR _change$[ebp]
	mov	ecx, DWORD PTR _z$[ebp]
	push	edx
	mov	edx, DWORD PTR _x$[ebp]
	sub	esp, 16					; 00000010H
	mov	DWORD PTR [esp+12], ebx
	mov	DWORD PTR [esp+8], eax
	mov	DWORD PTR [esp+4], ecx
	mov	eax, esi
	and	eax, -16				; fffffff0H
	mov	ecx, esi
	and	ecx, 15					; 0000000fH
	add	eax, ecx
	imul	eax, 20204				; 00004eecH
	mov	DWORD PTR [esp], edx
	mov	edx, DWORD PTR [edi]
	lea	ecx, DWORD PTR [eax+edx+2264]
	call	?changeTerrain@MapChunk@@QAEXMMMMH@Z	; MapChunk::changeTerrain
	inc	esi
	cmp	esi, 256				; 00000100H
	jl	SHORT $LL13@changeTerr
; Line 1601
	mov	edi, DWORD PTR _this$[ebp]
	mov	eax, DWORD PTR _i$117941[ebp]
	mov	edx, DWORD PTR tv322[ebp]
$LN16@changeTerr:
; Line 1597
	inc	eax
	mov	DWORD PTR _i$117941[ebp], eax
	cmp	eax, 4
	jl	$LL45@changeTerr
; Line 1595
	inc	DWORD PTR _j$117937[ebp]
	add	edx, 5
	mov	DWORD PTR tv322[ebp], edx
	cmp	edx, 20					; 00000014H
	jl	$LL20@changeTerr
; Line 1606
	mov	eax, 5
	mov	DWORD PTR _j$117950[ebp], 1
	mov	DWORD PTR tv378[ebp], eax
	npad	1
$LL10@changeTerr:
; Line 1608
	mov	ebx, 1
$LL46@changeTerr:
; Line 1610
	test	ebx, ebx
	js	SHORT $LN6@changeTerr
	cmp	DWORD PTR _j$117950[ebp], 0
	jl	SHORT $LN6@changeTerr
	cmp	ebx, 64					; 00000040H
	jge	SHORT $LN6@changeTerr
	cmp	eax, 320				; 00000140H
	jge	SHORT $LN6@changeTerr
	lea	ecx, DWORD PTR [eax+ebx]
	cmp	DWORD PTR [edi+ecx*4+144], 0
	je	SHORT $LN6@changeTerr
; Line 1612
	xor	esi, esi
	add	eax, ebx
	lea	edi, DWORD PTR [edi+eax*4+144]
$LL3@changeTerr:
; Line 1613
	mov	ecx, DWORD PTR [edi]
	mov	edx, esi
	and	edx, -16				; fffffff0H
	mov	eax, esi
	and	eax, 15					; 0000000fH
	add	edx, eax
	imul	edx, 20204				; 00004eecH
	lea	ecx, DWORD PTR [edx+ecx+2264]
	call	?recalcNorms@MapChunk@@QAEXXZ		; MapChunk::recalcNorms
	inc	esi
	cmp	esi, 256				; 00000100H
	jl	SHORT $LL3@changeTerr
; Line 1612
	mov	edi, DWORD PTR _this$[ebp]
	mov	eax, DWORD PTR tv378[ebp]
$LN6@changeTerr:
; Line 1608
	inc	ebx
	cmp	ebx, 4
	jl	SHORT $LL46@changeTerr
; Line 1606
	inc	DWORD PTR _j$117950[ebp]
	add	eax, 5
	mov	DWORD PTR tv378[ebp], eax
	cmp	eax, 20					; 00000014H
	jl	SHORT $LL10@changeTerr
	pop	edi
	pop	esi
	pop	ebx
; Line 1617
	mov	esp, ebp
	pop	ebp
	ret	20					; 00000014H
?changeTerrain@World@@QAEXMMMMH@Z ENDP			; World::changeTerrain
_TEXT	ENDS
PUBLIC	?flattenTerrain@World@@QAEXMMMMMH@Z		; World::flattenTerrain
EXTRN	?flattenTerrain@MapChunk@@QAEXMMMMMH@Z:PROC	; MapChunk::flattenTerrain
; Function compile flags: /Ogtp
_TEXT	SEGMENT
_this$ = -16						; size = 4
tv322 = -12						; size = 4
_i$117976 = -8						; size = 4
_j$117972 = -4						; size = 4
_x$ = 8							; size = 4
_z$ = 12						; size = 4
_h$ = 16						; size = 4
_remain$ = 20						; size = 4
_j$117985 = 24						; size = 4
_radius$ = 24						; size = 4
tv378 = 28						; size = 4
_BrushType$ = 28					; size = 4
?flattenTerrain@World@@QAEXMMMMMH@Z PROC		; World::flattenTerrain
; _this$ = ecx
; Line 1619
	push	ebp
	mov	ebp, esp
	sub	esp, 16					; 00000010H
	push	ebx
	push	esi
	push	edi
	mov	edi, ecx
; Line 1620
	mov	edx, 5
	mov	DWORD PTR _this$[ebp], edi
	mov	DWORD PTR _j$117972[ebp], 1
	mov	DWORD PTR tv322[ebp], edx
	npad	3
$LL20@flattenTer:
; Line 1622
	mov	eax, 1
	mov	DWORD PTR _i$117976[ebp], eax
$LL45@flattenTer:
; Line 1624
	test	eax, eax
	js	$LN16@flattenTer
	cmp	DWORD PTR _j$117972[ebp], 0
	jl	$LN16@flattenTer
	cmp	eax, 64					; 00000040H
	jge	$LN16@flattenTer
	cmp	edx, 320				; 00000140H
	jge	SHORT $LN16@flattenTer
	lea	ecx, DWORD PTR [edx+eax]
	cmp	DWORD PTR [edi+ecx*4+144], 0
	je	SHORT $LN16@flattenTer
; Line 1626
	mov	ebx, DWORD PTR _radius$[ebp]
	xor	esi, esi
	add	edx, eax
	lea	edi, DWORD PTR [edi+edx*4+144]
$LL13@flattenTer:
; Line 1627
	mov	edx, DWORD PTR _BrushType$[ebp]
	mov	eax, DWORD PTR _remain$[ebp]
	mov	ecx, DWORD PTR _h$[ebp]
	push	edx
	mov	edx, DWORD PTR _z$[ebp]
	sub	esp, 20					; 00000014H
	mov	DWORD PTR [esp+16], ebx
	mov	DWORD PTR [esp+12], eax
	mov	eax, DWORD PTR _x$[ebp]
	mov	DWORD PTR [esp+8], ecx
	mov	DWORD PTR [esp+4], edx
	mov	ecx, esi
	and	ecx, -16				; fffffff0H
	mov	edx, esi
	and	edx, 15					; 0000000fH
	add	ecx, edx
	imul	ecx, 20204				; 00004eecH
	mov	DWORD PTR [esp], eax
	mov	eax, DWORD PTR [edi]
	lea	ecx, DWORD PTR [ecx+eax+2264]
	call	?flattenTerrain@MapChunk@@QAEXMMMMMH@Z	; MapChunk::flattenTerrain
	inc	esi
	cmp	esi, 256				; 00000100H
	jl	SHORT $LL13@flattenTer
; Line 1626
	mov	edi, DWORD PTR _this$[ebp]
	mov	eax, DWORD PTR _i$117976[ebp]
	mov	edx, DWORD PTR tv322[ebp]
$LN16@flattenTer:
; Line 1622
	inc	eax
	mov	DWORD PTR _i$117976[ebp], eax
	cmp	eax, 4
	jl	$LL45@flattenTer
; Line 1620
	inc	DWORD PTR _j$117972[ebp]
	add	edx, 5
	mov	DWORD PTR tv322[ebp], edx
	cmp	edx, 20					; 00000014H
	jl	$LL20@flattenTer
; Line 1631
	mov	eax, 5
	mov	DWORD PTR _j$117985[ebp], 1
	mov	DWORD PTR tv378[ebp], eax
	npad	4
$LL10@flattenTer:
; Line 1633
	mov	ebx, 1
$LL46@flattenTer:
; Line 1635
	test	ebx, ebx
	js	SHORT $LN6@flattenTer
	cmp	DWORD PTR _j$117985[ebp], 0
	jl	SHORT $LN6@flattenTer
	cmp	ebx, 64					; 00000040H
	jge	SHORT $LN6@flattenTer
	cmp	eax, 320				; 00000140H
	jge	SHORT $LN6@flattenTer
	lea	ecx, DWORD PTR [eax+ebx]
	cmp	DWORD PTR [edi+ecx*4+144], 0
	je	SHORT $LN6@flattenTer
; Line 1637
	xor	esi, esi
	add	eax, ebx
	lea	edi, DWORD PTR [edi+eax*4+144]
$LL3@flattenTer:
; Line 1638
	mov	ecx, DWORD PTR [edi]
	mov	edx, esi
	and	edx, -16				; fffffff0H
	mov	eax, esi
	and	eax, 15					; 0000000fH
	add	edx, eax
	imul	edx, 20204				; 00004eecH
	lea	ecx, DWORD PTR [edx+ecx+2264]
	call	?recalcNorms@MapChunk@@QAEXXZ		; MapChunk::recalcNorms
	inc	esi
	cmp	esi, 256				; 00000100H
	jl	SHORT $LL3@flattenTer
; Line 1637
	mov	edi, DWORD PTR _this$[ebp]
	mov	eax, DWORD PTR tv378[ebp]
$LN6@flattenTer:
; Line 1633
	inc	ebx
	cmp	ebx, 4
	jl	SHORT $LL46@flattenTer
; Line 1631
	inc	DWORD PTR _j$117985[ebp]
	add	eax, 5
	mov	DWORD PTR tv378[ebp], eax
	cmp	eax, 20					; 00000014H
	jl	SHORT $LL10@flattenTer
	pop	edi
	pop	esi
	pop	ebx
; Line 1642
	mov	esp, ebp
	pop	ebp
	ret	24					; 00000018H
?flattenTerrain@World@@QAEXMMMMMH@Z ENDP		; World::flattenTerrain
_TEXT	ENDS
PUBLIC	?blurTerrain@World@@QAEXMMMMH@Z			; World::blurTerrain
EXTRN	?blurTerrain@MapChunk@@QAEXMMMMH@Z:PROC		; MapChunk::blurTerrain
; Function compile flags: /Ogtp
_TEXT	SEGMENT
_this$ = -16						; size = 4
tv322 = -12						; size = 4
_i$118010 = -8						; size = 4
_j$118006 = -4						; size = 4
_x$ = 8							; size = 4
_z$ = 12						; size = 4
_remain$ = 16						; size = 4
_j$118019 = 20						; size = 4
_radius$ = 20						; size = 4
tv378 = 24						; size = 4
_BrushType$ = 24					; size = 4
?blurTerrain@World@@QAEXMMMMH@Z PROC			; World::blurTerrain
; _this$ = ecx
; Line 1645
	push	ebp
	mov	ebp, esp
	sub	esp, 16					; 00000010H
	push	ebx
	push	esi
	push	edi
	mov	edi, ecx
; Line 1646
	mov	edx, 5
	mov	DWORD PTR _this$[ebp], edi
	mov	DWORD PTR _j$118006[ebp], 1
	mov	DWORD PTR tv322[ebp], edx
	npad	3
$LL20@blurTerrai:
; Line 1648
	mov	eax, 1
	mov	DWORD PTR _i$118010[ebp], eax
$LL45@blurTerrai:
; Line 1650
	test	eax, eax
	js	$LN16@blurTerrai
	cmp	DWORD PTR _j$118006[ebp], 0
	jl	SHORT $LN16@blurTerrai
	cmp	eax, 64					; 00000040H
	jge	SHORT $LN16@blurTerrai
	cmp	edx, 320				; 00000140H
	jge	SHORT $LN16@blurTerrai
	lea	ecx, DWORD PTR [edx+eax]
	cmp	DWORD PTR [edi+ecx*4+144], 0
	je	SHORT $LN16@blurTerrai
; Line 1652
	mov	ebx, DWORD PTR _radius$[ebp]
	xor	esi, esi
	add	edx, eax
	lea	edi, DWORD PTR [edi+edx*4+144]
	npad	2
$LL13@blurTerrai:
; Line 1653
	mov	edx, DWORD PTR _BrushType$[ebp]
	mov	eax, DWORD PTR _remain$[ebp]
	mov	ecx, DWORD PTR _z$[ebp]
	push	edx
	mov	edx, DWORD PTR _x$[ebp]
	sub	esp, 16					; 00000010H
	mov	DWORD PTR [esp+12], ebx
	mov	DWORD PTR [esp+8], eax
	mov	DWORD PTR [esp+4], ecx
	mov	eax, esi
	and	eax, -16				; fffffff0H
	mov	ecx, esi
	and	ecx, 15					; 0000000fH
	add	eax, ecx
	imul	eax, 20204				; 00004eecH
	mov	DWORD PTR [esp], edx
	mov	edx, DWORD PTR [edi]
	lea	ecx, DWORD PTR [eax+edx+2264]
	call	?blurTerrain@MapChunk@@QAEXMMMMH@Z	; MapChunk::blurTerrain
	inc	esi
	cmp	esi, 256				; 00000100H
	jl	SHORT $LL13@blurTerrai
; Line 1652
	mov	edi, DWORD PTR _this$[ebp]
	mov	eax, DWORD PTR _i$118010[ebp]
	mov	edx, DWORD PTR tv322[ebp]
$LN16@blurTerrai:
; Line 1648
	inc	eax
	mov	DWORD PTR _i$118010[ebp], eax
	cmp	eax, 4
	jl	$LL45@blurTerrai
; Line 1646
	inc	DWORD PTR _j$118006[ebp]
	add	edx, 5
	mov	DWORD PTR tv322[ebp], edx
	cmp	edx, 20					; 00000014H
	jl	$LL20@blurTerrai
; Line 1657
	mov	eax, 5
	mov	DWORD PTR _j$118019[ebp], 1
	mov	DWORD PTR tv378[ebp], eax
	npad	1
$LL10@blurTerrai:
; Line 1659
	mov	ebx, 1
$LL46@blurTerrai:
; Line 1661
	test	ebx, ebx
	js	SHORT $LN6@blurTerrai
	cmp	DWORD PTR _j$118019[ebp], 0
	jl	SHORT $LN6@blurTerrai
	cmp	ebx, 64					; 00000040H
	jge	SHORT $LN6@blurTerrai
	cmp	eax, 320				; 00000140H
	jge	SHORT $LN6@blurTerrai
	lea	ecx, DWORD PTR [eax+ebx]
	cmp	DWORD PTR [edi+ecx*4+144], 0
	je	SHORT $LN6@blurTerrai
; Line 1663
	xor	esi, esi
	add	eax, ebx
	lea	edi, DWORD PTR [edi+eax*4+144]
$LL3@blurTerrai:
; Line 1664
	mov	ecx, DWORD PTR [edi]
	mov	edx, esi
	and	edx, -16				; fffffff0H
	mov	eax, esi
	and	eax, 15					; 0000000fH
	add	edx, eax
	imul	edx, 20204				; 00004eecH
	lea	ecx, DWORD PTR [edx+ecx+2264]
	call	?recalcNorms@MapChunk@@QAEXXZ		; MapChunk::recalcNorms
	inc	esi
	cmp	esi, 256				; 00000100H
	jl	SHORT $LL3@blurTerrai
; Line 1663
	mov	edi, DWORD PTR _this$[ebp]
	mov	eax, DWORD PTR tv378[ebp]
$LN6@blurTerrai:
; Line 1659
	inc	ebx
	cmp	ebx, 4
	jl	SHORT $LL46@blurTerrai
; Line 1657
	inc	DWORD PTR _j$118019[ebp]
	add	eax, 5
	mov	DWORD PTR tv378[ebp], eax
	cmp	eax, 20					; 00000014H
	jl	SHORT $LL10@blurTerrai
	pop	edi
	pop	esi
	pop	ebx
; Line 1668
	mov	esp, ebp
	pop	ebp
	ret	20					; 00000014H
?blurTerrain@World@@QAEXMMMMH@Z ENDP			; World::blurTerrain
_TEXT	ENDS
PUBLIC	?paintTexture@World@@QAEXMMPAVbrush@@MMH@Z	; World::paintTexture
EXTRN	?paintTexture@MapChunk@@QAE_NMMPAVbrush@@MMH@Z:PROC ; MapChunk::paintTexture
; Function compile flags: /Ogtp
_TEXT	SEGMENT
_newX$ = -16						; size = 4
_newZ$ = -12						; size = 4
tv64 = -8						; size = 4
tv284 = -4						; size = 4
_x$ = 8							; size = 4
_z$ = 12						; size = 4
_Brush$ = 16						; size = 4
_strength$ = 20						; size = 4
_pressure$ = 24						; size = 4
_texture$ = 28						; size = 4
?paintTexture@World@@QAEXMMPAVbrush@@MMH@Z PROC		; World::paintTexture
; _this$ = ecx
; Line 1671
	push	ebp
	mov	ebp, esp
	sub	esp, 16					; 00000010H
; Line 1673
	fld	DWORD PTR _x$[ebp]
	push	esi
	fld	QWORD PTR __real@4080aaaaa0000000
	push	edi
	fdiv	ST(1), ST(0)
	mov	edi, ecx
	fxch	ST(1)
	call	__ftol2_sse_excpt
; Line 1674
	fdivr	DWORD PTR _z$[ebp]
	mov	esi, eax
	mov	DWORD PTR _newX$[ebp], esi
	call	__ftol2_sse_excpt
	mov	DWORD PTR _newZ$[ebp], eax
; Line 1676
	test	esi, esi
	js	$LN5@paintTextu
	test	eax, eax
	js	$LN5@paintTextu
	cmp	esi, 64					; 00000040H
	jge	$LN5@paintTextu
	cmp	eax, 64					; 00000040H
	jge	$LN5@paintTextu
	mov	ecx, eax
	shl	ecx, 6
	add	ecx, esi
	cmp	BYTE PTR [ecx+edi+304], 0
	je	$LN5@paintTextu
; Line 1679
	mov	DWORD PTR tv284[ebp], edi
	mov	DWORD PTR tv64[ebp], 36			; 00000024H
	push	ebx
	npad	2
$LL22@paintTextu:
; Line 1681
	mov	ecx, DWORD PTR [edi]
	test	ecx, ecx
	je	$LN6@paintTextu
	mov	edx, DWORD PTR [ecx+2244]
	lea	edi, DWORD PTR [esi-1]
	cmp	edx, edi
	jl	SHORT $LN6@paintTextu
	lea	edi, DWORD PTR [esi+1]
	cmp	edx, edi
	jg	SHORT $LN6@paintTextu
	mov	ecx, DWORD PTR [ecx+2248]
	lea	edx, DWORD PTR [eax-1]
	cmp	ecx, edx
	jl	SHORT $LN6@paintTextu
	lea	edx, DWORD PTR [eax+1]
	cmp	ecx, edx
	jg	SHORT $LN6@paintTextu
; Line 1683
	mov	edi, DWORD PTR _pressure$[ebp]
	mov	ebx, DWORD PTR _strength$[ebp]
	xor	esi, esi
	npad	6
$LL21@paintTextu:
; Line 1684
	mov	eax, DWORD PTR _texture$[ebp]
	mov	ecx, DWORD PTR _Brush$[ebp]
	mov	edx, DWORD PTR _z$[ebp]
	push	eax
	mov	eax, DWORD PTR _x$[ebp]
	sub	esp, 8
	mov	DWORD PTR [esp+4], edi
	mov	DWORD PTR [esp], ebx
	push	ecx
	sub	esp, 8
	mov	DWORD PTR [esp+4], edx
	mov	ecx, esi
	and	ecx, -16				; fffffff0H
	mov	edx, esi
	and	edx, 15					; 0000000fH
	add	ecx, edx
	imul	ecx, 20204				; 00004eecH
	mov	DWORD PTR [esp], eax
	mov	eax, DWORD PTR tv284[ebp]
	mov	edx, DWORD PTR [eax]
	lea	ecx, DWORD PTR [ecx+edx+2264]
	call	?paintTexture@MapChunk@@QAE_NMMPAVbrush@@MMH@Z ; MapChunk::paintTexture
	inc	esi
	cmp	esi, 256				; 00000100H
	jl	SHORT $LL21@paintTextu
; Line 1683
	mov	eax, DWORD PTR _newZ$[ebp]
	mov	esi, DWORD PTR _newX$[ebp]
$LN6@paintTextu:
; Line 1679
	mov	edi, DWORD PTR tv284[ebp]
	add	edi, 4
	dec	DWORD PTR tv64[ebp]
	mov	DWORD PTR tv284[ebp], edi
	jne	$LL22@paintTextu
	pop	ebx
$LN5@paintTextu:
	pop	edi
	pop	esi
; Line 1689
	mov	esp, ebp
	pop	ebp
	ret	24					; 00000018H
?paintTexture@World@@QAEXMMPAVbrush@@MMH@Z ENDP		; World::paintTexture
_TEXT	ENDS
PUBLIC	?eraseTextures@World@@QAEXMM@Z			; World::eraseTextures
EXTRN	?eraseTextures@MapChunk@@QAEXXZ:PROC		; MapChunk::eraseTextures
; Function compile flags: /Ogtp
_TEXT	SEGMENT
_newZ$ = -8						; size = 4
tv223 = -4						; size = 4
_x$ = 8							; size = 4
_z$ = 12						; size = 4
?eraseTextures@World@@QAEXMM@Z PROC			; World::eraseTextures
; _this$ = ecx
; Line 1692
	push	ebp
	mov	ebp, esp
	sub	esp, 8
; Line 1694
	fld	DWORD PTR _x$[ebp]
	push	ebx
	fld	ST(0)
	push	esi
	fld	QWORD PTR __real@4080aaaaa0000000
	mov	esi, ecx
	fdiv	ST(1), ST(0)
	fxch	ST(1)
	call	__ftol2_sse_excpt
; Line 1695
	fld	DWORD PTR _z$[ebp]
	fld	ST(0)
	mov	ebx, eax
	fdivrp	ST(2), ST(0)
	fxch	ST(1)
	call	__ftol2_sse_excpt
	mov	edx, eax
	mov	DWORD PTR _newZ$[ebp], edx
; Line 1697
	test	ebx, ebx
	js	$LN37@eraseTextu
	test	edx, edx
	js	$LN37@eraseTextu
	cmp	ebx, 64					; 00000040H
	jge	$LN37@eraseTextu
	cmp	edx, 64					; 00000040H
	jge	$LN37@eraseTextu
	shl	eax, 6
	add	eax, ebx
	cmp	BYTE PTR [eax+esi+304], 0
	je	$LN37@eraseTextu
; Line 1700
	push	edi
	mov	edi, esi
	mov	DWORD PTR tv223[ebp], 36		; 00000024H
$LN23@eraseTextu:
; Line 1702
	mov	eax, DWORD PTR [edi]
	test	eax, eax
	je	$LN7@eraseTextu
	mov	ecx, DWORD PTR [eax+2244]
	lea	esi, DWORD PTR [ebx-1]
	cmp	ecx, esi
	jl	$LN7@eraseTextu
	lea	esi, DWORD PTR [ebx+1]
	cmp	ecx, esi
	jg	$LN7@eraseTextu
	mov	eax, DWORD PTR [eax+2248]
	lea	ecx, DWORD PTR [edx-1]
	cmp	eax, ecx
	jl	$LN7@eraseTextu
	lea	ecx, DWORD PTR [edx+1]
	cmp	eax, ecx
	jg	$LN7@eraseTextu
; Line 1704
	xor	esi, esi
$LN4@eraseTextu:
; Line 1705
	mov	eax, esi
	and	eax, -16				; fffffff0H
	mov	ecx, esi
	and	ecx, 15					; 0000000fH
	add	eax, ecx
	mov	ecx, DWORD PTR [edi]
	imul	eax, 20204				; 00004eecH
	fld	DWORD PTR [ecx+eax+2472]
	fcomp	ST(2)
	add	ecx, eax
	fnstsw	ax
	test	ah, 5
	jp	SHORT $LN3@eraseTextu
	fld	DWORD PTR [ecx+2472]
	fld	QWORD PTR __real@4040aaaaa0000000
	fadd	ST(1), ST(0)
	fxch	ST(1)
	fcomp	ST(3)
	fnstsw	ax
	test	ah, 65					; 00000041H
	jne	SHORT $LN59@eraseTextu
	fld	DWORD PTR [ecx+2480]
	fcomp	ST(2)
	fnstsw	ax
	test	ah, 5
	jp	SHORT $LN59@eraseTextu
	fadd	DWORD PTR [ecx+2480]
	fcomp	ST(1)
	fnstsw	ax
	test	ah, 65					; 00000041H
	jne	SHORT $LN3@eraseTextu
	fstp	ST(1)
; Line 1706
	add	ecx, 2264				; 000008d8H
	fstp	ST(0)
	call	?eraseTextures@MapChunk@@QAEXXZ		; MapChunk::eraseTextures
	fld	DWORD PTR _x$[ebp]
	mov	edx, DWORD PTR _newZ$[ebp]
	fld	DWORD PTR _z$[ebp]
	jmp	SHORT $LN3@eraseTextu
$LN59@eraseTextu:
; Line 1705
	fstp	ST(0)
$LN3@eraseTextu:
; Line 1704
	inc	esi
	cmp	esi, 256				; 00000100H
	jl	$LN4@eraseTextu
$LN7@eraseTextu:
; Line 1700
	add	edi, 4
	dec	DWORD PTR tv223[ebp]
	jne	$LN23@eraseTextu
	pop	edi
$LN37@eraseTextu:
; Line 1697
	fstp	ST(1)
	pop	esi
	fstp	ST(0)
	pop	ebx
; Line 1711
	mov	esp, ebp
	pop	ebp
	ret	8
?eraseTextures@World@@QAEXMM@Z ENDP			; World::eraseTextures
_TEXT	ENDS
PUBLIC	?size@?$basic_string@DU?$char_traits@D@std@@V?$allocator@D@2@@std@@QBEIXZ ; std::basic_string<char,std::char_traits<char>,std::allocator<char> >::size
; Function compile flags: /Ogtp
;	COMDAT ?size@?$basic_string@DU?$char_traits@D@std@@V?$allocator@D@2@@std@@QBEIXZ
_TEXT	SEGMENT
?size@?$basic_string@DU?$char_traits@D@std@@V?$allocator@D@2@@std@@QBEIXZ PROC ; std::basic_string<char,std::char_traits<char>,std::allocator<char> >::size, COMDAT
; _this$ = ecx
; File c:\program files (x86)\microsoft visual studio 10.0\vc\include\xstring
; Line 1511
	mov	eax, DWORD PTR [ecx+16]
; Line 1512
	ret	0
?size@?$basic_string@DU?$char_traits@D@std@@V?$allocator@D@2@@std@@QBEIXZ ENDP ; std::basic_string<char,std::char_traits<char>,std::allocator<char> >::size
_TEXT	ENDS
PUBLIC	??A?$vector@V?$basic_string@DU?$char_traits@D@std@@V?$allocator@D@2@@std@@V?$allocator@V?$basic_string@DU?$char_traits@D@std@@V?$allocator@D@2@@std@@@2@@std@@QAEAAV?$basic_string@DU?$char_traits@D@std@@V?$allocator@D@2@@1@I@Z ; std::vector<std::basic_string<char,std::char_traits<char>,std::allocator<char> >,std::allocator<std::basic_string<char,std::char_traits<char>,std::allocator<char> > > >::operator[]
; Function compile flags: /Ogtp
;	COMDAT ??A?$vector@V?$basic_string@DU?$char_traits@D@std@@V?$allocator@D@2@@std@@V?$allocator@V?$basic_string@DU?$char_traits@D@std@@V?$allocator@D@2@@std@@@2@@std@@QAEAAV?$basic_string@DU?$char_traits@D@std@@V?$allocator@D@2@@1@I@Z
_TEXT	SEGMENT
__Pos$ = 8						; size = 4
??A?$vector@V?$basic_string@DU?$char_traits@D@std@@V?$allocator@D@2@@std@@V?$allocator@V?$basic_string@DU?$char_traits@D@std@@V?$allocator@D@2@@std@@@2@@std@@QAEAAV?$basic_string@DU?$char_traits@D@std@@V?$allocator@D@2@@1@I@Z PROC ; std::vector<std::basic_string<char,std::char_traits<char>,std::allocator<char> >,std::allocator<std::basic_string<char,std::char_traits<char>,std::allocator<char> > > >::operator[], COMDAT
; _this$ = ecx
; File c:\program files (x86)\microsoft visual studio 10.0\vc\include\vector
; Line 928
	push	ebp
	mov	ebp, esp
; Line 940
	mov	eax, DWORD PTR __Pos$[ebp]
	lea	edx, DWORD PTR [eax*8]
	sub	edx, eax
	mov	eax, DWORD PTR [ecx]
	lea	eax, DWORD PTR [eax+edx*4]
; Line 941
	pop	ebp
	ret	4
??A?$vector@V?$basic_string@DU?$char_traits@D@std@@V?$allocator@D@2@@std@@V?$allocator@V?$basic_string@DU?$char_traits@D@std@@V?$allocator@D@2@@std@@@2@@std@@QAEAAV?$basic_string@DU?$char_traits@D@std@@V?$allocator@D@2@@1@I@Z ENDP ; std::vector<std::basic_string<char,std::char_traits<char>,std::allocator<char> >,std::allocator<std::basic_string<char,std::char_traits<char>,std::allocator<char> > > >::operator[]
_TEXT	ENDS
PUBLIC	??A?$vector@VWMOInstance@@V?$allocator@VWMOInstance@@@std@@@std@@QAEAAVWMOInstance@@I@Z ; std::vector<WMOInstance,std::allocator<WMOInstance> >::operator[]
; Function compile flags: /Ogtp
;	COMDAT ??A?$vector@VWMOInstance@@V?$allocator@VWMOInstance@@@std@@@std@@QAEAAVWMOInstance@@I@Z
_TEXT	SEGMENT
__Pos$ = 8						; size = 4
??A?$vector@VWMOInstance@@V?$allocator@VWMOInstance@@@std@@@std@@QAEAAVWMOInstance@@I@Z PROC ; std::vector<WMOInstance,std::allocator<WMOInstance> >::operator[], COMDAT
; _this$ = ecx
; Line 928
	push	ebp
	mov	ebp, esp
; Line 940
	mov	eax, DWORD PTR __Pos$[ebp]
	mov	ecx, DWORD PTR [ecx]
	lea	eax, DWORD PTR [eax+eax*8]
	lea	eax, DWORD PTR [ecx+eax*8]
; Line 941
	pop	ebp
	ret	4
??A?$vector@VWMOInstance@@V?$allocator@VWMOInstance@@@std@@@std@@QAEAAVWMOInstance@@I@Z ENDP ; std::vector<WMOInstance,std::allocator<WMOInstance> >::operator[]
_TEXT	ENDS
PUBLIC	?_Myptr@?$basic_string@DU?$char_traits@D@std@@V?$allocator@D@2@@std@@QBEPBDXZ ; std::basic_string<char,std::char_traits<char>,std::allocator<char> >::_Myptr
; Function compile flags: /Ogtp
;	COMDAT ?_Myptr@?$basic_string@DU?$char_traits@D@std@@V?$allocator@D@2@@std@@QBEPBDXZ
_TEXT	SEGMENT
?_Myptr@?$basic_string@DU?$char_traits@D@std@@V?$allocator@D@2@@std@@QBEPBDXZ PROC ; std::basic_string<char,std::char_traits<char>,std::allocator<char> >::_Myptr, COMDAT
; _this$ = ecx
; File c:\program files (x86)\microsoft visual studio 10.0\vc\include\xstring
; Line 2008
	mov	eax, ecx
; Line 2010
	cmp	DWORD PTR [eax+20], 16			; 00000010H
	jb	SHORT $LN4@Myptr
	mov	eax, DWORD PTR [eax]
$LN4@Myptr:
; Line 2011
	ret	0
?_Myptr@?$basic_string@DU?$char_traits@D@std@@V?$allocator@D@2@@std@@QBEPBDXZ ENDP ; std::basic_string<char,std::char_traits<char>,std::allocator<char> >::_Myptr
_TEXT	ENDS
PUBLIC	??1?$_String_val@DV?$allocator@D@std@@@std@@QAE@XZ ; std::_String_val<char,std::allocator<char> >::~_String_val<char,std::allocator<char> >
; Function compile flags: /Ogtp
;	COMDAT ??1?$_String_val@DV?$allocator@D@std@@@std@@QAE@XZ
_TEXT	SEGMENT
??1?$_String_val@DV?$allocator@D@std@@@std@@QAE@XZ PROC	; std::_String_val<char,std::allocator<char> >::~_String_val<char,std::allocator<char> >, COMDAT
; _this$ = ecx
; Line 459
	ret	0
??1?$_String_val@DV?$allocator@D@std@@@std@@QAE@XZ ENDP	; std::_String_val<char,std::allocator<char> >::~_String_val<char,std::allocator<char> >
_TEXT	ENDS
PUBLIC	??0?$allocator@D@std@@QAE@XZ			; std::allocator<char>::allocator<char>
; Function compile flags: /Ogtp
;	COMDAT ??0?$allocator@D@std@@QAE@XZ
_TEXT	SEGMENT
??0?$allocator@D@std@@QAE@XZ PROC			; std::allocator<char>::allocator<char>, COMDAT
; _this$ = ecx
; File c:\program files (x86)\microsoft visual studio 10.0\vc\include\xmemory
; Line 161
	mov	eax, ecx
; Line 163
	ret	0
??0?$allocator@D@std@@QAE@XZ ENDP			; std::allocator<char>::allocator<char>
_TEXT	ENDS
PUBLIC	??0?$allocator@D@std@@QAE@ABV01@@Z		; std::allocator<char>::allocator<char>
; Function compile flags: /Ogtp
;	COMDAT ??0?$allocator@D@std@@QAE@ABV01@@Z
_TEXT	SEGMENT
___formal$ = 8						; size = 4
??0?$allocator@D@std@@QAE@ABV01@@Z PROC			; std::allocator<char>::allocator<char>, COMDAT
; _this$ = ecx
; Line 165
	mov	eax, ecx
; Line 167
	ret	4
??0?$allocator@D@std@@QAE@ABV01@@Z ENDP			; std::allocator<char>::allocator<char>
_TEXT	ENDS
PUBLIC	??R?$less@H@std@@QBE_NABH0@Z			; std::less<int>::operator()
; Function compile flags: /Ogtp
;	COMDAT ??R?$less@H@std@@QBE_NABH0@Z
_TEXT	SEGMENT
__Left$ = 8						; size = 4
__Right$ = 12						; size = 4
??R?$less@H@std@@QBE_NABH0@Z PROC			; std::less<int>::operator(), COMDAT
; _this$ = ecx
; File c:\program files (x86)\microsoft visual studio 10.0\vc\include\xfunctional
; Line 124
	push	ebp
	mov	ebp, esp
; Line 125
	mov	eax, DWORD PTR __Left$[ebp]
	mov	ecx, DWORD PTR [eax]
	mov	edx, DWORD PTR __Right$[ebp]
	xor	eax, eax
	cmp	ecx, DWORD PTR [edx]
	setl	al
; Line 126
	pop	ebp
	ret	8
??R?$less@H@std@@QBE_NABH0@Z ENDP			; std::less<int>::operator()
_TEXT	ENDS
PUBLIC	?_Inside@?$vector@V?$basic_string@DU?$char_traits@D@std@@V?$allocator@D@2@@std@@V?$allocator@V?$basic_string@DU?$char_traits@D@std@@V?$allocator@D@2@@std@@@2@@std@@IBE_NPBV?$basic_string@DU?$char_traits@D@std@@V?$allocator@D@2@@2@@Z ; std::vector<std::basic_string<char,std::char_traits<char>,std::allocator<char> >,std::allocator<std::basic_string<char,std::char_traits<char>,std::allocator<char> > > >::_Inside
; Function compile flags: /Ogtp
;	COMDAT ?_Inside@?$vector@V?$basic_string@DU?$char_traits@D@std@@V?$allocator@D@2@@std@@V?$allocator@V?$basic_string@DU?$char_traits@D@std@@V?$allocator@D@2@@std@@@2@@std@@IBE_NPBV?$basic_string@DU?$char_traits@D@std@@V?$allocator@D@2@@2@@Z
_TEXT	SEGMENT
__Ptr$ = 8						; size = 4
?_Inside@?$vector@V?$basic_string@DU?$char_traits@D@std@@V?$allocator@D@2@@std@@V?$allocator@V?$basic_string@DU?$char_traits@D@std@@V?$allocator@D@2@@std@@@2@@std@@IBE_NPBV?$basic_string@DU?$char_traits@D@std@@V?$allocator@D@2@@2@@Z PROC ; std::vector<std::basic_string<char,std::char_traits<char>,std::allocator<char> >,std::allocator<std::basic_string<char,std::char_traits<char>,std::allocator<char> > > >::_Inside, COMDAT
; _this$ = ecx
; File c:\program files (x86)\microsoft visual studio 10.0\vc\include\vector
; Line 1285
	push	ebp
	mov	ebp, esp
; Line 1286
	mov	eax, DWORD PTR __Ptr$[ebp]
	cmp	eax, DWORD PTR [ecx+4]
	jae	SHORT $LN3@Inside
	cmp	DWORD PTR [ecx], eax
	ja	SHORT $LN3@Inside
	mov	eax, 1
; Line 1287
	pop	ebp
	ret	4
$LN3@Inside:
; Line 1286
	xor	eax, eax
; Line 1287
	pop	ebp
	ret	4
?_Inside@?$vector@V?$basic_string@DU?$char_traits@D@std@@V?$allocator@D@2@@std@@V?$allocator@V?$basic_string@DU?$char_traits@D@std@@V?$allocator@D@2@@std@@@2@@std@@IBE_NPBV?$basic_string@DU?$char_traits@D@std@@V?$allocator@D@2@@2@@Z ENDP ; std::vector<std::basic_string<char,std::char_traits<char>,std::allocator<char> >,std::allocator<std::basic_string<char,std::char_traits<char>,std::allocator<char> > > >::_Inside
_TEXT	ENDS
PUBLIC	?_Orphan_range@?$vector@V?$basic_string@DU?$char_traits@D@std@@V?$allocator@D@2@@std@@V?$allocator@V?$basic_string@DU?$char_traits@D@std@@V?$allocator@D@2@@std@@@2@@std@@IBEXPAV?$basic_string@DU?$char_traits@D@std@@V?$allocator@D@2@@2@0@Z ; std::vector<std::basic_string<char,std::char_traits<char>,std::allocator<char> >,std::allocator<std::basic_string<char,std::char_traits<char>,std::allocator<char> > > >::_Orphan_range
; Function compile flags: /Ogtp
;	COMDAT ?_Orphan_range@?$vector@V?$basic_string@DU?$char_traits@D@std@@V?$allocator@D@2@@std@@V?$allocator@V?$basic_string@DU?$char_traits@D@std@@V?$allocator@D@2@@std@@@2@@std@@IBEXPAV?$basic_string@DU?$char_traits@D@std@@V?$allocator@D@2@@2@0@Z
_TEXT	SEGMENT
___formal$ = 8						; size = 4
___formal$ = 12						; size = 4
?_Orphan_range@?$vector@V?$basic_string@DU?$char_traits@D@std@@V?$allocator@D@2@@std@@V?$allocator@V?$basic_string@DU?$char_traits@D@std@@V?$allocator@D@2@@std@@@2@@std@@IBEXPAV?$basic_string@DU?$char_traits@D@std@@V?$allocator@D@2@@2@0@Z PROC ; std::vector<std::basic_string<char,std::char_traits<char>,std::allocator<char> >,std::allocator<std::basic_string<char,std::char_traits<char>,std::allocator<char> > > >::_Orphan_range, COMDAT
; _this$ = ecx
; Line 1454
	ret	8
?_Orphan_range@?$vector@V?$basic_string@DU?$char_traits@D@std@@V?$allocator@D@2@@std@@V?$allocator@V?$basic_string@DU?$char_traits@D@std@@V?$allocator@D@2@@std@@@2@@std@@IBEXPAV?$basic_string@DU?$char_traits@D@std@@V?$allocator@D@2@@2@0@Z ENDP ; std::vector<std::basic_string<char,std::char_traits<char>,std::allocator<char> >,std::allocator<std::basic_string<char,std::char_traits<char>,std::allocator<char> > > >::_Orphan_range
_TEXT	ENDS
PUBLIC	??1?$_Vector_val@V?$basic_string@DU?$char_traits@D@std@@V?$allocator@D@2@@std@@V?$allocator@V?$basic_string@DU?$char_traits@D@std@@V?$allocator@D@2@@std@@@2@@std@@QAE@XZ ; std::_Vector_val<std::basic_string<char,std::char_traits<char>,std::allocator<char> >,std::allocator<std::basic_string<char,std::char_traits<char>,std::allocator<char> > > >::~_Vector_val<std::basic_string<char,std::char_traits<char>,std::allocator<char> >,std::allocator<std::basic_string<char,std::char_traits<char>,std::allocator<char> > > >
; Function compile flags: /Ogtp
;	COMDAT ??1?$_Vector_val@V?$basic_string@DU?$char_traits@D@std@@V?$allocator@D@2@@std@@V?$allocator@V?$basic_string@DU?$char_traits@D@std@@V?$allocator@D@2@@std@@@2@@std@@QAE@XZ
_TEXT	SEGMENT
??1?$_Vector_val@V?$basic_string@DU?$char_traits@D@std@@V?$allocator@D@2@@std@@V?$allocator@V?$basic_string@DU?$char_traits@D@std@@V?$allocator@D@2@@std@@@2@@std@@QAE@XZ PROC ; std::_Vector_val<std::basic_string<char,std::char_traits<char>,std::allocator<char> >,std::allocator<std::basic_string<char,std::char_traits<char>,std::allocator<char> > > >::~_Vector_val<std::basic_string<char,std::char_traits<char>,std::allocator<char> >,std::allocator<std::basic_string<char,std::char_traits<char>,std::allocator<char> > > >, COMDAT
; _this$ = ecx
; Line 434
	ret	0
??1?$_Vector_val@V?$basic_string@DU?$char_traits@D@std@@V?$allocator@D@2@@std@@V?$allocator@V?$basic_string@DU?$char_traits@D@std@@V?$allocator@D@2@@std@@@2@@std@@QAE@XZ ENDP ; std::_Vector_val<std::basic_string<char,std::char_traits<char>,std::allocator<char> >,std::allocator<std::basic_string<char,std::char_traits<char>,std::allocator<char> > > >::~_Vector_val<std::basic_string<char,std::char_traits<char>,std::allocator<char> >,std::allocator<std::basic_string<char,std::char_traits<char>,std::allocator<char> > > >
_TEXT	ENDS
PUBLIC	??0?$allocator@V?$basic_string@DU?$char_traits@D@std@@V?$allocator@D@2@@std@@@std@@QAE@XZ ; std::allocator<std::basic_string<char,std::char_traits<char>,std::allocator<char> > >::allocator<std::basic_string<char,std::char_traits<char>,std::allocator<char> > >
; Function compile flags: /Ogtp
;	COMDAT ??0?$allocator@V?$basic_string@DU?$char_traits@D@std@@V?$allocator@D@2@@std@@@std@@QAE@XZ
_TEXT	SEGMENT
??0?$allocator@V?$basic_string@DU?$char_traits@D@std@@V?$allocator@D@2@@std@@@std@@QAE@XZ PROC ; std::allocator<std::basic_string<char,std::char_traits<char>,std::allocator<char> > >::allocator<std::basic_string<char,std::char_traits<char>,std::allocator<char> > >, COMDAT
; _this$ = ecx
; File c:\program files (x86)\microsoft visual studio 10.0\vc\include\xmemory
; Line 161
	mov	eax, ecx
; Line 163
	ret	0
??0?$allocator@V?$basic_string@DU?$char_traits@D@std@@V?$allocator@D@2@@std@@@std@@QAE@XZ ENDP ; std::allocator<std::basic_string<char,std::char_traits<char>,std::allocator<char> > >::allocator<std::basic_string<char,std::char_traits<char>,std::allocator<char> > >
_TEXT	ENDS
PUBLIC	?_Inside@?$vector@VWMOInstance@@V?$allocator@VWMOInstance@@@std@@@std@@IBE_NPBVWMOInstance@@@Z ; std::vector<WMOInstance,std::allocator<WMOInstance> >::_Inside
; Function compile flags: /Ogtp
;	COMDAT ?_Inside@?$vector@VWMOInstance@@V?$allocator@VWMOInstance@@@std@@@std@@IBE_NPBVWMOInstance@@@Z
_TEXT	SEGMENT
__Ptr$ = 8						; size = 4
?_Inside@?$vector@VWMOInstance@@V?$allocator@VWMOInstance@@@std@@@std@@IBE_NPBVWMOInstance@@@Z PROC ; std::vector<WMOInstance,std::allocator<WMOInstance> >::_Inside, COMDAT
; _this$ = ecx
; File c:\program files (x86)\microsoft visual studio 10.0\vc\include\vector
; Line 1285
	push	ebp
	mov	ebp, esp
; Line 1286
	mov	eax, DWORD PTR __Ptr$[ebp]
	cmp	eax, DWORD PTR [ecx+4]
	jae	SHORT $LN3@Inside@2
	cmp	DWORD PTR [ecx], eax
	ja	SHORT $LN3@Inside@2
	mov	eax, 1
; Line 1287
	pop	ebp
	ret	4
$LN3@Inside@2:
; Line 1286
	xor	eax, eax
; Line 1287
	pop	ebp
	ret	4
?_Inside@?$vector@VWMOInstance@@V?$allocator@VWMOInstance@@@std@@@std@@IBE_NPBVWMOInstance@@@Z ENDP ; std::vector<WMOInstance,std::allocator<WMOInstance> >::_Inside
_TEXT	ENDS
PUBLIC	?_Orphan_range@?$vector@VWMOInstance@@V?$allocator@VWMOInstance@@@std@@@std@@IBEXPAVWMOInstance@@0@Z ; std::vector<WMOInstance,std::allocator<WMOInstance> >::_Orphan_range
; Function compile flags: /Ogtp
;	COMDAT ?_Orphan_range@?$vector@VWMOInstance@@V?$allocator@VWMOInstance@@@std@@@std@@IBEXPAVWMOInstance@@0@Z
_TEXT	SEGMENT
___formal$ = 8						; size = 4
___formal$ = 12						; size = 4
?_Orphan_range@?$vector@VWMOInstance@@V?$allocator@VWMOInstance@@@std@@@std@@IBEXPAVWMOInstance@@0@Z PROC ; std::vector<WMOInstance,std::allocator<WMOInstance> >::_Orphan_range, COMDAT
; _this$ = ecx
; Line 1454
	ret	8
?_Orphan_range@?$vector@VWMOInstance@@V?$allocator@VWMOInstance@@@std@@@std@@IBEXPAVWMOInstance@@0@Z ENDP ; std::vector<WMOInstance,std::allocator<WMOInstance> >::_Orphan_range
_TEXT	ENDS
PUBLIC	??1?$_Vector_val@VWMOInstance@@V?$allocator@VWMOInstance@@@std@@@std@@QAE@XZ ; std::_Vector_val<WMOInstance,std::allocator<WMOInstance> >::~_Vector_val<WMOInstance,std::allocator<WMOInstance> >
; Function compile flags: /Ogtp
;	COMDAT ??1?$_Vector_val@VWMOInstance@@V?$allocator@VWMOInstance@@@std@@@std@@QAE@XZ
_TEXT	SEGMENT
??1?$_Vector_val@VWMOInstance@@V?$allocator@VWMOInstance@@@std@@@std@@QAE@XZ PROC ; std::_Vector_val<WMOInstance,std::allocator<WMOInstance> >::~_Vector_val<WMOInstance,std::allocator<WMOInstance> >, COMDAT
; _this$ = ecx
; Line 434
	ret	0
??1?$_Vector_val@VWMOInstance@@V?$allocator@VWMOInstance@@@std@@@std@@QAE@XZ ENDP ; std::_Vector_val<WMOInstance,std::allocator<WMOInstance> >::~_Vector_val<WMOInstance,std::allocator<WMOInstance> >
_TEXT	ENDS
PUBLIC	??0?$allocator@VWMOInstance@@@std@@QAE@XZ	; std::allocator<WMOInstance>::allocator<WMOInstance>
; Function compile flags: /Ogtp
;	COMDAT ??0?$allocator@VWMOInstance@@@std@@QAE@XZ
_TEXT	SEGMENT
??0?$allocator@VWMOInstance@@@std@@QAE@XZ PROC		; std::allocator<WMOInstance>::allocator<WMOInstance>, COMDAT
; _this$ = ecx
; File c:\program files (x86)\microsoft visual studio 10.0\vc\include\xmemory
; Line 161
	mov	eax, ecx
; Line 163
	ret	0
??0?$allocator@VWMOInstance@@@std@@QAE@XZ ENDP		; std::allocator<WMOInstance>::allocator<WMOInstance>
_TEXT	ENDS
PUBLIC	??1?$_Vector_val@UOutdoorLightStats@@V?$allocator@UOutdoorLightStats@@@std@@@std@@QAE@XZ ; std::_Vector_val<OutdoorLightStats,std::allocator<OutdoorLightStats> >::~_Vector_val<OutdoorLightStats,std::allocator<OutdoorLightStats> >
; Function compile flags: /Ogtp
;	COMDAT ??1?$_Vector_val@UOutdoorLightStats@@V?$allocator@UOutdoorLightStats@@@std@@@std@@QAE@XZ
_TEXT	SEGMENT
??1?$_Vector_val@UOutdoorLightStats@@V?$allocator@UOutdoorLightStats@@@std@@@std@@QAE@XZ PROC ; std::_Vector_val<OutdoorLightStats,std::allocator<OutdoorLightStats> >::~_Vector_val<OutdoorLightStats,std::allocator<OutdoorLightStats> >, COMDAT
; _this$ = ecx
; File c:\program files (x86)\microsoft visual studio 10.0\vc\include\vector
; Line 434
	ret	0
??1?$_Vector_val@UOutdoorLightStats@@V?$allocator@UOutdoorLightStats@@@std@@@std@@QAE@XZ ENDP ; std::_Vector_val<OutdoorLightStats,std::allocator<OutdoorLightStats> >::~_Vector_val<OutdoorLightStats,std::allocator<OutdoorLightStats> >
_TEXT	ENDS
PUBLIC	??D?$_Vector_const_iterator@V?$_Vector_val@V?$basic_string@DU?$char_traits@D@std@@V?$allocator@D@2@@std@@V?$allocator@V?$basic_string@DU?$char_traits@D@std@@V?$allocator@D@2@@std@@@2@@std@@@std@@QBEABV?$basic_string@DU?$char_traits@D@std@@V?$allocator@D@2@@1@XZ ; std::_Vector_const_iterator<std::_Vector_val<std::basic_string<char,std::char_traits<char>,std::allocator<char> >,std::allocator<std::basic_string<char,std::char_traits<char>,std::allocator<char> > > > >::operator*
; Function compile flags: /Ogtp
;	COMDAT ??D?$_Vector_const_iterator@V?$_Vector_val@V?$basic_string@DU?$char_traits@D@std@@V?$allocator@D@2@@std@@V?$allocator@V?$basic_string@DU?$char_traits@D@std@@V?$allocator@D@2@@std@@@2@@std@@@std@@QBEABV?$basic_string@DU?$char_traits@D@std@@V?$allocator@D@2@@1@XZ
_TEXT	SEGMENT
??D?$_Vector_const_iterator@V?$_Vector_val@V?$basic_string@DU?$char_traits@D@std@@V?$allocator@D@2@@std@@V?$allocator@V?$basic_string@DU?$char_traits@D@std@@V?$allocator@D@2@@std@@@2@@std@@@std@@QBEABV?$basic_string@DU?$char_traits@D@std@@V?$allocator@D@2@@1@XZ PROC ; std::_Vector_const_iterator<std::_Vector_val<std::basic_string<char,std::char_traits<char>,std::allocator<char> >,std::allocator<std::basic_string<char,std::char_traits<char>,std::allocator<char> > > > >::operator*, COMDAT
; _this$ = ecx
; Line 84
	mov	eax, DWORD PTR [ecx]
; Line 85
	ret	0
??D?$_Vector_const_iterator@V?$_Vector_val@V?$basic_string@DU?$char_traits@D@std@@V?$allocator@D@2@@std@@V?$allocator@V?$basic_string@DU?$char_traits@D@std@@V?$allocator@D@2@@std@@@2@@std@@@std@@QBEABV?$basic_string@DU?$char_traits@D@std@@V?$allocator@D@2@@1@XZ ENDP ; std::_Vector_const_iterator<std::_Vector_val<std::basic_string<char,std::char_traits<char>,std::allocator<char> >,std::allocator<std::basic_string<char,std::char_traits<char>,std::allocator<char> > > > >::operator*
_TEXT	ENDS
PUBLIC	??E?$_Vector_const_iterator@V?$_Vector_val@V?$basic_string@DU?$char_traits@D@std@@V?$allocator@D@2@@std@@V?$allocator@V?$basic_string@DU?$char_traits@D@std@@V?$allocator@D@2@@std@@@2@@std@@@std@@QAEAAV01@XZ ; std::_Vector_const_iterator<std::_Vector_val<std::basic_string<char,std::char_traits<char>,std::allocator<char> >,std::allocator<std::basic_string<char,std::char_traits<char>,std::allocator<char> > > > >::operator++
; Function compile flags: /Ogtp
;	COMDAT ??E?$_Vector_const_iterator@V?$_Vector_val@V?$basic_string@DU?$char_traits@D@std@@V?$allocator@D@2@@std@@V?$allocator@V?$basic_string@DU?$char_traits@D@std@@V?$allocator@D@2@@std@@@2@@std@@@std@@QAEAAV01@XZ
_TEXT	SEGMENT
??E?$_Vector_const_iterator@V?$_Vector_val@V?$basic_string@DU?$char_traits@D@std@@V?$allocator@D@2@@std@@V?$allocator@V?$basic_string@DU?$char_traits@D@std@@V?$allocator@D@2@@std@@@2@@std@@@std@@QAEAAV01@XZ PROC ; std::_Vector_const_iterator<std::_Vector_val<std::basic_string<char,std::char_traits<char>,std::allocator<char> >,std::allocator<std::basic_string<char,std::char_traits<char>,std::allocator<char> > > > >::operator++, COMDAT
; _this$ = ecx
; Line 93
	mov	eax, ecx
; Line 110
	add	DWORD PTR [eax], 28			; 0000001cH
; Line 112
	ret	0
??E?$_Vector_const_iterator@V?$_Vector_val@V?$basic_string@DU?$char_traits@D@std@@V?$allocator@D@2@@std@@V?$allocator@V?$basic_string@DU?$char_traits@D@std@@V?$allocator@D@2@@std@@@2@@std@@@std@@QAEAAV01@XZ ENDP ; std::_Vector_const_iterator<std::_Vector_val<std::basic_string<char,std::char_traits<char>,std::allocator<char> >,std::allocator<std::basic_string<char,std::char_traits<char>,std::allocator<char> > > > >::operator++
_TEXT	ENDS
PUBLIC	??8?$_Tree_const_iterator@V?$_Tree_val@V?$_Tmap_traits@HPAVManagedItem@@U?$less@H@std@@V?$allocator@U?$pair@$$CBHPAVManagedItem@@@std@@@3@$0A@@std@@@std@@@std@@QBE_NABV01@@Z ; std::_Tree_const_iterator<std::_Tree_val<std::_Tmap_traits<int,ManagedItem *,std::less<int>,std::allocator<std::pair<int const ,ManagedItem *> >,0> > >::operator==
; Function compile flags: /Ogtp
;	COMDAT ??8?$_Tree_const_iterator@V?$_Tree_val@V?$_Tmap_traits@HPAVManagedItem@@U?$less@H@std@@V?$allocator@U?$pair@$$CBHPAVManagedItem@@@std@@@3@$0A@@std@@@std@@@std@@QBE_NABV01@@Z
_TEXT	SEGMENT
__Right$ = 8						; size = 4
??8?$_Tree_const_iterator@V?$_Tree_val@V?$_Tmap_traits@HPAVManagedItem@@U?$less@H@std@@V?$allocator@U?$pair@$$CBHPAVManagedItem@@@std@@@3@$0A@@std@@@std@@@std@@QBE_NABV01@@Z PROC ; std::_Tree_const_iterator<std::_Tree_val<std::_Tmap_traits<int,ManagedItem *,std::less<int>,std::allocator<std::pair<int const ,ManagedItem *> >,0> > >::operator==, COMDAT
; _this$ = ecx
; File c:\program files (x86)\microsoft visual studio 10.0\vc\include\xtree
; Line 316
	push	ebp
	mov	ebp, esp
; Line 330
	mov	eax, DWORD PTR [ecx]
	mov	edx, DWORD PTR __Right$[ebp]
	xor	ecx, ecx
	cmp	eax, DWORD PTR [edx]
	sete	al
; Line 331
	pop	ebp
	ret	4
??8?$_Tree_const_iterator@V?$_Tree_val@V?$_Tmap_traits@HPAVManagedItem@@U?$less@H@std@@V?$allocator@U?$pair@$$CBHPAVManagedItem@@@std@@@3@$0A@@std@@@std@@@std@@QBE_NABV01@@Z ENDP ; std::_Tree_const_iterator<std::_Tree_val<std::_Tmap_traits<int,ManagedItem *,std::less<int>,std::allocator<std::pair<int const ,ManagedItem *> >,0> > >::operator==
_TEXT	ENDS
PUBLIC	?_Mynode@?$_Tree_unchecked_const_iterator@V?$_Tree_val@V?$_Tmap_traits@HPAVManagedItem@@U?$less@H@std@@V?$allocator@U?$pair@$$CBHPAVManagedItem@@@std@@@3@$0A@@std@@@std@@U_Iterator_base0@2@@std@@QBEPAU_Node@?$_Tree_nod@V?$_Tmap_traits@HPAVManagedItem@@U?$less@H@std@@V?$allocator@U?$pair@$$CBHPAVManagedItem@@@std@@@3@$0A@@std@@@2@XZ ; std::_Tree_unchecked_const_iterator<std::_Tree_val<std::_Tmap_traits<int,ManagedItem *,std::less<int>,std::allocator<std::pair<int const ,ManagedItem *> >,0> >,std::_Iterator_base0>::_Mynode
; Function compile flags: /Ogtp
;	COMDAT ?_Mynode@?$_Tree_unchecked_const_iterator@V?$_Tree_val@V?$_Tmap_traits@HPAVManagedItem@@U?$less@H@std@@V?$allocator@U?$pair@$$CBHPAVManagedItem@@@std@@@3@$0A@@std@@@std@@U_Iterator_base0@2@@std@@QBEPAU_Node@?$_Tree_nod@V?$_Tmap_traits@HPAVManagedItem@@U?$less@H@std@@V?$allocator@U?$pair@$$CBHPAVManagedItem@@@std@@@3@$0A@@std@@@2@XZ
_TEXT	SEGMENT
?_Mynode@?$_Tree_unchecked_const_iterator@V?$_Tree_val@V?$_Tmap_traits@HPAVManagedItem@@U?$less@H@std@@V?$allocator@U?$pair@$$CBHPAVManagedItem@@@std@@@3@$0A@@std@@@std@@U_Iterator_base0@2@@std@@QBEPAU_Node@?$_Tree_nod@V?$_Tmap_traits@HPAVManagedItem@@U?$less@H@std@@V?$allocator@U?$pair@$$CBHPAVManagedItem@@@std@@@3@$0A@@std@@@2@XZ PROC ; std::_Tree_unchecked_const_iterator<std::_Tree_val<std::_Tmap_traits<int,ManagedItem *,std::less<int>,std::allocator<std::pair<int const ,ManagedItem *> >,0> >,std::_Iterator_base0>::_Mynode, COMDAT
; _this$ = ecx
; Line 122
	mov	eax, DWORD PTR [ecx]
; Line 123
	ret	0
?_Mynode@?$_Tree_unchecked_const_iterator@V?$_Tree_val@V?$_Tmap_traits@HPAVManagedItem@@U?$less@H@std@@V?$allocator@U?$pair@$$CBHPAVManagedItem@@@std@@@3@$0A@@std@@@std@@U_Iterator_base0@2@@std@@QBEPAU_Node@?$_Tree_nod@V?$_Tmap_traits@HPAVManagedItem@@U?$less@H@std@@V?$allocator@U?$pair@$$CBHPAVManagedItem@@@std@@@3@$0A@@std@@@2@XZ ENDP ; std::_Tree_unchecked_const_iterator<std::_Tree_val<std::_Tmap_traits<int,ManagedItem *,std::less<int>,std::allocator<std::pair<int const ,ManagedItem *> >,0> >,std::_Iterator_base0>::_Mynode
_TEXT	ENDS
PUBLIC	?get_allocator@?$basic_string@DU?$char_traits@D@std@@V?$allocator@D@2@@std@@QBE?AV?$allocator@D@2@XZ ; std::basic_string<char,std::char_traits<char>,std::allocator<char> >::get_allocator
; Function compile flags: /Ogtp
;	COMDAT ?get_allocator@?$basic_string@DU?$char_traits@D@std@@V?$allocator@D@2@@std@@QBE?AV?$allocator@D@2@XZ
_TEXT	SEGMENT
___$ReturnUdt$ = 8					; size = 4
?get_allocator@?$basic_string@DU?$char_traits@D@std@@V?$allocator@D@2@@std@@QBE?AV?$allocator@D@2@XZ PROC ; std::basic_string<char,std::char_traits<char>,std::allocator<char> >::get_allocator, COMDAT
; _this$ = ecx
; File c:\program files (x86)\microsoft visual studio 10.0\vc\include\xstring
; Line 1905
	push	ebp
	mov	ebp, esp
; Line 1906
	mov	eax, DWORD PTR ___$ReturnUdt$[ebp]
; Line 1907
	pop	ebp
	ret	4
?get_allocator@?$basic_string@DU?$char_traits@D@std@@V?$allocator@D@2@@std@@QBE?AV?$allocator@D@2@XZ ENDP ; std::basic_string<char,std::char_traits<char>,std::allocator<char> >::get_allocator
_TEXT	ENDS
PUBLIC	?_Myptr@?$basic_string@DU?$char_traits@D@std@@V?$allocator@D@2@@std@@QAEPADXZ ; std::basic_string<char,std::char_traits<char>,std::allocator<char> >::_Myptr
; Function compile flags: /Ogtp
;	COMDAT ?_Myptr@?$basic_string@DU?$char_traits@D@std@@V?$allocator@D@2@@std@@QAEPADXZ
_TEXT	SEGMENT
?_Myptr@?$basic_string@DU?$char_traits@D@std@@V?$allocator@D@2@@std@@QAEPADXZ PROC ; std::basic_string<char,std::char_traits<char>,std::allocator<char> >::_Myptr, COMDAT
; _this$ = ecx
; Line 2002
	mov	eax, ecx
; Line 2004
	cmp	DWORD PTR [eax+20], 16			; 00000010H
	jb	SHORT $LN4@Myptr@2
	mov	eax, DWORD PTR [eax]
$LN4@Myptr@2:
; Line 2005
	ret	0
?_Myptr@?$basic_string@DU?$char_traits@D@std@@V?$allocator@D@2@@std@@QAEPADXZ ENDP ; std::basic_string<char,std::char_traits<char>,std::allocator<char> >::_Myptr
_TEXT	ENDS
PUBLIC	??_C@_0BI@CFPLBAOH@invalid?5string?5position?$AA@ ; `string'
PUBLIC	?_Xran@?$basic_string@DU?$char_traits@D@std@@V?$allocator@D@2@@std@@QBEXXZ ; std::basic_string<char,std::char_traits<char>,std::allocator<char> >::_Xran
EXTRN	__imp_?_Xout_of_range@std@@YAXPBD@Z:PROC
;	COMDAT ??_C@_0BI@CFPLBAOH@invalid?5string?5position?$AA@
CONST	SEGMENT
??_C@_0BI@CFPLBAOH@invalid?5string?5position?$AA@ DB 'invalid string posi'
	DB	'tion', 00H					; `string'
; Function compile flags: /Ogtp
CONST	ENDS
;	COMDAT ?_Xran@?$basic_string@DU?$char_traits@D@std@@V?$allocator@D@2@@std@@QBEXXZ
_TEXT	SEGMENT
?_Xran@?$basic_string@DU?$char_traits@D@std@@V?$allocator@D@2@@std@@QBEXXZ PROC ; std::basic_string<char,std::char_traits<char>,std::allocator<char> >::_Xran, COMDAT
; _this$ = ecx
; Line 2020
	push	OFFSET ??_C@_0BI@CFPLBAOH@invalid?5string?5position?$AA@
	call	DWORD PTR __imp_?_Xout_of_range@std@@YAXPBD@Z
$LN4@Xran:
$LN3@Xran:
	int	3
?_Xran@?$basic_string@DU?$char_traits@D@std@@V?$allocator@D@2@@std@@QBEXXZ ENDP ; std::basic_string<char,std::char_traits<char>,std::allocator<char> >::_Xran
_TEXT	ENDS
PUBLIC	?deallocate@?$allocator@D@std@@QAEXPADI@Z	; std::allocator<char>::deallocate
; Function compile flags: /Ogtp
;	COMDAT ?deallocate@?$allocator@D@std@@QAEXPADI@Z
_TEXT	SEGMENT
__Ptr$ = 8						; size = 4
___formal$ = 12						; size = 4
?deallocate@?$allocator@D@std@@QAEXPADI@Z PROC		; std::allocator<char>::deallocate, COMDAT
; _this$ = ecx
; File c:\program files (x86)\microsoft visual studio 10.0\vc\include\xmemory
; Line 181
	push	ebp
	mov	ebp, esp
; Line 182
	mov	eax, DWORD PTR __Ptr$[ebp]
	push	eax
	call	??3@YAXPAX@Z				; operator delete
	add	esp, 4
; Line 183
	pop	ebp
	ret	8
?deallocate@?$allocator@D@std@@QAEXPADI@Z ENDP		; std::allocator<char>::deallocate
_TEXT	ENDS
PUBLIC	?_Color@?$_Tree_val@V?$_Tmap_traits@V?$basic_string@DU?$char_traits@D@std@@V?$allocator@D@2@@std@@HU?$less@V?$basic_string@DU?$char_traits@D@std@@V?$allocator@D@2@@std@@@2@V?$allocator@U?$pair@$$CBV?$basic_string@DU?$char_traits@D@std@@V?$allocator@D@2@@std@@H@std@@@2@$0A@@std@@@std@@SAAADPAU_Node@?$_Tree_nod@V?$_Tmap_traits@V?$basic_string@DU?$char_traits@D@std@@V?$allocator@D@2@@std@@HU?$less@V?$basic_string@DU?$char_traits@D@std@@V?$allocator@D@2@@std@@@2@V?$allocator@U?$pair@$$CBV?$basic_string@DU?$char_traits@D@std@@V?$allocator@D@2@@std@@H@std@@@2@$0A@@std@@@2@@Z ; std::_Tree_val<std::_Tmap_traits<std::basic_string<char,std::char_traits<char>,std::allocator<char> >,int,std::less<std::basic_string<char,std::char_traits<char>,std::allocator<char> > >,std::allocator<std::pair<std::basic_string<char,std::char_traits<char>,std::allocator<char> > const ,int> >,0> >::_Color
; Function compile flags: /Ogtp
;	COMDAT ?_Color@?$_Tree_val@V?$_Tmap_traits@V?$basic_string@DU?$char_traits@D@std@@V?$allocator@D@2@@std@@HU?$less@V?$basic_string@DU?$char_traits@D@std@@V?$allocator@D@2@@std@@@2@V?$allocator@U?$pair@$$CBV?$basic_string@DU?$char_traits@D@std@@V?$allocator@D@2@@std@@H@std@@@2@$0A@@std@@@std@@SAAADPAU_Node@?$_Tree_nod@V?$_Tmap_traits@V?$basic_string@DU?$char_traits@D@std@@V?$allocator@D@2@@std@@HU?$less@V?$basic_string@DU?$char_traits@D@std@@V?$allocator@D@2@@std@@@2@V?$allocator@U?$pair@$$CBV?$basic_string@DU?$char_traits@D@std@@V?$allocator@D@2@@std@@H@std@@@2@$0A@@std@@@2@@Z
_TEXT	SEGMENT
__Pnode$ = 8						; size = 4
?_Color@?$_Tree_val@V?$_Tmap_traits@V?$basic_string@DU?$char_traits@D@std@@V?$allocator@D@2@@std@@HU?$less@V?$basic_string@DU?$char_traits@D@std@@V?$allocator@D@2@@std@@@2@V?$allocator@U?$pair@$$CBV?$basic_string@DU?$char_traits@D@std@@V?$allocator@D@2@@std@@H@std@@@2@$0A@@std@@@std@@SAAADPAU_Node@?$_Tree_nod@V?$_Tmap_traits@V?$basic_string@DU?$char_traits@D@std@@V?$allocator@D@2@@std@@HU?$less@V?$basic_string@DU?$char_traits@D@std@@V?$allocator@D@2@@std@@@2@V?$allocator@U?$pair@$$CBV?$basic_string@DU?$char_traits@D@std@@V?$allocator@D@2@@std@@H@std@@@2@$0A@@std@@@2@@Z PROC ; std::_Tree_val<std::_Tmap_traits<std::basic_string<char,std::char_traits<char>,std::allocator<char> >,int,std::less<std::basic_string<char,std::char_traits<char>,std::allocator<char> > >,std::allocator<std::pair<std::basic_string<char,std::char_traits<char>,std::allocator<char> > const ,int> >,0> >::_Color, COMDAT
; File c:\program files (x86)\microsoft visual studio 10.0\vc\include\xtree
; Line 606
	push	ebp
	mov	ebp, esp
; Line 607
	mov	eax, DWORD PTR __Pnode$[ebp]
	add	eax, 44					; 0000002cH
; Line 608
	pop	ebp
	ret	0
?_Color@?$_Tree_val@V?$_Tmap_traits@V?$basic_string@DU?$char_traits@D@std@@V?$allocator@D@2@@std@@HU?$less@V?$basic_string@DU?$char_traits@D@std@@V?$allocator@D@2@@std@@@2@V?$allocator@U?$pair@$$CBV?$basic_string@DU?$char_traits@D@std@@V?$allocator@D@2@@std@@H@std@@@2@$0A@@std@@@std@@SAAADPAU_Node@?$_Tree_nod@V?$_Tmap_traits@V?$basic_string@DU?$char_traits@D@std@@V?$allocator@D@2@@std@@HU?$less@V?$basic_string@DU?$char_traits@D@std@@V?$allocator@D@2@@std@@@2@V?$allocator@U?$pair@$$CBV?$basic_string@DU?$char_traits@D@std@@V?$allocator@D@2@@std@@H@std@@@2@$0A@@std@@@2@@Z ENDP ; std::_Tree_val<std::_Tmap_traits<std::basic_string<char,std::char_traits<char>,std::allocator<char> >,int,std::less<std::basic_string<char,std::char_traits<char>,std::allocator<char> > >,std::allocator<std::pair<std::basic_string<char,std::char_traits<char>,std::allocator<char> > const ,int> >,0> >::_Color
_TEXT	ENDS
PUBLIC	?_Isnil@?$_Tree_val@V?$_Tmap_traits@V?$basic_string@DU?$char_traits@D@std@@V?$allocator@D@2@@std@@HU?$less@V?$basic_string@DU?$char_traits@D@std@@V?$allocator@D@2@@std@@@2@V?$allocator@U?$pair@$$CBV?$basic_string@DU?$char_traits@D@std@@V?$allocator@D@2@@std@@H@std@@@2@$0A@@std@@@std@@SAAADPAU_Node@?$_Tree_nod@V?$_Tmap_traits@V?$basic_string@DU?$char_traits@D@std@@V?$allocator@D@2@@std@@HU?$less@V?$basic_string@DU?$char_traits@D@std@@V?$allocator@D@2@@std@@@2@V?$allocator@U?$pair@$$CBV?$basic_string@DU?$char_traits@D@std@@V?$allocator@D@2@@std@@H@std@@@2@$0A@@std@@@2@@Z ; std::_Tree_val<std::_Tmap_traits<std::basic_string<char,std::char_traits<char>,std::allocator<char> >,int,std::less<std::basic_string<char,std::char_traits<char>,std::allocator<char> > >,std::allocator<std::pair<std::basic_string<char,std::char_traits<char>,std::allocator<char> > const ,int> >,0> >::_Isnil
; Function compile flags: /Ogtp
;	COMDAT ?_Isnil@?$_Tree_val@V?$_Tmap_traits@V?$basic_string@DU?$char_traits@D@std@@V?$allocator@D@2@@std@@HU?$less@V?$basic_string@DU?$char_traits@D@std@@V?$allocator@D@2@@std@@@2@V?$allocator@U?$pair@$$CBV?$basic_string@DU?$char_traits@D@std@@V?$allocator@D@2@@std@@H@std@@@2@$0A@@std@@@std@@SAAADPAU_Node@?$_Tree_nod@V?$_Tmap_traits@V?$basic_string@DU?$char_traits@D@std@@V?$allocator@D@2@@std@@HU?$less@V?$basic_string@DU?$char_traits@D@std@@V?$allocator@D@2@@std@@@2@V?$allocator@U?$pair@$$CBV?$basic_string@DU?$char_traits@D@std@@V?$allocator@D@2@@std@@H@std@@@2@$0A@@std@@@2@@Z
_TEXT	SEGMENT
__Pnode$ = 8						; size = 4
?_Isnil@?$_Tree_val@V?$_Tmap_traits@V?$basic_string@DU?$char_traits@D@std@@V?$allocator@D@2@@std@@HU?$less@V?$basic_string@DU?$char_traits@D@std@@V?$allocator@D@2@@std@@@2@V?$allocator@U?$pair@$$CBV?$basic_string@DU?$char_traits@D@std@@V?$allocator@D@2@@std@@H@std@@@2@$0A@@std@@@std@@SAAADPAU_Node@?$_Tree_nod@V?$_Tmap_traits@V?$basic_string@DU?$char_traits@D@std@@V?$allocator@D@2@@std@@HU?$less@V?$basic_string@DU?$char_traits@D@std@@V?$allocator@D@2@@std@@@2@V?$allocator@U?$pair@$$CBV?$basic_string@DU?$char_traits@D@std@@V?$allocator@D@2@@std@@H@std@@@2@$0A@@std@@@2@@Z PROC ; std::_Tree_val<std::_Tmap_traits<std::basic_string<char,std::char_traits<char>,std::allocator<char> >,int,std::less<std::basic_string<char,std::char_traits<char>,std::allocator<char> > >,std::allocator<std::pair<std::basic_string<char,std::char_traits<char>,std::allocator<char> > const ,int> >,0> >::_Isnil, COMDAT
; Line 611
	push	ebp
	mov	ebp, esp
; Line 612
	mov	eax, DWORD PTR __Pnode$[ebp]
	add	eax, 45					; 0000002dH
; Line 613
	pop	ebp
	ret	0
?_Isnil@?$_Tree_val@V?$_Tmap_traits@V?$basic_string@DU?$char_traits@D@std@@V?$allocator@D@2@@std@@HU?$less@V?$basic_string@DU?$char_traits@D@std@@V?$allocator@D@2@@std@@@2@V?$allocator@U?$pair@$$CBV?$basic_string@DU?$char_traits@D@std@@V?$allocator@D@2@@std@@H@std@@@2@$0A@@std@@@std@@SAAADPAU_Node@?$_Tree_nod@V?$_Tmap_traits@V?$basic_string@DU?$char_traits@D@std@@V?$allocator@D@2@@std@@HU?$less@V?$basic_string@DU?$char_traits@D@std@@V?$allocator@D@2@@std@@@2@V?$allocator@U?$pair@$$CBV?$basic_string@DU?$char_traits@D@std@@V?$allocator@D@2@@std@@H@std@@@2@$0A@@std@@@2@@Z ENDP ; std::_Tree_val<std::_Tmap_traits<std::basic_string<char,std::char_traits<char>,std::allocator<char> >,int,std::less<std::basic_string<char,std::char_traits<char>,std::allocator<char> > >,std::allocator<std::pair<std::basic_string<char,std::char_traits<char>,std::allocator<char> > const ,int> >,0> >::_Isnil
_TEXT	ENDS
PUBLIC	?_Left@?$_Tree_val@V?$_Tmap_traits@V?$basic_string@DU?$char_traits@D@std@@V?$allocator@D@2@@std@@HU?$less@V?$basic_string@DU?$char_traits@D@std@@V?$allocator@D@2@@std@@@2@V?$allocator@U?$pair@$$CBV?$basic_string@DU?$char_traits@D@std@@V?$allocator@D@2@@std@@H@std@@@2@$0A@@std@@@std@@SAAAPAU_Node@?$_Tree_nod@V?$_Tmap_traits@V?$basic_string@DU?$char_traits@D@std@@V?$allocator@D@2@@std@@HU?$less@V?$basic_string@DU?$char_traits@D@std@@V?$allocator@D@2@@std@@@2@V?$allocator@U?$pair@$$CBV?$basic_string@DU?$char_traits@D@std@@V?$allocator@D@2@@std@@H@std@@@2@$0A@@std@@@2@PAU342@@Z ; std::_Tree_val<std::_Tmap_traits<std::basic_string<char,std::char_traits<char>,std::allocator<char> >,int,std::less<std::basic_string<char,std::char_traits<char>,std::allocator<char> > >,std::allocator<std::pair<std::basic_string<char,std::char_traits<char>,std::allocator<char> > const ,int> >,0> >::_Left
; Function compile flags: /Ogtp
;	COMDAT ?_Left@?$_Tree_val@V?$_Tmap_traits@V?$basic_string@DU?$char_traits@D@std@@V?$allocator@D@2@@std@@HU?$less@V?$basic_string@DU?$char_traits@D@std@@V?$allocator@D@2@@std@@@2@V?$allocator@U?$pair@$$CBV?$basic_string@DU?$char_traits@D@std@@V?$allocator@D@2@@std@@H@std@@@2@$0A@@std@@@std@@SAAAPAU_Node@?$_Tree_nod@V?$_Tmap_traits@V?$basic_string@DU?$char_traits@D@std@@V?$allocator@D@2@@std@@HU?$less@V?$basic_string@DU?$char_traits@D@std@@V?$allocator@D@2@@std@@@2@V?$allocator@U?$pair@$$CBV?$basic_string@DU?$char_traits@D@std@@V?$allocator@D@2@@std@@H@std@@@2@$0A@@std@@@2@PAU342@@Z
_TEXT	SEGMENT
__Pnode$ = 8						; size = 4
?_Left@?$_Tree_val@V?$_Tmap_traits@V?$basic_string@DU?$char_traits@D@std@@V?$allocator@D@2@@std@@HU?$less@V?$basic_string@DU?$char_traits@D@std@@V?$allocator@D@2@@std@@@2@V?$allocator@U?$pair@$$CBV?$basic_string@DU?$char_traits@D@std@@V?$allocator@D@2@@std@@H@std@@@2@$0A@@std@@@std@@SAAAPAU_Node@?$_Tree_nod@V?$_Tmap_traits@V?$basic_string@DU?$char_traits@D@std@@V?$allocator@D@2@@std@@HU?$less@V?$basic_string@DU?$char_traits@D@std@@V?$allocator@D@2@@std@@@2@V?$allocator@U?$pair@$$CBV?$basic_string@DU?$char_traits@D@std@@V?$allocator@D@2@@std@@H@std@@@2@$0A@@std@@@2@PAU342@@Z PROC ; std::_Tree_val<std::_Tmap_traits<std::basic_string<char,std::char_traits<char>,std::allocator<char> >,int,std::less<std::basic_string<char,std::char_traits<char>,std::allocator<char> > >,std::allocator<std::pair<std::basic_string<char,std::char_traits<char>,std::allocator<char> > const ,int> >,0> >::_Left, COMDAT
; Line 621
	push	ebp
	mov	ebp, esp
; Line 622
	mov	eax, DWORD PTR __Pnode$[ebp]
; Line 623
	pop	ebp
	ret	0
?_Left@?$_Tree_val@V?$_Tmap_traits@V?$basic_string@DU?$char_traits@D@std@@V?$allocator@D@2@@std@@HU?$less@V?$basic_string@DU?$char_traits@D@std@@V?$allocator@D@2@@std@@@2@V?$allocator@U?$pair@$$CBV?$basic_string@DU?$char_traits@D@std@@V?$allocator@D@2@@std@@H@std@@@2@$0A@@std@@@std@@SAAAPAU_Node@?$_Tree_nod@V?$_Tmap_traits@V?$basic_string@DU?$char_traits@D@std@@V?$allocator@D@2@@std@@HU?$less@V?$basic_string@DU?$char_traits@D@std@@V?$allocator@D@2@@std@@@2@V?$allocator@U?$pair@$$CBV?$basic_string@DU?$char_traits@D@std@@V?$allocator@D@2@@std@@H@std@@@2@$0A@@std@@@2@PAU342@@Z ENDP ; std::_Tree_val<std::_Tmap_traits<std::basic_string<char,std::char_traits<char>,std::allocator<char> >,int,std::less<std::basic_string<char,std::char_traits<char>,std::allocator<char> > >,std::allocator<std::pair<std::basic_string<char,std::char_traits<char>,std::allocator<char> > const ,int> >,0> >::_Left
_TEXT	ENDS
PUBLIC	?_Parent@?$_Tree_val@V?$_Tmap_traits@V?$basic_string@DU?$char_traits@D@std@@V?$allocator@D@2@@std@@HU?$less@V?$basic_string@DU?$char_traits@D@std@@V?$allocator@D@2@@std@@@2@V?$allocator@U?$pair@$$CBV?$basic_string@DU?$char_traits@D@std@@V?$allocator@D@2@@std@@H@std@@@2@$0A@@std@@@std@@SAAAPAU_Node@?$_Tree_nod@V?$_Tmap_traits@V?$basic_string@DU?$char_traits@D@std@@V?$allocator@D@2@@std@@HU?$less@V?$basic_string@DU?$char_traits@D@std@@V?$allocator@D@2@@std@@@2@V?$allocator@U?$pair@$$CBV?$basic_string@DU?$char_traits@D@std@@V?$allocator@D@2@@std@@H@std@@@2@$0A@@std@@@2@PAU342@@Z ; std::_Tree_val<std::_Tmap_traits<std::basic_string<char,std::char_traits<char>,std::allocator<char> >,int,std::less<std::basic_string<char,std::char_traits<char>,std::allocator<char> > >,std::allocator<std::pair<std::basic_string<char,std::char_traits<char>,std::allocator<char> > const ,int> >,0> >::_Parent
; Function compile flags: /Ogtp
;	COMDAT ?_Parent@?$_Tree_val@V?$_Tmap_traits@V?$basic_string@DU?$char_traits@D@std@@V?$allocator@D@2@@std@@HU?$less@V?$basic_string@DU?$char_traits@D@std@@V?$allocator@D@2@@std@@@2@V?$allocator@U?$pair@$$CBV?$basic_string@DU?$char_traits@D@std@@V?$allocator@D@2@@std@@H@std@@@2@$0A@@std@@@std@@SAAAPAU_Node@?$_Tree_nod@V?$_Tmap_traits@V?$basic_string@DU?$char_traits@D@std@@V?$allocator@D@2@@std@@HU?$less@V?$basic_string@DU?$char_traits@D@std@@V?$allocator@D@2@@std@@@2@V?$allocator@U?$pair@$$CBV?$basic_string@DU?$char_traits@D@std@@V?$allocator@D@2@@std@@H@std@@@2@$0A@@std@@@2@PAU342@@Z
_TEXT	SEGMENT
__Pnode$ = 8						; size = 4
?_Parent@?$_Tree_val@V?$_Tmap_traits@V?$basic_string@DU?$char_traits@D@std@@V?$allocator@D@2@@std@@HU?$less@V?$basic_string@DU?$char_traits@D@std@@V?$allocator@D@2@@std@@@2@V?$allocator@U?$pair@$$CBV?$basic_string@DU?$char_traits@D@std@@V?$allocator@D@2@@std@@H@std@@@2@$0A@@std@@@std@@SAAAPAU_Node@?$_Tree_nod@V?$_Tmap_traits@V?$basic_string@DU?$char_traits@D@std@@V?$allocator@D@2@@std@@HU?$less@V?$basic_string@DU?$char_traits@D@std@@V?$allocator@D@2@@std@@@2@V?$allocator@U?$pair@$$CBV?$basic_string@DU?$char_traits@D@std@@V?$allocator@D@2@@std@@H@std@@@2@$0A@@std@@@2@PAU342@@Z PROC ; std::_Tree_val<std::_Tmap_traits<std::basic_string<char,std::char_traits<char>,std::allocator<char> >,int,std::less<std::basic_string<char,std::char_traits<char>,std::allocator<char> > >,std::allocator<std::pair<std::basic_string<char,std::char_traits<char>,std::allocator<char> > const ,int> >,0> >::_Parent, COMDAT
; Line 626
	push	ebp
	mov	ebp, esp
; Line 627
	mov	eax, DWORD PTR __Pnode$[ebp]
	add	eax, 4
; Line 628
	pop	ebp
	ret	0
?_Parent@?$_Tree_val@V?$_Tmap_traits@V?$basic_string@DU?$char_traits@D@std@@V?$allocator@D@2@@std@@HU?$less@V?$basic_string@DU?$char_traits@D@std@@V?$allocator@D@2@@std@@@2@V?$allocator@U?$pair@$$CBV?$basic_string@DU?$char_traits@D@std@@V?$allocator@D@2@@std@@H@std@@@2@$0A@@std@@@std@@SAAAPAU_Node@?$_Tree_nod@V?$_Tmap_traits@V?$basic_string@DU?$char_traits@D@std@@V?$allocator@D@2@@std@@HU?$less@V?$basic_string@DU?$char_traits@D@std@@V?$allocator@D@2@@std@@@2@V?$allocator@U?$pair@$$CBV?$basic_string@DU?$char_traits@D@std@@V?$allocator@D@2@@std@@H@std@@@2@$0A@@std@@@2@PAU342@@Z ENDP ; std::_Tree_val<std::_Tmap_traits<std::basic_string<char,std::char_traits<char>,std::allocator<char> >,int,std::less<std::basic_string<char,std::char_traits<char>,std::allocator<char> > >,std::allocator<std::pair<std::basic_string<char,std::char_traits<char>,std::allocator<char> > const ,int> >,0> >::_Parent
_TEXT	ENDS
PUBLIC	?_Right@?$_Tree_val@V?$_Tmap_traits@V?$basic_string@DU?$char_traits@D@std@@V?$allocator@D@2@@std@@HU?$less@V?$basic_string@DU?$char_traits@D@std@@V?$allocator@D@2@@std@@@2@V?$allocator@U?$pair@$$CBV?$basic_string@DU?$char_traits@D@std@@V?$allocator@D@2@@std@@H@std@@@2@$0A@@std@@@std@@SAAAPAU_Node@?$_Tree_nod@V?$_Tmap_traits@V?$basic_string@DU?$char_traits@D@std@@V?$allocator@D@2@@std@@HU?$less@V?$basic_string@DU?$char_traits@D@std@@V?$allocator@D@2@@std@@@2@V?$allocator@U?$pair@$$CBV?$basic_string@DU?$char_traits@D@std@@V?$allocator@D@2@@std@@H@std@@@2@$0A@@std@@@2@PAU342@@Z ; std::_Tree_val<std::_Tmap_traits<std::basic_string<char,std::char_traits<char>,std::allocator<char> >,int,std::less<std::basic_string<char,std::char_traits<char>,std::allocator<char> > >,std::allocator<std::pair<std::basic_string<char,std::char_traits<char>,std::allocator<char> > const ,int> >,0> >::_Right
; Function compile flags: /Ogtp
;	COMDAT ?_Right@?$_Tree_val@V?$_Tmap_traits@V?$basic_string@DU?$char_traits@D@std@@V?$allocator@D@2@@std@@HU?$less@V?$basic_string@DU?$char_traits@D@std@@V?$allocator@D@2@@std@@@2@V?$allocator@U?$pair@$$CBV?$basic_string@DU?$char_traits@D@std@@V?$allocator@D@2@@std@@H@std@@@2@$0A@@std@@@std@@SAAAPAU_Node@?$_Tree_nod@V?$_Tmap_traits@V?$basic_string@DU?$char_traits@D@std@@V?$allocator@D@2@@std@@HU?$less@V?$basic_string@DU?$char_traits@D@std@@V?$allocator@D@2@@std@@@2@V?$allocator@U?$pair@$$CBV?$basic_string@DU?$char_traits@D@std@@V?$allocator@D@2@@std@@H@std@@@2@$0A@@std@@@2@PAU342@@Z
_TEXT	SEGMENT
__Pnode$ = 8						; size = 4
?_Right@?$_Tree_val@V?$_Tmap_traits@V?$basic_string@DU?$char_traits@D@std@@V?$allocator@D@2@@std@@HU?$less@V?$basic_string@DU?$char_traits@D@std@@V?$allocator@D@2@@std@@@2@V?$allocator@U?$pair@$$CBV?$basic_string@DU?$char_traits@D@std@@V?$allocator@D@2@@std@@H@std@@@2@$0A@@std@@@std@@SAAAPAU_Node@?$_Tree_nod@V?$_Tmap_traits@V?$basic_string@DU?$char_traits@D@std@@V?$allocator@D@2@@std@@HU?$less@V?$basic_string@DU?$char_traits@D@std@@V?$allocator@D@2@@std@@@2@V?$allocator@U?$pair@$$CBV?$basic_string@DU?$char_traits@D@std@@V?$allocator@D@2@@std@@H@std@@@2@$0A@@std@@@2@PAU342@@Z PROC ; std::_Tree_val<std::_Tmap_traits<std::basic_string<char,std::char_traits<char>,std::allocator<char> >,int,std::less<std::basic_string<char,std::char_traits<char>,std::allocator<char> > >,std::allocator<std::pair<std::basic_string<char,std::char_traits<char>,std::allocator<char> > const ,int> >,0> >::_Right, COMDAT
; Line 631
	push	ebp
	mov	ebp, esp
; Line 632
	mov	eax, DWORD PTR __Pnode$[ebp]
	add	eax, 8
; Line 633
	pop	ebp
	ret	0
?_Right@?$_Tree_val@V?$_Tmap_traits@V?$basic_string@DU?$char_traits@D@std@@V?$allocator@D@2@@std@@HU?$less@V?$basic_string@DU?$char_traits@D@std@@V?$allocator@D@2@@std@@@2@V?$allocator@U?$pair@$$CBV?$basic_string@DU?$char_traits@D@std@@V?$allocator@D@2@@std@@H@std@@@2@$0A@@std@@@std@@SAAAPAU_Node@?$_Tree_nod@V?$_Tmap_traits@V?$basic_string@DU?$char_traits@D@std@@V?$allocator@D@2@@std@@HU?$less@V?$basic_string@DU?$char_traits@D@std@@V?$allocator@D@2@@std@@@2@V?$allocator@U?$pair@$$CBV?$basic_string@DU?$char_traits@D@std@@V?$allocator@D@2@@std@@H@std@@@2@$0A@@std@@@2@PAU342@@Z ENDP ; std::_Tree_val<std::_Tmap_traits<std::basic_string<char,std::char_traits<char>,std::allocator<char> >,int,std::less<std::basic_string<char,std::char_traits<char>,std::allocator<char> > >,std::allocator<std::pair<std::basic_string<char,std::char_traits<char>,std::allocator<char> > const ,int> >,0> >::_Right
_TEXT	ENDS
PUBLIC	?_Myval@?$_Tree_val@V?$_Tmap_traits@V?$basic_string@DU?$char_traits@D@std@@V?$allocator@D@2@@std@@HU?$less@V?$basic_string@DU?$char_traits@D@std@@V?$allocator@D@2@@std@@@2@V?$allocator@U?$pair@$$CBV?$basic_string@DU?$char_traits@D@std@@V?$allocator@D@2@@std@@H@std@@@2@$0A@@std@@@std@@SAAAU?$pair@$$CBV?$basic_string@DU?$char_traits@D@std@@V?$allocator@D@2@@std@@H@2@PAU_Node@?$_Tree_nod@V?$_Tmap_traits@V?$basic_string@DU?$char_traits@D@std@@V?$allocator@D@2@@std@@HU?$less@V?$basic_string@DU?$char_traits@D@std@@V?$allocator@D@2@@std@@@2@V?$allocator@U?$pair@$$CBV?$basic_string@DU?$char_traits@D@std@@V?$allocator@D@2@@std@@H@std@@@2@$0A@@std@@@2@@Z ; std::_Tree_val<std::_Tmap_traits<std::basic_string<char,std::char_traits<char>,std::allocator<char> >,int,std::less<std::basic_string<char,std::char_traits<char>,std::allocator<char> > >,std::allocator<std::pair<std::basic_string<char,std::char_traits<char>,std::allocator<char> > const ,int> >,0> >::_Myval
; Function compile flags: /Ogtp
;	COMDAT ?_Myval@?$_Tree_val@V?$_Tmap_traits@V?$basic_string@DU?$char_traits@D@std@@V?$allocator@D@2@@std@@HU?$less@V?$basic_string@DU?$char_traits@D@std@@V?$allocator@D@2@@std@@@2@V?$allocator@U?$pair@$$CBV?$basic_string@DU?$char_traits@D@std@@V?$allocator@D@2@@std@@H@std@@@2@$0A@@std@@@std@@SAAAU?$pair@$$CBV?$basic_string@DU?$char_traits@D@std@@V?$allocator@D@2@@std@@H@2@PAU_Node@?$_Tree_nod@V?$_Tmap_traits@V?$basic_string@DU?$char_traits@D@std@@V?$allocator@D@2@@std@@HU?$less@V?$basic_string@DU?$char_traits@D@std@@V?$allocator@D@2@@std@@@2@V?$allocator@U?$pair@$$CBV?$basic_string@DU?$char_traits@D@std@@V?$allocator@D@2@@std@@H@std@@@2@$0A@@std@@@2@@Z
_TEXT	SEGMENT
__Pnode$ = 8						; size = 4
?_Myval@?$_Tree_val@V?$_Tmap_traits@V?$basic_string@DU?$char_traits@D@std@@V?$allocator@D@2@@std@@HU?$less@V?$basic_string@DU?$char_traits@D@std@@V?$allocator@D@2@@std@@@2@V?$allocator@U?$pair@$$CBV?$basic_string@DU?$char_traits@D@std@@V?$allocator@D@2@@std@@H@std@@@2@$0A@@std@@@std@@SAAAU?$pair@$$CBV?$basic_string@DU?$char_traits@D@std@@V?$allocator@D@2@@std@@H@2@PAU_Node@?$_Tree_nod@V?$_Tmap_traits@V?$basic_string@DU?$char_traits@D@std@@V?$allocator@D@2@@std@@HU?$less@V?$basic_string@DU?$char_traits@D@std@@V?$allocator@D@2@@std@@@2@V?$allocator@U?$pair@$$CBV?$basic_string@DU?$char_traits@D@std@@V?$allocator@D@2@@std@@H@std@@@2@$0A@@std@@@2@@Z PROC ; std::_Tree_val<std::_Tmap_traits<std::basic_string<char,std::char_traits<char>,std::allocator<char> >,int,std::less<std::basic_string<char,std::char_traits<char>,std::allocator<char> > >,std::allocator<std::pair<std::basic_string<char,std::char_traits<char>,std::allocator<char> > const ,int> >,0> >::_Myval, COMDAT
; Line 636
	push	ebp
	mov	ebp, esp
; Line 637
	mov	eax, DWORD PTR __Pnode$[ebp]
	add	eax, 12					; 0000000cH
; Line 638
	pop	ebp
	ret	0
?_Myval@?$_Tree_val@V?$_Tmap_traits@V?$basic_string@DU?$char_traits@D@std@@V?$allocator@D@2@@std@@HU?$less@V?$basic_string@DU?$char_traits@D@std@@V?$allocator@D@2@@std@@@2@V?$allocator@U?$pair@$$CBV?$basic_string@DU?$char_traits@D@std@@V?$allocator@D@2@@std@@H@std@@@2@$0A@@std@@@std@@SAAAU?$pair@$$CBV?$basic_string@DU?$char_traits@D@std@@V?$allocator@D@2@@std@@H@2@PAU_Node@?$_Tree_nod@V?$_Tmap_traits@V?$basic_string@DU?$char_traits@D@std@@V?$allocator@D@2@@std@@HU?$less@V?$basic_string@DU?$char_traits@D@std@@V?$allocator@D@2@@std@@@2@V?$allocator@U?$pair@$$CBV?$basic_string@DU?$char_traits@D@std@@V?$allocator@D@2@@std@@H@std@@@2@$0A@@std@@@2@@Z ENDP ; std::_Tree_val<std::_Tmap_traits<std::basic_string<char,std::char_traits<char>,std::allocator<char> >,int,std::less<std::basic_string<char,std::char_traits<char>,std::allocator<char> > >,std::allocator<std::pair<std::basic_string<char,std::char_traits<char>,std::allocator<char> > const ,int> >,0> >::_Myval
_TEXT	ENDS
PUBLIC	?_Max@?$_Tree_val@V?$_Tmap_traits@V?$basic_string@DU?$char_traits@D@std@@V?$allocator@D@2@@std@@HU?$less@V?$basic_string@DU?$char_traits@D@std@@V?$allocator@D@2@@std@@@2@V?$allocator@U?$pair@$$CBV?$basic_string@DU?$char_traits@D@std@@V?$allocator@D@2@@std@@H@std@@@2@$0A@@std@@@std@@SAPAU_Node@?$_Tree_nod@V?$_Tmap_traits@V?$basic_string@DU?$char_traits@D@std@@V?$allocator@D@2@@std@@HU?$less@V?$basic_string@DU?$char_traits@D@std@@V?$allocator@D@2@@std@@@2@V?$allocator@U?$pair@$$CBV?$basic_string@DU?$char_traits@D@std@@V?$allocator@D@2@@std@@H@std@@@2@$0A@@std@@@2@PAU342@@Z ; std::_Tree_val<std::_Tmap_traits<std::basic_string<char,std::char_traits<char>,std::allocator<char> >,int,std::less<std::basic_string<char,std::char_traits<char>,std::allocator<char> > >,std::allocator<std::pair<std::basic_string<char,std::char_traits<char>,std::allocator<char> > const ,int> >,0> >::_Max
; Function compile flags: /Ogtp
;	COMDAT ?_Max@?$_Tree_val@V?$_Tmap_traits@V?$basic_string@DU?$char_traits@D@std@@V?$allocator@D@2@@std@@HU?$less@V?$basic_string@DU?$char_traits@D@std@@V?$allocator@D@2@@std@@@2@V?$allocator@U?$pair@$$CBV?$basic_string@DU?$char_traits@D@std@@V?$allocator@D@2@@std@@H@std@@@2@$0A@@std@@@std@@SAPAU_Node@?$_Tree_nod@V?$_Tmap_traits@V?$basic_string@DU?$char_traits@D@std@@V?$allocator@D@2@@std@@HU?$less@V?$basic_string@DU?$char_traits@D@std@@V?$allocator@D@2@@std@@@2@V?$allocator@U?$pair@$$CBV?$basic_string@DU?$char_traits@D@std@@V?$allocator@D@2@@std@@H@std@@@2@$0A@@std@@@2@PAU342@@Z
_TEXT	SEGMENT
__Pnode$ = 8						; size = 4
?_Max@?$_Tree_val@V?$_Tmap_traits@V?$basic_string@DU?$char_traits@D@std@@V?$allocator@D@2@@std@@HU?$less@V?$basic_string@DU?$char_traits@D@std@@V?$allocator@D@2@@std@@@2@V?$allocator@U?$pair@$$CBV?$basic_string@DU?$char_traits@D@std@@V?$allocator@D@2@@std@@H@std@@@2@$0A@@std@@@std@@SAPAU_Node@?$_Tree_nod@V?$_Tmap_traits@V?$basic_string@DU?$char_traits@D@std@@V?$allocator@D@2@@std@@HU?$less@V?$basic_string@DU?$char_traits@D@std@@V?$allocator@D@2@@std@@@2@V?$allocator@U?$pair@$$CBV?$basic_string@DU?$char_traits@D@std@@V?$allocator@D@2@@std@@H@std@@@2@$0A@@std@@@2@PAU342@@Z PROC ; std::_Tree_val<std::_Tmap_traits<std::basic_string<char,std::char_traits<char>,std::allocator<char> >,int,std::less<std::basic_string<char,std::char_traits<char>,std::allocator<char> > >,std::allocator<std::pair<std::basic_string<char,std::char_traits<char>,std::allocator<char> > const ,int> >,0> >::_Max, COMDAT
; Line 641
	push	ebp
	mov	ebp, esp
; Line 642
	mov	eax, DWORD PTR __Pnode$[ebp]
	mov	ecx, DWORD PTR [eax+8]
	cmp	BYTE PTR [ecx+45], 0
	jne	SHORT $LN1@Max
	npad	1
$LL2@Max:
; Line 643
	mov	eax, ecx
	mov	ecx, DWORD PTR [eax+8]
	cmp	BYTE PTR [ecx+45], 0
	je	SHORT $LL2@Max
$LN1@Max:
; Line 645
	pop	ebp
	ret	0
?_Max@?$_Tree_val@V?$_Tmap_traits@V?$basic_string@DU?$char_traits@D@std@@V?$allocator@D@2@@std@@HU?$less@V?$basic_string@DU?$char_traits@D@std@@V?$allocator@D@2@@std@@@2@V?$allocator@U?$pair@$$CBV?$basic_string@DU?$char_traits@D@std@@V?$allocator@D@2@@std@@H@std@@@2@$0A@@std@@@std@@SAPAU_Node@?$_Tree_nod@V?$_Tmap_traits@V?$basic_string@DU?$char_traits@D@std@@V?$allocator@D@2@@std@@HU?$less@V?$basic_string@DU?$char_traits@D@std@@V?$allocator@D@2@@std@@@2@V?$allocator@U?$pair@$$CBV?$basic_string@DU?$char_traits@D@std@@V?$allocator@D@2@@std@@H@std@@@2@$0A@@std@@@2@PAU342@@Z ENDP ; std::_Tree_val<std::_Tmap_traits<std::basic_string<char,std::char_traits<char>,std::allocator<char> >,int,std::less<std::basic_string<char,std::char_traits<char>,std::allocator<char> > >,std::allocator<std::pair<std::basic_string<char,std::char_traits<char>,std::allocator<char> > const ,int> >,0> >::_Max
_TEXT	ENDS
PUBLIC	?_Min@?$_Tree_val@V?$_Tmap_traits@V?$basic_string@DU?$char_traits@D@std@@V?$allocator@D@2@@std@@HU?$less@V?$basic_string@DU?$char_traits@D@std@@V?$allocator@D@2@@std@@@2@V?$allocator@U?$pair@$$CBV?$basic_string@DU?$char_traits@D@std@@V?$allocator@D@2@@std@@H@std@@@2@$0A@@std@@@std@@SAPAU_Node@?$_Tree_nod@V?$_Tmap_traits@V?$basic_string@DU?$char_traits@D@std@@V?$allocator@D@2@@std@@HU?$less@V?$basic_string@DU?$char_traits@D@std@@V?$allocator@D@2@@std@@@2@V?$allocator@U?$pair@$$CBV?$basic_string@DU?$char_traits@D@std@@V?$allocator@D@2@@std@@H@std@@@2@$0A@@std@@@2@PAU342@@Z ; std::_Tree_val<std::_Tmap_traits<std::basic_string<char,std::char_traits<char>,std::allocator<char> >,int,std::less<std::basic_string<char,std::char_traits<char>,std::allocator<char> > >,std::allocator<std::pair<std::basic_string<char,std::char_traits<char>,std::allocator<char> > const ,int> >,0> >::_Min
; Function compile flags: /Ogtp
;	COMDAT ?_Min@?$_Tree_val@V?$_Tmap_traits@V?$basic_string@DU?$char_traits@D@std@@V?$allocator@D@2@@std@@HU?$less@V?$basic_string@DU?$char_traits@D@std@@V?$allocator@D@2@@std@@@2@V?$allocator@U?$pair@$$CBV?$basic_string@DU?$char_traits@D@std@@V?$allocator@D@2@@std@@H@std@@@2@$0A@@std@@@std@@SAPAU_Node@?$_Tree_nod@V?$_Tmap_traits@V?$basic_string@DU?$char_traits@D@std@@V?$allocator@D@2@@std@@HU?$less@V?$basic_string@DU?$char_traits@D@std@@V?$allocator@D@2@@std@@@2@V?$allocator@U?$pair@$$CBV?$basic_string@DU?$char_traits@D@std@@V?$allocator@D@2@@std@@H@std@@@2@$0A@@std@@@2@PAU342@@Z
_TEXT	SEGMENT
__Pnode$ = 8						; size = 4
?_Min@?$_Tree_val@V?$_Tmap_traits@V?$basic_string@DU?$char_traits@D@std@@V?$allocator@D@2@@std@@HU?$less@V?$basic_string@DU?$char_traits@D@std@@V?$allocator@D@2@@std@@@2@V?$allocator@U?$pair@$$CBV?$basic_string@DU?$char_traits@D@std@@V?$allocator@D@2@@std@@H@std@@@2@$0A@@std@@@std@@SAPAU_Node@?$_Tree_nod@V?$_Tmap_traits@V?$basic_string@DU?$char_traits@D@std@@V?$allocator@D@2@@std@@HU?$less@V?$basic_string@DU?$char_traits@D@std@@V?$allocator@D@2@@std@@@2@V?$allocator@U?$pair@$$CBV?$basic_string@DU?$char_traits@D@std@@V?$allocator@D@2@@std@@H@std@@@2@$0A@@std@@@2@PAU342@@Z PROC ; std::_Tree_val<std::_Tmap_traits<std::basic_string<char,std::char_traits<char>,std::allocator<char> >,int,std::less<std::basic_string<char,std::char_traits<char>,std::allocator<char> > >,std::allocator<std::pair<std::basic_string<char,std::char_traits<char>,std::allocator<char> > const ,int> >,0> >::_Min, COMDAT
; Line 648
	push	ebp
	mov	ebp, esp
; Line 649
	mov	eax, DWORD PTR __Pnode$[ebp]
	mov	ecx, DWORD PTR [eax]
	cmp	BYTE PTR [ecx+45], 0
	jne	SHORT $LN1@Min
	npad	2
$LL2@Min:
; Line 650
	mov	eax, ecx
	mov	ecx, DWORD PTR [eax]
	cmp	BYTE PTR [ecx+45], 0
	je	SHORT $LL2@Min
$LN1@Min:
; Line 652
	pop	ebp
	ret	0
?_Min@?$_Tree_val@V?$_Tmap_traits@V?$basic_string@DU?$char_traits@D@std@@V?$allocator@D@2@@std@@HU?$less@V?$basic_string@DU?$char_traits@D@std@@V?$allocator@D@2@@std@@@2@V?$allocator@U?$pair@$$CBV?$basic_string@DU?$char_traits@D@std@@V?$allocator@D@2@@std@@H@std@@@2@$0A@@std@@@std@@SAPAU_Node@?$_Tree_nod@V?$_Tmap_traits@V?$basic_string@DU?$char_traits@D@std@@V?$allocator@D@2@@std@@HU?$less@V?$basic_string@DU?$char_traits@D@std@@V?$allocator@D@2@@std@@@2@V?$allocator@U?$pair@$$CBV?$basic_string@DU?$char_traits@D@std@@V?$allocator@D@2@@std@@H@std@@@2@$0A@@std@@@2@PAU342@@Z ENDP ; std::_Tree_val<std::_Tmap_traits<std::basic_string<char,std::char_traits<char>,std::allocator<char> >,int,std::less<std::basic_string<char,std::char_traits<char>,std::allocator<char> > >,std::allocator<std::pair<std::basic_string<char,std::char_traits<char>,std::allocator<char> > const ,int> >,0> >::_Min
_TEXT	ENDS
PUBLIC	??0?$allocator@U?$pair@$$CBV?$basic_string@DU?$char_traits@D@std@@V?$allocator@D@2@@std@@H@std@@@std@@QAE@XZ ; std::allocator<std::pair<std::basic_string<char,std::char_traits<char>,std::allocator<char> > const ,int> >::allocator<std::pair<std::basic_string<char,std::char_traits<char>,std::allocator<char> > const ,int> >
; Function compile flags: /Ogtp
;	COMDAT ??0?$allocator@U?$pair@$$CBV?$basic_string@DU?$char_traits@D@std@@V?$allocator@D@2@@std@@H@std@@@std@@QAE@XZ
_TEXT	SEGMENT
??0?$allocator@U?$pair@$$CBV?$basic_string@DU?$char_traits@D@std@@V?$allocator@D@2@@std@@H@std@@@std@@QAE@XZ PROC ; std::allocator<std::pair<std::basic_string<char,std::char_traits<char>,std::allocator<char> > const ,int> >::allocator<std::pair<std::basic_string<char,std::char_traits<char>,std::allocator<char> > const ,int> >, COMDAT
; _this$ = ecx
; File c:\program files (x86)\microsoft visual studio 10.0\vc\include\xmemory
; Line 161
	mov	eax, ecx
; Line 163
	ret	0
??0?$allocator@U?$pair@$$CBV?$basic_string@DU?$char_traits@D@std@@V?$allocator@D@2@@std@@H@std@@@std@@QAE@XZ ENDP ; std::allocator<std::pair<std::basic_string<char,std::char_traits<char>,std::allocator<char> > const ,int> >::allocator<std::pair<std::basic_string<char,std::char_traits<char>,std::allocator<char> > const ,int> >
_TEXT	ENDS
PUBLIC	?deallocate@?$allocator@U_Node@?$_Tree_nod@V?$_Tmap_traits@V?$basic_string@DU?$char_traits@D@std@@V?$allocator@D@2@@std@@HU?$less@V?$basic_string@DU?$char_traits@D@std@@V?$allocator@D@2@@std@@@2@V?$allocator@U?$pair@$$CBV?$basic_string@DU?$char_traits@D@std@@V?$allocator@D@2@@std@@H@std@@@2@$0A@@std@@@std@@@std@@QAEXPAU_Node@?$_Tree_nod@V?$_Tmap_traits@V?$basic_string@DU?$char_traits@D@std@@V?$allocator@D@2@@std@@HU?$less@V?$basic_string@DU?$char_traits@D@std@@V?$allocator@D@2@@std@@@2@V?$allocator@U?$pair@$$CBV?$basic_string@DU?$char_traits@D@std@@V?$allocator@D@2@@std@@H@std@@@2@$0A@@std@@@2@I@Z ; std::allocator<std::_Tree_nod<std::_Tmap_traits<std::basic_string<char,std::char_traits<char>,std::allocator<char> >,int,std::less<std::basic_string<char,std::char_traits<char>,std::allocator<char> > >,std::allocator<std::pair<std::basic_string<char,std::char_traits<char>,std::allocator<char> > const ,int> >,0> >::_Node>::deallocate
; Function compile flags: /Ogtp
;	COMDAT ?deallocate@?$allocator@U_Node@?$_Tree_nod@V?$_Tmap_traits@V?$basic_string@DU?$char_traits@D@std@@V?$allocator@D@2@@std@@HU?$less@V?$basic_string@DU?$char_traits@D@std@@V?$allocator@D@2@@std@@@2@V?$allocator@U?$pair@$$CBV?$basic_string@DU?$char_traits@D@std@@V?$allocator@D@2@@std@@H@std@@@2@$0A@@std@@@std@@@std@@QAEXPAU_Node@?$_Tree_nod@V?$_Tmap_traits@V?$basic_string@DU?$char_traits@D@std@@V?$allocator@D@2@@std@@HU?$less@V?$basic_string@DU?$char_traits@D@std@@V?$allocator@D@2@@std@@@2@V?$allocator@U?$pair@$$CBV?$basic_string@DU?$char_traits@D@std@@V?$allocator@D@2@@std@@H@std@@@2@$0A@@std@@@2@I@Z
_TEXT	SEGMENT
__Ptr$ = 8						; size = 4
___formal$ = 12						; size = 4
?deallocate@?$allocator@U_Node@?$_Tree_nod@V?$_Tmap_traits@V?$basic_string@DU?$char_traits@D@std@@V?$allocator@D@2@@std@@HU?$less@V?$basic_string@DU?$char_traits@D@std@@V?$allocator@D@2@@std@@@2@V?$allocator@U?$pair@$$CBV?$basic_string@DU?$char_traits@D@std@@V?$allocator@D@2@@std@@H@std@@@2@$0A@@std@@@std@@@std@@QAEXPAU_Node@?$_Tree_nod@V?$_Tmap_traits@V?$basic_string@DU?$char_traits@D@std@@V?$allocator@D@2@@std@@HU?$less@V?$basic_string@DU?$char_traits@D@std@@V?$allocator@D@2@@std@@@2@V?$allocator@U?$pair@$$CBV?$basic_string@DU?$char_traits@D@std@@V?$allocator@D@2@@std@@H@std@@@2@$0A@@std@@@2@I@Z PROC ; std::allocator<std::_Tree_nod<std::_Tmap_traits<std::basic_string<char,std::char_traits<char>,std::allocator<char> >,int,std::less<std::basic_string<char,std::char_traits<char>,std::allocator<char> > >,std::allocator<std::pair<std::basic_string<char,std::char_traits<char>,std::allocator<char> > const ,int> >,0> >::_Node>::deallocate, COMDAT
; _this$ = ecx
; Line 181
	push	ebp
	mov	ebp, esp
; Line 182
	mov	eax, DWORD PTR __Ptr$[ebp]
	push	eax
	call	??3@YAXPAX@Z				; operator delete
	add	esp, 4
; Line 183
	pop	ebp
	ret	8
?deallocate@?$allocator@U_Node@?$_Tree_nod@V?$_Tmap_traits@V?$basic_string@DU?$char_traits@D@std@@V?$allocator@D@2@@std@@HU?$less@V?$basic_string@DU?$char_traits@D@std@@V?$allocator@D@2@@std@@@2@V?$allocator@U?$pair@$$CBV?$basic_string@DU?$char_traits@D@std@@V?$allocator@D@2@@std@@H@std@@@2@$0A@@std@@@std@@@std@@QAEXPAU_Node@?$_Tree_nod@V?$_Tmap_traits@V?$basic_string@DU?$char_traits@D@std@@V?$allocator@D@2@@std@@HU?$less@V?$basic_string@DU?$char_traits@D@std@@V?$allocator@D@2@@std@@@2@V?$allocator@U?$pair@$$CBV?$basic_string@DU?$char_traits@D@std@@V?$allocator@D@2@@std@@H@std@@@2@$0A@@std@@@2@I@Z ENDP ; std::allocator<std::_Tree_nod<std::_Tmap_traits<std::basic_string<char,std::char_traits<char>,std::allocator<char> >,int,std::less<std::basic_string<char,std::char_traits<char>,std::allocator<char> > >,std::allocator<std::pair<std::basic_string<char,std::char_traits<char>,std::allocator<char> > const ,int> >,0> >::_Node>::deallocate
_TEXT	ENDS
PUBLIC	?_Color@?$_Tree_val@V?$_Tmap_traits@HPAVManagedItem@@U?$less@H@std@@V?$allocator@U?$pair@$$CBHPAVManagedItem@@@std@@@3@$0A@@std@@@std@@SAAADPAU_Node@?$_Tree_nod@V?$_Tmap_traits@HPAVManagedItem@@U?$less@H@std@@V?$allocator@U?$pair@$$CBHPAVManagedItem@@@std@@@3@$0A@@std@@@2@@Z ; std::_Tree_val<std::_Tmap_traits<int,ManagedItem *,std::less<int>,std::allocator<std::pair<int const ,ManagedItem *> >,0> >::_Color
; Function compile flags: /Ogtp
;	COMDAT ?_Color@?$_Tree_val@V?$_Tmap_traits@HPAVManagedItem@@U?$less@H@std@@V?$allocator@U?$pair@$$CBHPAVManagedItem@@@std@@@3@$0A@@std@@@std@@SAAADPAU_Node@?$_Tree_nod@V?$_Tmap_traits@HPAVManagedItem@@U?$less@H@std@@V?$allocator@U?$pair@$$CBHPAVManagedItem@@@std@@@3@$0A@@std@@@2@@Z
_TEXT	SEGMENT
__Pnode$ = 8						; size = 4
?_Color@?$_Tree_val@V?$_Tmap_traits@HPAVManagedItem@@U?$less@H@std@@V?$allocator@U?$pair@$$CBHPAVManagedItem@@@std@@@3@$0A@@std@@@std@@SAAADPAU_Node@?$_Tree_nod@V?$_Tmap_traits@HPAVManagedItem@@U?$less@H@std@@V?$allocator@U?$pair@$$CBHPAVManagedItem@@@std@@@3@$0A@@std@@@2@@Z PROC ; std::_Tree_val<std::_Tmap_traits<int,ManagedItem *,std::less<int>,std::allocator<std::pair<int const ,ManagedItem *> >,0> >::_Color, COMDAT
; File c:\program files (x86)\microsoft visual studio 10.0\vc\include\xtree
; Line 606
	push	ebp
	mov	ebp, esp
; Line 607
	mov	eax, DWORD PTR __Pnode$[ebp]
	add	eax, 20					; 00000014H
; Line 608
	pop	ebp
	ret	0
?_Color@?$_Tree_val@V?$_Tmap_traits@HPAVManagedItem@@U?$less@H@std@@V?$allocator@U?$pair@$$CBHPAVManagedItem@@@std@@@3@$0A@@std@@@std@@SAAADPAU_Node@?$_Tree_nod@V?$_Tmap_traits@HPAVManagedItem@@U?$less@H@std@@V?$allocator@U?$pair@$$CBHPAVManagedItem@@@std@@@3@$0A@@std@@@2@@Z ENDP ; std::_Tree_val<std::_Tmap_traits<int,ManagedItem *,std::less<int>,std::allocator<std::pair<int const ,ManagedItem *> >,0> >::_Color
_TEXT	ENDS
PUBLIC	?_Isnil@?$_Tree_val@V?$_Tmap_traits@HPAVManagedItem@@U?$less@H@std@@V?$allocator@U?$pair@$$CBHPAVManagedItem@@@std@@@3@$0A@@std@@@std@@SAAADPAU_Node@?$_Tree_nod@V?$_Tmap_traits@HPAVManagedItem@@U?$less@H@std@@V?$allocator@U?$pair@$$CBHPAVManagedItem@@@std@@@3@$0A@@std@@@2@@Z ; std::_Tree_val<std::_Tmap_traits<int,ManagedItem *,std::less<int>,std::allocator<std::pair<int const ,ManagedItem *> >,0> >::_Isnil
; Function compile flags: /Ogtp
;	COMDAT ?_Isnil@?$_Tree_val@V?$_Tmap_traits@HPAVManagedItem@@U?$less@H@std@@V?$allocator@U?$pair@$$CBHPAVManagedItem@@@std@@@3@$0A@@std@@@std@@SAAADPAU_Node@?$_Tree_nod@V?$_Tmap_traits@HPAVManagedItem@@U?$less@H@std@@V?$allocator@U?$pair@$$CBHPAVManagedItem@@@std@@@3@$0A@@std@@@2@@Z
_TEXT	SEGMENT
__Pnode$ = 8						; size = 4
?_Isnil@?$_Tree_val@V?$_Tmap_traits@HPAVManagedItem@@U?$less@H@std@@V?$allocator@U?$pair@$$CBHPAVManagedItem@@@std@@@3@$0A@@std@@@std@@SAAADPAU_Node@?$_Tree_nod@V?$_Tmap_traits@HPAVManagedItem@@U?$less@H@std@@V?$allocator@U?$pair@$$CBHPAVManagedItem@@@std@@@3@$0A@@std@@@2@@Z PROC ; std::_Tree_val<std::_Tmap_traits<int,ManagedItem *,std::less<int>,std::allocator<std::pair<int const ,ManagedItem *> >,0> >::_Isnil, COMDAT
; Line 611
	push	ebp
	mov	ebp, esp
; Line 612
	mov	eax, DWORD PTR __Pnode$[ebp]
	add	eax, 21					; 00000015H
; Line 613
	pop	ebp
	ret	0
?_Isnil@?$_Tree_val@V?$_Tmap_traits@HPAVManagedItem@@U?$less@H@std@@V?$allocator@U?$pair@$$CBHPAVManagedItem@@@std@@@3@$0A@@std@@@std@@SAAADPAU_Node@?$_Tree_nod@V?$_Tmap_traits@HPAVManagedItem@@U?$less@H@std@@V?$allocator@U?$pair@$$CBHPAVManagedItem@@@std@@@3@$0A@@std@@@2@@Z ENDP ; std::_Tree_val<std::_Tmap_traits<int,ManagedItem *,std::less<int>,std::allocator<std::pair<int const ,ManagedItem *> >,0> >::_Isnil
_TEXT	ENDS
PUBLIC	?_Left@?$_Tree_val@V?$_Tmap_traits@HPAVManagedItem@@U?$less@H@std@@V?$allocator@U?$pair@$$CBHPAVManagedItem@@@std@@@3@$0A@@std@@@std@@SAAAPAU_Node@?$_Tree_nod@V?$_Tmap_traits@HPAVManagedItem@@U?$less@H@std@@V?$allocator@U?$pair@$$CBHPAVManagedItem@@@std@@@3@$0A@@std@@@2@PAU342@@Z ; std::_Tree_val<std::_Tmap_traits<int,ManagedItem *,std::less<int>,std::allocator<std::pair<int const ,ManagedItem *> >,0> >::_Left
; Function compile flags: /Ogtp
;	COMDAT ?_Left@?$_Tree_val@V?$_Tmap_traits@HPAVManagedItem@@U?$less@H@std@@V?$allocator@U?$pair@$$CBHPAVManagedItem@@@std@@@3@$0A@@std@@@std@@SAAAPAU_Node@?$_Tree_nod@V?$_Tmap_traits@HPAVManagedItem@@U?$less@H@std@@V?$allocator@U?$pair@$$CBHPAVManagedItem@@@std@@@3@$0A@@std@@@2@PAU342@@Z
_TEXT	SEGMENT
__Pnode$ = 8						; size = 4
?_Left@?$_Tree_val@V?$_Tmap_traits@HPAVManagedItem@@U?$less@H@std@@V?$allocator@U?$pair@$$CBHPAVManagedItem@@@std@@@3@$0A@@std@@@std@@SAAAPAU_Node@?$_Tree_nod@V?$_Tmap_traits@HPAVManagedItem@@U?$less@H@std@@V?$allocator@U?$pair@$$CBHPAVManagedItem@@@std@@@3@$0A@@std@@@2@PAU342@@Z PROC ; std::_Tree_val<std::_Tmap_traits<int,ManagedItem *,std::less<int>,std::allocator<std::pair<int const ,ManagedItem *> >,0> >::_Left, COMDAT
; Line 621
	push	ebp
	mov	ebp, esp
; Line 622
	mov	eax, DWORD PTR __Pnode$[ebp]
; Line 623
	pop	ebp
	ret	0
?_Left@?$_Tree_val@V?$_Tmap_traits@HPAVManagedItem@@U?$less@H@std@@V?$allocator@U?$pair@$$CBHPAVManagedItem@@@std@@@3@$0A@@std@@@std@@SAAAPAU_Node@?$_Tree_nod@V?$_Tmap_traits@HPAVManagedItem@@U?$less@H@std@@V?$allocator@U?$pair@$$CBHPAVManagedItem@@@std@@@3@$0A@@std@@@2@PAU342@@Z ENDP ; std::_Tree_val<std::_Tmap_traits<int,ManagedItem *,std::less<int>,std::allocator<std::pair<int const ,ManagedItem *> >,0> >::_Left
_TEXT	ENDS
PUBLIC	?_Parent@?$_Tree_val@V?$_Tmap_traits@HPAVManagedItem@@U?$less@H@std@@V?$allocator@U?$pair@$$CBHPAVManagedItem@@@std@@@3@$0A@@std@@@std@@SAAAPAU_Node@?$_Tree_nod@V?$_Tmap_traits@HPAVManagedItem@@U?$less@H@std@@V?$allocator@U?$pair@$$CBHPAVManagedItem@@@std@@@3@$0A@@std@@@2@PAU342@@Z ; std::_Tree_val<std::_Tmap_traits<int,ManagedItem *,std::less<int>,std::allocator<std::pair<int const ,ManagedItem *> >,0> >::_Parent
; Function compile flags: /Ogtp
;	COMDAT ?_Parent@?$_Tree_val@V?$_Tmap_traits@HPAVManagedItem@@U?$less@H@std@@V?$allocator@U?$pair@$$CBHPAVManagedItem@@@std@@@3@$0A@@std@@@std@@SAAAPAU_Node@?$_Tree_nod@V?$_Tmap_traits@HPAVManagedItem@@U?$less@H@std@@V?$allocator@U?$pair@$$CBHPAVManagedItem@@@std@@@3@$0A@@std@@@2@PAU342@@Z
_TEXT	SEGMENT
__Pnode$ = 8						; size = 4
?_Parent@?$_Tree_val@V?$_Tmap_traits@HPAVManagedItem@@U?$less@H@std@@V?$allocator@U?$pair@$$CBHPAVManagedItem@@@std@@@3@$0A@@std@@@std@@SAAAPAU_Node@?$_Tree_nod@V?$_Tmap_traits@HPAVManagedItem@@U?$less@H@std@@V?$allocator@U?$pair@$$CBHPAVManagedItem@@@std@@@3@$0A@@std@@@2@PAU342@@Z PROC ; std::_Tree_val<std::_Tmap_traits<int,ManagedItem *,std::less<int>,std::allocator<std::pair<int const ,ManagedItem *> >,0> >::_Parent, COMDAT
; Line 626
	push	ebp
	mov	ebp, esp
; Line 627
	mov	eax, DWORD PTR __Pnode$[ebp]
	add	eax, 4
; Line 628
	pop	ebp
	ret	0
?_Parent@?$_Tree_val@V?$_Tmap_traits@HPAVManagedItem@@U?$less@H@std@@V?$allocator@U?$pair@$$CBHPAVManagedItem@@@std@@@3@$0A@@std@@@std@@SAAAPAU_Node@?$_Tree_nod@V?$_Tmap_traits@HPAVManagedItem@@U?$less@H@std@@V?$allocator@U?$pair@$$CBHPAVManagedItem@@@std@@@3@$0A@@std@@@2@PAU342@@Z ENDP ; std::_Tree_val<std::_Tmap_traits<int,ManagedItem *,std::less<int>,std::allocator<std::pair<int const ,ManagedItem *> >,0> >::_Parent
_TEXT	ENDS
PUBLIC	?_Right@?$_Tree_val@V?$_Tmap_traits@HPAVManagedItem@@U?$less@H@std@@V?$allocator@U?$pair@$$CBHPAVManagedItem@@@std@@@3@$0A@@std@@@std@@SAAAPAU_Node@?$_Tree_nod@V?$_Tmap_traits@HPAVManagedItem@@U?$less@H@std@@V?$allocator@U?$pair@$$CBHPAVManagedItem@@@std@@@3@$0A@@std@@@2@PAU342@@Z ; std::_Tree_val<std::_Tmap_traits<int,ManagedItem *,std::less<int>,std::allocator<std::pair<int const ,ManagedItem *> >,0> >::_Right
; Function compile flags: /Ogtp
;	COMDAT ?_Right@?$_Tree_val@V?$_Tmap_traits@HPAVManagedItem@@U?$less@H@std@@V?$allocator@U?$pair@$$CBHPAVManagedItem@@@std@@@3@$0A@@std@@@std@@SAAAPAU_Node@?$_Tree_nod@V?$_Tmap_traits@HPAVManagedItem@@U?$less@H@std@@V?$allocator@U?$pair@$$CBHPAVManagedItem@@@std@@@3@$0A@@std@@@2@PAU342@@Z
_TEXT	SEGMENT
__Pnode$ = 8						; size = 4
?_Right@?$_Tree_val@V?$_Tmap_traits@HPAVManagedItem@@U?$less@H@std@@V?$allocator@U?$pair@$$CBHPAVManagedItem@@@std@@@3@$0A@@std@@@std@@SAAAPAU_Node@?$_Tree_nod@V?$_Tmap_traits@HPAVManagedItem@@U?$less@H@std@@V?$allocator@U?$pair@$$CBHPAVManagedItem@@@std@@@3@$0A@@std@@@2@PAU342@@Z PROC ; std::_Tree_val<std::_Tmap_traits<int,ManagedItem *,std::less<int>,std::allocator<std::pair<int const ,ManagedItem *> >,0> >::_Right, COMDAT
; Line 631
	push	ebp
	mov	ebp, esp
; Line 632
	mov	eax, DWORD PTR __Pnode$[ebp]
	add	eax, 8
; Line 633
	pop	ebp
	ret	0
?_Right@?$_Tree_val@V?$_Tmap_traits@HPAVManagedItem@@U?$less@H@std@@V?$allocator@U?$pair@$$CBHPAVManagedItem@@@std@@@3@$0A@@std@@@std@@SAAAPAU_Node@?$_Tree_nod@V?$_Tmap_traits@HPAVManagedItem@@U?$less@H@std@@V?$allocator@U?$pair@$$CBHPAVManagedItem@@@std@@@3@$0A@@std@@@2@PAU342@@Z ENDP ; std::_Tree_val<std::_Tmap_traits<int,ManagedItem *,std::less<int>,std::allocator<std::pair<int const ,ManagedItem *> >,0> >::_Right
_TEXT	ENDS
PUBLIC	?_Myval@?$_Tree_val@V?$_Tmap_traits@HPAVManagedItem@@U?$less@H@std@@V?$allocator@U?$pair@$$CBHPAVManagedItem@@@std@@@3@$0A@@std@@@std@@SAAAU?$pair@$$CBHPAVManagedItem@@@2@PAU_Node@?$_Tree_nod@V?$_Tmap_traits@HPAVManagedItem@@U?$less@H@std@@V?$allocator@U?$pair@$$CBHPAVManagedItem@@@std@@@3@$0A@@std@@@2@@Z ; std::_Tree_val<std::_Tmap_traits<int,ManagedItem *,std::less<int>,std::allocator<std::pair<int const ,ManagedItem *> >,0> >::_Myval
; Function compile flags: /Ogtp
;	COMDAT ?_Myval@?$_Tree_val@V?$_Tmap_traits@HPAVManagedItem@@U?$less@H@std@@V?$allocator@U?$pair@$$CBHPAVManagedItem@@@std@@@3@$0A@@std@@@std@@SAAAU?$pair@$$CBHPAVManagedItem@@@2@PAU_Node@?$_Tree_nod@V?$_Tmap_traits@HPAVManagedItem@@U?$less@H@std@@V?$allocator@U?$pair@$$CBHPAVManagedItem@@@std@@@3@$0A@@std@@@2@@Z
_TEXT	SEGMENT
__Pnode$ = 8						; size = 4
?_Myval@?$_Tree_val@V?$_Tmap_traits@HPAVManagedItem@@U?$less@H@std@@V?$allocator@U?$pair@$$CBHPAVManagedItem@@@std@@@3@$0A@@std@@@std@@SAAAU?$pair@$$CBHPAVManagedItem@@@2@PAU_Node@?$_Tree_nod@V?$_Tmap_traits@HPAVManagedItem@@U?$less@H@std@@V?$allocator@U?$pair@$$CBHPAVManagedItem@@@std@@@3@$0A@@std@@@2@@Z PROC ; std::_Tree_val<std::_Tmap_traits<int,ManagedItem *,std::less<int>,std::allocator<std::pair<int const ,ManagedItem *> >,0> >::_Myval, COMDAT
; Line 636
	push	ebp
	mov	ebp, esp
; Line 637
	mov	eax, DWORD PTR __Pnode$[ebp]
	add	eax, 12					; 0000000cH
; Line 638
	pop	ebp
	ret	0
?_Myval@?$_Tree_val@V?$_Tmap_traits@HPAVManagedItem@@U?$less@H@std@@V?$allocator@U?$pair@$$CBHPAVManagedItem@@@std@@@3@$0A@@std@@@std@@SAAAU?$pair@$$CBHPAVManagedItem@@@2@PAU_Node@?$_Tree_nod@V?$_Tmap_traits@HPAVManagedItem@@U?$less@H@std@@V?$allocator@U?$pair@$$CBHPAVManagedItem@@@std@@@3@$0A@@std@@@2@@Z ENDP ; std::_Tree_val<std::_Tmap_traits<int,ManagedItem *,std::less<int>,std::allocator<std::pair<int const ,ManagedItem *> >,0> >::_Myval
_TEXT	ENDS
PUBLIC	?_Max@?$_Tree_val@V?$_Tmap_traits@HPAVManagedItem@@U?$less@H@std@@V?$allocator@U?$pair@$$CBHPAVManagedItem@@@std@@@3@$0A@@std@@@std@@SAPAU_Node@?$_Tree_nod@V?$_Tmap_traits@HPAVManagedItem@@U?$less@H@std@@V?$allocator@U?$pair@$$CBHPAVManagedItem@@@std@@@3@$0A@@std@@@2@PAU342@@Z ; std::_Tree_val<std::_Tmap_traits<int,ManagedItem *,std::less<int>,std::allocator<std::pair<int const ,ManagedItem *> >,0> >::_Max
; Function compile flags: /Ogtp
;	COMDAT ?_Max@?$_Tree_val@V?$_Tmap_traits@HPAVManagedItem@@U?$less@H@std@@V?$allocator@U?$pair@$$CBHPAVManagedItem@@@std@@@3@$0A@@std@@@std@@SAPAU_Node@?$_Tree_nod@V?$_Tmap_traits@HPAVManagedItem@@U?$less@H@std@@V?$allocator@U?$pair@$$CBHPAVManagedItem@@@std@@@3@$0A@@std@@@2@PAU342@@Z
_TEXT	SEGMENT
__Pnode$ = 8						; size = 4
?_Max@?$_Tree_val@V?$_Tmap_traits@HPAVManagedItem@@U?$less@H@std@@V?$allocator@U?$pair@$$CBHPAVManagedItem@@@std@@@3@$0A@@std@@@std@@SAPAU_Node@?$_Tree_nod@V?$_Tmap_traits@HPAVManagedItem@@U?$less@H@std@@V?$allocator@U?$pair@$$CBHPAVManagedItem@@@std@@@3@$0A@@std@@@2@PAU342@@Z PROC ; std::_Tree_val<std::_Tmap_traits<int,ManagedItem *,std::less<int>,std::allocator<std::pair<int const ,ManagedItem *> >,0> >::_Max, COMDAT
; Line 641
	push	ebp
	mov	ebp, esp
; Line 642
	mov	eax, DWORD PTR __Pnode$[ebp]
	mov	ecx, DWORD PTR [eax+8]
	cmp	BYTE PTR [ecx+21], 0
	jne	SHORT $LN1@Max@2
	npad	1
$LL2@Max@2:
; Line 643
	mov	eax, ecx
	mov	ecx, DWORD PTR [eax+8]
	cmp	BYTE PTR [ecx+21], 0
	je	SHORT $LL2@Max@2
$LN1@Max@2:
; Line 645
	pop	ebp
	ret	0
?_Max@?$_Tree_val@V?$_Tmap_traits@HPAVManagedItem@@U?$less@H@std@@V?$allocator@U?$pair@$$CBHPAVManagedItem@@@std@@@3@$0A@@std@@@std@@SAPAU_Node@?$_Tree_nod@V?$_Tmap_traits@HPAVManagedItem@@U?$less@H@std@@V?$allocator@U?$pair@$$CBHPAVManagedItem@@@std@@@3@$0A@@std@@@2@PAU342@@Z ENDP ; std::_Tree_val<std::_Tmap_traits<int,ManagedItem *,std::less<int>,std::allocator<std::pair<int const ,ManagedItem *> >,0> >::_Max
_TEXT	ENDS
PUBLIC	?_Min@?$_Tree_val@V?$_Tmap_traits@HPAVManagedItem@@U?$less@H@std@@V?$allocator@U?$pair@$$CBHPAVManagedItem@@@std@@@3@$0A@@std@@@std@@SAPAU_Node@?$_Tree_nod@V?$_Tmap_traits@HPAVManagedItem@@U?$less@H@std@@V?$allocator@U?$pair@$$CBHPAVManagedItem@@@std@@@3@$0A@@std@@@2@PAU342@@Z ; std::_Tree_val<std::_Tmap_traits<int,ManagedItem *,std::less<int>,std::allocator<std::pair<int const ,ManagedItem *> >,0> >::_Min
; Function compile flags: /Ogtp
;	COMDAT ?_Min@?$_Tree_val@V?$_Tmap_traits@HPAVManagedItem@@U?$less@H@std@@V?$allocator@U?$pair@$$CBHPAVManagedItem@@@std@@@3@$0A@@std@@@std@@SAPAU_Node@?$_Tree_nod@V?$_Tmap_traits@HPAVManagedItem@@U?$less@H@std@@V?$allocator@U?$pair@$$CBHPAVManagedItem@@@std@@@3@$0A@@std@@@2@PAU342@@Z
_TEXT	SEGMENT
__Pnode$ = 8						; size = 4
?_Min@?$_Tree_val@V?$_Tmap_traits@HPAVManagedItem@@U?$less@H@std@@V?$allocator@U?$pair@$$CBHPAVManagedItem@@@std@@@3@$0A@@std@@@std@@SAPAU_Node@?$_Tree_nod@V?$_Tmap_traits@HPAVManagedItem@@U?$less@H@std@@V?$allocator@U?$pair@$$CBHPAVManagedItem@@@std@@@3@$0A@@std@@@2@PAU342@@Z PROC ; std::_Tree_val<std::_Tmap_traits<int,ManagedItem *,std::less<int>,std::allocator<std::pair<int const ,ManagedItem *> >,0> >::_Min, COMDAT
; Line 648
	push	ebp
	mov	ebp, esp
; Line 649
	mov	eax, DWORD PTR __Pnode$[ebp]
	mov	ecx, DWORD PTR [eax]
	cmp	BYTE PTR [ecx+21], 0
	jne	SHORT $LN1@Min@2
	npad	2
$LL2@Min@2:
; Line 650
	mov	eax, ecx
	mov	ecx, DWORD PTR [eax]
	cmp	BYTE PTR [ecx+21], 0
	je	SHORT $LL2@Min@2
$LN1@Min@2:
; Line 652
	pop	ebp
	ret	0
?_Min@?$_Tree_val@V?$_Tmap_traits@HPAVManagedItem@@U?$less@H@std@@V?$allocator@U?$pair@$$CBHPAVManagedItem@@@std@@@3@$0A@@std@@@std@@SAPAU_Node@?$_Tree_nod@V?$_Tmap_traits@HPAVManagedItem@@U?$less@H@std@@V?$allocator@U?$pair@$$CBHPAVManagedItem@@@std@@@3@$0A@@std@@@2@PAU342@@Z ENDP ; std::_Tree_val<std::_Tmap_traits<int,ManagedItem *,std::less<int>,std::allocator<std::pair<int const ,ManagedItem *> >,0> >::_Min
_TEXT	ENDS
PUBLIC	??0?$allocator@U?$pair@$$CBHPAVManagedItem@@@std@@@std@@QAE@XZ ; std::allocator<std::pair<int const ,ManagedItem *> >::allocator<std::pair<int const ,ManagedItem *> >
; Function compile flags: /Ogtp
;	COMDAT ??0?$allocator@U?$pair@$$CBHPAVManagedItem@@@std@@@std@@QAE@XZ
_TEXT	SEGMENT
??0?$allocator@U?$pair@$$CBHPAVManagedItem@@@std@@@std@@QAE@XZ PROC ; std::allocator<std::pair<int const ,ManagedItem *> >::allocator<std::pair<int const ,ManagedItem *> >, COMDAT
; _this$ = ecx
; File c:\program files (x86)\microsoft visual studio 10.0\vc\include\xmemory
; Line 161
	mov	eax, ecx
; Line 163
	ret	0
??0?$allocator@U?$pair@$$CBHPAVManagedItem@@@std@@@std@@QAE@XZ ENDP ; std::allocator<std::pair<int const ,ManagedItem *> >::allocator<std::pair<int const ,ManagedItem *> >
_TEXT	ENDS
PUBLIC	?deallocate@?$allocator@U_Node@?$_Tree_nod@V?$_Tmap_traits@HPAVManagedItem@@U?$less@H@std@@V?$allocator@U?$pair@$$CBHPAVManagedItem@@@std@@@3@$0A@@std@@@std@@@std@@QAEXPAU_Node@?$_Tree_nod@V?$_Tmap_traits@HPAVManagedItem@@U?$less@H@std@@V?$allocator@U?$pair@$$CBHPAVManagedItem@@@std@@@3@$0A@@std@@@2@I@Z ; std::allocator<std::_Tree_nod<std::_Tmap_traits<int,ManagedItem *,std::less<int>,std::allocator<std::pair<int const ,ManagedItem *> >,0> >::_Node>::deallocate
; Function compile flags: /Ogtp
;	COMDAT ?deallocate@?$allocator@U_Node@?$_Tree_nod@V?$_Tmap_traits@HPAVManagedItem@@U?$less@H@std@@V?$allocator@U?$pair@$$CBHPAVManagedItem@@@std@@@3@$0A@@std@@@std@@@std@@QAEXPAU_Node@?$_Tree_nod@V?$_Tmap_traits@HPAVManagedItem@@U?$less@H@std@@V?$allocator@U?$pair@$$CBHPAVManagedItem@@@std@@@3@$0A@@std@@@2@I@Z
_TEXT	SEGMENT
__Ptr$ = 8						; size = 4
___formal$ = 12						; size = 4
?deallocate@?$allocator@U_Node@?$_Tree_nod@V?$_Tmap_traits@HPAVManagedItem@@U?$less@H@std@@V?$allocator@U?$pair@$$CBHPAVManagedItem@@@std@@@3@$0A@@std@@@std@@@std@@QAEXPAU_Node@?$_Tree_nod@V?$_Tmap_traits@HPAVManagedItem@@U?$less@H@std@@V?$allocator@U?$pair@$$CBHPAVManagedItem@@@std@@@3@$0A@@std@@@2@I@Z PROC ; std::allocator<std::_Tree_nod<std::_Tmap_traits<int,ManagedItem *,std::less<int>,std::allocator<std::pair<int const ,ManagedItem *> >,0> >::_Node>::deallocate, COMDAT
; _this$ = ecx
; Line 181
	push	ebp
	mov	ebp, esp
; Line 182
	mov	eax, DWORD PTR __Ptr$[ebp]
	push	eax
	call	??3@YAXPAX@Z				; operator delete
	add	esp, 4
; Line 183
	pop	ebp
	ret	8
?deallocate@?$allocator@U_Node@?$_Tree_nod@V?$_Tmap_traits@HPAVManagedItem@@U?$less@H@std@@V?$allocator@U?$pair@$$CBHPAVManagedItem@@@std@@@3@$0A@@std@@@std@@@std@@QAEXPAU_Node@?$_Tree_nod@V?$_Tmap_traits@HPAVManagedItem@@U?$less@H@std@@V?$allocator@U?$pair@$$CBHPAVManagedItem@@@std@@@3@$0A@@std@@@2@I@Z ENDP ; std::allocator<std::_Tree_nod<std::_Tmap_traits<int,ManagedItem *,std::less<int>,std::allocator<std::pair<int const ,ManagedItem *> >,0> >::_Node>::deallocate
_TEXT	ENDS
PUBLIC	?_Color@?$_Tree_val@V?$_Tmap_traits@V?$basic_string@DU?$char_traits@D@std@@V?$allocator@D@2@@std@@IU?$less@V?$basic_string@DU?$char_traits@D@std@@V?$allocator@D@2@@std@@@2@V?$allocator@U?$pair@$$CBV?$basic_string@DU?$char_traits@D@std@@V?$allocator@D@2@@std@@I@std@@@2@$0A@@std@@@std@@SAAADPAU_Node@?$_Tree_nod@V?$_Tmap_traits@V?$basic_string@DU?$char_traits@D@std@@V?$allocator@D@2@@std@@IU?$less@V?$basic_string@DU?$char_traits@D@std@@V?$allocator@D@2@@std@@@2@V?$allocator@U?$pair@$$CBV?$basic_string@DU?$char_traits@D@std@@V?$allocator@D@2@@std@@I@std@@@2@$0A@@std@@@2@@Z ; std::_Tree_val<std::_Tmap_traits<std::basic_string<char,std::char_traits<char>,std::allocator<char> >,unsigned int,std::less<std::basic_string<char,std::char_traits<char>,std::allocator<char> > >,std::allocator<std::pair<std::basic_string<char,std::char_traits<char>,std::allocator<char> > const ,unsigned int> >,0> >::_Color
; Function compile flags: /Ogtp
;	COMDAT ?_Color@?$_Tree_val@V?$_Tmap_traits@V?$basic_string@DU?$char_traits@D@std@@V?$allocator@D@2@@std@@IU?$less@V?$basic_string@DU?$char_traits@D@std@@V?$allocator@D@2@@std@@@2@V?$allocator@U?$pair@$$CBV?$basic_string@DU?$char_traits@D@std@@V?$allocator@D@2@@std@@I@std@@@2@$0A@@std@@@std@@SAAADPAU_Node@?$_Tree_nod@V?$_Tmap_traits@V?$basic_string@DU?$char_traits@D@std@@V?$allocator@D@2@@std@@IU?$less@V?$basic_string@DU?$char_traits@D@std@@V?$allocator@D@2@@std@@@2@V?$allocator@U?$pair@$$CBV?$basic_string@DU?$char_traits@D@std@@V?$allocator@D@2@@std@@I@std@@@2@$0A@@std@@@2@@Z
_TEXT	SEGMENT
__Pnode$ = 8						; size = 4
?_Color@?$_Tree_val@V?$_Tmap_traits@V?$basic_string@DU?$char_traits@D@std@@V?$allocator@D@2@@std@@IU?$less@V?$basic_string@DU?$char_traits@D@std@@V?$allocator@D@2@@std@@@2@V?$allocator@U?$pair@$$CBV?$basic_string@DU?$char_traits@D@std@@V?$allocator@D@2@@std@@I@std@@@2@$0A@@std@@@std@@SAAADPAU_Node@?$_Tree_nod@V?$_Tmap_traits@V?$basic_string@DU?$char_traits@D@std@@V?$allocator@D@2@@std@@IU?$less@V?$basic_string@DU?$char_traits@D@std@@V?$allocator@D@2@@std@@@2@V?$allocator@U?$pair@$$CBV?$basic_string@DU?$char_traits@D@std@@V?$allocator@D@2@@std@@I@std@@@2@$0A@@std@@@2@@Z PROC ; std::_Tree_val<std::_Tmap_traits<std::basic_string<char,std::char_traits<char>,std::allocator<char> >,unsigned int,std::less<std::basic_string<char,std::char_traits<char>,std::allocator<char> > >,std::allocator<std::pair<std::basic_string<char,std::char_traits<char>,std::allocator<char> > const ,unsigned int> >,0> >::_Color, COMDAT
; File c:\program files (x86)\microsoft visual studio 10.0\vc\include\xtree
; Line 606
	push	ebp
	mov	ebp, esp
; Line 607
	mov	eax, DWORD PTR __Pnode$[ebp]
	add	eax, 44					; 0000002cH
; Line 608
	pop	ebp
	ret	0
?_Color@?$_Tree_val@V?$_Tmap_traits@V?$basic_string@DU?$char_traits@D@std@@V?$allocator@D@2@@std@@IU?$less@V?$basic_string@DU?$char_traits@D@std@@V?$allocator@D@2@@std@@@2@V?$allocator@U?$pair@$$CBV?$basic_string@DU?$char_traits@D@std@@V?$allocator@D@2@@std@@I@std@@@2@$0A@@std@@@std@@SAAADPAU_Node@?$_Tree_nod@V?$_Tmap_traits@V?$basic_string@DU?$char_traits@D@std@@V?$allocator@D@2@@std@@IU?$less@V?$basic_string@DU?$char_traits@D@std@@V?$allocator@D@2@@std@@@2@V?$allocator@U?$pair@$$CBV?$basic_string@DU?$char_traits@D@std@@V?$allocator@D@2@@std@@I@std@@@2@$0A@@std@@@2@@Z ENDP ; std::_Tree_val<std::_Tmap_traits<std::basic_string<char,std::char_traits<char>,std::allocator<char> >,unsigned int,std::less<std::basic_string<char,std::char_traits<char>,std::allocator<char> > >,std::allocator<std::pair<std::basic_string<char,std::char_traits<char>,std::allocator<char> > const ,unsigned int> >,0> >::_Color
_TEXT	ENDS
PUBLIC	?_Isnil@?$_Tree_val@V?$_Tmap_traits@V?$basic_string@DU?$char_traits@D@std@@V?$allocator@D@2@@std@@IU?$less@V?$basic_string@DU?$char_traits@D@std@@V?$allocator@D@2@@std@@@2@V?$allocator@U?$pair@$$CBV?$basic_string@DU?$char_traits@D@std@@V?$allocator@D@2@@std@@I@std@@@2@$0A@@std@@@std@@SAAADPAU_Node@?$_Tree_nod@V?$_Tmap_traits@V?$basic_string@DU?$char_traits@D@std@@V?$allocator@D@2@@std@@IU?$less@V?$basic_string@DU?$char_traits@D@std@@V?$allocator@D@2@@std@@@2@V?$allocator@U?$pair@$$CBV?$basic_string@DU?$char_traits@D@std@@V?$allocator@D@2@@std@@I@std@@@2@$0A@@std@@@2@@Z ; std::_Tree_val<std::_Tmap_traits<std::basic_string<char,std::char_traits<char>,std::allocator<char> >,unsigned int,std::less<std::basic_string<char,std::char_traits<char>,std::allocator<char> > >,std::allocator<std::pair<std::basic_string<char,std::char_traits<char>,std::allocator<char> > const ,unsigned int> >,0> >::_Isnil
; Function compile flags: /Ogtp
;	COMDAT ?_Isnil@?$_Tree_val@V?$_Tmap_traits@V?$basic_string@DU?$char_traits@D@std@@V?$allocator@D@2@@std@@IU?$less@V?$basic_string@DU?$char_traits@D@std@@V?$allocator@D@2@@std@@@2@V?$allocator@U?$pair@$$CBV?$basic_string@DU?$char_traits@D@std@@V?$allocator@D@2@@std@@I@std@@@2@$0A@@std@@@std@@SAAADPAU_Node@?$_Tree_nod@V?$_Tmap_traits@V?$basic_string@DU?$char_traits@D@std@@V?$allocator@D@2@@std@@IU?$less@V?$basic_string@DU?$char_traits@D@std@@V?$allocator@D@2@@std@@@2@V?$allocator@U?$pair@$$CBV?$basic_string@DU?$char_traits@D@std@@V?$allocator@D@2@@std@@I@std@@@2@$0A@@std@@@2@@Z
_TEXT	SEGMENT
__Pnode$ = 8						; size = 4
?_Isnil@?$_Tree_val@V?$_Tmap_traits@V?$basic_string@DU?$char_traits@D@std@@V?$allocator@D@2@@std@@IU?$less@V?$basic_string@DU?$char_traits@D@std@@V?$allocator@D@2@@std@@@2@V?$allocator@U?$pair@$$CBV?$basic_string@DU?$char_traits@D@std@@V?$allocator@D@2@@std@@I@std@@@2@$0A@@std@@@std@@SAAADPAU_Node@?$_Tree_nod@V?$_Tmap_traits@V?$basic_string@DU?$char_traits@D@std@@V?$allocator@D@2@@std@@IU?$less@V?$basic_string@DU?$char_traits@D@std@@V?$allocator@D@2@@std@@@2@V?$allocator@U?$pair@$$CBV?$basic_string@DU?$char_traits@D@std@@V?$allocator@D@2@@std@@I@std@@@2@$0A@@std@@@2@@Z PROC ; std::_Tree_val<std::_Tmap_traits<std::basic_string<char,std::char_traits<char>,std::allocator<char> >,unsigned int,std::less<std::basic_string<char,std::char_traits<char>,std::allocator<char> > >,std::allocator<std::pair<std::basic_string<char,std::char_traits<char>,std::allocator<char> > const ,unsigned int> >,0> >::_Isnil, COMDAT
; Line 611
	push	ebp
	mov	ebp, esp
; Line 612
	mov	eax, DWORD PTR __Pnode$[ebp]
	add	eax, 45					; 0000002dH
; Line 613
	pop	ebp
	ret	0
?_Isnil@?$_Tree_val@V?$_Tmap_traits@V?$basic_string@DU?$char_traits@D@std@@V?$allocator@D@2@@std@@IU?$less@V?$basic_string@DU?$char_traits@D@std@@V?$allocator@D@2@@std@@@2@V?$allocator@U?$pair@$$CBV?$basic_string@DU?$char_traits@D@std@@V?$allocator@D@2@@std@@I@std@@@2@$0A@@std@@@std@@SAAADPAU_Node@?$_Tree_nod@V?$_Tmap_traits@V?$basic_string@DU?$char_traits@D@std@@V?$allocator@D@2@@std@@IU?$less@V?$basic_string@DU?$char_traits@D@std@@V?$allocator@D@2@@std@@@2@V?$allocator@U?$pair@$$CBV?$basic_string@DU?$char_traits@D@std@@V?$allocator@D@2@@std@@I@std@@@2@$0A@@std@@@2@@Z ENDP ; std::_Tree_val<std::_Tmap_traits<std::basic_string<char,std::char_traits<char>,std::allocator<char> >,unsigned int,std::less<std::basic_string<char,std::char_traits<char>,std::allocator<char> > >,std::allocator<std::pair<std::basic_string<char,std::char_traits<char>,std::allocator<char> > const ,unsigned int> >,0> >::_Isnil
_TEXT	ENDS
PUBLIC	?_Left@?$_Tree_val@V?$_Tmap_traits@V?$basic_string@DU?$char_traits@D@std@@V?$allocator@D@2@@std@@IU?$less@V?$basic_string@DU?$char_traits@D@std@@V?$allocator@D@2@@std@@@2@V?$allocator@U?$pair@$$CBV?$basic_string@DU?$char_traits@D@std@@V?$allocator@D@2@@std@@I@std@@@2@$0A@@std@@@std@@SAAAPAU_Node@?$_Tree_nod@V?$_Tmap_traits@V?$basic_string@DU?$char_traits@D@std@@V?$allocator@D@2@@std@@IU?$less@V?$basic_string@DU?$char_traits@D@std@@V?$allocator@D@2@@std@@@2@V?$allocator@U?$pair@$$CBV?$basic_string@DU?$char_traits@D@std@@V?$allocator@D@2@@std@@I@std@@@2@$0A@@std@@@2@PAU342@@Z ; std::_Tree_val<std::_Tmap_traits<std::basic_string<char,std::char_traits<char>,std::allocator<char> >,unsigned int,std::less<std::basic_string<char,std::char_traits<char>,std::allocator<char> > >,std::allocator<std::pair<std::basic_string<char,std::char_traits<char>,std::allocator<char> > const ,unsigned int> >,0> >::_Left
; Function compile flags: /Ogtp
;	COMDAT ?_Left@?$_Tree_val@V?$_Tmap_traits@V?$basic_string@DU?$char_traits@D@std@@V?$allocator@D@2@@std@@IU?$less@V?$basic_string@DU?$char_traits@D@std@@V?$allocator@D@2@@std@@@2@V?$allocator@U?$pair@$$CBV?$basic_string@DU?$char_traits@D@std@@V?$allocator@D@2@@std@@I@std@@@2@$0A@@std@@@std@@SAAAPAU_Node@?$_Tree_nod@V?$_Tmap_traits@V?$basic_string@DU?$char_traits@D@std@@V?$allocator@D@2@@std@@IU?$less@V?$basic_string@DU?$char_traits@D@std@@V?$allocator@D@2@@std@@@2@V?$allocator@U?$pair@$$CBV?$basic_string@DU?$char_traits@D@std@@V?$allocator@D@2@@std@@I@std@@@2@$0A@@std@@@2@PAU342@@Z
_TEXT	SEGMENT
__Pnode$ = 8						; size = 4
?_Left@?$_Tree_val@V?$_Tmap_traits@V?$basic_string@DU?$char_traits@D@std@@V?$allocator@D@2@@std@@IU?$less@V?$basic_string@DU?$char_traits@D@std@@V?$allocator@D@2@@std@@@2@V?$allocator@U?$pair@$$CBV?$basic_string@DU?$char_traits@D@std@@V?$allocator@D@2@@std@@I@std@@@2@$0A@@std@@@std@@SAAAPAU_Node@?$_Tree_nod@V?$_Tmap_traits@V?$basic_string@DU?$char_traits@D@std@@V?$allocator@D@2@@std@@IU?$less@V?$basic_string@DU?$char_traits@D@std@@V?$allocator@D@2@@std@@@2@V?$allocator@U?$pair@$$CBV?$basic_string@DU?$char_traits@D@std@@V?$allocator@D@2@@std@@I@std@@@2@$0A@@std@@@2@PAU342@@Z PROC ; std::_Tree_val<std::_Tmap_traits<std::basic_string<char,std::char_traits<char>,std::allocator<char> >,unsigned int,std::less<std::basic_string<char,std::char_traits<char>,std::allocator<char> > >,std::allocator<std::pair<std::basic_string<char,std::char_traits<char>,std::allocator<char> > const ,unsigned int> >,0> >::_Left, COMDAT
; Line 621
	push	ebp
	mov	ebp, esp
; Line 622
	mov	eax, DWORD PTR __Pnode$[ebp]
; Line 623
	pop	ebp
	ret	0
?_Left@?$_Tree_val@V?$_Tmap_traits@V?$basic_string@DU?$char_traits@D@std@@V?$allocator@D@2@@std@@IU?$less@V?$basic_string@DU?$char_traits@D@std@@V?$allocator@D@2@@std@@@2@V?$allocator@U?$pair@$$CBV?$basic_string@DU?$char_traits@D@std@@V?$allocator@D@2@@std@@I@std@@@2@$0A@@std@@@std@@SAAAPAU_Node@?$_Tree_nod@V?$_Tmap_traits@V?$basic_string@DU?$char_traits@D@std@@V?$allocator@D@2@@std@@IU?$less@V?$basic_string@DU?$char_traits@D@std@@V?$allocator@D@2@@std@@@2@V?$allocator@U?$pair@$$CBV?$basic_string@DU?$char_traits@D@std@@V?$allocator@D@2@@std@@I@std@@@2@$0A@@std@@@2@PAU342@@Z ENDP ; std::_Tree_val<std::_Tmap_traits<std::basic_string<char,std::char_traits<char>,std::allocator<char> >,unsigned int,std::less<std::basic_string<char,std::char_traits<char>,std::allocator<char> > >,std::allocator<std::pair<std::basic_string<char,std::char_traits<char>,std::allocator<char> > const ,unsigned int> >,0> >::_Left
_TEXT	ENDS
PUBLIC	?_Parent@?$_Tree_val@V?$_Tmap_traits@V?$basic_string@DU?$char_traits@D@std@@V?$allocator@D@2@@std@@IU?$less@V?$basic_string@DU?$char_traits@D@std@@V?$allocator@D@2@@std@@@2@V?$allocator@U?$pair@$$CBV?$basic_string@DU?$char_traits@D@std@@V?$allocator@D@2@@std@@I@std@@@2@$0A@@std@@@std@@SAAAPAU_Node@?$_Tree_nod@V?$_Tmap_traits@V?$basic_string@DU?$char_traits@D@std@@V?$allocator@D@2@@std@@IU?$less@V?$basic_string@DU?$char_traits@D@std@@V?$allocator@D@2@@std@@@2@V?$allocator@U?$pair@$$CBV?$basic_string@DU?$char_traits@D@std@@V?$allocator@D@2@@std@@I@std@@@2@$0A@@std@@@2@PAU342@@Z ; std::_Tree_val<std::_Tmap_traits<std::basic_string<char,std::char_traits<char>,std::allocator<char> >,unsigned int,std::less<std::basic_string<char,std::char_traits<char>,std::allocator<char> > >,std::allocator<std::pair<std::basic_string<char,std::char_traits<char>,std::allocator<char> > const ,unsigned int> >,0> >::_Parent
; Function compile flags: /Ogtp
;	COMDAT ?_Parent@?$_Tree_val@V?$_Tmap_traits@V?$basic_string@DU?$char_traits@D@std@@V?$allocator@D@2@@std@@IU?$less@V?$basic_string@DU?$char_traits@D@std@@V?$allocator@D@2@@std@@@2@V?$allocator@U?$pair@$$CBV?$basic_string@DU?$char_traits@D@std@@V?$allocator@D@2@@std@@I@std@@@2@$0A@@std@@@std@@SAAAPAU_Node@?$_Tree_nod@V?$_Tmap_traits@V?$basic_string@DU?$char_traits@D@std@@V?$allocator@D@2@@std@@IU?$less@V?$basic_string@DU?$char_traits@D@std@@V?$allocator@D@2@@std@@@2@V?$allocator@U?$pair@$$CBV?$basic_string@DU?$char_traits@D@std@@V?$allocator@D@2@@std@@I@std@@@2@$0A@@std@@@2@PAU342@@Z
_TEXT	SEGMENT
__Pnode$ = 8						; size = 4
?_Parent@?$_Tree_val@V?$_Tmap_traits@V?$basic_string@DU?$char_traits@D@std@@V?$allocator@D@2@@std@@IU?$less@V?$basic_string@DU?$char_traits@D@std@@V?$allocator@D@2@@std@@@2@V?$allocator@U?$pair@$$CBV?$basic_string@DU?$char_traits@D@std@@V?$allocator@D@2@@std@@I@std@@@2@$0A@@std@@@std@@SAAAPAU_Node@?$_Tree_nod@V?$_Tmap_traits@V?$basic_string@DU?$char_traits@D@std@@V?$allocator@D@2@@std@@IU?$less@V?$basic_string@DU?$char_traits@D@std@@V?$allocator@D@2@@std@@@2@V?$allocator@U?$pair@$$CBV?$basic_string@DU?$char_traits@D@std@@V?$allocator@D@2@@std@@I@std@@@2@$0A@@std@@@2@PAU342@@Z PROC ; std::_Tree_val<std::_Tmap_traits<std::basic_string<char,std::char_traits<char>,std::allocator<char> >,unsigned int,std::less<std::basic_string<char,std::char_traits<char>,std::allocator<char> > >,std::allocator<std::pair<std::basic_string<char,std::char_traits<char>,std::allocator<char> > const ,unsigned int> >,0> >::_Parent, COMDAT
; Line 626
	push	ebp
	mov	ebp, esp
; Line 627
	mov	eax, DWORD PTR __Pnode$[ebp]
	add	eax, 4
; Line 628
	pop	ebp
	ret	0
?_Parent@?$_Tree_val@V?$_Tmap_traits@V?$basic_string@DU?$char_traits@D@std@@V?$allocator@D@2@@std@@IU?$less@V?$basic_string@DU?$char_traits@D@std@@V?$allocator@D@2@@std@@@2@V?$allocator@U?$pair@$$CBV?$basic_string@DU?$char_traits@D@std@@V?$allocator@D@2@@std@@I@std@@@2@$0A@@std@@@std@@SAAAPAU_Node@?$_Tree_nod@V?$_Tmap_traits@V?$basic_string@DU?$char_traits@D@std@@V?$allocator@D@2@@std@@IU?$less@V?$basic_string@DU?$char_traits@D@std@@V?$allocator@D@2@@std@@@2@V?$allocator@U?$pair@$$CBV?$basic_string@DU?$char_traits@D@std@@V?$allocator@D@2@@std@@I@std@@@2@$0A@@std@@@2@PAU342@@Z ENDP ; std::_Tree_val<std::_Tmap_traits<std::basic_string<char,std::char_traits<char>,std::allocator<char> >,unsigned int,std::less<std::basic_string<char,std::char_traits<char>,std::allocator<char> > >,std::allocator<std::pair<std::basic_string<char,std::char_traits<char>,std::allocator<char> > const ,unsigned int> >,0> >::_Parent
_TEXT	ENDS
PUBLIC	?_Right@?$_Tree_val@V?$_Tmap_traits@V?$basic_string@DU?$char_traits@D@std@@V?$allocator@D@2@@std@@IU?$less@V?$basic_string@DU?$char_traits@D@std@@V?$allocator@D@2@@std@@@2@V?$allocator@U?$pair@$$CBV?$basic_string@DU?$char_traits@D@std@@V?$allocator@D@2@@std@@I@std@@@2@$0A@@std@@@std@@SAAAPAU_Node@?$_Tree_nod@V?$_Tmap_traits@V?$basic_string@DU?$char_traits@D@std@@V?$allocator@D@2@@std@@IU?$less@V?$basic_string@DU?$char_traits@D@std@@V?$allocator@D@2@@std@@@2@V?$allocator@U?$pair@$$CBV?$basic_string@DU?$char_traits@D@std@@V?$allocator@D@2@@std@@I@std@@@2@$0A@@std@@@2@PAU342@@Z ; std::_Tree_val<std::_Tmap_traits<std::basic_string<char,std::char_traits<char>,std::allocator<char> >,unsigned int,std::less<std::basic_string<char,std::char_traits<char>,std::allocator<char> > >,std::allocator<std::pair<std::basic_string<char,std::char_traits<char>,std::allocator<char> > const ,unsigned int> >,0> >::_Right
; Function compile flags: /Ogtp
;	COMDAT ?_Right@?$_Tree_val@V?$_Tmap_traits@V?$basic_string@DU?$char_traits@D@std@@V?$allocator@D@2@@std@@IU?$less@V?$basic_string@DU?$char_traits@D@std@@V?$allocator@D@2@@std@@@2@V?$allocator@U?$pair@$$CBV?$basic_string@DU?$char_traits@D@std@@V?$allocator@D@2@@std@@I@std@@@2@$0A@@std@@@std@@SAAAPAU_Node@?$_Tree_nod@V?$_Tmap_traits@V?$basic_string@DU?$char_traits@D@std@@V?$allocator@D@2@@std@@IU?$less@V?$basic_string@DU?$char_traits@D@std@@V?$allocator@D@2@@std@@@2@V?$allocator@U?$pair@$$CBV?$basic_string@DU?$char_traits@D@std@@V?$allocator@D@2@@std@@I@std@@@2@$0A@@std@@@2@PAU342@@Z
_TEXT	SEGMENT
__Pnode$ = 8						; size = 4
?_Right@?$_Tree_val@V?$_Tmap_traits@V?$basic_string@DU?$char_traits@D@std@@V?$allocator@D@2@@std@@IU?$less@V?$basic_string@DU?$char_traits@D@std@@V?$allocator@D@2@@std@@@2@V?$allocator@U?$pair@$$CBV?$basic_string@DU?$char_traits@D@std@@V?$allocator@D@2@@std@@I@std@@@2@$0A@@std@@@std@@SAAAPAU_Node@?$_Tree_nod@V?$_Tmap_traits@V?$basic_string@DU?$char_traits@D@std@@V?$allocator@D@2@@std@@IU?$less@V?$basic_string@DU?$char_traits@D@std@@V?$allocator@D@2@@std@@@2@V?$allocator@U?$pair@$$CBV?$basic_string@DU?$char_traits@D@std@@V?$allocator@D@2@@std@@I@std@@@2@$0A@@std@@@2@PAU342@@Z PROC ; std::_Tree_val<std::_Tmap_traits<std::basic_string<char,std::char_traits<char>,std::allocator<char> >,unsigned int,std::less<std::basic_string<char,std::char_traits<char>,std::allocator<char> > >,std::allocator<std::pair<std::basic_string<char,std::char_traits<char>,std::allocator<char> > const ,unsigned int> >,0> >::_Right, COMDAT
; Line 631
	push	ebp
	mov	ebp, esp
; Line 632
	mov	eax, DWORD PTR __Pnode$[ebp]
	add	eax, 8
; Line 633
	pop	ebp
	ret	0
?_Right@?$_Tree_val@V?$_Tmap_traits@V?$basic_string@DU?$char_traits@D@std@@V?$allocator@D@2@@std@@IU?$less@V?$basic_string@DU?$char_traits@D@std@@V?$allocator@D@2@@std@@@2@V?$allocator@U?$pair@$$CBV?$basic_string@DU?$char_traits@D@std@@V?$allocator@D@2@@std@@I@std@@@2@$0A@@std@@@std@@SAAAPAU_Node@?$_Tree_nod@V?$_Tmap_traits@V?$basic_string@DU?$char_traits@D@std@@V?$allocator@D@2@@std@@IU?$less@V?$basic_string@DU?$char_traits@D@std@@V?$allocator@D@2@@std@@@2@V?$allocator@U?$pair@$$CBV?$basic_string@DU?$char_traits@D@std@@V?$allocator@D@2@@std@@I@std@@@2@$0A@@std@@@2@PAU342@@Z ENDP ; std::_Tree_val<std::_Tmap_traits<std::basic_string<char,std::char_traits<char>,std::allocator<char> >,unsigned int,std::less<std::basic_string<char,std::char_traits<char>,std::allocator<char> > >,std::allocator<std::pair<std::basic_string<char,std::char_traits<char>,std::allocator<char> > const ,unsigned int> >,0> >::_Right
_TEXT	ENDS
PUBLIC	?_Myval@?$_Tree_val@V?$_Tmap_traits@V?$basic_string@DU?$char_traits@D@std@@V?$allocator@D@2@@std@@IU?$less@V?$basic_string@DU?$char_traits@D@std@@V?$allocator@D@2@@std@@@2@V?$allocator@U?$pair@$$CBV?$basic_string@DU?$char_traits@D@std@@V?$allocator@D@2@@std@@I@std@@@2@$0A@@std@@@std@@SAAAU?$pair@$$CBV?$basic_string@DU?$char_traits@D@std@@V?$allocator@D@2@@std@@I@2@PAU_Node@?$_Tree_nod@V?$_Tmap_traits@V?$basic_string@DU?$char_traits@D@std@@V?$allocator@D@2@@std@@IU?$less@V?$basic_string@DU?$char_traits@D@std@@V?$allocator@D@2@@std@@@2@V?$allocator@U?$pair@$$CBV?$basic_string@DU?$char_traits@D@std@@V?$allocator@D@2@@std@@I@std@@@2@$0A@@std@@@2@@Z ; std::_Tree_val<std::_Tmap_traits<std::basic_string<char,std::char_traits<char>,std::allocator<char> >,unsigned int,std::less<std::basic_string<char,std::char_traits<char>,std::allocator<char> > >,std::allocator<std::pair<std::basic_string<char,std::char_traits<char>,std::allocator<char> > const ,unsigned int> >,0> >::_Myval
; Function compile flags: /Ogtp
;	COMDAT ?_Myval@?$_Tree_val@V?$_Tmap_traits@V?$basic_string@DU?$char_traits@D@std@@V?$allocator@D@2@@std@@IU?$less@V?$basic_string@DU?$char_traits@D@std@@V?$allocator@D@2@@std@@@2@V?$allocator@U?$pair@$$CBV?$basic_string@DU?$char_traits@D@std@@V?$allocator@D@2@@std@@I@std@@@2@$0A@@std@@@std@@SAAAU?$pair@$$CBV?$basic_string@DU?$char_traits@D@std@@V?$allocator@D@2@@std@@I@2@PAU_Node@?$_Tree_nod@V?$_Tmap_traits@V?$basic_string@DU?$char_traits@D@std@@V?$allocator@D@2@@std@@IU?$less@V?$basic_string@DU?$char_traits@D@std@@V?$allocator@D@2@@std@@@2@V?$allocator@U?$pair@$$CBV?$basic_string@DU?$char_traits@D@std@@V?$allocator@D@2@@std@@I@std@@@2@$0A@@std@@@2@@Z
_TEXT	SEGMENT
__Pnode$ = 8						; size = 4
?_Myval@?$_Tree_val@V?$_Tmap_traits@V?$basic_string@DU?$char_traits@D@std@@V?$allocator@D@2@@std@@IU?$less@V?$basic_string@DU?$char_traits@D@std@@V?$allocator@D@2@@std@@@2@V?$allocator@U?$pair@$$CBV?$basic_string@DU?$char_traits@D@std@@V?$allocator@D@2@@std@@I@std@@@2@$0A@@std@@@std@@SAAAU?$pair@$$CBV?$basic_string@DU?$char_traits@D@std@@V?$allocator@D@2@@std@@I@2@PAU_Node@?$_Tree_nod@V?$_Tmap_traits@V?$basic_string@DU?$char_traits@D@std@@V?$allocator@D@2@@std@@IU?$less@V?$basic_string@DU?$char_traits@D@std@@V?$allocator@D@2@@std@@@2@V?$allocator@U?$pair@$$CBV?$basic_string@DU?$char_traits@D@std@@V?$allocator@D@2@@std@@I@std@@@2@$0A@@std@@@2@@Z PROC ; std::_Tree_val<std::_Tmap_traits<std::basic_string<char,std::char_traits<char>,std::allocator<char> >,unsigned int,std::less<std::basic_string<char,std::char_traits<char>,std::allocator<char> > >,std::allocator<std::pair<std::basic_string<char,std::char_traits<char>,std::allocator<char> > const ,unsigned int> >,0> >::_Myval, COMDAT
; Line 636
	push	ebp
	mov	ebp, esp
; Line 637
	mov	eax, DWORD PTR __Pnode$[ebp]
	add	eax, 12					; 0000000cH
; Line 638
	pop	ebp
	ret	0
?_Myval@?$_Tree_val@V?$_Tmap_traits@V?$basic_string@DU?$char_traits@D@std@@V?$allocator@D@2@@std@@IU?$less@V?$basic_string@DU?$char_traits@D@std@@V?$allocator@D@2@@std@@@2@V?$allocator@U?$pair@$$CBV?$basic_string@DU?$char_traits@D@std@@V?$allocator@D@2@@std@@I@std@@@2@$0A@@std@@@std@@SAAAU?$pair@$$CBV?$basic_string@DU?$char_traits@D@std@@V?$allocator@D@2@@std@@I@2@PAU_Node@?$_Tree_nod@V?$_Tmap_traits@V?$basic_string@DU?$char_traits@D@std@@V?$allocator@D@2@@std@@IU?$less@V?$basic_string@DU?$char_traits@D@std@@V?$allocator@D@2@@std@@@2@V?$allocator@U?$pair@$$CBV?$basic_string@DU?$char_traits@D@std@@V?$allocator@D@2@@std@@I@std@@@2@$0A@@std@@@2@@Z ENDP ; std::_Tree_val<std::_Tmap_traits<std::basic_string<char,std::char_traits<char>,std::allocator<char> >,unsigned int,std::less<std::basic_string<char,std::char_traits<char>,std::allocator<char> > >,std::allocator<std::pair<std::basic_string<char,std::char_traits<char>,std::allocator<char> > const ,unsigned int> >,0> >::_Myval
_TEXT	ENDS
PUBLIC	?_Max@?$_Tree_val@V?$_Tmap_traits@V?$basic_string@DU?$char_traits@D@std@@V?$allocator@D@2@@std@@IU?$less@V?$basic_string@DU?$char_traits@D@std@@V?$allocator@D@2@@std@@@2@V?$allocator@U?$pair@$$CBV?$basic_string@DU?$char_traits@D@std@@V?$allocator@D@2@@std@@I@std@@@2@$0A@@std@@@std@@SAPAU_Node@?$_Tree_nod@V?$_Tmap_traits@V?$basic_string@DU?$char_traits@D@std@@V?$allocator@D@2@@std@@IU?$less@V?$basic_string@DU?$char_traits@D@std@@V?$allocator@D@2@@std@@@2@V?$allocator@U?$pair@$$CBV?$basic_string@DU?$char_traits@D@std@@V?$allocator@D@2@@std@@I@std@@@2@$0A@@std@@@2@PAU342@@Z ; std::_Tree_val<std::_Tmap_traits<std::basic_string<char,std::char_traits<char>,std::allocator<char> >,unsigned int,std::less<std::basic_string<char,std::char_traits<char>,std::allocator<char> > >,std::allocator<std::pair<std::basic_string<char,std::char_traits<char>,std::allocator<char> > const ,unsigned int> >,0> >::_Max
; Function compile flags: /Ogtp
;	COMDAT ?_Max@?$_Tree_val@V?$_Tmap_traits@V?$basic_string@DU?$char_traits@D@std@@V?$allocator@D@2@@std@@IU?$less@V?$basic_string@DU?$char_traits@D@std@@V?$allocator@D@2@@std@@@2@V?$allocator@U?$pair@$$CBV?$basic_string@DU?$char_traits@D@std@@V?$allocator@D@2@@std@@I@std@@@2@$0A@@std@@@std@@SAPAU_Node@?$_Tree_nod@V?$_Tmap_traits@V?$basic_string@DU?$char_traits@D@std@@V?$allocator@D@2@@std@@IU?$less@V?$basic_string@DU?$char_traits@D@std@@V?$allocator@D@2@@std@@@2@V?$allocator@U?$pair@$$CBV?$basic_string@DU?$char_traits@D@std@@V?$allocator@D@2@@std@@I@std@@@2@$0A@@std@@@2@PAU342@@Z
_TEXT	SEGMENT
__Pnode$ = 8						; size = 4
?_Max@?$_Tree_val@V?$_Tmap_traits@V?$basic_string@DU?$char_traits@D@std@@V?$allocator@D@2@@std@@IU?$less@V?$basic_string@DU?$char_traits@D@std@@V?$allocator@D@2@@std@@@2@V?$allocator@U?$pair@$$CBV?$basic_string@DU?$char_traits@D@std@@V?$allocator@D@2@@std@@I@std@@@2@$0A@@std@@@std@@SAPAU_Node@?$_Tree_nod@V?$_Tmap_traits@V?$basic_string@DU?$char_traits@D@std@@V?$allocator@D@2@@std@@IU?$less@V?$basic_string@DU?$char_traits@D@std@@V?$allocator@D@2@@std@@@2@V?$allocator@U?$pair@$$CBV?$basic_string@DU?$char_traits@D@std@@V?$allocator@D@2@@std@@I@std@@@2@$0A@@std@@@2@PAU342@@Z PROC ; std::_Tree_val<std::_Tmap_traits<std::basic_string<char,std::char_traits<char>,std::allocator<char> >,unsigned int,std::less<std::basic_string<char,std::char_traits<char>,std::allocator<char> > >,std::allocator<std::pair<std::basic_string<char,std::char_traits<char>,std::allocator<char> > const ,unsigned int> >,0> >::_Max, COMDAT
; Line 641
	push	ebp
	mov	ebp, esp
; Line 642
	mov	eax, DWORD PTR __Pnode$[ebp]
	mov	ecx, DWORD PTR [eax+8]
	cmp	BYTE PTR [ecx+45], 0
	jne	SHORT $LN1@Max@3
	npad	1
$LL2@Max@3:
; Line 643
	mov	eax, ecx
	mov	ecx, DWORD PTR [eax+8]
	cmp	BYTE PTR [ecx+45], 0
	je	SHORT $LL2@Max@3
$LN1@Max@3:
; Line 645
	pop	ebp
	ret	0
?_Max@?$_Tree_val@V?$_Tmap_traits@V?$basic_string@DU?$char_traits@D@std@@V?$allocator@D@2@@std@@IU?$less@V?$basic_string@DU?$char_traits@D@std@@V?$allocator@D@2@@std@@@2@V?$allocator@U?$pair@$$CBV?$basic_string@DU?$char_traits@D@std@@V?$allocator@D@2@@std@@I@std@@@2@$0A@@std@@@std@@SAPAU_Node@?$_Tree_nod@V?$_Tmap_traits@V?$basic_string@DU?$char_traits@D@std@@V?$allocator@D@2@@std@@IU?$less@V?$basic_string@DU?$char_traits@D@std@@V?$allocator@D@2@@std@@@2@V?$allocator@U?$pair@$$CBV?$basic_string@DU?$char_traits@D@std@@V?$allocator@D@2@@std@@I@std@@@2@$0A@@std@@@2@PAU342@@Z ENDP ; std::_Tree_val<std::_Tmap_traits<std::basic_string<char,std::char_traits<char>,std::allocator<char> >,unsigned int,std::less<std::basic_string<char,std::char_traits<char>,std::allocator<char> > >,std::allocator<std::pair<std::basic_string<char,std::char_traits<char>,std::allocator<char> > const ,unsigned int> >,0> >::_Max
_TEXT	ENDS
PUBLIC	?_Min@?$_Tree_val@V?$_Tmap_traits@V?$basic_string@DU?$char_traits@D@std@@V?$allocator@D@2@@std@@IU?$less@V?$basic_string@DU?$char_traits@D@std@@V?$allocator@D@2@@std@@@2@V?$allocator@U?$pair@$$CBV?$basic_string@DU?$char_traits@D@std@@V?$allocator@D@2@@std@@I@std@@@2@$0A@@std@@@std@@SAPAU_Node@?$_Tree_nod@V?$_Tmap_traits@V?$basic_string@DU?$char_traits@D@std@@V?$allocator@D@2@@std@@IU?$less@V?$basic_string@DU?$char_traits@D@std@@V?$allocator@D@2@@std@@@2@V?$allocator@U?$pair@$$CBV?$basic_string@DU?$char_traits@D@std@@V?$allocator@D@2@@std@@I@std@@@2@$0A@@std@@@2@PAU342@@Z ; std::_Tree_val<std::_Tmap_traits<std::basic_string<char,std::char_traits<char>,std::allocator<char> >,unsigned int,std::less<std::basic_string<char,std::char_traits<char>,std::allocator<char> > >,std::allocator<std::pair<std::basic_string<char,std::char_traits<char>,std::allocator<char> > const ,unsigned int> >,0> >::_Min
; Function compile flags: /Ogtp
;	COMDAT ?_Min@?$_Tree_val@V?$_Tmap_traits@V?$basic_string@DU?$char_traits@D@std@@V?$allocator@D@2@@std@@IU?$less@V?$basic_string@DU?$char_traits@D@std@@V?$allocator@D@2@@std@@@2@V?$allocator@U?$pair@$$CBV?$basic_string@DU?$char_traits@D@std@@V?$allocator@D@2@@std@@I@std@@@2@$0A@@std@@@std@@SAPAU_Node@?$_Tree_nod@V?$_Tmap_traits@V?$basic_string@DU?$char_traits@D@std@@V?$allocator@D@2@@std@@IU?$less@V?$basic_string@DU?$char_traits@D@std@@V?$allocator@D@2@@std@@@2@V?$allocator@U?$pair@$$CBV?$basic_string@DU?$char_traits@D@std@@V?$allocator@D@2@@std@@I@std@@@2@$0A@@std@@@2@PAU342@@Z
_TEXT	SEGMENT
__Pnode$ = 8						; size = 4
?_Min@?$_Tree_val@V?$_Tmap_traits@V?$basic_string@DU?$char_traits@D@std@@V?$allocator@D@2@@std@@IU?$less@V?$basic_string@DU?$char_traits@D@std@@V?$allocator@D@2@@std@@@2@V?$allocator@U?$pair@$$CBV?$basic_string@DU?$char_traits@D@std@@V?$allocator@D@2@@std@@I@std@@@2@$0A@@std@@@std@@SAPAU_Node@?$_Tree_nod@V?$_Tmap_traits@V?$basic_string@DU?$char_traits@D@std@@V?$allocator@D@2@@std@@IU?$less@V?$basic_string@DU?$char_traits@D@std@@V?$allocator@D@2@@std@@@2@V?$allocator@U?$pair@$$CBV?$basic_string@DU?$char_traits@D@std@@V?$allocator@D@2@@std@@I@std@@@2@$0A@@std@@@2@PAU342@@Z PROC ; std::_Tree_val<std::_Tmap_traits<std::basic_string<char,std::char_traits<char>,std::allocator<char> >,unsigned int,std::less<std::basic_string<char,std::char_traits<char>,std::allocator<char> > >,std::allocator<std::pair<std::basic_string<char,std::char_traits<char>,std::allocator<char> > const ,unsigned int> >,0> >::_Min, COMDAT
; Line 648
	push	ebp
	mov	ebp, esp
; Line 649
	mov	eax, DWORD PTR __Pnode$[ebp]
	mov	ecx, DWORD PTR [eax]
	cmp	BYTE PTR [ecx+45], 0
	jne	SHORT $LN1@Min@3
	npad	2
$LL2@Min@3:
; Line 650
	mov	eax, ecx
	mov	ecx, DWORD PTR [eax]
	cmp	BYTE PTR [ecx+45], 0
	je	SHORT $LL2@Min@3
$LN1@Min@3:
; Line 652
	pop	ebp
	ret	0
?_Min@?$_Tree_val@V?$_Tmap_traits@V?$basic_string@DU?$char_traits@D@std@@V?$allocator@D@2@@std@@IU?$less@V?$basic_string@DU?$char_traits@D@std@@V?$allocator@D@2@@std@@@2@V?$allocator@U?$pair@$$CBV?$basic_string@DU?$char_traits@D@std@@V?$allocator@D@2@@std@@I@std@@@2@$0A@@std@@@std@@SAPAU_Node@?$_Tree_nod@V?$_Tmap_traits@V?$basic_string@DU?$char_traits@D@std@@V?$allocator@D@2@@std@@IU?$less@V?$basic_string@DU?$char_traits@D@std@@V?$allocator@D@2@@std@@@2@V?$allocator@U?$pair@$$CBV?$basic_string@DU?$char_traits@D@std@@V?$allocator@D@2@@std@@I@std@@@2@$0A@@std@@@2@PAU342@@Z ENDP ; std::_Tree_val<std::_Tmap_traits<std::basic_string<char,std::char_traits<char>,std::allocator<char> >,unsigned int,std::less<std::basic_string<char,std::char_traits<char>,std::allocator<char> > >,std::allocator<std::pair<std::basic_string<char,std::char_traits<char>,std::allocator<char> > const ,unsigned int> >,0> >::_Min
_TEXT	ENDS
PUBLIC	?deallocate@?$allocator@U_Node@?$_Tree_nod@V?$_Tmap_traits@V?$basic_string@DU?$char_traits@D@std@@V?$allocator@D@2@@std@@IU?$less@V?$basic_string@DU?$char_traits@D@std@@V?$allocator@D@2@@std@@@2@V?$allocator@U?$pair@$$CBV?$basic_string@DU?$char_traits@D@std@@V?$allocator@D@2@@std@@I@std@@@2@$0A@@std@@@std@@@std@@QAEXPAU_Node@?$_Tree_nod@V?$_Tmap_traits@V?$basic_string@DU?$char_traits@D@std@@V?$allocator@D@2@@std@@IU?$less@V?$basic_string@DU?$char_traits@D@std@@V?$allocator@D@2@@std@@@2@V?$allocator@U?$pair@$$CBV?$basic_string@DU?$char_traits@D@std@@V?$allocator@D@2@@std@@I@std@@@2@$0A@@std@@@2@I@Z ; std::allocator<std::_Tree_nod<std::_Tmap_traits<std::basic_string<char,std::char_traits<char>,std::allocator<char> >,unsigned int,std::less<std::basic_string<char,std::char_traits<char>,std::allocator<char> > >,std::allocator<std::pair<std::basic_string<char,std::char_traits<char>,std::allocator<char> > const ,unsigned int> >,0> >::_Node>::deallocate
; Function compile flags: /Ogtp
;	COMDAT ?deallocate@?$allocator@U_Node@?$_Tree_nod@V?$_Tmap_traits@V?$basic_string@DU?$char_traits@D@std@@V?$allocator@D@2@@std@@IU?$less@V?$basic_string@DU?$char_traits@D@std@@V?$allocator@D@2@@std@@@2@V?$allocator@U?$pair@$$CBV?$basic_string@DU?$char_traits@D@std@@V?$allocator@D@2@@std@@I@std@@@2@$0A@@std@@@std@@@std@@QAEXPAU_Node@?$_Tree_nod@V?$_Tmap_traits@V?$basic_string@DU?$char_traits@D@std@@V?$allocator@D@2@@std@@IU?$less@V?$basic_string@DU?$char_traits@D@std@@V?$allocator@D@2@@std@@@2@V?$allocator@U?$pair@$$CBV?$basic_string@DU?$char_traits@D@std@@V?$allocator@D@2@@std@@I@std@@@2@$0A@@std@@@2@I@Z
_TEXT	SEGMENT
__Ptr$ = 8						; size = 4
___formal$ = 12						; size = 4
?deallocate@?$allocator@U_Node@?$_Tree_nod@V?$_Tmap_traits@V?$basic_string@DU?$char_traits@D@std@@V?$allocator@D@2@@std@@IU?$less@V?$basic_string@DU?$char_traits@D@std@@V?$allocator@D@2@@std@@@2@V?$allocator@U?$pair@$$CBV?$basic_string@DU?$char_traits@D@std@@V?$allocator@D@2@@std@@I@std@@@2@$0A@@std@@@std@@@std@@QAEXPAU_Node@?$_Tree_nod@V?$_Tmap_traits@V?$basic_string@DU?$char_traits@D@std@@V?$allocator@D@2@@std@@IU?$less@V?$basic_string@DU?$char_traits@D@std@@V?$allocator@D@2@@std@@@2@V?$allocator@U?$pair@$$CBV?$basic_string@DU?$char_traits@D@std@@V?$allocator@D@2@@std@@I@std@@@2@$0A@@std@@@2@I@Z PROC ; std::allocator<std::_Tree_nod<std::_Tmap_traits<std::basic_string<char,std::char_traits<char>,std::allocator<char> >,unsigned int,std::less<std::basic_string<char,std::char_traits<char>,std::allocator<char> > >,std::allocator<std::pair<std::basic_string<char,std::char_traits<char>,std::allocator<char> > const ,unsigned int> >,0> >::_Node>::deallocate, COMDAT
; _this$ = ecx
; File c:\program files (x86)\microsoft visual studio 10.0\vc\include\xmemory
; Line 181
	push	ebp
	mov	ebp, esp
; Line 182
	mov	eax, DWORD PTR __Ptr$[ebp]
	push	eax
	call	??3@YAXPAX@Z				; operator delete
	add	esp, 4
; Line 183
	pop	ebp
	ret	8
?deallocate@?$allocator@U_Node@?$_Tree_nod@V?$_Tmap_traits@V?$basic_string@DU?$char_traits@D@std@@V?$allocator@D@2@@std@@IU?$less@V?$basic_string@DU?$char_traits@D@std@@V?$allocator@D@2@@std@@@2@V?$allocator@U?$pair@$$CBV?$basic_string@DU?$char_traits@D@std@@V?$allocator@D@2@@std@@I@std@@@2@$0A@@std@@@std@@@std@@QAEXPAU_Node@?$_Tree_nod@V?$_Tmap_traits@V?$basic_string@DU?$char_traits@D@std@@V?$allocator@D@2@@std@@IU?$less@V?$basic_string@DU?$char_traits@D@std@@V?$allocator@D@2@@std@@@2@V?$allocator@U?$pair@$$CBV?$basic_string@DU?$char_traits@D@std@@V?$allocator@D@2@@std@@I@std@@@2@$0A@@std@@@2@I@Z ENDP ; std::allocator<std::_Tree_nod<std::_Tmap_traits<std::basic_string<char,std::char_traits<char>,std::allocator<char> >,unsigned int,std::less<std::basic_string<char,std::char_traits<char>,std::allocator<char> > >,std::allocator<std::pair<std::basic_string<char,std::char_traits<char>,std::allocator<char> > const ,unsigned int> >,0> >::_Node>::deallocate
_TEXT	ENDS
PUBLIC	?_Color@?$_Tree_val@V?$_Tmap_traits@IPAVManagedItem@@U?$less@I@std@@V?$allocator@U?$pair@$$CBIPAVManagedItem@@@std@@@3@$0A@@std@@@std@@SAAADPAU_Node@?$_Tree_nod@V?$_Tmap_traits@IPAVManagedItem@@U?$less@I@std@@V?$allocator@U?$pair@$$CBIPAVManagedItem@@@std@@@3@$0A@@std@@@2@@Z ; std::_Tree_val<std::_Tmap_traits<unsigned int,ManagedItem *,std::less<unsigned int>,std::allocator<std::pair<unsigned int const ,ManagedItem *> >,0> >::_Color
; Function compile flags: /Ogtp
;	COMDAT ?_Color@?$_Tree_val@V?$_Tmap_traits@IPAVManagedItem@@U?$less@I@std@@V?$allocator@U?$pair@$$CBIPAVManagedItem@@@std@@@3@$0A@@std@@@std@@SAAADPAU_Node@?$_Tree_nod@V?$_Tmap_traits@IPAVManagedItem@@U?$less@I@std@@V?$allocator@U?$pair@$$CBIPAVManagedItem@@@std@@@3@$0A@@std@@@2@@Z
_TEXT	SEGMENT
__Pnode$ = 8						; size = 4
?_Color@?$_Tree_val@V?$_Tmap_traits@IPAVManagedItem@@U?$less@I@std@@V?$allocator@U?$pair@$$CBIPAVManagedItem@@@std@@@3@$0A@@std@@@std@@SAAADPAU_Node@?$_Tree_nod@V?$_Tmap_traits@IPAVManagedItem@@U?$less@I@std@@V?$allocator@U?$pair@$$CBIPAVManagedItem@@@std@@@3@$0A@@std@@@2@@Z PROC ; std::_Tree_val<std::_Tmap_traits<unsigned int,ManagedItem *,std::less<unsigned int>,std::allocator<std::pair<unsigned int const ,ManagedItem *> >,0> >::_Color, COMDAT
; File c:\program files (x86)\microsoft visual studio 10.0\vc\include\xtree
; Line 606
	push	ebp
	mov	ebp, esp
; Line 607
	mov	eax, DWORD PTR __Pnode$[ebp]
	add	eax, 20					; 00000014H
; Line 608
	pop	ebp
	ret	0
?_Color@?$_Tree_val@V?$_Tmap_traits@IPAVManagedItem@@U?$less@I@std@@V?$allocator@U?$pair@$$CBIPAVManagedItem@@@std@@@3@$0A@@std@@@std@@SAAADPAU_Node@?$_Tree_nod@V?$_Tmap_traits@IPAVManagedItem@@U?$less@I@std@@V?$allocator@U?$pair@$$CBIPAVManagedItem@@@std@@@3@$0A@@std@@@2@@Z ENDP ; std::_Tree_val<std::_Tmap_traits<unsigned int,ManagedItem *,std::less<unsigned int>,std::allocator<std::pair<unsigned int const ,ManagedItem *> >,0> >::_Color
_TEXT	ENDS
PUBLIC	?_Isnil@?$_Tree_val@V?$_Tmap_traits@IPAVManagedItem@@U?$less@I@std@@V?$allocator@U?$pair@$$CBIPAVManagedItem@@@std@@@3@$0A@@std@@@std@@SAAADPAU_Node@?$_Tree_nod@V?$_Tmap_traits@IPAVManagedItem@@U?$less@I@std@@V?$allocator@U?$pair@$$CBIPAVManagedItem@@@std@@@3@$0A@@std@@@2@@Z ; std::_Tree_val<std::_Tmap_traits<unsigned int,ManagedItem *,std::less<unsigned int>,std::allocator<std::pair<unsigned int const ,ManagedItem *> >,0> >::_Isnil
; Function compile flags: /Ogtp
;	COMDAT ?_Isnil@?$_Tree_val@V?$_Tmap_traits@IPAVManagedItem@@U?$less@I@std@@V?$allocator@U?$pair@$$CBIPAVManagedItem@@@std@@@3@$0A@@std@@@std@@SAAADPAU_Node@?$_Tree_nod@V?$_Tmap_traits@IPAVManagedItem@@U?$less@I@std@@V?$allocator@U?$pair@$$CBIPAVManagedItem@@@std@@@3@$0A@@std@@@2@@Z
_TEXT	SEGMENT
__Pnode$ = 8						; size = 4
?_Isnil@?$_Tree_val@V?$_Tmap_traits@IPAVManagedItem@@U?$less@I@std@@V?$allocator@U?$pair@$$CBIPAVManagedItem@@@std@@@3@$0A@@std@@@std@@SAAADPAU_Node@?$_Tree_nod@V?$_Tmap_traits@IPAVManagedItem@@U?$less@I@std@@V?$allocator@U?$pair@$$CBIPAVManagedItem@@@std@@@3@$0A@@std@@@2@@Z PROC ; std::_Tree_val<std::_Tmap_traits<unsigned int,ManagedItem *,std::less<unsigned int>,std::allocator<std::pair<unsigned int const ,ManagedItem *> >,0> >::_Isnil, COMDAT
; Line 611
	push	ebp
	mov	ebp, esp
; Line 612
	mov	eax, DWORD PTR __Pnode$[ebp]
	add	eax, 21					; 00000015H
; Line 613
	pop	ebp
	ret	0
?_Isnil@?$_Tree_val@V?$_Tmap_traits@IPAVManagedItem@@U?$less@I@std@@V?$allocator@U?$pair@$$CBIPAVManagedItem@@@std@@@3@$0A@@std@@@std@@SAAADPAU_Node@?$_Tree_nod@V?$_Tmap_traits@IPAVManagedItem@@U?$less@I@std@@V?$allocator@U?$pair@$$CBIPAVManagedItem@@@std@@@3@$0A@@std@@@2@@Z ENDP ; std::_Tree_val<std::_Tmap_traits<unsigned int,ManagedItem *,std::less<unsigned int>,std::allocator<std::pair<unsigned int const ,ManagedItem *> >,0> >::_Isnil
_TEXT	ENDS
PUBLIC	?_Left@?$_Tree_val@V?$_Tmap_traits@IPAVManagedItem@@U?$less@I@std@@V?$allocator@U?$pair@$$CBIPAVManagedItem@@@std@@@3@$0A@@std@@@std@@SAAAPAU_Node@?$_Tree_nod@V?$_Tmap_traits@IPAVManagedItem@@U?$less@I@std@@V?$allocator@U?$pair@$$CBIPAVManagedItem@@@std@@@3@$0A@@std@@@2@PAU342@@Z ; std::_Tree_val<std::_Tmap_traits<unsigned int,ManagedItem *,std::less<unsigned int>,std::allocator<std::pair<unsigned int const ,ManagedItem *> >,0> >::_Left
; Function compile flags: /Ogtp
;	COMDAT ?_Left@?$_Tree_val@V?$_Tmap_traits@IPAVManagedItem@@U?$less@I@std@@V?$allocator@U?$pair@$$CBIPAVManagedItem@@@std@@@3@$0A@@std@@@std@@SAAAPAU_Node@?$_Tree_nod@V?$_Tmap_traits@IPAVManagedItem@@U?$less@I@std@@V?$allocator@U?$pair@$$CBIPAVManagedItem@@@std@@@3@$0A@@std@@@2@PAU342@@Z
_TEXT	SEGMENT
__Pnode$ = 8						; size = 4
?_Left@?$_Tree_val@V?$_Tmap_traits@IPAVManagedItem@@U?$less@I@std@@V?$allocator@U?$pair@$$CBIPAVManagedItem@@@std@@@3@$0A@@std@@@std@@SAAAPAU_Node@?$_Tree_nod@V?$_Tmap_traits@IPAVManagedItem@@U?$less@I@std@@V?$allocator@U?$pair@$$CBIPAVManagedItem@@@std@@@3@$0A@@std@@@2@PAU342@@Z PROC ; std::_Tree_val<std::_Tmap_traits<unsigned int,ManagedItem *,std::less<unsigned int>,std::allocator<std::pair<unsigned int const ,ManagedItem *> >,0> >::_Left, COMDAT
; Line 621
	push	ebp
	mov	ebp, esp
; Line 622
	mov	eax, DWORD PTR __Pnode$[ebp]
; Line 623
	pop	ebp
	ret	0
?_Left@?$_Tree_val@V?$_Tmap_traits@IPAVManagedItem@@U?$less@I@std@@V?$allocator@U?$pair@$$CBIPAVManagedItem@@@std@@@3@$0A@@std@@@std@@SAAAPAU_Node@?$_Tree_nod@V?$_Tmap_traits@IPAVManagedItem@@U?$less@I@std@@V?$allocator@U?$pair@$$CBIPAVManagedItem@@@std@@@3@$0A@@std@@@2@PAU342@@Z ENDP ; std::_Tree_val<std::_Tmap_traits<unsigned int,ManagedItem *,std::less<unsigned int>,std::allocator<std::pair<unsigned int const ,ManagedItem *> >,0> >::_Left
_TEXT	ENDS
PUBLIC	?_Parent@?$_Tree_val@V?$_Tmap_traits@IPAVManagedItem@@U?$less@I@std@@V?$allocator@U?$pair@$$CBIPAVManagedItem@@@std@@@3@$0A@@std@@@std@@SAAAPAU_Node@?$_Tree_nod@V?$_Tmap_traits@IPAVManagedItem@@U?$less@I@std@@V?$allocator@U?$pair@$$CBIPAVManagedItem@@@std@@@3@$0A@@std@@@2@PAU342@@Z ; std::_Tree_val<std::_Tmap_traits<unsigned int,ManagedItem *,std::less<unsigned int>,std::allocator<std::pair<unsigned int const ,ManagedItem *> >,0> >::_Parent
; Function compile flags: /Ogtp
;	COMDAT ?_Parent@?$_Tree_val@V?$_Tmap_traits@IPAVManagedItem@@U?$less@I@std@@V?$allocator@U?$pair@$$CBIPAVManagedItem@@@std@@@3@$0A@@std@@@std@@SAAAPAU_Node@?$_Tree_nod@V?$_Tmap_traits@IPAVManagedItem@@U?$less@I@std@@V?$allocator@U?$pair@$$CBIPAVManagedItem@@@std@@@3@$0A@@std@@@2@PAU342@@Z
_TEXT	SEGMENT
__Pnode$ = 8						; size = 4
?_Parent@?$_Tree_val@V?$_Tmap_traits@IPAVManagedItem@@U?$less@I@std@@V?$allocator@U?$pair@$$CBIPAVManagedItem@@@std@@@3@$0A@@std@@@std@@SAAAPAU_Node@?$_Tree_nod@V?$_Tmap_traits@IPAVManagedItem@@U?$less@I@std@@V?$allocator@U?$pair@$$CBIPAVManagedItem@@@std@@@3@$0A@@std@@@2@PAU342@@Z PROC ; std::_Tree_val<std::_Tmap_traits<unsigned int,ManagedItem *,std::less<unsigned int>,std::allocator<std::pair<unsigned int const ,ManagedItem *> >,0> >::_Parent, COMDAT
; Line 626
	push	ebp
	mov	ebp, esp
; Line 627
	mov	eax, DWORD PTR __Pnode$[ebp]
	add	eax, 4
; Line 628
	pop	ebp
	ret	0
?_Parent@?$_Tree_val@V?$_Tmap_traits@IPAVManagedItem@@U?$less@I@std@@V?$allocator@U?$pair@$$CBIPAVManagedItem@@@std@@@3@$0A@@std@@@std@@SAAAPAU_Node@?$_Tree_nod@V?$_Tmap_traits@IPAVManagedItem@@U?$less@I@std@@V?$allocator@U?$pair@$$CBIPAVManagedItem@@@std@@@3@$0A@@std@@@2@PAU342@@Z ENDP ; std::_Tree_val<std::_Tmap_traits<unsigned int,ManagedItem *,std::less<unsigned int>,std::allocator<std::pair<unsigned int const ,ManagedItem *> >,0> >::_Parent
_TEXT	ENDS
PUBLIC	?_Right@?$_Tree_val@V?$_Tmap_traits@IPAVManagedItem@@U?$less@I@std@@V?$allocator@U?$pair@$$CBIPAVManagedItem@@@std@@@3@$0A@@std@@@std@@SAAAPAU_Node@?$_Tree_nod@V?$_Tmap_traits@IPAVManagedItem@@U?$less@I@std@@V?$allocator@U?$pair@$$CBIPAVManagedItem@@@std@@@3@$0A@@std@@@2@PAU342@@Z ; std::_Tree_val<std::_Tmap_traits<unsigned int,ManagedItem *,std::less<unsigned int>,std::allocator<std::pair<unsigned int const ,ManagedItem *> >,0> >::_Right
; Function compile flags: /Ogtp
;	COMDAT ?_Right@?$_Tree_val@V?$_Tmap_traits@IPAVManagedItem@@U?$less@I@std@@V?$allocator@U?$pair@$$CBIPAVManagedItem@@@std@@@3@$0A@@std@@@std@@SAAAPAU_Node@?$_Tree_nod@V?$_Tmap_traits@IPAVManagedItem@@U?$less@I@std@@V?$allocator@U?$pair@$$CBIPAVManagedItem@@@std@@@3@$0A@@std@@@2@PAU342@@Z
_TEXT	SEGMENT
__Pnode$ = 8						; size = 4
?_Right@?$_Tree_val@V?$_Tmap_traits@IPAVManagedItem@@U?$less@I@std@@V?$allocator@U?$pair@$$CBIPAVManagedItem@@@std@@@3@$0A@@std@@@std@@SAAAPAU_Node@?$_Tree_nod@V?$_Tmap_traits@IPAVManagedItem@@U?$less@I@std@@V?$allocator@U?$pair@$$CBIPAVManagedItem@@@std@@@3@$0A@@std@@@2@PAU342@@Z PROC ; std::_Tree_val<std::_Tmap_traits<unsigned int,ManagedItem *,std::less<unsigned int>,std::allocator<std::pair<unsigned int const ,ManagedItem *> >,0> >::_Right, COMDAT
; Line 631
	push	ebp
	mov	ebp, esp
; Line 632
	mov	eax, DWORD PTR __Pnode$[ebp]
	add	eax, 8
; Line 633
	pop	ebp
	ret	0
?_Right@?$_Tree_val@V?$_Tmap_traits@IPAVManagedItem@@U?$less@I@std@@V?$allocator@U?$pair@$$CBIPAVManagedItem@@@std@@@3@$0A@@std@@@std@@SAAAPAU_Node@?$_Tree_nod@V?$_Tmap_traits@IPAVManagedItem@@U?$less@I@std@@V?$allocator@U?$pair@$$CBIPAVManagedItem@@@std@@@3@$0A@@std@@@2@PAU342@@Z ENDP ; std::_Tree_val<std::_Tmap_traits<unsigned int,ManagedItem *,std::less<unsigned int>,std::allocator<std::pair<unsigned int const ,ManagedItem *> >,0> >::_Right
_TEXT	ENDS
PUBLIC	?_Myval@?$_Tree_val@V?$_Tmap_traits@IPAVManagedItem@@U?$less@I@std@@V?$allocator@U?$pair@$$CBIPAVManagedItem@@@std@@@3@$0A@@std@@@std@@SAAAU?$pair@$$CBIPAVManagedItem@@@2@PAU_Node@?$_Tree_nod@V?$_Tmap_traits@IPAVManagedItem@@U?$less@I@std@@V?$allocator@U?$pair@$$CBIPAVManagedItem@@@std@@@3@$0A@@std@@@2@@Z ; std::_Tree_val<std::_Tmap_traits<unsigned int,ManagedItem *,std::less<unsigned int>,std::allocator<std::pair<unsigned int const ,ManagedItem *> >,0> >::_Myval
; Function compile flags: /Ogtp
;	COMDAT ?_Myval@?$_Tree_val@V?$_Tmap_traits@IPAVManagedItem@@U?$less@I@std@@V?$allocator@U?$pair@$$CBIPAVManagedItem@@@std@@@3@$0A@@std@@@std@@SAAAU?$pair@$$CBIPAVManagedItem@@@2@PAU_Node@?$_Tree_nod@V?$_Tmap_traits@IPAVManagedItem@@U?$less@I@std@@V?$allocator@U?$pair@$$CBIPAVManagedItem@@@std@@@3@$0A@@std@@@2@@Z
_TEXT	SEGMENT
__Pnode$ = 8						; size = 4
?_Myval@?$_Tree_val@V?$_Tmap_traits@IPAVManagedItem@@U?$less@I@std@@V?$allocator@U?$pair@$$CBIPAVManagedItem@@@std@@@3@$0A@@std@@@std@@SAAAU?$pair@$$CBIPAVManagedItem@@@2@PAU_Node@?$_Tree_nod@V?$_Tmap_traits@IPAVManagedItem@@U?$less@I@std@@V?$allocator@U?$pair@$$CBIPAVManagedItem@@@std@@@3@$0A@@std@@@2@@Z PROC ; std::_Tree_val<std::_Tmap_traits<unsigned int,ManagedItem *,std::less<unsigned int>,std::allocator<std::pair<unsigned int const ,ManagedItem *> >,0> >::_Myval, COMDAT
; Line 636
	push	ebp
	mov	ebp, esp
; Line 637
	mov	eax, DWORD PTR __Pnode$[ebp]
	add	eax, 12					; 0000000cH
; Line 638
	pop	ebp
	ret	0
?_Myval@?$_Tree_val@V?$_Tmap_traits@IPAVManagedItem@@U?$less@I@std@@V?$allocator@U?$pair@$$CBIPAVManagedItem@@@std@@@3@$0A@@std@@@std@@SAAAU?$pair@$$CBIPAVManagedItem@@@2@PAU_Node@?$_Tree_nod@V?$_Tmap_traits@IPAVManagedItem@@U?$less@I@std@@V?$allocator@U?$pair@$$CBIPAVManagedItem@@@std@@@3@$0A@@std@@@2@@Z ENDP ; std::_Tree_val<std::_Tmap_traits<unsigned int,ManagedItem *,std::less<unsigned int>,std::allocator<std::pair<unsigned int const ,ManagedItem *> >,0> >::_Myval
_TEXT	ENDS
PUBLIC	?_Max@?$_Tree_val@V?$_Tmap_traits@IPAVManagedItem@@U?$less@I@std@@V?$allocator@U?$pair@$$CBIPAVManagedItem@@@std@@@3@$0A@@std@@@std@@SAPAU_Node@?$_Tree_nod@V?$_Tmap_traits@IPAVManagedItem@@U?$less@I@std@@V?$allocator@U?$pair@$$CBIPAVManagedItem@@@std@@@3@$0A@@std@@@2@PAU342@@Z ; std::_Tree_val<std::_Tmap_traits<unsigned int,ManagedItem *,std::less<unsigned int>,std::allocator<std::pair<unsigned int const ,ManagedItem *> >,0> >::_Max
; Function compile flags: /Ogtp
;	COMDAT ?_Max@?$_Tree_val@V?$_Tmap_traits@IPAVManagedItem@@U?$less@I@std@@V?$allocator@U?$pair@$$CBIPAVManagedItem@@@std@@@3@$0A@@std@@@std@@SAPAU_Node@?$_Tree_nod@V?$_Tmap_traits@IPAVManagedItem@@U?$less@I@std@@V?$allocator@U?$pair@$$CBIPAVManagedItem@@@std@@@3@$0A@@std@@@2@PAU342@@Z
_TEXT	SEGMENT
__Pnode$ = 8						; size = 4
?_Max@?$_Tree_val@V?$_Tmap_traits@IPAVManagedItem@@U?$less@I@std@@V?$allocator@U?$pair@$$CBIPAVManagedItem@@@std@@@3@$0A@@std@@@std@@SAPAU_Node@?$_Tree_nod@V?$_Tmap_traits@IPAVManagedItem@@U?$less@I@std@@V?$allocator@U?$pair@$$CBIPAVManagedItem@@@std@@@3@$0A@@std@@@2@PAU342@@Z PROC ; std::_Tree_val<std::_Tmap_traits<unsigned int,ManagedItem *,std::less<unsigned int>,std::allocator<std::pair<unsigned int const ,ManagedItem *> >,0> >::_Max, COMDAT
; Line 641
	push	ebp
	mov	ebp, esp
; Line 642
	mov	eax, DWORD PTR __Pnode$[ebp]
	mov	ecx, DWORD PTR [eax+8]
	cmp	BYTE PTR [ecx+21], 0
	jne	SHORT $LN1@Max@4
	npad	1
$LL2@Max@4:
; Line 643
	mov	eax, ecx
	mov	ecx, DWORD PTR [eax+8]
	cmp	BYTE PTR [ecx+21], 0
	je	SHORT $LL2@Max@4
$LN1@Max@4:
; Line 645
	pop	ebp
	ret	0
?_Max@?$_Tree_val@V?$_Tmap_traits@IPAVManagedItem@@U?$less@I@std@@V?$allocator@U?$pair@$$CBIPAVManagedItem@@@std@@@3@$0A@@std@@@std@@SAPAU_Node@?$_Tree_nod@V?$_Tmap_traits@IPAVManagedItem@@U?$less@I@std@@V?$allocator@U?$pair@$$CBIPAVManagedItem@@@std@@@3@$0A@@std@@@2@PAU342@@Z ENDP ; std::_Tree_val<std::_Tmap_traits<unsigned int,ManagedItem *,std::less<unsigned int>,std::allocator<std::pair<unsigned int const ,ManagedItem *> >,0> >::_Max
_TEXT	ENDS
PUBLIC	?_Min@?$_Tree_val@V?$_Tmap_traits@IPAVManagedItem@@U?$less@I@std@@V?$allocator@U?$pair@$$CBIPAVManagedItem@@@std@@@3@$0A@@std@@@std@@SAPAU_Node@?$_Tree_nod@V?$_Tmap_traits@IPAVManagedItem@@U?$less@I@std@@V?$allocator@U?$pair@$$CBIPAVManagedItem@@@std@@@3@$0A@@std@@@2@PAU342@@Z ; std::_Tree_val<std::_Tmap_traits<unsigned int,ManagedItem *,std::less<unsigned int>,std::allocator<std::pair<unsigned int const ,ManagedItem *> >,0> >::_Min
; Function compile flags: /Ogtp
;	COMDAT ?_Min@?$_Tree_val@V?$_Tmap_traits@IPAVManagedItem@@U?$less@I@std@@V?$allocator@U?$pair@$$CBIPAVManagedItem@@@std@@@3@$0A@@std@@@std@@SAPAU_Node@?$_Tree_nod@V?$_Tmap_traits@IPAVManagedItem@@U?$less@I@std@@V?$allocator@U?$pair@$$CBIPAVManagedItem@@@std@@@3@$0A@@std@@@2@PAU342@@Z
_TEXT	SEGMENT
__Pnode$ = 8						; size = 4
?_Min@?$_Tree_val@V?$_Tmap_traits@IPAVManagedItem@@U?$less@I@std@@V?$allocator@U?$pair@$$CBIPAVManagedItem@@@std@@@3@$0A@@std@@@std@@SAPAU_Node@?$_Tree_nod@V?$_Tmap_traits@IPAVManagedItem@@U?$less@I@std@@V?$allocator@U?$pair@$$CBIPAVManagedItem@@@std@@@3@$0A@@std@@@2@PAU342@@Z PROC ; std::_Tree_val<std::_Tmap_traits<unsigned int,ManagedItem *,std::less<unsigned int>,std::allocator<std::pair<unsigned int const ,ManagedItem *> >,0> >::_Min, COMDAT
; Line 648
	push	ebp
	mov	ebp, esp
; Line 649
	mov	eax, DWORD PTR __Pnode$[ebp]
	mov	ecx, DWORD PTR [eax]
	cmp	BYTE PTR [ecx+21], 0
	jne	SHORT $LN1@Min@4
	npad	2
$LL2@Min@4:
; Line 650
	mov	eax, ecx
	mov	ecx, DWORD PTR [eax]
	cmp	BYTE PTR [ecx+21], 0
	je	SHORT $LL2@Min@4
$LN1@Min@4:
; Line 652
	pop	ebp
	ret	0
?_Min@?$_Tree_val@V?$_Tmap_traits@IPAVManagedItem@@U?$less@I@std@@V?$allocator@U?$pair@$$CBIPAVManagedItem@@@std@@@3@$0A@@std@@@std@@SAPAU_Node@?$_Tree_nod@V?$_Tmap_traits@IPAVManagedItem@@U?$less@I@std@@V?$allocator@U?$pair@$$CBIPAVManagedItem@@@std@@@3@$0A@@std@@@2@PAU342@@Z ENDP ; std::_Tree_val<std::_Tmap_traits<unsigned int,ManagedItem *,std::less<unsigned int>,std::allocator<std::pair<unsigned int const ,ManagedItem *> >,0> >::_Min
_TEXT	ENDS
PUBLIC	??R?$less@I@std@@QBE_NABI0@Z			; std::less<unsigned int>::operator()
; Function compile flags: /Ogtp
;	COMDAT ??R?$less@I@std@@QBE_NABI0@Z
_TEXT	SEGMENT
__Left$ = 8						; size = 4
__Right$ = 12						; size = 4
??R?$less@I@std@@QBE_NABI0@Z PROC			; std::less<unsigned int>::operator(), COMDAT
; _this$ = ecx
; File c:\program files (x86)\microsoft visual studio 10.0\vc\include\xfunctional
; Line 124
	push	ebp
	mov	ebp, esp
; Line 125
	mov	eax, DWORD PTR __Left$[ebp]
	mov	ecx, DWORD PTR [eax]
	mov	edx, DWORD PTR __Right$[ebp]
	cmp	ecx, DWORD PTR [edx]
	sbb	eax, eax
	neg	eax
; Line 126
	pop	ebp
	ret	8
??R?$less@I@std@@QBE_NABI0@Z ENDP			; std::less<unsigned int>::operator()
_TEXT	ENDS
PUBLIC	?deallocate@?$allocator@U_Node@?$_Tree_nod@V?$_Tmap_traits@IPAVManagedItem@@U?$less@I@std@@V?$allocator@U?$pair@$$CBIPAVManagedItem@@@std@@@3@$0A@@std@@@std@@@std@@QAEXPAU_Node@?$_Tree_nod@V?$_Tmap_traits@IPAVManagedItem@@U?$less@I@std@@V?$allocator@U?$pair@$$CBIPAVManagedItem@@@std@@@3@$0A@@std@@@2@I@Z ; std::allocator<std::_Tree_nod<std::_Tmap_traits<unsigned int,ManagedItem *,std::less<unsigned int>,std::allocator<std::pair<unsigned int const ,ManagedItem *> >,0> >::_Node>::deallocate
; Function compile flags: /Ogtp
;	COMDAT ?deallocate@?$allocator@U_Node@?$_Tree_nod@V?$_Tmap_traits@IPAVManagedItem@@U?$less@I@std@@V?$allocator@U?$pair@$$CBIPAVManagedItem@@@std@@@3@$0A@@std@@@std@@@std@@QAEXPAU_Node@?$_Tree_nod@V?$_Tmap_traits@IPAVManagedItem@@U?$less@I@std@@V?$allocator@U?$pair@$$CBIPAVManagedItem@@@std@@@3@$0A@@std@@@2@I@Z
_TEXT	SEGMENT
__Ptr$ = 8						; size = 4
___formal$ = 12						; size = 4
?deallocate@?$allocator@U_Node@?$_Tree_nod@V?$_Tmap_traits@IPAVManagedItem@@U?$less@I@std@@V?$allocator@U?$pair@$$CBIPAVManagedItem@@@std@@@3@$0A@@std@@@std@@@std@@QAEXPAU_Node@?$_Tree_nod@V?$_Tmap_traits@IPAVManagedItem@@U?$less@I@std@@V?$allocator@U?$pair@$$CBIPAVManagedItem@@@std@@@3@$0A@@std@@@2@I@Z PROC ; std::allocator<std::_Tree_nod<std::_Tmap_traits<unsigned int,ManagedItem *,std::less<unsigned int>,std::allocator<std::pair<unsigned int const ,ManagedItem *> >,0> >::_Node>::deallocate, COMDAT
; _this$ = ecx
; File c:\program files (x86)\microsoft visual studio 10.0\vc\include\xmemory
; Line 181
	push	ebp
	mov	ebp, esp
; Line 182
	mov	eax, DWORD PTR __Ptr$[ebp]
	push	eax
	call	??3@YAXPAX@Z				; operator delete
	add	esp, 4
; Line 183
	pop	ebp
	ret	8
?deallocate@?$allocator@U_Node@?$_Tree_nod@V?$_Tmap_traits@IPAVManagedItem@@U?$less@I@std@@V?$allocator@U?$pair@$$CBIPAVManagedItem@@@std@@@3@$0A@@std@@@std@@@std@@QAEXPAU_Node@?$_Tree_nod@V?$_Tmap_traits@IPAVManagedItem@@U?$less@I@std@@V?$allocator@U?$pair@$$CBIPAVManagedItem@@@std@@@3@$0A@@std@@@2@I@Z ENDP ; std::allocator<std::_Tree_nod<std::_Tmap_traits<unsigned int,ManagedItem *,std::less<unsigned int>,std::allocator<std::pair<unsigned int const ,ManagedItem *> >,0> >::_Node>::deallocate
_TEXT	ENDS
PUBLIC	?capacity@?$vector@V?$basic_string@DU?$char_traits@D@std@@V?$allocator@D@2@@std@@V?$allocator@V?$basic_string@DU?$char_traits@D@std@@V?$allocator@D@2@@std@@@2@@std@@QBEIXZ ; std::vector<std::basic_string<char,std::char_traits<char>,std::allocator<char> >,std::allocator<std::basic_string<char,std::char_traits<char>,std::allocator<char> > > >::capacity
; Function compile flags: /Ogtp
;	COMDAT ?capacity@?$vector@V?$basic_string@DU?$char_traits@D@std@@V?$allocator@D@2@@std@@V?$allocator@V?$basic_string@DU?$char_traits@D@std@@V?$allocator@D@2@@std@@@2@@std@@QBEIXZ
_TEXT	SEGMENT
?capacity@?$vector@V?$basic_string@DU?$char_traits@D@std@@V?$allocator@D@2@@std@@V?$allocator@V?$basic_string@DU?$char_traits@D@std@@V?$allocator@D@2@@std@@@2@@std@@QBEIXZ PROC ; std::vector<std::basic_string<char,std::char_traits<char>,std::allocator<char> >,std::allocator<std::basic_string<char,std::char_traits<char>,std::allocator<char> > > >::capacity, COMDAT
; _this$ = ecx
; File c:\program files (x86)\microsoft visual studio 10.0\vc\include\vector
; Line 776
	push	esi
; Line 777
	mov	esi, DWORD PTR [ecx+8]
	sub	esi, DWORD PTR [ecx]
	mov	eax, -1840700269			; 92492493H
	imul	esi
	add	edx, esi
	sar	edx, 4
	mov	eax, edx
	shr	eax, 31					; 0000001fH
	add	eax, edx
	pop	esi
; Line 778
	ret	0
?capacity@?$vector@V?$basic_string@DU?$char_traits@D@std@@V?$allocator@D@2@@std@@V?$allocator@V?$basic_string@DU?$char_traits@D@std@@V?$allocator@D@2@@std@@@2@@std@@QBEIXZ ENDP ; std::vector<std::basic_string<char,std::char_traits<char>,std::allocator<char> >,std::allocator<std::basic_string<char,std::char_traits<char>,std::allocator<char> > > >::capacity
_TEXT	ENDS
PUBLIC	?size@?$vector@V?$basic_string@DU?$char_traits@D@std@@V?$allocator@D@2@@std@@V?$allocator@V?$basic_string@DU?$char_traits@D@std@@V?$allocator@D@2@@std@@@2@@std@@QBEIXZ ; std::vector<std::basic_string<char,std::char_traits<char>,std::allocator<char> >,std::allocator<std::basic_string<char,std::char_traits<char>,std::allocator<char> > > >::size
; Function compile flags: /Ogtp
;	COMDAT ?size@?$vector@V?$basic_string@DU?$char_traits@D@std@@V?$allocator@D@2@@std@@V?$allocator@V?$basic_string@DU?$char_traits@D@std@@V?$allocator@D@2@@std@@@2@@std@@QBEIXZ
_TEXT	SEGMENT
?size@?$vector@V?$basic_string@DU?$char_traits@D@std@@V?$allocator@D@2@@std@@V?$allocator@V?$basic_string@DU?$char_traits@D@std@@V?$allocator@D@2@@std@@@2@@std@@QBEIXZ PROC ; std::vector<std::basic_string<char,std::char_traits<char>,std::allocator<char> >,std::allocator<std::basic_string<char,std::char_traits<char>,std::allocator<char> > > >::size, COMDAT
; _this$ = ecx
; Line 878
	push	esi
; Line 879
	mov	esi, DWORD PTR [ecx+4]
	sub	esi, DWORD PTR [ecx]
	mov	eax, -1840700269			; 92492493H
	imul	esi
	add	edx, esi
	sar	edx, 4
	mov	eax, edx
	shr	eax, 31					; 0000001fH
	add	eax, edx
	pop	esi
; Line 880
	ret	0
?size@?$vector@V?$basic_string@DU?$char_traits@D@std@@V?$allocator@D@2@@std@@V?$allocator@V?$basic_string@DU?$char_traits@D@std@@V?$allocator@D@2@@std@@@2@@std@@QBEIXZ ENDP ; std::vector<std::basic_string<char,std::char_traits<char>,std::allocator<char> >,std::allocator<std::basic_string<char,std::char_traits<char>,std::allocator<char> > > >::size
_TEXT	ENDS
PUBLIC	??_C@_0BD@OLBABOEK@vector?$DMT?$DO?5too?5long?$AA@ ; `string'
PUBLIC	?_Xlen@?$vector@V?$basic_string@DU?$char_traits@D@std@@V?$allocator@D@2@@std@@V?$allocator@V?$basic_string@DU?$char_traits@D@std@@V?$allocator@D@2@@std@@@2@@std@@IBEXXZ ; std::vector<std::basic_string<char,std::char_traits<char>,std::allocator<char> >,std::allocator<std::basic_string<char,std::char_traits<char>,std::allocator<char> > > >::_Xlen
EXTRN	__imp_?_Xlength_error@std@@YAXPBD@Z:PROC
;	COMDAT ??_C@_0BD@OLBABOEK@vector?$DMT?$DO?5too?5long?$AA@
CONST	SEGMENT
??_C@_0BD@OLBABOEK@vector?$DMT?$DO?5too?5long?$AA@ DB 'vector<T> too long'
	DB	00H						; `string'
; Function compile flags: /Ogtp
CONST	ENDS
;	COMDAT ?_Xlen@?$vector@V?$basic_string@DU?$char_traits@D@std@@V?$allocator@D@2@@std@@V?$allocator@V?$basic_string@DU?$char_traits@D@std@@V?$allocator@D@2@@std@@@2@@std@@IBEXXZ
_TEXT	SEGMENT
?_Xlen@?$vector@V?$basic_string@DU?$char_traits@D@std@@V?$allocator@D@2@@std@@V?$allocator@V?$basic_string@DU?$char_traits@D@std@@V?$allocator@D@2@@std@@@2@@std@@IBEXXZ PROC ; std::vector<std::basic_string<char,std::char_traits<char>,std::allocator<char> >,std::allocator<std::basic_string<char,std::char_traits<char>,std::allocator<char> > > >::_Xlen, COMDAT
; _this$ = ecx
; Line 1427
	push	OFFSET ??_C@_0BD@OLBABOEK@vector?$DMT?$DO?5too?5long?$AA@
	call	DWORD PTR __imp_?_Xlength_error@std@@YAXPBD@Z
$LN4@Xlen:
$LN3@Xlen:
	int	3
?_Xlen@?$vector@V?$basic_string@DU?$char_traits@D@std@@V?$allocator@D@2@@std@@V?$allocator@V?$basic_string@DU?$char_traits@D@std@@V?$allocator@D@2@@std@@@2@@std@@IBEXXZ ENDP ; std::vector<std::basic_string<char,std::char_traits<char>,std::allocator<char> >,std::allocator<std::basic_string<char,std::char_traits<char>,std::allocator<char> > > >::_Xlen
_TEXT	ENDS
PUBLIC	??0?$allocator@V?$basic_string@DU?$char_traits@D@std@@V?$allocator@D@2@@std@@@std@@QAE@ABV01@@Z ; std::allocator<std::basic_string<char,std::char_traits<char>,std::allocator<char> > >::allocator<std::basic_string<char,std::char_traits<char>,std::allocator<char> > >
; Function compile flags: /Ogtp
;	COMDAT ??0?$allocator@V?$basic_string@DU?$char_traits@D@std@@V?$allocator@D@2@@std@@@std@@QAE@ABV01@@Z
_TEXT	SEGMENT
___formal$ = 8						; size = 4
??0?$allocator@V?$basic_string@DU?$char_traits@D@std@@V?$allocator@D@2@@std@@@std@@QAE@ABV01@@Z PROC ; std::allocator<std::basic_string<char,std::char_traits<char>,std::allocator<char> > >::allocator<std::basic_string<char,std::char_traits<char>,std::allocator<char> > >, COMDAT
; _this$ = ecx
; File c:\program files (x86)\microsoft visual studio 10.0\vc\include\xmemory
; Line 165
	mov	eax, ecx
; Line 167
	ret	4
??0?$allocator@V?$basic_string@DU?$char_traits@D@std@@V?$allocator@D@2@@std@@@std@@QAE@ABV01@@Z ENDP ; std::allocator<std::basic_string<char,std::char_traits<char>,std::allocator<char> > >::allocator<std::basic_string<char,std::char_traits<char>,std::allocator<char> > >
_TEXT	ENDS
PUBLIC	?deallocate@?$allocator@V?$basic_string@DU?$char_traits@D@std@@V?$allocator@D@2@@std@@@std@@QAEXPAV?$basic_string@DU?$char_traits@D@std@@V?$allocator@D@2@@2@I@Z ; std::allocator<std::basic_string<char,std::char_traits<char>,std::allocator<char> > >::deallocate
; Function compile flags: /Ogtp
;	COMDAT ?deallocate@?$allocator@V?$basic_string@DU?$char_traits@D@std@@V?$allocator@D@2@@std@@@std@@QAEXPAV?$basic_string@DU?$char_traits@D@std@@V?$allocator@D@2@@2@I@Z
_TEXT	SEGMENT
__Ptr$ = 8						; size = 4
___formal$ = 12						; size = 4
?deallocate@?$allocator@V?$basic_string@DU?$char_traits@D@std@@V?$allocator@D@2@@std@@@std@@QAEXPAV?$basic_string@DU?$char_traits@D@std@@V?$allocator@D@2@@2@I@Z PROC ; std::allocator<std::basic_string<char,std::char_traits<char>,std::allocator<char> > >::deallocate, COMDAT
; _this$ = ecx
; Line 181
	push	ebp
	mov	ebp, esp
; Line 182
	mov	eax, DWORD PTR __Ptr$[ebp]
	push	eax
	call	??3@YAXPAX@Z				; operator delete
	add	esp, 4
; Line 183
	pop	ebp
	ret	8
?deallocate@?$allocator@V?$basic_string@DU?$char_traits@D@std@@V?$allocator@D@2@@std@@@std@@QAEXPAV?$basic_string@DU?$char_traits@D@std@@V?$allocator@D@2@@2@I@Z ENDP ; std::allocator<std::basic_string<char,std::char_traits<char>,std::allocator<char> > >::deallocate
_TEXT	ENDS
PUBLIC	?capacity@?$vector@VWMOInstance@@V?$allocator@VWMOInstance@@@std@@@std@@QBEIXZ ; std::vector<WMOInstance,std::allocator<WMOInstance> >::capacity
; Function compile flags: /Ogtp
;	COMDAT ?capacity@?$vector@VWMOInstance@@V?$allocator@VWMOInstance@@@std@@@std@@QBEIXZ
_TEXT	SEGMENT
?capacity@?$vector@VWMOInstance@@V?$allocator@VWMOInstance@@@std@@@std@@QBEIXZ PROC ; std::vector<WMOInstance,std::allocator<WMOInstance> >::capacity, COMDAT
; _this$ = ecx
; File c:\program files (x86)\microsoft visual studio 10.0\vc\include\vector
; Line 777
	mov	edx, DWORD PTR [ecx+8]
	sub	edx, DWORD PTR [ecx]
	mov	eax, 954437177				; 38e38e39H
	imul	edx
	sar	edx, 4
	mov	eax, edx
	shr	eax, 31					; 0000001fH
	add	eax, edx
; Line 778
	ret	0
?capacity@?$vector@VWMOInstance@@V?$allocator@VWMOInstance@@@std@@@std@@QBEIXZ ENDP ; std::vector<WMOInstance,std::allocator<WMOInstance> >::capacity
_TEXT	ENDS
PUBLIC	?size@?$vector@VWMOInstance@@V?$allocator@VWMOInstance@@@std@@@std@@QBEIXZ ; std::vector<WMOInstance,std::allocator<WMOInstance> >::size
; Function compile flags: /Ogtp
;	COMDAT ?size@?$vector@VWMOInstance@@V?$allocator@VWMOInstance@@@std@@@std@@QBEIXZ
_TEXT	SEGMENT
?size@?$vector@VWMOInstance@@V?$allocator@VWMOInstance@@@std@@@std@@QBEIXZ PROC ; std::vector<WMOInstance,std::allocator<WMOInstance> >::size, COMDAT
; _this$ = ecx
; Line 879
	mov	edx, DWORD PTR [ecx+4]
	sub	edx, DWORD PTR [ecx]
	mov	eax, 954437177				; 38e38e39H
	imul	edx
	sar	edx, 4
	mov	eax, edx
	shr	eax, 31					; 0000001fH
	add	eax, edx
; Line 880
	ret	0
?size@?$vector@VWMOInstance@@V?$allocator@VWMOInstance@@@std@@@std@@QBEIXZ ENDP ; std::vector<WMOInstance,std::allocator<WMOInstance> >::size
_TEXT	ENDS
PUBLIC	?_Xlen@?$vector@VWMOInstance@@V?$allocator@VWMOInstance@@@std@@@std@@IBEXXZ ; std::vector<WMOInstance,std::allocator<WMOInstance> >::_Xlen
; Function compile flags: /Ogtp
;	COMDAT ?_Xlen@?$vector@VWMOInstance@@V?$allocator@VWMOInstance@@@std@@@std@@IBEXXZ
_TEXT	SEGMENT
?_Xlen@?$vector@VWMOInstance@@V?$allocator@VWMOInstance@@@std@@@std@@IBEXXZ PROC ; std::vector<WMOInstance,std::allocator<WMOInstance> >::_Xlen, COMDAT
; _this$ = ecx
; Line 1427
	push	OFFSET ??_C@_0BD@OLBABOEK@vector?$DMT?$DO?5too?5long?$AA@
	call	DWORD PTR __imp_?_Xlength_error@std@@YAXPBD@Z
$LN4@Xlen@2:
$LN3@Xlen@2:
	int	3
?_Xlen@?$vector@VWMOInstance@@V?$allocator@VWMOInstance@@@std@@@std@@IBEXXZ ENDP ; std::vector<WMOInstance,std::allocator<WMOInstance> >::_Xlen
_TEXT	ENDS
PUBLIC	??0?$allocator@VWMOInstance@@@std@@QAE@ABV01@@Z	; std::allocator<WMOInstance>::allocator<WMOInstance>
; Function compile flags: /Ogtp
;	COMDAT ??0?$allocator@VWMOInstance@@@std@@QAE@ABV01@@Z
_TEXT	SEGMENT
___formal$ = 8						; size = 4
??0?$allocator@VWMOInstance@@@std@@QAE@ABV01@@Z PROC	; std::allocator<WMOInstance>::allocator<WMOInstance>, COMDAT
; _this$ = ecx
; File c:\program files (x86)\microsoft visual studio 10.0\vc\include\xmemory
; Line 165
	mov	eax, ecx
; Line 167
	ret	4
??0?$allocator@VWMOInstance@@@std@@QAE@ABV01@@Z ENDP	; std::allocator<WMOInstance>::allocator<WMOInstance>
_TEXT	ENDS
PUBLIC	?deallocate@?$allocator@VWMOInstance@@@std@@QAEXPAVWMOInstance@@I@Z ; std::allocator<WMOInstance>::deallocate
; Function compile flags: /Ogtp
;	COMDAT ?deallocate@?$allocator@VWMOInstance@@@std@@QAEXPAVWMOInstance@@I@Z
_TEXT	SEGMENT
__Ptr$ = 8						; size = 4
___formal$ = 12						; size = 4
?deallocate@?$allocator@VWMOInstance@@@std@@QAEXPAVWMOInstance@@I@Z PROC ; std::allocator<WMOInstance>::deallocate, COMDAT
; _this$ = ecx
; Line 181
	push	ebp
	mov	ebp, esp
; Line 182
	mov	eax, DWORD PTR __Ptr$[ebp]
	push	eax
	call	??3@YAXPAX@Z				; operator delete
	add	esp, 4
; Line 183
	pop	ebp
	ret	8
?deallocate@?$allocator@VWMOInstance@@@std@@QAEXPAVWMOInstance@@I@Z ENDP ; std::allocator<WMOInstance>::deallocate
_TEXT	ENDS
PUBLIC	?deallocate@?$allocator@UOutdoorLightStats@@@std@@QAEXPAUOutdoorLightStats@@I@Z ; std::allocator<OutdoorLightStats>::deallocate
; Function compile flags: /Ogtp
;	COMDAT ?deallocate@?$allocator@UOutdoorLightStats@@@std@@QAEXPAUOutdoorLightStats@@I@Z
_TEXT	SEGMENT
__Ptr$ = 8						; size = 4
___formal$ = 12						; size = 4
?deallocate@?$allocator@UOutdoorLightStats@@@std@@QAEXPAUOutdoorLightStats@@I@Z PROC ; std::allocator<OutdoorLightStats>::deallocate, COMDAT
; _this$ = ecx
; Line 181
	push	ebp
	mov	ebp, esp
; Line 182
	mov	eax, DWORD PTR __Ptr$[ebp]
	push	eax
	call	??3@YAXPAX@Z				; operator delete
	add	esp, 4
; Line 183
	pop	ebp
	ret	8
?deallocate@?$allocator@UOutdoorLightStats@@@std@@QAEXPAUOutdoorLightStats@@I@Z ENDP ; std::allocator<OutdoorLightStats>::deallocate
_TEXT	ENDS
PUBLIC	??0?$_Vector_const_iterator@V?$_Vector_val@V?$basic_string@DU?$char_traits@D@std@@V?$allocator@D@2@@std@@V?$allocator@V?$basic_string@DU?$char_traits@D@std@@V?$allocator@D@2@@std@@@2@@std@@@std@@QAE@PAV?$basic_string@DU?$char_traits@D@std@@V?$allocator@D@2@@1@PBU_Container_base0@1@@Z ; std::_Vector_const_iterator<std::_Vector_val<std::basic_string<char,std::char_traits<char>,std::allocator<char> >,std::allocator<std::basic_string<char,std::char_traits<char>,std::allocator<char> > > > >::_Vector_const_iterator<std::_Vector_val<std::basic_string<char,std::char_traits<char>,std::allocator<char> >,std::allocator<std::basic_string<char,std::char_traits<char>,std::allocator<char> > > > >
; Function compile flags: /Ogtp
;	COMDAT ??0?$_Vector_const_iterator@V?$_Vector_val@V?$basic_string@DU?$char_traits@D@std@@V?$allocator@D@2@@std@@V?$allocator@V?$basic_string@DU?$char_traits@D@std@@V?$allocator@D@2@@std@@@2@@std@@@std@@QAE@PAV?$basic_string@DU?$char_traits@D@std@@V?$allocator@D@2@@1@PBU_Container_base0@1@@Z
_TEXT	SEGMENT
__Parg$ = 8						; size = 4
__Pvector$ = 12						; size = 4
??0?$_Vector_const_iterator@V?$_Vector_val@V?$basic_string@DU?$char_traits@D@std@@V?$allocator@D@2@@std@@V?$allocator@V?$basic_string@DU?$char_traits@D@std@@V?$allocator@D@2@@std@@@2@@std@@@std@@QAE@PAV?$basic_string@DU?$char_traits@D@std@@V?$allocator@D@2@@1@PBU_Container_base0@1@@Z PROC ; std::_Vector_const_iterator<std::_Vector_val<std::basic_string<char,std::char_traits<char>,std::allocator<char> >,std::allocator<std::basic_string<char,std::char_traits<char>,std::allocator<char> > > > >::_Vector_const_iterator<std::_Vector_val<std::basic_string<char,std::char_traits<char>,std::allocator<char> >,std::allocator<std::basic_string<char,std::char_traits<char>,std::allocator<char> > > > >, COMDAT
; _this$ = ecx
; File c:\program files (x86)\microsoft visual studio 10.0\vc\include\vector
; Line 45
	push	ebp
	mov	ebp, esp
	mov	eax, ecx
	mov	ecx, DWORD PTR __Parg$[ebp]
	mov	DWORD PTR [eax], ecx
; Line 47
	pop	ebp
	ret	8
??0?$_Vector_const_iterator@V?$_Vector_val@V?$basic_string@DU?$char_traits@D@std@@V?$allocator@D@2@@std@@V?$allocator@V?$basic_string@DU?$char_traits@D@std@@V?$allocator@D@2@@std@@@2@@std@@@std@@QAE@PAV?$basic_string@DU?$char_traits@D@std@@V?$allocator@D@2@@1@PBU_Container_base0@1@@Z ENDP ; std::_Vector_const_iterator<std::_Vector_val<std::basic_string<char,std::char_traits<char>,std::allocator<char> >,std::allocator<std::basic_string<char,std::char_traits<char>,std::allocator<char> > > > >::_Vector_const_iterator<std::_Vector_val<std::basic_string<char,std::char_traits<char>,std::allocator<char> >,std::allocator<std::basic_string<char,std::char_traits<char>,std::allocator<char> > > > >
_TEXT	ENDS
PUBLIC	?_Compat@?$_Vector_const_iterator@V?$_Vector_val@V?$basic_string@DU?$char_traits@D@std@@V?$allocator@D@2@@std@@V?$allocator@V?$basic_string@DU?$char_traits@D@std@@V?$allocator@D@2@@std@@@2@@std@@@std@@QBEXABV12@@Z ; std::_Vector_const_iterator<std::_Vector_val<std::basic_string<char,std::char_traits<char>,std::allocator<char> >,std::allocator<std::basic_string<char,std::char_traits<char>,std::allocator<char> > > > >::_Compat
; Function compile flags: /Ogtp
;	COMDAT ?_Compat@?$_Vector_const_iterator@V?$_Vector_val@V?$basic_string@DU?$char_traits@D@std@@V?$allocator@D@2@@std@@V?$allocator@V?$basic_string@DU?$char_traits@D@std@@V?$allocator@D@2@@std@@@2@@std@@@std@@QBEXABV12@@Z
_TEXT	SEGMENT
___formal$ = 8						; size = 4
?_Compat@?$_Vector_const_iterator@V?$_Vector_val@V?$basic_string@DU?$char_traits@D@std@@V?$allocator@D@2@@std@@V?$allocator@V?$basic_string@DU?$char_traits@D@std@@V?$allocator@D@2@@std@@@2@@std@@@std@@QBEXABV12@@Z PROC ; std::_Vector_const_iterator<std::_Vector_val<std::basic_string<char,std::char_traits<char>,std::allocator<char> >,std::allocator<std::basic_string<char,std::char_traits<char>,std::allocator<char> > > > >::_Compat, COMDAT
; _this$ = ecx
; Line 253
	ret	4
?_Compat@?$_Vector_const_iterator@V?$_Vector_val@V?$basic_string@DU?$char_traits@D@std@@V?$allocator@D@2@@std@@V?$allocator@V?$basic_string@DU?$char_traits@D@std@@V?$allocator@D@2@@std@@@2@@std@@@std@@QBEXABV12@@Z ENDP ; std::_Vector_const_iterator<std::_Vector_val<std::basic_string<char,std::char_traits<char>,std::allocator<char> >,std::allocator<std::basic_string<char,std::char_traits<char>,std::allocator<char> > > > >::_Compat
_TEXT	ENDS
PUBLIC	??8?$_Tree_const_iterator@V?$_Tree_val@V?$_Tmap_traits@V?$basic_string@DU?$char_traits@D@std@@V?$allocator@D@2@@std@@HU?$less@V?$basic_string@DU?$char_traits@D@std@@V?$allocator@D@2@@std@@@2@V?$allocator@U?$pair@$$CBV?$basic_string@DU?$char_traits@D@std@@V?$allocator@D@2@@std@@H@std@@@2@$0A@@std@@@std@@@std@@QBE_NABV01@@Z ; std::_Tree_const_iterator<std::_Tree_val<std::_Tmap_traits<std::basic_string<char,std::char_traits<char>,std::allocator<char> >,int,std::less<std::basic_string<char,std::char_traits<char>,std::allocator<char> > >,std::allocator<std::pair<std::basic_string<char,std::char_traits<char>,std::allocator<char> > const ,int> >,0> > >::operator==
; Function compile flags: /Ogtp
