; Listing generated by Microsoft (R) Optimizing Compiler Version 16.00.40219.01 

	TITLE	C:\programovani\WoW Editor\Test\src\libmpq\common.c
	.686P
	.XMM
	include listing.inc
	.model	flat

INCLUDELIB MSVCRT
INCLUDELIB OLDNAMES

CONST	SEGMENT
_crypt_buf DD	055c636e2H
	DD	02be0170H
	DD	0584b71d4H
	DD	02984f00eH
	DD	0b682c809H
	DD	091cf876bH
	DD	0775a9c24H
	DD	0597d5ca5H
	DD	05a1afeb2H
	DD	0d3e9ce0dH
	DD	032cdcdf8H
	DD	0b18201cdH
	DD	03cce05ceH
	DD	0a55d13beH
	DD	0bb0afe71H
	DD	09376ab33H
	DD	0848f645eH
	DD	087e45a45H
	DD	045b86017H
	DD	05e656ca8H
	DD	01b851a95H
	DD	02542dbd7H
	DD	0ab4df9e4H
	DD	05976ae9bH
	DD	06c317e7dH
	DD	0cddd2f94H
	DD	03c3c13e5H
	DD	0335b1371H
	DD	031a592caH
	DD	051e4fc4cH
	DD	0f7db5b2fH
	DD	08abdbe41H
	DD	08beaa674H
	DD	020d6b319H
	DD	0de6c9a9dH
	DD	0c5ac84e5H
	DD	0445a5febH
	DD	094958cb0H
	DD	01e7d3847H
	DD	0f35d29b0H
	DD	0ca5ccedaH
	DD	0b732c8b5H
	DD	0fdcc41ddH
	DD	0edcec16H
	DD	09d01feaeH
	DD	01165d38eH
	DD	09ee193c8H
	DD	0bf33b13cH
	DD	061bc0dfcH
	DD	0ef3e7be9H
	DD	0f8d4d4c5H
	DD	0c79b7694H
	DD	05a255943H
	DD	0b3dd20aH
	DD	09d1ab5a3H
	DD	0cfa8ba57H
	DD	05e6d7069H
	DD	0cb89b731H
	DD	03dc0d15bH
	DD	0d4d7e7eH
	DD	097e37f2bH
	DD	0fefc2bb1H
	DD	0f95b16b5H
	DD	027a55b93H
	DD	045f22729H
	DD	04c986630H
	DD	07c666862H
	DD	05fa40847H
	DD	0a3f16205H
	DD	0791b7764H
	DD	0386b36d6H
	DD	06e6c3fefH
	DD	0c75855dbH
	DD	04abc7dc7H
	DD	04a328f9bH
	DD	0cef20c0fH
	DD	060b88f07H
	DD	0f7bb4b8fH
	DD	0830b5192H
	DD	094f711ecH
	DD	020250752H
	DD	0399d21a3H
	DD	0e5c0840dH
	DD	0e76cffa5H
	DD	0624fab29H
	DD	05df133e6H
	DD	083e0b9b8H
	DD	0c5796bfbH
	DD	04a7ab2d0H
	DD	0ba59a821H
	DD	03a81e4cH
	DD	0cd3adfdbH
	DD	032b26b8cH
	DD	08e35c533H
	DD	09e6300e9H
	DD	08cf92ac5H
	DD	0880d18ebH
	DD	0131a53b3H
	DD	02ed2dc64H
	DD	0b23257c1H
	DD	0a06450c1H
	DD	01b92cb8eH
	DD	072ed730eH
	DD	019a685f0H
	DD	082836483H
	DD	042d94e8aH
	DD	0ee9bd6f6H
	DD	0556d0b6aH
	DD	0ba65589aH
	DD	0de24cce4H
	DD	053329f6cH
	DD	0c754fe8bH
	DD	0503d2dc7H
	DD	010027ba4H
	DD	0d3b60a8bH
	DD	068e68d83H
	DD	0a9128a9H
	DD	0595fa35fH
	DD	0b03b5beH
	DD	0150a45c4H
	DD	0b1629cceH
	DD	0e5f7497bH
	DD	08a7098a4H
	DD	0b8233e69H
	DD	08ea0f978H
	DD	05b579970H
	DD	0eab14318H
	DD	04b28b263H
	DD	0b6766cefH
	DD	06782877H
	DD	0155c6dd0H
	DD	0c711333cH
	DD	0f819cedfH
	DD	0eb1d68H
	DD	0d6fffa6eH
	DD	0439e5962H
	DD	0d765d6dbH
	DD	0cb0bcee9H
	DD	06d3c5647H
	DD	0965466f3H
	DD	0ca983c9H
	DD	074ecc1ceH
	DD	0fc0563b6H
	DD	042b08feeH
	DD	0c5b38853H
	DD	0fe502cebH
	DD	07b432fafH
	DD	0c309e610H
	DD	02c3997d8H
	DD	043774654H
	DD	015bd9d2cH
	DD	0ed6a420dH
	DD	0c7ff520cH
	DD	0b8a97fd1H
	DD	05e4d60ccH
	DD	0b9738d11H
	DD	0da2181ffH
	DD	073ac2597H
	DD	03a8eec8dH
	DD	0ac85e779H
	DD	0f3f975d6H
	DD	0b9fe7b91H
	DD	0f155d1eH
	DD	02860b6ddH
	DD	0835977cbH
	DD	0b0607436H
	DD	09cab7f6bH
	DD	08ab91186H
	DD	0c12b51e9H
	DD	020084e8bH
	DD	044ba8eadH
	DD	0a542b130H
	DD	082bcd5c4H
	DD	0cc747f4eH
	DD	0f1909d8H
	DD	0da242e1cH
	DD	06f7d1aa0H
	DD	0d2626486H
	DD	088d0781eH
	DD	0ab695ccdH
	DD	0fa569145H
	DD	0b4feb55cH
	DD	0be47e896H
	DD	0e70a7a88H
	DD	0d56185a2H
	DD	0acf4c871H
	DD	09282332H
	DD	01ddeeaa8H
	DD	0590c7adbH
	DD	0f4a97667H
	DD	0bfd85705H
	DD	0ea77cccH
	DD	0a9f85364H
	DD	083195869H
	DD	08bfb041aH
	DD	0db842f5cH
	DD	0d6f0f315H
	DD	0a7756ea7H
	DD	0a51b439H
	DD	0a9edf8a3H
	DD	0d9084e2fH
	DD	0827407f8H
	DD	0d4ac8284H
	DD	09739d0dH
	DD	0b3bb6cfcH
	DD	0d539c77dH
	DD	06bbc9ac0H
	DD	035c641aaH
	DD	0934c96b0H
	DD	0d17af317H
	DD	029c6baefH
	DD	0b275cdacH
	DD	0d72662deH
	DD	09f5c2544H
	DD	0c1a98f75H
	DD	0d98e8f9aH
	DD	047bd5c86H
	DD	070c610a6H
	DD	0b5482ed4H
	DD	023b9c68cH
	DD	03c1bae66H
	DD	069556e7fH
	DD	0d902f5e0H
	DD	0653d195bH
	DD	0de6541fbH
	DD	07bcc6acH
	DD	0c6ee7788H
	DD	0801534d4H
	DD	02c1f35c0H
	DD	0d9de614dH
	DD	0bdccac85H
	DD	0b4d4a0daH
	DD	0242d549bH
	DD	09d964796H
	DD	0b9ceb982H
	DD	059fa99a9H
	DD	0d8986cc1H
	DD	09e90c1a1H
	DD	01bbd82fH
	DD	0d7f1c5fdH
	DD	0dd847ebaH
	DD	0883d305dH
	DD	025f13152H
	DD	04a92694dH
	DD	077f1e601H
	DD	08024e6e7H
	DD	02a5f53dH
	DD	09c3ef4d9H
	DD	0af403cccH
	DD	0e2ad03c0H
	DD	046edf6ecH
	DD	06f9bd3e6H
	DD	0cc24ad7aH
	DD	047afab12H
	DD	082298df7H
	DD	0708c9eecH
	DD	076f8c1b1H
	DD	0b39459d2H
	DD	03f1e26d9H
	DD	0e1811be7H
	DD	056ed1c4dH
	DD	0c9d18af8H
	DD	0e828060eH
	DD	091cada2eH
	DD	05ccbf9b7H
	DD	0f1a552d4H
	DD	03c9d4343H
	DD	0e1008785H
	DD	02adfeebfH
	DD	0f90240a0H
	DD	03d08cce7H
	DD	0426e6fb0H
	DD	0573c984fH
	DD	013a843aeH
	DD	0406b7439H
	DD	0636085d9H
	DD	05000ba9aH
	DD	0ad4a47abH
	DD	0af001d8dH
	DD	0419907aeH
	DD	0185c8f96H
	DD	0e5e9ed4dH
	DD	061764133H
	DD	0d3703d97H
	DD	0ac98f0c6H
	DD	0dbc3a37cH
	DD	085f010c4H
	DD	090491e32H
	DD	0f12e18bfH
	DD	0c88c96e1H
	DD	0d3fbd6d9H
	DD	0e3c28b08H
	DD	0d5bf08ccH
	DD	0b1e78859H
	DD	02546ddcfH
	DD	0b030b200H
	DD	0aafd2811H
	DD	055b22d21H
	DD	0d38bf567H
	DD	0469c7a2bH
	DD	05ad05792H
	DD	0a1a5981eH
	DD	07dfb8384H
	DD	034d1ca0aH
	DD	07eb0dbe0H
	DD	0d61ce0f6H
	DD	0398068b7H
	DD	0e6406d1fH
	DD	095ae6b47H
	DD	0e4281230H
	DD	0b0843061H
	DD	0a70a3a68H
	DD	0e340f625H
	DD	072dcbffdH
	DD	08eb8afcdH
	DD	018b6661fH
	DD	017ef5a5cH
	DD	0c5b22H
	DD	06ba13836H
	DD	06165e383H
	DD	074481c5bH
	DD	0e56f0711H
	DD	0a26f5024H
	DD	05ff22e60H
	DD	031a5e829H
	DD	0a1094bf0H
	DD	0c680ec6cH
	DD	08cf327d7H
	DD	0ebf1348aH
	DD	06a227d2fH
	DD	074065184H
	DD	08df65112H
	DD	02bbd05eeH
	DD	0e4d00ed6H
	DD	02980ee1aH
	DD	06ae1da73H
	DD	0e84614daH
	DD	06c9906abH
	DD	0cf8e02dbH
	DD	0d3723e97H
	DD	092f66cafH
	DD	0ac8491c7H
	DD	0aec65696H
	DD	0b98997cfH
	DD	0fa16c762H
	DD	06d73c65fH
	DD	0205d22a6H
	DD	04dd3aaa5H
	DD	02deb6bc0H
	DD	09f37686cH
	DD	071a5282bH
	DD	0376bb9e0H
	DD	07fff2a1bH
	DD	0de67982fH
	DD	09cbf33ceH
	DD	02e6dab37H
	DD	06e3424b9H
	DD	0ee143bcH
	DD	0832a60d9H
	DD	0bb6329e1H
	DD	013f6befdH
	DD	05965fb84H
	DD	0f60b233cH
	DD	03d695183H
	DD	0433224a1H
	DD	0b5d9cae5H
	DD	082459babH
	DD	09f21b311H
	DD	0af6c5247H
	DD	0b447b13aH
	DD	07b2676c3H
	DD	0c38979cdH
	DD	08526ae25H
	DD	0c550ad5bH
	DD	0685099a7H
	DD	065e9c2bdH
	DD	0e5c6dc36H
	DD	0e10b37a9H
	DD	088016878H
	DD	0ce81d4e4H
	DD	024d6fc80H
	DD	04106152dH
	DD	06d4f5f90H
	DD	0c4dc74beH
	DD	0db48676cH
	DD	06cb569b7H
	DD	0f3bf598fH
	DD	042b08d9H
	DD	02ccb2deH
	DD	0b1056f65H
	DD	047994af4H
	DD	0fa141ba4H
	DD	09376ab2eH
	DD	07a76737H
	DD	075e7e6fcH
	DD	0449d80a1H
	DD	03b7259dH
	DD	0f6df358aH
	DD	05a75d5b9H
	DD	047286923H
	DD	03b1a30efH
	DD	0eebe3d6aH
	DD	09db1aa00H
	DD	07a90d9H
	DD	024667071H
	DD	019c73cfH
	DD	069039bcdH
	DD	095900744H
	DD	06518b1ebH
	DD	06905f202H
	DD	0ee3951b2H
	DD	0e141fca9H
	DD	0797fa832H
	DD	05a95e55bH
	DD	0d6263b15H
	DD	05b61f394H
	DD	0897acb1cH
	DD	05f83a9H
	DD	022420f71H
	DD	0f495176eH
	DD	07e138f3dH
	DD	01392e384H
	DD	0373bf7aaH
	DD	08e512816H
	DD	0a960b3caH
	DD	0474d74cH
	DD	0ffacd6d7H
	DD	02ef5ed9eH
	DD	060992aaaH
	DD	07e690e99H
	DD	023c0749dH
	DD	0d8e29105H
	DD	0555d5909H
	DD	015631bfeH
	DD	0a69c5a1cH
	DD	0501017caH
	DD	099438048H
	DD	038733ac7H
	DD	0e682e2c8H
	DD	0d4655fd6H
	DD	0956e4c04H
	DD	0347df643H
	DD	02f4b177bH
	DD	093ed3aa4H
	DD	0a77e1dd5H
	DD	07ae55702H
	DD	0d2a52fd9H
	DD	0ef8ba18cH
	DD	0b7d3c1eeH
	DD	08078ba8dH
	DD	0ab5aaadbH
	DD	0752be08fH
	DD	068b31c1H
	DD	078aae3cH
	DD	0aa5a8343H
	DD	0123d9268H
	DD	02ceaee43H
	DD	08ebdb239H
	DD	0650251f3H
	DD	04883648H
	DD	08c62e12eH
	DD	012b32167H
	DD	0e5112e9aH
	DD	010002548H
	DD	03e7a818dH
	DD	077e5327H
	DD	0f140cc21H
	DD	06ce7d75dH
	DD	09b99f9a5H
	DD	03215741cH
	DD	0b6aadbaeH
	DD	0738768dcH
	DD	082a3742fH
	DD	076517020H
	DD	0dd872ad8H
	DD	09d0902b2H
	DD	07d1a6b04H
	DD	049381592H
	DD	063a652a5H
	DD	0c15e626H
	DD	0e22f70d6H
	DD	01e84385H
	DD	0b29de134H
	DD	020c5000eH
	DD	0e961f443H
	DD	02d31662eH
	DD	03ce6bc28H
	DD	034f9dd94H
	DD	0fa45de53H
	DD	0497588bdH
	DD	09468215bH
	DD	0777fa5cH
	DD	06f7114c0H
	DD	0e0e82694H
	DD	0e4371986H
	DD	057112de2H
	DD	0e0cac289H
	DD	0f2a3cee0H
	DD	06a41e1b9H
	DD	0bfcea77dH
	DD	0f927fd52H
	DD	069747d98H
	DD	0bea76cdbH
	DD	08dd39557H
	DD	04db5eceH
	DD	02a0885c8H
	DD	03be4e8eeH
	DD	021d785dcH
	DD	09de7c0eH
	DD	03258ea33H
	DD	051922982H
	DD	0ee8dd024H
	DD	03df6965dH
	DD	030c1237bH
	DD	0f7f6686aH
	DD	09faca186H
	DD	07c400076H
	DD	085acef8aH
	DD	0f4b6d220H
	DD	0ddc3481cH
	DD	0439eaec4H
	DD	0717bbe63H
	DD	08259faa7H
	DD	0d682bd68H
	DD	0932a8610H
	DD	038bf0a7fH
	DD	06212e2c7H
	DD	088ee3168H
	DD	0b3c27047H
	DD	06133cb1eH
	DD	015295506H
	DD	05ae66246H
	DD	01d208dddH
	DD	0a91d3dbaH
	DD	0c315968dH
	DD	06aa2664bH
	DD	0716d0ccaH
	DD	0891f4956H
	DD	080866bffH
	DD	0bd56c847H
	DD	09093425aH
	DD	028dd9e87H
	DD	084ef3e08H
	DD	0690a49d6H
	DD	06a7eff82H
	DD	0abcfe400H
	DD	03d3be5caH
	DD	0381b650cH
	DD	04b7c8622H
	DD	03e0246f3H
	DD	0a3561654H
	DD	09488865cH
	DD	03aef1bf2H
	DD	05e5d68a2H
	DD	0d32f1ddcH
	DD	051972bf0H
	DD	0177a213bH
	DD	0469375c2H
	DD	037640bd0H
	DD	0fc3324c8H
	DD	07091a09H
	DD	02d63d3fbH
	DD	02153f023H
	DD	048223875H
	DD	061a55826H
	DD	08c136538H
	DD	049f71d98H
	DD	084c7d51eH
	DD	085551a73H
	DD	013d604c5H
	DD	0d701a626H
	DD	087b844caH
	DD	0741eb29dH
	DD	02a2c977cH
	DD	0c797ca03H
	DD	06c4085d7H
	DD	02dacf79bH
	DD	0734fa2ebH
	DD	0cc290557H
	DD	0fa1e75e4H
	DD	06b29a27H
	DD	0bece2a7aH
	DD	070a4554bH
	DD	0c935942eH
	DD	0a764bbc1H
	DD	01fe391d6H
	DD	07807f0c2H
	DD	040606ed9H
	DD	0e5153086H
	DD	0e91d7dd2H
	DD	0ed5d3ba9H
	DD	0aa14b64aH
	DD	083b24dd9H
	DD	0ec1ff5cdH
	DD	0ba33ead3H
	DD	0e4ef735cH
	DD	0bc062438H
	DD	0d8bfd523H
	DD	0473d1e04H
	DD	02007f8a7H
	DD	0b02903edH
	DD	086ea8adaH
	DD	095ab69cfH
	DD	0fd1f9809H
	DD	09cb3d8bbH
	DD	051f45958H
	DD	09cdd4276H
	DD	0c245865eH
	DD	08f0c836bH
	DD	04ee7dc07H
	DD	0f6368d9dH
	DD	0ef2c1dc1H
	DD	0ee56b54bH
	DD	0bd62ce2fH
	DD	0f4916aadH
	DD	0c81cb594H
	DD	041729f49H
	DD	024bef0a4H
	DD	0def487a9H
	DD	0222e05b8H
	DD	08d3bf5c6H
	DD	011b55009H
	DD	0ad09d2b3H
	DD	019db9fd1H
	DD	0d7427085H
	DD	033dbfc8bH
	DD	0526b9378H
	DD	0790e1bc8H
	DD	0b2998a00H
	DD	0a5641703H
	DD	0676d249H
	DD	06b9185ccH
	DD	030e4348fH
	DD	082c52f65H
	DD	057c7dc24H
	DD	0489c1ecdH
	DD	09fcab02aH
	DD	056d61117H
	DD	0fe869cacH
	DD	055fc5140H
	DD	07fbbb382H
	DD	09e5afc79H
	DD	010047c99H
	DD	0fc9f5984H
	DD	056587e2dH
	DD	0b98193f0H
	DD	098fe5e8eH
	DD	029b15b6bH
	DD	09561f055H
	DD	0bb0caa25H
	DD	01e4ecc15H
	DD	023f5393bH
	DD	0845b458H
	DD	0ceff67caH
	DD	0b099900cH
	DD	0b1564fH
	DD	039eef3d1H
	DD	0fcc1bf84H
	DD	0ac8893b5H
	DD	06484bf0eH
	DD	091c02ab3H
	DD	08c0c0c70H
	DD	0686fa8c6H
	DD	0e171bed6H
	DD	0dfae37dfH
	DD	0d5a1a4e7H
	DD	0e3eb49a1H
	DD	05e6014e0H
	DD	0205b21acH
	DD	0fd58b3daH
	DD	02e7c07cdH
	DD	0ef2cc85aH
	DD	0d7587b46H
	DD	0f417847dH
	DD	08a30cec1H
	DD	070984f6cH
	DD	0f0b63388H
	DD	0c220c98dH
	DD	0ede62936H
	DD	092c0a7b3H
	DD	01ef371e8H
	DD	02005f7afH
	DD	091a47265H
	DD	0b0cf5504H
	DD	0d500aba8H
	DD	0cb5c4bd3H
	DD	09b3bcbc3H
	DD	0cf6644b5H
	DD	0ce9488efH
	DD	03fc96eH
	DD	0aa42222fH
	DD	04844f3d0H
	DD	04db89d77H
	DD	08681aaeH
	DD	0662f3a28H
	DD	0761552dbH
	DD	01df7a17aH
	DD	093feed9aH
	DD	0cc496a4fH
	DD	0a217cfcdH
	DD	03ba3c930H
	DD	0268f7e77H
	DD	0797b4a1H
	DD	08bebfc51H
	DD	068930c4H
	DD	016c874e2H
	DD	0c242da24H
	DD	0fb229f76H
	DD	0a0795b02H
	DD	0689fc036H
	DD	017a73732H
	DD	0d21aec00H
	DD	0ac00a692H
	DD	05b217f18H
	DD	0ae421624H
	DD	02bc05cc0H
	DD	048c1db7aH
	DD	04f4e63b4H
	DD	01667f04eH
	DD	034020f94H
	DD	0972b2555H
	DD	09a07355bH
	DD	01665970H
	DD	07db60c6fH
	DD	03ad7103bH
	DD	05c3d09c0H
	DD	0eea3dadaH
	DD	088c21c10H
	DD	0102436d7H
	DD	06a3b3400H
	DD	0eb523c4cH
	DD	0fb97d896H
	DD	0964cb86bH
	DD	0dd878038H
	DD	0529da4dH
	DD	0b1468a5H
	DD	018739ac8H
	DD	0f7f26668H
	DD	0f64f4471H
	DD	05c14f5c3H
	DD	044a081fbH
	DD	039ac7e37H
	DD	08a17c26bH
	DD	0868f5e67H
	DD	03931978dH
	DD	06edf7817H
	DD	04951cc67H
	DD	0943407f3H
	DD	0cc5e748fH
	DD	02b7ee729H
	DD	0cbb320f0H
	DD	011fec8e7H
	DD	0fccfc658H
	DD	03454354H
	DD	0373aa1ecH
	DD	01d58fe9aH
	DD	064710aeH
	DD	0a88aa0baH
	DD	0d183a23eH
	DD	040d150a3H
	DD	0f531b8d1H
	DD	0a7d99f85H
	DD	011838cd5H
	DD	0b19e64b3H
	DD	03d67a5e9H
	DD	0b02c5ac6H
	DD	099b9b9e8H
	DD	04c202b7aH
	DD	015f261d3H
	DD	0a84c2d0dH
	DD	050f185a6H
	DD	033ba41d5H
	DD	039791013H
	DD	04baff44eH
	DD	0eeeeaa1cH
	DD	0e0488314H
	DD	0559ccd2bH
	DD	0a104f445H
	DD	0636f37c4H
	DD	0264d5e3bH
	DD	075c17f35H
	DD	075424131H
	DD	0bb115739H
	DD	074fe755aH
	DD	07d3a7aa6H
	DD	02d8be784H
	DD	083ed154aH
	DD	0fc2673d8H
	DD	044dd4a7fH
	DD	079056cc8H
	DD	082cc8831H
	DD	09d3c1b7cH
	DD	0e9453bfaH
	DD	024315694H
	DD	0661f3253H
	DD	075549f5cH
	DD	0bb2b63edH
	DD	067e00d96H
	DD	0f48966c7H
	DD	0d7bea56H
	DD	0c25f92efH
	DD	0a947a79dH
	DD	0de4adf6fH
	DD	0ac0f0342H
	DD	0d3eb246bH
	DD	0a4aa118eH
	DD	03c3e6a46H
	DD	0457f4441H
	DD	0a50a406fH
	DD	06c508d9fH
	DD	0e9ac18e7H
	DD	01ecdb4baH
	DD	039ac7e3aH
	DD	07fb304faH
	DD	06f38f8e8H
	DD	04aecea6dH
	DD	061035e73H
	DD	081708907H
	DD	0ebc07205H
	DD	090fd7614H
	DD	0b52d217fH
	DD	06c4de195H
	DD	01dd49084H
	DD	064ee482cH
	DD	094c7a521H
	DD	0540c09d8H
	DD	075df8dd5H
	DD	0414131f7H
	DD	03698fd76H
	DD	0f784db4fH
	DD	0f8c97a03H
	DD	048f39b9H
	DD	03bf4f0bdH
	DD	08cb50992H
	DD	09b58d9eeH
	DD	0e5ab79ccH
	DD	09a5f6052H
	DD	0bd9591b0H
	DD	0fad2232bH
	DD	05a632254H
	DD	0286e618H
	DD	08ad3c8f7H
	DD	0e4060176H
	DD	0754c4617H
	DD	05c10490bH
	DD	06f7d6fffH
	DD	02187b42aH
	DD	05775095bH
	DD	02f4c663H
	DD	05a5dca06H
	DD	0fe4ad4c7H
	DD	053e19f7dH
	DD	059ff46b5H
	DD	0bcc42ba5H
	DD	0fd2f4a97H
	DD	0bed6d905H
	DD	095629b6bH
	DD	021a1c0dbH
	DD	0aa10b45dH
	DD	0e6ef6d58H
	DD	02892cf4dH
	DD	09fed6c10H
	DD	01e386bf7H
	DD	09be0c6e8H
	DD	02b2f15efH
	DD	019f5ac7bH
	DD	07aff0e72H
	DD	031da576fH
	DD	030252cb4H
	DD	0577960acH
	DD	0166e9e5aH
	DD	0a9374a61H
	DD	071369c96H
	DD	07ff826aeH
	DD	0e8175326H
	DD	0cabbfd33H
	DD	0191190eH
	DD	0699d3c3eH
	DD	036b40b22H
	DD	0b3950513H
	DD	09b889bfaH
	DD	0a52a5007H
	DD	0ac290fedH
	DD	03b4e4a4fH
	DD	0b753d8d6H
	DD	03c531f22H
	DD	0582f6427H
	DD	0a9cd93a9H
	DD	0546e39aeH
	DD	0242faad2H
	DD	0d2e0f747H
	DD	09f6325dH
	DD	059d48719H
	DD	0ad7eb66eH
	DD	0d5512878H
	DD	056debf9dH
	DD	05107e5a5H
	DD	0f1c00aa4H
	DD	0814ccca8H
	DD	0600d90f0H
	DD	09be97619H
	DD	0915fa5f2H
	DD	02b5628ddH
	DD	0a33d5f5aH
	DD	0595df7c1H
	DD	06966215dH
	DD	050ec8337H
	DD	0f1d21372H
	DD	0ee2eefbH
	DD	0ad9e70b7H
	DD	0ab0d2fe4H
	DD	0cf277b5dH
	DD	062585a2cH
	DD	0835a7844H
	DD	074b1fa6bH
	DD	049baffd5H
	DD	02ea9c864H
	DD	0129311a8H
	DD	0bdfa1867H
	DD	083ca5997H
	DD	09d1db719H
	DD	084bb79e6H
	DD	09e3f99f2H
	DD	0313f6101H
	DD	01b99245bH
	DD	0d15d8fb2H
	DD	0cef90f81H
	DD	02945268dH
	DD	0dbbcf573H
	DD	0b1021886H
	DD	09ee7ec1dH
	DD	01cf824f7H
	DD	07eaa2e32H
	DD	069c0a2b5H
	DD	07494419cH
	DD	0e253d7d3H
	DD	048da3d12H
	DD	045b8b571H
	DD	0db4d147aH
	DD	0d82d8ddeH
	DD	0265d10a2H
	DD	0b0a6eb9aH
	DD	07e1c93a6H
	DD	036fe2f46H
	DD	0dcad6b00H
	DD	05439191H
	DD	0b0ce5484H
	DD	061d1c309H
	DD	08da62a03H
	DD	06d0fe2fH
	DD	0bac6dd3cH
	DD	0ca2006f3H
	DD	08321b1afH
	DD	0411a6f3H
	DD	0e8918eacH
	DD	021a2c152H
	DD	091c0d54fH
	DD	06aaa14faH
	DD	0dd22a440H
	DD	088cb2075H
	DD	07a4eb813H
	DD	067afa071H
	DD	0d8d98c9cH
	DD	031f10d47H
	DD	06ff1a8a8H
	DD	02faaf0a1H
	DD	048a221bbH
	DD	03be6948bH
	DD	0aa79e79bH
	DD	0ea7278cH
	DD	07a3857efH
	DD	049b7fe55H
	DD	0d51cb931H
	DD	041c018dH
	DD	0b90501H
	DD	045ea7881H
	DD	08fc1dbcfH
	DD	0b80b32a9H
	DD	0abacd2e9H
	DD	0677bdc40H
	DD	0ecace542H
	DD	06d6514ebH
	DD	031c09ff7H
	DD	05e6c1abdH
	DD	01c391d0fH
	DD	0e9d77f1H
	DD	07119392dH
	DD	06be9b0baH
	DD	06194fa77H
	DD	045e62148H
	DD	042234af2H
	DD	0c3239d66H
	DD	0939cbdbcH
	DD	056200d9cH
	DD	06b275208H
	DD	01a61f3H
	DD	0ccc2a546H
	DD	04b722be0H
	DD	0ee25f2b7H
	DD	06d86cf9eH
	DD	0aa6be0cdH
	DD	04dcda7b6H
	DD	078d4aa13H
	DD	036ea7ad9H
	DD	03f29d700H
	DD	0deea2d84H
	DD	06a6af5bdH
	DD	018afb81cH
	DD	0d8e4e73cH
	DD	08aa708baH
	DD	0658b94d9H
	DD	0a676478cH
	DD	0cfa10c22H
	DD	025593c74H
	DD	08d962235H
	DD	05f980270H
	DD	03df6ebc0H
	DD	08e7d92faH
	DD	0c3ee55e1H
	DD	0d5f72447H
	DD	02b0fa95H
	DD	052b0b520H
	DD	070d2c11fH
	DD	03a6fdd6cH
	DD	0193aa698H
	DD	05496f7d5H
	DD	04208931bH
	DD	07a4106ecH
	DD	083e86840H
	DD	0f49b6f8cH
	DD	0ba3d9a51H
	DD	055f54dddH
	DD	02de51372H
	DD	09afb571bH
	DD	03ab35406H
	DD	0ad64ff1fH
	DD	0c77764feH
	DD	07f864466H
	DD	0416d9cd4H
	DD	0a2489278H
	DD	0e30b86e4H
	DD	0b5231b6H
	DD	0ba67aed6H
	DD	0e5ab2467H
	DD	060028b90H
	DD	01d9e20c6H
	DD	02a7c692aH
	DD	06b691cdbH
	DD	09e51f817H
	DD	09b763decH
	DD	03d29323fH
	DD	0cfe12b68H
	DD	0754b459bH
	DD	0a2238047H
	DD	0d9c55514H
	DD	06bdcffc1H
	DD	0693e6340H
	DD	082383fe7H
	DD	01916ea5fH
	DD	0ec7bcd59H
	DD	072de165aH
	DD	0e79a1617H
	DD	08ec86234H
	DD	0a8f0d284H
	DD	020c90226H
	DD	07bf98884H
	DD	028a58331H
	DD	03ec3fa6eH
	DD	04ce0895bH
	DD	0c353b4d0H
	DD	033ef064fH
	DD	021e5e210H
	DD	0c8bb589dH
	DD	0e85dcab2H
	DD	0ac65829fH
	DD	0a7bf92d0H
	DD	05a6174dH
	DD	025a50c2eH
	DD	0e5c78777H
	DD	03d75021fH
	DD	04baa9c98H
	DD	023bdc884H
	DD	09653bbd7H
	DD	0badce7f5H
	DD	0c283a484H
	DD	0c040df2eH
	DD	09370a841H
	DD	02f316022H
	DD	036eed231H
	DD	0ac2cbc0cH
	DD	013c0a49bH
	DD	0cdd12997H
	DD	07fe91b2H
	DD	0cd7eabcdH
	DD	02c01271dH
	DD	018432df8H
	DD	0599c6bc7H
	DD	075e93d5aH
	DD	0b67a6ee2H
	DD	08e738e16H
	DD	0ff9073fdH
	DD	0af77026aH
	DD	0f86ea2fcH
	DD	091509ea3H
	DD	033a78dc6H
	DD	04f79234aH
	DD	03a7535bcH
	DD	03539fcb1H
	DD	03103ee52H
	DD	04f6f1e69H
	DD	06bb3ebbcH
	DD	04cb77555H
	DD	08dd1e999H
	DD	02ade439dH
	DD	011521faeH
	DD	0b94d2545H
	DD	08dde9abdH
	DD	01909393fH
	DD	0b792a23dH
	DD	0749c455bH
	DD	0b5b60f2cH
	DD	0380459ceH
	DD	0dad5820H
	DD	0b130845bH
	DD	0291cbd52H
	DD	0de9a5bb7H
	DD	051def961H
	DD	0515b6408H
	DD	0ca6e823eH
	DD	0382e6e74H
	DD	0eebe3d71H
	DD	04c8f0c6aH
	DD	0e676dceaH
	DD	014e1dc7cH
	DD	06f7fc634H
	DD	0cf85a943H
	DD	0d39ea96eH
	DD	0136e7c93H
	DD	07164b304H
	DD	0f32f1333H
	DD	035c34034H
	DD	0de39d721H
	DD	091a87439H
	DD	0c410111fH
	DD	029f17aacH
	DD	01316a6ffH
	DD	012f194eeH
	DD	0420b9499H
	DD	0f72db0dcH
	DD	0690b9f93H
	DD	017d14bb2H
	DD	08f931ab8H
	DD	0217500bcH
	DD	0875413f8H
	DD	098b2e43dH
	DD	0c51f9571H
	DD	054cebdcaH
	DD	0719cc79H
	DD	0f3c7080dH
	DD	0e4286771H
	DD	0a3eab3cdH
	DD	04a6b00e0H
	DD	011cf0759H
	DD	07e897379H
	DD	05b32876cH
	DD	05e8cd4f6H
	DD	0cedfa64H
	DD	0919ac2c7H
	DD	0b214f3b3H
	DD	0e89c38cH
	DD	0f0c43a39H
	DD	0eae10522H
	DD	0835bce06H
	DD	09eec43c2H
	DD	0ea26a9d6H
	DD	069531821H
	DD	06725b24aH
	DD	0da81b0e2H
	DD	0d5b4ae33H
	DD	080f99fbH
	DD	015a83dafH
	DD	029dfc720H
	DD	091e1900fH
	DD	028163d58H
	DD	083d107a2H
	DD	04eac149aH
	DD	09f71da18H
	DD	061d5c4faH
	DD	0e3ab2a5fH
	DD	0c7b0d63fH
	DD	0b3cc752aH
	DD	061ebcfb6H
	DD	026ffb52aH
	DD	0ed789e3fH
	DD	0aa3bc958H
	DD	0455a8788H
	DD	0c9c082a9H
	DD	0a1bef0eH
	DD	0c29a5a7eH
	DD	0150d4735H
	DD	0943809e0H
	DD	069215510H
	DD	0ef0b0da9H
	DD	03b4e9fb3H
	DD	0d8b5d04cH
	DD	0c7a023a8H
	DD	0b0d50288H
	DD	064821375H
	DD	0c260e8cfH
	DD	08496bd2cH
	DD	0ff4f5435H
	DD	0fb5560cH
	DD	07cd74a52H
	DD	093589c80H
	DD	088975c47H
	DD	083bda89dH
	DD	08bcc4296H
	DD	01b82c21H
	DD	0fd821dbfH
	DD	026520b47H
	DD	04983e19H
	DD	0d3e1ca27H
	DD	0782c580fH
	DD	0326ff573H
	DD	0c157bcc7H
	DD	04f5e6b84H
	DD	044ebfbfbH
	DD	0da26d9d8H
	DD	06cd9d08eH
	DD	01719f1d8H
	DD	0715c0487H
	DD	02c2d3c92H
	DD	053faaba9H
	DD	0bc836146H
	DD	0510c92d6H
	DD	0e089f82aH
	DD	04680171fH
	DD	0369f00deH
	DD	070ec2331H
	DD	0e253d55H
	DD	0dafb9717H
	DD	0e5dd922dH
	DD	095915d21H
	DD	0a0202f96H
	DD	0a161cc47H
	DD	0eacfa6f1H
	DD	0ed5e9189H
	DD	0dab87684H
	DD	0a4b76d4aH
	DD	0fa704897H
	DD	0631f10baH
	DD	0d39da8f9H
	DD	05db4c0e4H
	DD	016fde42aH
	DD	02dff7580H
	DD	0b56fec7eH
	DD	0c3ffb370H
	DD	08e6f36bcH
	DD	06097d459H
	DD	0514d5d36H
	DD	0a5a737e2H
	DD	03977b9b3H
	DD	0fd31a0caH
	DD	0903368dbH
	DD	0e8370d61H
	DD	098109520H
	DD	0ade23cacH
	DD	099f82e04H
	DD	041de7ea3H
	DD	084a1c295H
	DD	09191be0H
	DD	030930d02H
	DD	01c9fa44aH
	DD	0c406b6d7H
	DD	0eedca152H
	DD	06149809cH
	DD	0b0099ef4H
	DD	0c5f653a5H
	DD	04c10790dH
	DD	07303286cH
CONST	ENDS
PUBLIC	_libmpq__hash_string
EXTRN	__imp__toupper:PROC
; Function compile flags: /Ogtp
_TEXT	SEGMENT
_key$ = 8						; size = 4
_offset$ = 12						; size = 4
_libmpq__hash_string PROC
; File c:\programovani\wow editor\test\src\libmpq\common.c
; Line 23
	push	ebp
	mov	ebp, esp
	push	ebx
; Line 32
	mov	ebx, DWORD PTR _key$[ebp]
	mov	al, BYTE PTR [ebx]
	push	esi
	push	edi
	mov	edi, 2146271213				; 7fed7fedH
	mov	esi, -286331154				; eeeeeeeeH
	test	al, al
	je	SHORT $LN7@libmpq__ha
	npad	7
$LL2@libmpq__ha:
; Line 34
	movsx	eax, al
	push	eax
	call	DWORD PTR __imp__toupper
; Line 35
	mov	ecx, DWORD PTR _offset$[ebp]
	lea	edx, DWORD PTR [eax+ecx]
; Line 36
	mov	ecx, esi
	shl	ecx, 5
	add	edi, esi
	xor	edi, DWORD PTR _crypt_buf[edx*4]
	inc	ebx
	add	ecx, eax
	mov	al, BYTE PTR [ebx]
	add	ecx, esi
	add	esp, 4
	lea	esi, DWORD PTR [ecx+edi+3]
	test	al, al
	jne	SHORT $LL2@libmpq__ha
$LN7@libmpq__ha:
; Line 39
	mov	eax, edi
	pop	edi
	pop	esi
	pop	ebx
; Line 40
	pop	ebp
	ret	0
_libmpq__hash_string ENDP
_TEXT	ENDS
PUBLIC	_libmpq__encrypt_block
; Function compile flags: /Ogtp
_TEXT	SEGMENT
_in_buf$ = 8						; size = 4
tv73 = 12						; size = 4
_in_size$ = 12						; size = 4
_seed$ = 16						; size = 4
_libmpq__encrypt_block PROC
; Line 44
	push	ebp
	mov	ebp, esp
; Line 50
	mov	ecx, DWORD PTR _in_size$[ebp]
	mov	eax, -286331154				; eeeeeeeeH
	cmp	ecx, 4
	jb	SHORT $LN8@libmpq__en
; Line 46
	push	ebx
	shr	ecx, 2
	push	esi
	push	edi
	mov	edi, DWORD PTR _in_buf$[ebp]
	mov	DWORD PTR tv73[ebp], ecx
	mov	ecx, DWORD PTR _seed$[ebp]
	npad	1
$LL3@libmpq__en:
; Line 53
	mov	esi, DWORD PTR [edi]
	mov	edx, ecx
	and	edx, 255				; 000000ffH
	add	eax, DWORD PTR _crypt_buf[edx*4+4096]
; Line 54
	mov	ebx, ecx
	not	ebx
	shl	ebx, 21					; 00000015H
	lea	edx, DWORD PTR [eax+ecx]
	add	ebx, 286331153				; 11111111H
	shr	ecx, 11					; 0000000bH
	or	ecx, ebx
; Line 55
	mov	ebx, eax
	xor	edx, esi
	shl	ebx, 5
	add	ebx, esi
; Line 56
	mov	DWORD PTR [edi], edx
	add	edi, 4
	dec	DWORD PTR tv73[ebp]
	lea	eax, DWORD PTR [eax+ebx+3]
	jne	SHORT $LL3@libmpq__en
	pop	edi
	pop	esi
	pop	ebx
$LN8@libmpq__en:
; Line 60
	xor	eax, eax
; Line 61
	pop	ebp
	ret	0
_libmpq__encrypt_block ENDP
_TEXT	ENDS
PUBLIC	_libmpq__decrypt_block
; Function compile flags: /Ogtp
_TEXT	SEGMENT
_in_buf$ = 8						; size = 4
_in_size$ = 12						; size = 4
_seed$ = 16						; size = 4
_libmpq__decrypt_block PROC
; Line 65
	push	ebp
	mov	ebp, esp
	push	edi
; Line 71
	mov	edi, DWORD PTR _in_size$[ebp]
	mov	eax, -286331154				; eeeeeeeeH
	cmp	edi, 4
	jb	SHORT $LN8@libmpq__de
; Line 67
	mov	edx, DWORD PTR _seed$[ebp]
	push	ebx
	push	esi
	mov	esi, DWORD PTR _in_buf$[ebp]
	shr	edi, 2
	npad	4
$LL3@libmpq__de:
; Line 73
	mov	ecx, edx
	and	ecx, 255				; 000000ffH
	add	eax, DWORD PTR _crypt_buf[ecx*4+4096]
; Line 75
	mov	ebx, edx
	not	ebx
	shl	ebx, 21					; 00000015H
	lea	ecx, DWORD PTR [eax+edx]
	xor	ecx, DWORD PTR [esi]
	add	ebx, 286331153				; 11111111H
	shr	edx, 11					; 0000000bH
	or	edx, ebx
; Line 76
	mov	ebx, eax
	shl	ebx, 5
	add	ebx, ecx
; Line 77
	mov	DWORD PTR [esi], ecx
	add	esi, 4
	dec	edi
	lea	eax, DWORD PTR [eax+ebx+3]
	jne	SHORT $LL3@libmpq__de
	pop	esi
	pop	ebx
$LN8@libmpq__de:
; Line 81
	xor	eax, eax
	pop	edi
; Line 82
	pop	ebp
	ret	0
_libmpq__decrypt_block ENDP
_TEXT	ENDS
PUBLIC	_libmpq__decrypt_key
; Function compile flags: /Ogtp
_TEXT	SEGMENT
_saveseed1$ = -12					; size = 4
tv161 = -8						; size = 4
tv211 = -4						; size = 4
_in_buf$ = 8						; size = 4
_in_size$ = 12						; size = 4
_block_size$ = 16					; size = 4
_key$ = 20						; size = 4
_libmpq__decrypt_key PROC
; Line 86
	push	ebp
	mov	ebp, esp
	sub	esp, 12					; 0000000cH
; Line 95
	mov	eax, DWORD PTR _in_buf$[ebp]
	mov	ecx, DWORD PTR [eax]
	push	ebx
	push	esi
	push	edi
	mov	edi, ecx
	xor	edi, DWORD PTR _in_size$[ebp]
; Line 98
	xor	ebx, ebx
	mov	DWORD PTR tv161[ebp], ecx
	mov	DWORD PTR tv211[ebp], ebx
	npad	5
$LL12@libmpq__de@2:
; Line 107
	lea	eax, DWORD PTR [edi+286331154]
	sub	eax, DWORD PTR _crypt_buf[ebx+4096]
; Line 108
	mov	edx, eax
	and	edx, 255				; 000000ffH
	mov	edx, DWORD PTR _crypt_buf[edx*4+4096]
	sub	edx, 286331154				; 11111112H
; Line 109
	lea	esi, DWORD PTR [eax+edx]
	xor	esi, ecx
; Line 111
	cmp	esi, DWORD PTR _in_size$[ebp]
	jne	SHORT $LN4@libmpq__de@2
; Line 117
	lea	ecx, DWORD PTR [eax+1]
	mov	DWORD PTR _saveseed1$[ebp], ecx
; Line 125
	mov	ecx, eax
	not	ecx
	shr	eax, 11					; 0000000bH
	shl	ecx, 21					; 00000015H
	add	ecx, 286331153				; 11111111H
	or	ecx, eax
; Line 126
	mov	ebx, edx
; Line 127
	mov	eax, ecx
	and	eax, 255				; 000000ffH
	shl	ebx, 5
	add	ebx, edx
; Line 128
	mov	edx, DWORD PTR _crypt_buf[eax*4+4096]
	add	edx, ebx
	add	edx, esi
	lea	eax, DWORD PTR [edx+ecx+3]
	mov	ecx, DWORD PTR _in_buf$[ebp]
	xor	eax, DWORD PTR [ecx+4]
; Line 131
	sub	eax, esi
	cmp	eax, DWORD PTR _block_size$[ebp]
	jbe	SHORT $LN9@libmpq__de@2
	mov	ecx, DWORD PTR tv161[ebp]
	mov	ebx, DWORD PTR tv211[ebp]
$LN4@libmpq__de@2:
; Line 98
	add	ebx, 4
	mov	DWORD PTR tv211[ebp], ebx
	cmp	ebx, 1024				; 00000400H
	jb	$LL12@libmpq__de@2
; Line 140
	pop	edi
	pop	esi
	mov	eax, -11				; fffffff5H
	pop	ebx
; Line 141
	mov	esp, ebp
	pop	ebp
	ret	0
$LN9@libmpq__de@2:
; Line 134
	mov	eax, DWORD PTR _saveseed1$[ebp]
	mov	edx, DWORD PTR _key$[ebp]
	pop	edi
	pop	esi
	mov	DWORD PTR [edx], eax
; Line 135
	xor	eax, eax
	pop	ebx
; Line 141
	mov	esp, ebp
	pop	ebp
	ret	0
_libmpq__decrypt_key ENDP
_TEXT	ENDS
PUBLIC	_libmpq__decompress_block
EXTRN	_libmpq__decompress_multi:PROC
EXTRN	_libmpq__decompress_pkzip:PROC
EXTRN	_memcpy:PROC
; Function compile flags: /Ogtp
_TEXT	SEGMENT
_in_buf$ = 8						; size = 4
_in_size$ = 12						; size = 4
_out_buf$ = 16						; size = 4
_out_size$ = 20						; size = 4
_compression_type$ = 24					; size = 4
_libmpq__decompress_block PROC
; Line 145
	push	ebp
	mov	ebp, esp
; Line 150
	mov	edx, DWORD PTR _compression_type$[ebp]
	xor	eax, eax
	push	esi
	cmp	edx, 768				; 00000300H
	jne	SHORT $LN11@libmpq__de@3
; Line 153
	mov	esi, DWORD PTR _out_size$[ebp]
	push	esi
; Line 160
	jmp	SHORT $LN14@libmpq__de@3
$LN11@libmpq__de@3:
; Line 161
	cmp	edx, 256				; 00000100H
	je	SHORT $LN8@libmpq__de@3
	cmp	edx, 512				; 00000200H
	jne	SHORT $LN12@libmpq__de@3
$LN8@libmpq__de@3:
; Line 164
	mov	esi, DWORD PTR _in_size$[ebp]
	mov	ecx, DWORD PTR _out_size$[ebp]
	cmp	esi, ecx
	jae	SHORT $LN7@libmpq__de@3
; Line 167
	cmp	edx, 256				; 00000100H
	jne	SHORT $LN6@libmpq__de@3
; Line 170
	mov	edx, DWORD PTR _out_buf$[ebp]
	mov	eax, DWORD PTR _in_buf$[ebp]
	push	ecx
	push	edx
	push	esi
	push	eax
	call	_libmpq__decompress_pkzip
	add	esp, 16					; 00000010H
	pop	esi
; Line 204
	pop	ebp
	ret	0
$LN6@libmpq__de@3:
; Line 178
	cmp	edx, 512				; 00000200H
	jne	SHORT $LN12@libmpq__de@3
; Line 185
	mov	edx, DWORD PTR _in_buf$[ebp]
	push	ecx
	mov	ecx, DWORD PTR _out_buf$[ebp]
	push	ecx
	push	esi
	push	edx
	call	_libmpq__decompress_multi
	add	esp, 16					; 00000010H
	pop	esi
; Line 204
	pop	ebp
	ret	0
$LN7@libmpq__de@3:
; Line 195
	push	ecx
$LN14@libmpq__de@3:
	mov	eax, DWORD PTR _in_buf$[ebp]
	mov	ecx, DWORD PTR _out_buf$[ebp]
	push	eax
	push	ecx
	call	_memcpy
; Line 198
	mov	eax, esi
	add	esp, 12					; 0000000cH
$LN12@libmpq__de@3:
	pop	esi
; Line 204
	pop	ebp
	ret	0
_libmpq__decompress_block ENDP
_TEXT	ENDS
END
