; Listing generated by Microsoft (R) Optimizing Compiler Version 16.00.40219.01 

	TITLE	C:\programovani\WoW Editor\Test\src\bzlib2\randtable.c
	.686P
	.XMM
	include listing.inc
	.model	flat

INCLUDELIB MSVCRT
INCLUDELIB OLDNAMES

PUBLIC	_BZ2_rNums
_DATA	SEGMENT
_BZ2_rNums DD	026bH
	DD	02d0H
	DD	07fH
	DD	01e1H
	DD	03a3H
	DD	0330H
	DD	032dH
	DD	0e9H
	DD	0236H
	DD	0f7H
	DD	03d9H
	DD	02d4H
	DD	0cdH
	DD	01c6H
	DD	035fH
	DD	01ebH
	DD	02e5H
	DD	0f2H
	DD	03b5H
	DD	0d6H
	DD	02ddH
	DD	035bH
	DD	014fH
	DD	02c4H
	DD	026dH
	DD	023eH
	DD	049H
	DD	028eH
	DD	02daH
	DD	01d8H
	DD	01a3H
	DD	01b4H
	DD	0116H
	DD	01f0H
	DD	0363H
	DD	0d2H
	DD	018fH
	DD	02a8H
	DD	01e0H
	DD	033H
	DD	036eH
	DD	01d1H
	DD	032bH
	DD	0a9H
	DD	0365H
	DD	02a3H
	DD	0263H
	DD	02b9H
	DD	0363H
	DD	0231H
	DD	035eH
	DD	02afH
	DD	01fbH
	DD	011bH
	DD	01e2H
	DD	081H
	DD	0327H
	DD	024fH
	DD	02ddH
	DD	026fH
	DD	096H
	DD	0eeH
	DD	03bH
	DD	017bH
	DD	02acH
	DD	036dH
	DD	0271H
	DD	0a9H
	DD	0283H
	DD	069H
	DD	0aaH
	DD	025fH
	DD	0208H
	DD	03a4H
	DD	02d7H
	DD	01dcH
	DD	02b5H
	DD	01a9H
	DD	0aeH
	DD	0287H
	DD	049H
	DD	07aH
	DD	014fH
	DD	0212H
	DD	01baH
	DD	0355H
	DD	02b7H
	DD	0f9H
	DD	01bdH
	DD	0203H
	DD	038dH
	DD	0221H
	DD	02bfH
	DD	0397H
	DD	036aH
	DD	01daH
	DD	0372H
	DD	01f4H
	DD	0252H
	DD	0264H
	DD	0281H
	DD	0321H
	DD	0dcH
	DD	0a2H
	DD	0333H
	DD	03d8H
	DD	024dH
	DD	0201H
	DD	01efH
	DD	031fH
	DD	0a1H
	DD	025cH
	DD	03beH
	DD	0215H
	DD	0ddH
	DD	0190H
	DD	0182H
	DD	0363H
	DD	0258H
	DD	030eH
	DD	017eH
	DD	0254H
	DD	019eH
	DD	0abH
	DD	0204H
	DD	0177H
	DD	02aaH
	DD	01e5H
	DD	038fH
	DD	0114H
	DD	062H
	DD	0229H
	DD	0a3H
	DD	0162H
	DD	029aH
	DD	03a5H
	DD	01a8H
	DD	0155H
	DD	0215H
	DD	0366H
	DD	0e3H
	DD	02daH
	DD	01dbH
	DD	0baH
	DD	0107H
	DD	0287H
	DD	0219H
	DD	02aeH
	DD	0258H
	DD	0e0H
	DD	01d5H
	DD	044H
	DD	0302H
	DD	0397H
	DD	0beH
	DD	0175H
	DD	0126H
	DD	0336H
	DD	0328H
	DD	0ceH
	DD	0b8H
	DD	03afH
	DD	031bH
	DD	0180H
	DD	017fH
	DD	01cdH
	DD	0194H
	DD	02f6H
	DD	0347H
	DD	0377H
	DD	02cbH
	DD	043H
	DD	026aH
	DD	0114H
	DD	0ccH
	DD	0396H
	DD	0369H
	DD	0309H
	DD	025cH
	DD	0230H
	DD	03b7H
	DD	0a0H
	DD	0242H
	DD	02d2H
	DD	04fH
	DD	0324H
	DD	060H
	DD	0199H
	DD	02c9H
	DD	03acH
	DD	028cH
	DD	03a6H
	DD	03caH
	DD	01bfH
	DD	013eH
	DD	0161H
	DD	035bH
	DD	02a0H
	DD	070H
	DD	0311H
	DD	0285H
	DD	035fH
	DD	0323H
	DD	015eH
	DD	08bH
	DD	05dH
	DD	0162H
	DD	063H
	DD	0334H
	DD	038cH
	DD	0261H
	DD	0304H
	DD	09aH
	DD	0112H
	DD	0244H
	DD	0b8H
	DD	04fH
	DD	0272H
	DD	0276H
	DD	02e6H
	DD	028dH
	DD	011aH
	DD	02faH
	DD	026fH
	DD	02a8H
	DD	051H
	DD	039fH
	DD	0272H
	DD	0315H
	DD	07dH
	DD	019bH
	DD	0209H
	DD	03aaH
	DD	012cH
	DD	0335H
	DD	04eH
	DD	0157H
	DD	0afH
	DD	080H
	DD	0faH
	DD	0aaH
	DD	0306H
	DD	03ccH
	DD	0113H
	DD	03e7H
	DD	027fH
	DD	01efH
	DD	04eH
	DD	0160H
	DD	07eH
	DD	0359H
	DD	03bcH
	DD	0166H
	DD	026bH
	DD	0244H
	DD	07cH
	DD	02e1H
	DD	0252H
	DD	02bdH
	DD	0264H
	DD	029dH
	DD	070H
	DD	086H
	DD	02b6H
	DD	016bH
	DD	03e0H
	DD	0329H
	DD	02e7H
	DD	0a8H
	DD	03ceH
	DD	03b0H
	DD	0177H
	DD	02ecH
	DD	034H
	DD	0258H
	DD	02ebH
	DD	0282H
	DD	0b6H
	DD	035eH
	DD	051H
	DD	0158H
	DD	0325H
	DD	03dcH
	DD	02e3H
	DD	01ffH
	DD	028fH
	DD	032eH
	DD	014eH
	DD	0f9H
	DD	0203H
	DD	0381H
	DD	03bbH
	DD	0298H
	DD	03d5H
	DD	0289H
	DD	071H
	DD	03ceH
	DD	01cbH
	DD	037dH
	DD	0e4H
	DD	01b1H
	DD	0345H
	DD	0229H
	DD	010cH
	DD	039eH
	DD	0f0H
	DD	066H
	DD	028eH
	DD	01cbH
	DD	033H
	DD	02aeH
	DD	02f2H
	DD	0326H
	DD	02f8H
	DD	01edH
	DD	0193H
	DD	019fH
	DD	018aH
	DD	02afH
	DD	02bcH
	DD	03b2H
	DD	029eH
	DD	0290H
	DD	0262H
	DD	02e2H
	DD	0188H
	DD	02f8H
	DD	031fH
	DD	0377H
	DD	028dH
	DD	03d2H
	DD	0141H
	DD	0240H
	DD	0269H
	DD	0272H
	DD	01f6H
	DD	037eH
	DD	02a7H
	DD	0f3H
	DD	01b8H
	DD	02a8H
	DD	036fH
	DD	0c2H
	DD	023cH
	DD	0280H
	DD	02d4H
	DD	039eH
	DD	038H
	DD	0ccH
	DD	02bcH
	DD	02c3H
	DD	097H
	DD	01c9H
	DD	01c1H
	DD	031dH
	DD	0c3H
	DD	0317H
	DD	022eH
	DD	03b1H
	DD	02a7H
	DD	0129H
	DD	03bH
	DD	057H
	DD	0338H
	DD	02c9H
	DD	0297H
	DD	019cH
	DD	02b5H
	DD	0156H
	DD	025eH
	DD	086H
	DD	06cH
	DD	023bH
	DD	016cH
	DD	0277H
	DD	0d4H
	DD	0aeH
	DD	0283H
	DD	0130H
	DD	0149H
	DD	0157H
	DD	061H
	DD	01aeH
	DD	02efH
	DD	01f1H
	DD	013aH
	DD	03d7H
	DD	0176H
	DD	0336H
	DD	03a0H
	DD	08cH
	DD	0ceH
	DD	049H
	DD	0107H
	DD	03d4H
	DD	02e0H
	DD	036cH
	DD	01deH
	DD	01aeH
	DD	0131H
	DD	0aaH
	DD	0202H
	DD	016cH
	DD	02b4H
	DD	033dH
	DD	052H
	DD	0357H
	DD	03b9H
	DD	02a4H
	DD	0f6H
	DD	0171H
	DD	03caH
	DD	0126H
	DD	02eeH
	DD	0327H
	DD	033bH
	DD	096H
	DD	0316H
	DD	0120H
	DD	039bH
	DD	0324H
	DD	017aH
	DD	0d7H
	DD	033cH
	DD	0250H
	DD	0119H
	DD	0235H
	DD	022bH
	DD	02c6H
	DD	052H
	DD	0380H
	DD	033fH
	DD	0223H
	DD	0105H
	DD	020cH
	DD	01ceH
	DD	0125H
	DD	01d1H
	DD	01f6H
	DD	038H
	DD	0295H
	DD	0335H
	DD	03d0H
	DD	03dfH
	DD	0292H
	DD	0365H
	DD	0389H
	DD	02f6H
	DD	02e9H
	DD	0c1H
	DD	0300H
	DD	0226H
	DD	0260H
	DD	03a5H
	DD	017aH
	DD	011eH
	DD	0d7H
	DD	03d3H
	DD	0318H
	DD	03c1H
	DD	03dH
	DD	02b0H
	DD	0319H
	DD	0284H
	DD	03daH
	DD	0193H
	DD	06aH
	DD	016eH
	DD	0389H
	DD	0284H
	DD	0174H
	DD	0237H
	DD	01d2H
	DD	01b2H
	DD	0285H
	DD	0d2H
	DD	0185H
	DD	0226H
	DD	0397H
	DD	087H
	DD	030cH
	DD	0305H
	DD	027bH
	DD	0185H
	DD	02c3H
	DD	064H
	DD	0272H
	DD	03beH
	DD	0a5H
	DD	01f8H
	DD	0398H
	DD	0b0H
	DD	0c1H
	DD	02c9H
	DD	0359H
	DD	0109H
	DD	0cbH
	DD	032H
	DD	029cH
	DD	06cH
	DD	0285H
	DD	03deH
	DD	0272H
	DD	0c5H
	DD	01feH
	DD	0165H
	DD	0166H
	DD	0352H
	DD	035aH
	DD	016cH
	DD	03a8H
	DD	027eH
_DATA	ENDS
END
